
========================================================================

** ELF Header Information

    File Name: bin\pdm_fft.axf

    Machine class: ELFCLASS32 (32-bit)
    Data encoding: ELFDATA2LSB (Little endian)
    Header version: EV_CURRENT (Current version)
    Operating System ABI: none
    ABI Version: 0
    File Type: ET_EXEC (Executable) (2)
    Machine: EM_ARM (ARM)

    Image Entry point: 0x0000c135
    Flags: EF_ARM_HASENTRY + EF_ARM_ABI_FLOAT_HARD (0x05000402)

    ARM ELF revision: 5 (ABI version 2)

    Conforms to Hard float procedure-call standard

    Built with
    Component: ARM Compiler 5.06 update 6 (build 750) Tool: armasm [4d35ec]
    Component: ARM Compiler 5.06 update 6 (build 750) Tool: armlink [4d35ed]

    Header size: 52 bytes (0x34)
    Program header entry size: 32 bytes (0x20)
    Section header entry size: 40 bytes (0x28)

    Program header entries: 1
    Section header entries: 18

    Program header offset: 653248 (0x0009f7c0)
    Section header offset: 653280 (0x0009f7e0)

    Section header string table index: 17

========================================================================

** Program header #0 (PT_LOAD) [PF_X + PF_W + PF_R + PF_ARM_ENTRY]
    Size : 137256 bytes (48052 bytes in file)
    Virtual address: 0x0000c000 (Alignment 8)


========================================================================

** Section #1 'FLASH' (SHT_PROGBITS) [SHF_ALLOC + SHF_EXECINSTR]
    Size   : 47896 bytes (alignment 4)
    Address: 0x0000c000

    $d
    RESET
    __Vectors
        0x0000c000:    100010a0    ....    DCD    268439712
        0x0000c004:    0000c101    ....    DCD    49409
        0x0000c008:    0000c11f    ....    DCD    49439
        0x0000c00c:    0000c1d5    ....    DCD    49621
        0x0000c010:    0000c121    !...    DCD    49441
        0x0000c014:    0000c123    #...    DCD    49443
        0x0000c018:    0000c125    %...    DCD    49445
        0x0000c01c:    00000000    ....    DCD    0
        0x0000c020:    00000000    ....    DCD    0
        0x0000c024:    00000000    ....    DCD    0
        0x0000c028:    00000000    ....    DCD    0
        0x0000c02c:    0000c127    '...    DCD    49447
        0x0000c030:    0000c129    )...    DCD    49449
        0x0000c034:    00000000    ....    DCD    0
        0x0000c038:    0000c12b    +...    DCD    49451
        0x0000c03c:    0000c12d    -...    DCD    49453
        0x0000c040:    0000c12f    /...    DCD    49455
        0x0000c044:    0000c12f    /...    DCD    49455
        0x0000c048:    0000c12f    /...    DCD    49455
        0x0000c04c:    0000c12f    /...    DCD    49455
        0x0000c050:    0000c12f    /...    DCD    49455
        0x0000c054:    0000c12f    /...    DCD    49455
        0x0000c058:    0000c12f    /...    DCD    49455
        0x0000c05c:    0000c12f    /...    DCD    49455
        0x0000c060:    0000c12f    /...    DCD    49455
        0x0000c064:    0000c12f    /...    DCD    49455
        0x0000c068:    0000c12f    /...    DCD    49455
        0x0000c06c:    0000c12f    /...    DCD    49455
        0x0000c070:    0000c12f    /...    DCD    49455
        0x0000c074:    0000c12f    /...    DCD    49455
        0x0000c078:    0000c12f    /...    DCD    49455
        0x0000c07c:    0000c12f    /...    DCD    49455
        0x0000c080:    0000c12f    /...    DCD    49455
        0x0000c084:    0000c12f    /...    DCD    49455
        0x0000c088:    0000c12f    /...    DCD    49455
        0x0000c08c:    0000da2d    -...    DCD    55853
        0x0000c090:    0000c12f    /...    DCD    49455
        0x0000c094:    0000c12f    /...    DCD    49455
        0x0000c098:    0000c12f    /...    DCD    49455
        0x0000c09c:    0000c12f    /...    DCD    49455
        0x0000c0a0:    0000c12f    /...    DCD    49455
        0x0000c0a4:    0000c12f    /...    DCD    49455
        0x0000c0a8:    0000c12f    /...    DCD    49455
        0x0000c0ac:    0000c12f    /...    DCD    49455
        0x0000c0b0:    0000c12f    /...    DCD    49455
        0x0000c0b4:    0000c12f    /...    DCD    49455
        0x0000c0b8:    0000c12f    /...    DCD    49455
        0x0000c0bc:    0000c12f    /...    DCD    49455
    __Patchable
        0x0000c0c0:    00000000    ....    DCD    0
        0x0000c0c4:    00000000    ....    DCD    0
        0x0000c0c8:    00000000    ....    DCD    0
        0x0000c0cc:    00000000    ....    DCD    0
        0x0000c0d0:    00000000    ....    DCD    0
        0x0000c0d4:    00000000    ....    DCD    0
        0x0000c0d8:    00000000    ....    DCD    0
        0x0000c0dc:    00000000    ....    DCD    0
        0x0000c0e0:    00000000    ....    DCD    0
        0x0000c0e4:    00000000    ....    DCD    0
        0x0000c0e8:    00000000    ....    DCD    0
        0x0000c0ec:    00000000    ....    DCD    0
        0x0000c0f0:    00000000    ....    DCD    0
        0x0000c0f4:    00000000    ....    DCD    0
        0x0000c0f8:    00000000    ....    DCD    0
        0x0000c0fc:    00000000    ....    DCD    0
    $t
    $v0
    Reset_Handler
        0x0000c100:    f64e5088    N..P    MOV      r0,#0xed88
        0x0000c104:    f2ce0000    ....    MOVT     r0,#0xe000
        0x0000c108:    6801        .h      LDR      r1,[r0,#0]
        0x0000c10a:    f4410170    A.p.    ORR      r1,r1,#0xf00000
        0x0000c10e:    6001        .`      STR      r1,[r0,#0]
        0x0000c110:    f3bf8f4f    ..O.    DSB      
        0x0000c114:    f3bf8f6f    ..o.    ISB      
        0x0000c118:    4805        .H      LDR      r0,[pc,#20] ; [0xc130] = 0xc135
        0x0000c11a:    4700        .G      BX       r0
        0x0000c11c:    e7fe        ..      B        0xc11c ; Reset_Handler + 28
    NMI_Handler
        0x0000c11e:    e7fe        ..      B        NMI_Handler ; 0xc11e
    MemManage_Handler
        0x0000c120:    e7fe        ..      B        MemManage_Handler ; 0xc120
    BusFault_Handler
        0x0000c122:    e7fe        ..      B        BusFault_Handler ; 0xc122
    UsageFault_Handler
        0x0000c124:    e7fe        ..      B        UsageFault_Handler ; 0xc124
    SVC_Handler
        0x0000c126:    e7fe        ..      B        SVC_Handler ; 0xc126
    DebugMon_Handler
        0x0000c128:    e7fe        ..      B        DebugMon_Handler ; 0xc128
    PendSV_Handler
        0x0000c12a:    e7fe        ..      B        PendSV_Handler ; 0xc12a
    SysTick_Handler
        0x0000c12c:    e7fe        ..      B        SysTick_Handler ; 0xc12c
    am_adc_isr
    am_ble_isr
    am_brownout_isr
    am_clkgen_isr
    am_ctimer_isr
    am_gpio_isr
    am_iomaster0_isr
    am_iomaster1_isr
    am_iomaster2_isr
    am_iomaster3_isr
    am_iomaster4_isr
    am_iomaster5_isr
    am_ioslave_acc_isr
    am_ioslave_ios_isr
    am_mspi0_isr
    am_rtc_isr
    am_scard_isr
    am_software0_isr
    am_stimer_cmpr0_isr
    am_stimer_cmpr1_isr
    am_stimer_cmpr2_isr
    am_stimer_cmpr3_isr
    am_stimer_cmpr4_isr
    am_stimer_cmpr5_isr
    am_stimer_cmpr6_isr
    am_stimer_cmpr7_isr
    am_stimer_isr
    am_uart0_isr
    am_uart1_isr
    am_uart_isr
    am_vcomp_isr
    am_watchdog_isr
        0x0000c12e:    e7fe        ..      B        am_adc_isr ; 0xc12e
    $d
        0x0000c130:    0000c135    5...    DCD    49461
    $t
    !!!main
    __main
        0x0000c134:    f000f802    ....    BL       __scatterload ; 0xc13c
        0x0000c138:    f000f83c    ..<.    BL       __rt_entry ; 0xc1b4
    !!!scatter
    __scatterload
    __scatterload_rt2
    __scatterload_rt2_thumb_only
        0x0000c13c:    a00a        ..      ADR      r0,{pc}+0x2c ; 0xc168
        0x0000c13e:    e8900c00    ....    LDM      r0,{r10,r11}
        0x0000c142:    4482        .D      ADD      r10,r10,r0
        0x0000c144:    4483        .D      ADD      r11,r11,r0
        0x0000c146:    f1aa0701    ....    SUB      r7,r10,#1
    __scatterload_null
        0x0000c14a:    45da        .E      CMP      r10,r11
        0x0000c14c:    d101        ..      BNE      0xc152 ; __scatterload_null + 8
        0x0000c14e:    f000f831    ..1.    BL       __rt_entry ; 0xc1b4
        0x0000c152:    f2af0e09    ....    ADR      lr,{pc}-7 ; 0xc14b
        0x0000c156:    e8ba000f    ....    LDM      r10!,{r0-r3}
        0x0000c15a:    f0130f01    ....    TST      r3,#1
        0x0000c15e:    bf18        ..      IT       NE
        0x0000c160:    1afb        ..      SUBNE    r3,r7,r3
        0x0000c162:    f0430301    C...    ORR      r3,r3,#1
        0x0000c166:    4718        .G      BX       r3
    $d
        0x0000c168:    0000b990    ....    DCD    47504
        0x0000c16c:    0000b9b0    ....    DCD    47536
    $t
    !!handler_copy
    __scatterload_copy
        0x0000c170:    3a10        .:      SUBS     r2,r2,#0x10
        0x0000c172:    bf24        $.      ITT      CS
        0x0000c174:    c878        x.      LDMCS    r0!,{r3-r6}
        0x0000c176:    c178        x.      STMCS    r1!,{r3-r6}
        0x0000c178:    d8fa        ..      BHI      __scatterload_copy ; 0xc170
        0x0000c17a:    0752        R.      LSLS     r2,r2,#29
        0x0000c17c:    bf24        $.      ITT      CS
        0x0000c17e:    c830        0.      LDMCS    r0!,{r4,r5}
        0x0000c180:    c130        0.      STMCS    r1!,{r4,r5}
        0x0000c182:    bf44        D.      ITT      MI
        0x0000c184:    6804        .h      LDRMI    r4,[r0,#0]
        0x0000c186:    600c        .`      STRMI    r4,[r1,#0]
        0x0000c188:    4770        pG      BX       lr
        0x0000c18a:    0000        ..      MOVS     r0,r0
    !!handler_zi
    __scatterload_zeroinit
        0x0000c18c:    2300        .#      MOVS     r3,#0
        0x0000c18e:    2400        .$      MOVS     r4,#0
        0x0000c190:    2500        .%      MOVS     r5,#0
        0x0000c192:    2600        .&      MOVS     r6,#0
        0x0000c194:    3a10        .:      SUBS     r2,r2,#0x10
        0x0000c196:    bf28        (.      IT       CS
        0x0000c198:    c178        x.      STMCS    r1!,{r3-r6}
        0x0000c19a:    d8fb        ..      BHI      0xc194 ; __scatterload_zeroinit + 8
        0x0000c19c:    0752        R.      LSLS     r2,r2,#29
        0x0000c19e:    bf28        (.      IT       CS
        0x0000c1a0:    c130        0.      STMCS    r1!,{r4,r5}
        0x0000c1a2:    bf48        H.      IT       MI
        0x0000c1a4:    600b        .`      STRMI    r3,[r1,#0]
        0x0000c1a6:    4770        pG      BX       lr
    .ARM.Collect$$libinit$$00000000
    __rt_lib_init
        0x0000c1a8:    b51f        ..      PUSH     {r0-r4,lr}
    .ARM.Collect$$libinit$$00000001
    __rt_lib_init_fp_1
        0x0000c1aa:    f002fe70    ..p.    BL       _fp_init ; 0xee8e
    .ARM.Collect$$libinit$$00000004
    .ARM.Collect$$libinit$$0000000A
    .ARM.Collect$$libinit$$0000000C
    .ARM.Collect$$libinit$$0000000E
    .ARM.Collect$$libinit$$00000011
    .ARM.Collect$$libinit$$00000013
    .ARM.Collect$$libinit$$00000015
    .ARM.Collect$$libinit$$00000017
    .ARM.Collect$$libinit$$00000019
    .ARM.Collect$$libinit$$0000001B
    .ARM.Collect$$libinit$$0000001D
    .ARM.Collect$$libinit$$0000001F
    .ARM.Collect$$libinit$$00000021
    .ARM.Collect$$libinit$$00000023
    .ARM.Collect$$libinit$$00000025
    .ARM.Collect$$libinit$$0000002C
    .ARM.Collect$$libinit$$0000002E
    .ARM.Collect$$libinit$$00000030
    .ARM.Collect$$libinit$$00000032
    .ARM.Collect$$libinit$$00000033
    __rt_lib_init_alloca_1
    __rt_lib_init_argv_1
    __rt_lib_init_atexit_1
    __rt_lib_init_clock_1
    __rt_lib_init_cpp_1
    __rt_lib_init_exceptions_1
    __rt_lib_init_fp_trap_1
    __rt_lib_init_getenv_1
    __rt_lib_init_heap_1
    __rt_lib_init_lc_collate_1
    __rt_lib_init_lc_ctype_1
    __rt_lib_init_lc_monetary_1
    __rt_lib_init_lc_numeric_1
    __rt_lib_init_lc_time_1
    __rt_lib_init_preinit_1
    __rt_lib_init_rand_1
    __rt_lib_init_return
    __rt_lib_init_signal_1
    __rt_lib_init_stdio_1
    __rt_lib_init_user_alloc_1
        0x0000c1ae:    bd1f        ..      POP      {r0-r4,pc}
    .ARM.Collect$$libshutdown$$00000000
    __rt_lib_shutdown
        0x0000c1b0:    b510        ..      PUSH     {r4,lr}
    .ARM.Collect$$libshutdown$$00000002
    .ARM.Collect$$libshutdown$$00000004
    .ARM.Collect$$libshutdown$$00000007
    .ARM.Collect$$libshutdown$$0000000A
    .ARM.Collect$$libshutdown$$0000000C
    .ARM.Collect$$libshutdown$$0000000F
    .ARM.Collect$$libshutdown$$00000010
    __rt_lib_shutdown_cpp_1
    __rt_lib_shutdown_fp_trap_1
    __rt_lib_shutdown_heap_1
    __rt_lib_shutdown_return
    __rt_lib_shutdown_signal_1
    __rt_lib_shutdown_stdio_1
    __rt_lib_shutdown_user_alloc_1
        0x0000c1b2:    bd10        ..      POP      {r4,pc}
    .ARM.Collect$$rtentry$$00000000
    .ARM.Collect$$rtentry$$00000002
    .ARM.Collect$$rtentry$$00000004
    __rt_entry
    __rt_entry_presh_1
    __rt_entry_sh
        0x0000c1b4:    f000f84e    ..N.    BL       __user_setup_stackheap ; 0xc254
        0x0000c1b8:    4611        .F      MOV      r1,r2
    .ARM.Collect$$rtentry$$00000009
    .ARM.Collect$$rtentry$$0000000A
    __rt_entry_li
    __rt_entry_postsh_1
        0x0000c1ba:    f7fffff5    ....    BL       __rt_lib_init ; 0xc1a8
    .ARM.Collect$$rtentry$$0000000C
    .ARM.Collect$$rtentry$$0000000D
    __rt_entry_main
    __rt_entry_postli_1
        0x0000c1be:    f002fa97    ....    BL       main ; 0xe6f0
        0x0000c1c2:    f000f86c    ..l.    BL       exit ; 0xc29e
    .ARM.Collect$$rtexit$$00000000
    __rt_exit
        0x0000c1c6:    b403        ..      PUSH     {r0,r1}
    .ARM.Collect$$rtexit$$00000002
    .ARM.Collect$$rtexit$$00000003
    __rt_exit_ls
    __rt_exit_prels_1
        0x0000c1c8:    f7fffff2    ....    BL       __rt_lib_shutdown ; 0xc1b0
    .ARM.Collect$$rtexit$$00000004
    __rt_exit_exit
        0x0000c1cc:    bc03        ..      POP      {r0,r1}
        0x0000c1ce:    f000f86f    ..o.    BL       _sys_exit ; 0xc2b0
        0x0000c1d2:    0000        ..      MOVS     r0,r0
    .emb_text
    $v0
    HardFault_Handler
        0x0000c1d4:    b501        ..      PUSH     {r0,lr}
        0x0000c1d6:    f01e0f04    ....    TST      lr,#4
        0x0000c1da:    bf0a        ..      ITET     EQ
        0x0000c1dc:    f3ef8008    ....    MRSEQ    r0,MSP
        0x0000c1e0:    f3ef8009    ....    MRSNE    r0,PSP
        0x0000c1e4:    f1100008    ....    ADDSEQ   r0,r0,#8
        0x0000c1e8:    f001fc48    ..H.    BL       am_util_faultisr_collect_data ; 0xda7c
        0x0000c1ec:    bd01        ..      POP      {r0,pc}
    getStackedReg
        0x0000c1ee:    0080        ..      LSLS     r0,r0,#2
        0x0000c1f0:    1840        @.      ADDS     r0,r0,r1
        0x0000c1f2:    6800        .h      LDR      r0,[r0,#0]
        0x0000c1f4:    4770        pG      BX       lr
        0x0000c1f6:    0000        ..      MOVS     r0,r0
    .emb_text
    $v0
    am_hal_interrupt_master_enable
        0x0000c1f8:    f3ef8010    ....    MRS      r0,PRIMASK
        0x0000c1fc:    b662        b.      CPSIE    i
        0x0000c1fe:    4770        pG      BX       lr
    am_hal_interrupt_master_disable
        0x0000c200:    f3ef8010    ....    MRS      r0,PRIMASK
        0x0000c204:    b672        r.      CPSID    i
        0x0000c206:    4770        pG      BX       lr
    am_hal_interrupt_master_set
        0x0000c208:    f3808810    ....    MSR      PRIMASK,r0
        0x0000c20c:    4770        pG      BX       lr
        0x0000c20e:    0000        ..      MOVS     r0,r0
    .text
    $v0
    __user_initial_stackheap
        0x0000c210:    4802        .H      LDR      r0,[pc,#8] ; [0xc21c] = 0x10015d10
        0x0000c212:    4903        .I      LDR      r1,[pc,#12] ; [0xc220] = 0x100010a0
        0x0000c214:    4a01        .J      LDR      r2,[pc,#4] ; [0xc21c] = 0x10015d10
        0x0000c216:    4b03        .K      LDR      r3,[pc,#12] ; [0xc224] = 0x100000a0
        0x0000c218:    4770        pG      BX       lr
    $d
        0x0000c21a:    0000        ..      DCW    0
        0x0000c21c:    10015d10    .]..    DCD    268524816
        0x0000c220:    100010a0    ....    DCD    268439712
        0x0000c224:    100000a0    ....    DCD    268435616
    $t
    .text
    __use_two_region_memory
        0x0000c228:    4770        pG      BX       lr
    __rt_heap_escrow$2region
        0x0000c22a:    4770        pG      BX       lr
    __rt_heap_expand$2region
        0x0000c22c:    4770        pG      BX       lr
    .text
    __read_errno
        0x0000c22e:    b510        ..      PUSH     {r4,lr}
        0x0000c230:    f000f808    ....    BL       __aeabi_errno_addr ; 0xc244
        0x0000c234:    6800        .h      LDR      r0,[r0,#0]
        0x0000c236:    bd10        ..      POP      {r4,pc}
    __set_errno
        0x0000c238:    b510        ..      PUSH     {r4,lr}
        0x0000c23a:    4604        .F      MOV      r4,r0
        0x0000c23c:    f000f802    ....    BL       __aeabi_errno_addr ; 0xc244
        0x0000c240:    6004        .`      STR      r4,[r0,#0]
        0x0000c242:    bd10        ..      POP      {r4,pc}
    .text
    __aeabi_errno_addr
    __errno$intlibspace
    __rt_errno_addr$intlibspace
        0x0000c244:    4800        .H      LDR      r0,[pc,#0] ; [0xc248] = 0x10015cac
        0x0000c246:    4770        pG      BX       lr
    $d
        0x0000c248:    10015cac    .\..    DCD    268524716
    $t
    .text
    __user_libspace
    __user_perproc_libspace
    __user_perthread_libspace
        0x0000c24c:    4800        .H      LDR      r0,[pc,#0] ; [0xc250] = 0x10015cac
        0x0000c24e:    4770        pG      BX       lr
    $d
        0x0000c250:    10015cac    .\..    DCD    268524716
    $t
    .text
    __user_setup_stackheap
        0x0000c254:    4675        uF      MOV      r5,lr
        0x0000c256:    f7fffff9    ....    BL       __user_libspace ; 0xc24c
        0x0000c25a:    46ae        .F      MOV      lr,r5
        0x0000c25c:    0005        ..      MOVS     r5,r0
        0x0000c25e:    4669        iF      MOV      r1,sp
        0x0000c260:    4653        SF      MOV      r3,r10
        0x0000c262:    f0200007     ...    BIC      r0,r0,#7
        0x0000c266:    4685        .F      MOV      sp,r0
        0x0000c268:    b018        ..      ADD      sp,sp,#0x60
        0x0000c26a:    b520         .      PUSH     {r5,lr}
        0x0000c26c:    f7ffffd0    ....    BL       __user_initial_stackheap ; 0xc210
        0x0000c270:    e8bd4020    .. @    POP      {r5,lr}
        0x0000c274:    f04f0600    O...    MOV      r6,#0
        0x0000c278:    f04f0700    O...    MOV      r7,#0
        0x0000c27c:    f04f0800    O...    MOV      r8,#0
        0x0000c280:    f04f0b00    O...    MOV      r11,#0
        0x0000c284:    f0210107    !...    BIC      r1,r1,#7
        0x0000c288:    46ac        .F      MOV      r12,r5
        0x0000c28a:    e8ac09c0    ....    STM      r12!,{r6-r8,r11}
        0x0000c28e:    e8ac09c0    ....    STM      r12!,{r6-r8,r11}
        0x0000c292:    e8ac09c0    ....    STM      r12!,{r6-r8,r11}
        0x0000c296:    e8ac09c0    ....    STM      r12!,{r6-r8,r11}
        0x0000c29a:    468d        .F      MOV      sp,r1
        0x0000c29c:    4770        pG      BX       lr
    .text
    exit
        0x0000c29e:    b510        ..      PUSH     {r4,lr}
        0x0000c2a0:    4604        .F      MOV      r4,r0
        0x0000c2a2:    f3af8000    ....    NOP.W    
        0x0000c2a6:    4620         F      MOV      r0,r4
        0x0000c2a8:    e8bd4010    ...@    POP      {r4,lr}
        0x0000c2ac:    f7ffbf8b    ....    B.W      __rt_exit ; 0xc1c6
    .text
    _sys_exit
        0x0000c2b0:    4901        .I      LDR      r1,[pc,#4] ; [0xc2b8] = 0x20026
        0x0000c2b2:    2018        .       MOVS     r0,#0x18
        0x0000c2b4:    beab        ..      BKPT     #0xab
        0x0000c2b6:    e7fe        ..      B        0xc2b6 ; _sys_exit + 6
    $d
        0x0000c2b8:    00020026    &...    DCD    131110
    $t
    .text
    __I$use$semihosting
    __use_no_semihosting_swi
        0x0000c2bc:    4770        pG      BX       lr
    .text
    __semihosting_library_function
        0x0000c2be:    0000        ..      MOVS     r0,r0
    $t.0
    arm_bitreversal_f32
        0x0000c2c0:    e92d4ff0    -..O    PUSH     {r4-r11,lr}
        0x0000c2c4:    b081        ..      SUB      sp,sp,#4
        0x0000c2c6:    2601        .&      MOVS     r6,#1
        0x0000c2c8:    f06f0401    o...    MVN      r4,#1
        0x0000c2cc:    ea4f0e51    O.Q.    LSR      lr,r1,#1
        0x0000c2d0:    eb060751    ..Q.    ADD      r7,r6,r1,LSR #1
        0x0000c2d4:    eb040851    ..Q.    ADD      r8,r4,r1,LSR #1
        0x0000c2d8:    ea4f0942    O.B.    LSL      r9,r2,#1
        0x0000c2dc:    2400        .$      MOVS     r4,#0
        0x0000c2de:    2500        .%      MOVS     r5,#0
        0x0000c2e0:    9700        ..      STR      r7,[sp,#0]
        0x0000c2e2:    bf00        ..      NOP      
        0x0000c2e4:    b2ae        ..      UXTH     r6,r5
        0x0000c2e6:    42b4        .B      CMP      r4,r6
        0x0000c2e8:    ea4f0544    O.D.    LSL      r5,r4,#1
        0x0000c2ec:    d22b        +.      BCS      0xc346 ; arm_bitreversal_f32 + 134
        0x0000c2ee:    f8501036    P.6.    LDR      r1,[r0,r6,LSL #3]
        0x0000c2f2:    f8507025    P.%p    LDR      r7,[r0,r5,LSL #2]
        0x0000c2f6:    00f2        ..      LSLS     r2,r6,#3
        0x0000c2f8:    f8401025    @.%.    STR      r1,[r0,r5,LSL #2]
        0x0000c2fc:    f0450101    E...    ORR      r1,r5,#1
        0x0000c300:    3204        .2      ADDS     r2,#4
        0x0000c302:    f8407036    @.6p    STR      r7,[r0,r6,LSL #3]
        0x0000c306:    5887        .X      LDR      r7,[r0,r2]
        0x0000c308:    f850a021    P.!.    LDR      r10,[r0,r1,LSL #2]
        0x0000c30c:    f8407021    @.!p    STR      r7,[r0,r1,LSL #2]
        0x0000c310:    f840a002    @...    STR      r10,[r0,r2]
        0x0000c314:    9a00        ..      LDR      r2,[sp,#0]
        0x0000c316:    18a1        ..      ADDS     r1,r4,r2
        0x0000c318:    4432        2D      ADD      r2,r2,r6
        0x0000c31a:    f850b031    P.1.    LDR      r11,[r0,r1,LSL #3]
        0x0000c31e:    f8507032    P.2p    LDR      r7,[r0,r2,LSL #3]
        0x0000c322:    ea4f0ac1    O...    LSL      r10,r1,#3
        0x0000c326:    ea4f0cc2    O...    LSL      r12,r2,#3
        0x0000c32a:    f8407031    @.1p    STR      r7,[r0,r1,LSL #3]
        0x0000c32e:    f840b032    @.2.    STR      r11,[r0,r2,LSL #3]
        0x0000c332:    f10a0104    ....    ADD      r1,r10,#4
        0x0000c336:    f10c0204    ....    ADD      r2,r12,#4
        0x0000c33a:    5887        .X      LDR      r7,[r0,r2]
        0x0000c33c:    f850c001    P...    LDR      r12,[r0,r1]
        0x0000c340:    5047        GP      STR      r7,[r0,r1]
        0x0000c342:    f840c002    @...    STR      r12,[r0,r2]
        0x0000c346:    eb06010e    ....    ADD      r1,r6,lr
        0x0000c34a:    eb000685    ....    ADD      r6,r0,r5,LSL #2
        0x0000c34e:    f8507031    P.1p    LDR      r7,[r0,r1,LSL #3]
        0x0000c352:    e9d65a02    ...Z    LDRD     r5,r10,[r6,#8]
        0x0000c356:    ea4f0cc1    O...    LSL      r12,r1,#3
        0x0000c35a:    60b7        .`      STR      r7,[r6,#8]
        0x0000c35c:    f10c0704    ....    ADD      r7,r12,#4
        0x0000c360:    f8405031    @.1P    STR      r5,[r0,r1,LSL #3]
        0x0000c364:    1ca1        ..      ADDS     r1,r4,#2
        0x0000c366:    59c2        .Y      LDR      r2,[r0,r7]
        0x0000c368:    881d        ..      LDRH     r5,[r3,#0]
        0x0000c36a:    b28c        ..      UXTH     r4,r1
        0x0000c36c:    4544        DE      CMP      r4,r8
        0x0000c36e:    444b        KD      ADD      r3,r3,r9
        0x0000c370:    60f2        .`      STR      r2,[r6,#0xc]
        0x0000c372:    f840a007    @...    STR      r10,[r0,r7]
        0x0000c376:    d9b5        ..      BLS      0xc2e4 ; arm_bitreversal_f32 + 36
        0x0000c378:    b001        ..      ADD      sp,sp,#4
        0x0000c37a:    e8bd8ff0    ....    POP      {r4-r11,pc}
    arm_cfft_radix4_f32
        0x0000c37e:    b570        p.      PUSH     {r4-r6,lr}
        0x0000c380:    4604        .F      MOV      r4,r0
        0x0000c382:    7880        .x      LDRB     r0,[r0,#2]
        0x0000c384:    8825        %.      LDRH     r5,[r4,#0]
        0x0000c386:    6862        bh      LDR      r2,[r4,#4]
        0x0000c388:    89a3        ..      LDRH     r3,[r4,#0xc]
        0x0000c38a:    2801        .(      CMP      r0,#1
        0x0000c38c:    460e        .F      MOV      r6,r1
        0x0000c38e:    d106        ..      BNE      0xc39e ; arm_cfft_radix4_f32 + 32
        0x0000c390:    ed940a04    ....    VLDR     s0,[r4,#0x10]
        0x0000c394:    4630        0F      MOV      r0,r6
        0x0000c396:    4629        )F      MOV      r1,r5
        0x0000c398:    f000fb12    ....    BL       arm_radix4_butterfly_inverse_f32 ; 0xc9c0
        0x0000c39c:    e003        ..      B        0xc3a6 ; arm_cfft_radix4_f32 + 40
        0x0000c39e:    4630        0F      MOV      r0,r6
        0x0000c3a0:    4629        )F      MOV      r1,r5
        0x0000c3a2:    f000f95f    .._.    BL       arm_radix4_butterfly_f32 ; 0xc664
        0x0000c3a6:    78e0        .x      LDRB     r0,[r4,#3]
        0x0000c3a8:    2801        .(      CMP      r0,#1
        0x0000c3aa:    bf18        ..      IT       NE
        0x0000c3ac:    bd70        p.      POPNE    {r4-r6,pc}
        0x0000c3ae:    8821        !.      LDRH     r1,[r4,#0]
        0x0000c3b0:    89e2        ..      LDRH     r2,[r4,#0xe]
        0x0000c3b2:    68a3        .h      LDR      r3,[r4,#8]
        0x0000c3b4:    4630        0F      MOV      r0,r6
        0x0000c3b6:    e8bd4070    ..p@    POP      {r4-r6,lr}
        0x0000c3ba:    f7ffbf81    ....    B.W      arm_bitreversal_f32 ; 0xc2c0
        0x0000c3be:    0000        ..      MOVS     r0,r0
    arm_cfft_radix4_init_f32
        0x0000c3c0:    f64f2cf8    O..,    MOV      r12,#0xfaf8
        0x0000c3c4:    7082        .p      STRB     r2,[r0,#2]
        0x0000c3c6:    f24f22f8    O.."    MOV      r2,#0xf2f8
        0x0000c3ca:    f2c00c00    ....    MOVT     r12,#0
        0x0000c3ce:    70c3        .p      STRB     r3,[r0,#3]
        0x0000c3d0:    f2c00200    ....    MOVT     r2,#0
        0x0000c3d4:    29ff        .)      CMP      r1,#0xff
        0x0000c3d6:    f04f03ff    O...    MOV      r3,#0xff
        0x0000c3da:    8001        ..      STRH     r1,[r0,#0]
        0x0000c3dc:    f8c0c004    ....    STR      r12,[r0,#4]
        0x0000c3e0:    dd0d        ..      BLE      0xc3fe ; arm_cfft_radix4_init_f32 + 62
        0x0000c3e2:    f5b17f80    ....    CMP      r1,#0x100
        0x0000c3e6:    d013        ..      BEQ      0xc410 ; arm_cfft_radix4_init_f32 + 80
        0x0000c3e8:    f5b15f80    ..._    CMP      r1,#0x1000
        0x0000c3ec:    d015        ..      BEQ      0xc41a ; arm_cfft_radix4_init_f32 + 90
        0x0000c3ee:    f5b16f80    ...o    CMP      r1,#0x400
        0x0000c3f2:    d122        ".      BNE      0xc43a ; arm_cfft_radix4_init_f32 + 122
        0x0000c3f4:    ed9f0a16    ....    VLDR     s0,[pc,#88] ; [0xc450] = 0x3a800000
        0x0000c3f8:    3206        .2      ADDS     r2,#6
        0x0000c3fa:    2104        .!      MOVS     r1,#4
        0x0000c3fc:    e017        ..      B        0xc42e ; arm_cfft_radix4_init_f32 + 110
        0x0000c3fe:    2910        .)      CMP      r1,#0x10
        0x0000c400:    d00f        ..      BEQ      0xc422 ; arm_cfft_radix4_init_f32 + 98
        0x0000c402:    2940        @)      CMP      r1,#0x40
        0x0000c404:    d119        ..      BNE      0xc43a ; arm_cfft_radix4_init_f32 + 122
        0x0000c406:    ed9f0a10    ....    VLDR     s0,[pc,#64] ; [0xc448] = 0x3c800000
        0x0000c40a:    327e        ~2      ADDS     r2,r2,#0x7e
        0x0000c40c:    2140        @!      MOVS     r1,#0x40
        0x0000c40e:    e00e        ..      B        0xc42e ; arm_cfft_radix4_init_f32 + 110
        0x0000c410:    ed9f0a0e    ....    VLDR     s0,[pc,#56] ; [0xc44c] = 0x3b800000
        0x0000c414:    321e        .2      ADDS     r2,r2,#0x1e
        0x0000c416:    2110        .!      MOVS     r1,#0x10
        0x0000c418:    e009        ..      B        0xc42e ; arm_cfft_radix4_init_f32 + 110
        0x0000c41a:    ed9f0a09    ....    VLDR     s0,[pc,#36] ; [0xc440] = 0x39800000
        0x0000c41e:    2101        .!      MOVS     r1,#1
        0x0000c420:    e005        ..      B        0xc42e ; arm_cfft_radix4_init_f32 + 110
        0x0000c422:    ed9f0a08    ....    VLDR     s0,[pc,#32] ; [0xc444] = 0x3d800000
        0x0000c426:    f50272ff    ...r    ADD      r2,r2,#0x1fe
        0x0000c42a:    f44f7180    O..q    MOV      r1,#0x100
        0x0000c42e:    2300        .#      MOVS     r3,#0
        0x0000c430:    8181        ..      STRH     r1,[r0,#0xc]
        0x0000c432:    81c1        ..      STRH     r1,[r0,#0xe]
        0x0000c434:    6082        .`      STR      r2,[r0,#8]
        0x0000c436:    ed800a04    ....    VSTR     s0,[r0,#0x10]
        0x0000c43a:    b258        X.      SXTB     r0,r3
        0x0000c43c:    4770        pG      BX       lr
        0x0000c43e:    bf00        ..      NOP      
    $d.1
        0x0000c440:    39800000    ...9    DCD    964689920
        0x0000c444:    3d800000    ...=    DCD    1031798784
        0x0000c448:    3c800000    ...<    DCD    1015021568
        0x0000c44c:    3b800000    ...;    DCD    998244352
        0x0000c450:    3a800000    ...:    DCD    981467136
    $t.0
    arm_cmplx_mag_f32
        0x0000c454:    e92d43f0    -..C    PUSH     {r4-r9,lr}
        0x0000c458:    b081        ..      SUB      sp,sp,#4
        0x0000c45a:    ed2d8b02    -...    VPUSH    {d8}
        0x0000c45e:    460c        .F      MOV      r4,r1
        0x0000c460:    2100        .!      MOVS     r1,#0
        0x0000c462:    4690        .F      MOV      r8,r2
        0x0000c464:    ebb10f92    ....    CMP      r1,r2,LSR #2
        0x0000c468:    4605        .F      MOV      r5,r0
        0x0000c46a:    d074        t.      BEQ      0xc556 ; arm_cmplx_mag_f32 + 258
        0x0000c46c:    ea4f0798    O...    LSR      r7,r8,#2
        0x0000c470:    ed950a00    ....    VLDR     s0,[r5,#0]
        0x0000c474:    ed951a01    ....    VLDR     s2,[r5,#4]
        0x0000c478:    ee200a00     ...    VMUL.F32 s0,s0,s0
        0x0000c47c:    ee211a01    !...    VMUL.F32 s2,s2,s2
        0x0000c480:    ee308a01    0...    VADD.F32 s16,s0,s2
        0x0000c484:    eeb00a48    ..H.    VMOV.F32 s0,s16
        0x0000c488:    f000fc57    ..W.    BL       __hardfp_sqrtf ; 0xcd3a
        0x0000c48c:    eeb40a40    ..@.    VCMP.F32 s0,s0
        0x0000c490:    eef1fa10    ....    VMRS     APSR_nzcv,FPSCR
        0x0000c494:    d649        I.      BVS      0xc52a ; arm_cmplx_mag_f32 + 214
        0x0000c496:    ed840a00    ....    VSTR     s0,[r4,#0]
        0x0000c49a:    ed950a02    ....    VLDR     s0,[r5,#8]
        0x0000c49e:    ed951a03    ....    VLDR     s2,[r5,#0xc]
        0x0000c4a2:    ee200a00     ...    VMUL.F32 s0,s0,s0
        0x0000c4a6:    ee211a01    !...    VMUL.F32 s2,s2,s2
        0x0000c4aa:    ee308a01    0...    VADD.F32 s16,s0,s2
        0x0000c4ae:    eeb00a48    ..H.    VMOV.F32 s0,s16
        0x0000c4b2:    f000fc42    ..B.    BL       __hardfp_sqrtf ; 0xcd3a
        0x0000c4b6:    eeb40a40    ..@.    VCMP.F32 s0,s0
        0x0000c4ba:    eef1fa10    ....    VMRS     APSR_nzcv,FPSCR
        0x0000c4be:    d639        9.      BVS      0xc534 ; arm_cmplx_mag_f32 + 224
        0x0000c4c0:    ed840a01    ....    VSTR     s0,[r4,#4]
        0x0000c4c4:    ed950a04    ....    VLDR     s0,[r5,#0x10]
        0x0000c4c8:    ed951a05    ....    VLDR     s2,[r5,#0x14]
        0x0000c4cc:    ee200a00     ...    VMUL.F32 s0,s0,s0
        0x0000c4d0:    ee211a01    !...    VMUL.F32 s2,s2,s2
        0x0000c4d4:    ee308a01    0...    VADD.F32 s16,s0,s2
        0x0000c4d8:    eeb00a48    ..H.    VMOV.F32 s0,s16
        0x0000c4dc:    f000fc2d    ..-.    BL       __hardfp_sqrtf ; 0xcd3a
        0x0000c4e0:    eeb40a40    ..@.    VCMP.F32 s0,s0
        0x0000c4e4:    eef1fa10    ....    VMRS     APSR_nzcv,FPSCR
        0x0000c4e8:    d629        ).      BVS      0xc53e ; arm_cmplx_mag_f32 + 234
        0x0000c4ea:    ed840a02    ....    VSTR     s0,[r4,#8]
        0x0000c4ee:    ed950a06    ....    VLDR     s0,[r5,#0x18]
        0x0000c4f2:    ed951a07    ....    VLDR     s2,[r5,#0x1c]
        0x0000c4f6:    ee200a00     ...    VMUL.F32 s0,s0,s0
        0x0000c4fa:    ee211a01    !...    VMUL.F32 s2,s2,s2
        0x0000c4fe:    ee308a01    0...    VADD.F32 s16,s0,s2
        0x0000c502:    eeb00a48    ..H.    VMOV.F32 s0,s16
        0x0000c506:    f1050920    .. .    ADD      r9,r5,#0x20
        0x0000c50a:    f1040610    ....    ADD      r6,r4,#0x10
        0x0000c50e:    f000fc14    ....    BL       __hardfp_sqrtf ; 0xcd3a
        0x0000c512:    eeb40a40    ..@.    VCMP.F32 s0,s0
        0x0000c516:    eef1fa10    ....    VMRS     APSR_nzcv,FPSCR
        0x0000c51a:    d615        ..      BVS      0xc548 ; arm_cmplx_mag_f32 + 244
        0x0000c51c:    ed840a03    ....    VSTR     s0,[r4,#0xc]
        0x0000c520:    3f01        .?      SUBS     r7,#1
        0x0000c522:    464d        MF      MOV      r5,r9
        0x0000c524:    4634        4F      MOV      r4,r6
        0x0000c526:    d1a3        ..      BNE      0xc470 ; arm_cmplx_mag_f32 + 28
        0x0000c528:    e013        ..      B        0xc552 ; arm_cmplx_mag_f32 + 254
        0x0000c52a:    eeb00a48    ..H.    VMOV.F32 s0,s16
        0x0000c52e:    f000fc04    ....    BL       __hardfp_sqrtf ; 0xcd3a
        0x0000c532:    e7b0        ..      B        0xc496 ; arm_cmplx_mag_f32 + 66
        0x0000c534:    eeb00a48    ..H.    VMOV.F32 s0,s16
        0x0000c538:    f000fbff    ....    BL       __hardfp_sqrtf ; 0xcd3a
        0x0000c53c:    e7c0        ..      B        0xc4c0 ; arm_cmplx_mag_f32 + 108
        0x0000c53e:    eeb00a48    ..H.    VMOV.F32 s0,s16
        0x0000c542:    f000fbfa    ....    BL       __hardfp_sqrtf ; 0xcd3a
        0x0000c546:    e7d0        ..      B        0xc4ea ; arm_cmplx_mag_f32 + 150
        0x0000c548:    eeb00a48    ..H.    VMOV.F32 s0,s16
        0x0000c54c:    f000fbf5    ....    BL       __hardfp_sqrtf ; 0xcd3a
        0x0000c550:    e7e4        ..      B        0xc51c ; arm_cmplx_mag_f32 + 200
        0x0000c552:    4634        4F      MOV      r4,r6
        0x0000c554:    464d        MF      MOV      r5,r9
        0x0000c556:    f0180603    ....    ANDS     r6,r8,#3
        0x0000c55a:    d020         .      BEQ      0xc59e ; arm_cmplx_mag_f32 + 330
        0x0000c55c:    ed950a00    ....    VLDR     s0,[r5,#0]
        0x0000c560:    ed951a01    ....    VLDR     s2,[r5,#4]
        0x0000c564:    ee200a00     ...    VMUL.F32 s0,s0,s0
        0x0000c568:    ee211a01    !...    VMUL.F32 s2,s2,s2
        0x0000c56c:    ee308a01    0...    VADD.F32 s16,s0,s2
        0x0000c570:    eeb00a48    ..H.    VMOV.F32 s0,s16
        0x0000c574:    1d27        '.      ADDS     r7,r4,#4
        0x0000c576:    f000fbe0    ....    BL       __hardfp_sqrtf ; 0xcd3a
        0x0000c57a:    eeb40a40    ..@.    VCMP.F32 s0,s0
        0x0000c57e:    eef1fa10    ....    VMRS     APSR_nzcv,FPSCR
        0x0000c582:    d607        ..      BVS      0xc594 ; arm_cmplx_mag_f32 + 320
        0x0000c584:    ed840a00    ....    VSTR     s0,[r4,#0]
        0x0000c588:    3e01        .>      SUBS     r6,#1
        0x0000c58a:    f1050508    ....    ADD      r5,r5,#8
        0x0000c58e:    463c        <F      MOV      r4,r7
        0x0000c590:    d1e4        ..      BNE      0xc55c ; arm_cmplx_mag_f32 + 264
        0x0000c592:    e004        ..      B        0xc59e ; arm_cmplx_mag_f32 + 330
        0x0000c594:    eeb00a48    ..H.    VMOV.F32 s0,s16
        0x0000c598:    f000fbcf    ....    BL       __hardfp_sqrtf ; 0xcd3a
        0x0000c59c:    e7f2        ..      B        0xc584 ; arm_cmplx_mag_f32 + 304
        0x0000c59e:    ecbd8b02    ....    VPOP     {d8}
        0x0000c5a2:    b001        ..      ADD      sp,sp,#4
        0x0000c5a4:    e8bd83f0    ....    POP      {r4-r9,pc}
    arm_max_f32
        0x0000c5a8:    b5f0        ..      PUSH     {r4-r7,lr}
        0x0000c5aa:    ed900a00    ....    VLDR     s0,[r0,#0]
        0x0000c5ae:    1e4c        L.      SUBS     r4,r1,#1
        0x0000c5b0:    f04f0c00    O...    MOV      r12,#0
        0x0000c5b4:    ebbc0f94    ....    CMP      r12,r4,LSR #2
        0x0000c5b8:    f1000e04    ....    ADD      lr,r0,#4
        0x0000c5bc:    d03b        ;.      BEQ      0xc636 ; arm_max_f32 + 142
        0x0000c5be:    2701        .'      MOVS     r7,#1
        0x0000c5c0:    4626        &F      MOV      r6,r4
        0x0000c5c2:    08a5        ..      LSRS     r5,r4,#2
        0x0000c5c4:    f3670601    g...    BFI      r6,r7,#0,#2
        0x0000c5c8:    f04f0c00    O...    MOV      r12,#0
        0x0000c5cc:    2704        .'      MOVS     r7,#4
        0x0000c5ce:    bf00        ..      NOP      
        0x0000c5d0:    ed9e1a00    ....    VLDR     s2,[lr,#0]
        0x0000c5d4:    ed9e2a01    ...*    VLDR     s4,[lr,#4]
        0x0000c5d8:    ed9e3a02    ...:    VLDR     s6,[lr,#8]
        0x0000c5dc:    eeb40a41    ..A.    VCMP.F32 s0,s2
        0x0000c5e0:    ed9e4a03    ...J    VLDR     s8,[lr,#0xc]
        0x0000c5e4:    eef1fa10    ....    VMRS     APSR_nzcv,FPSCR
        0x0000c5e8:    bfbc        ..      ITT      LT
        0x0000c5ea:    eeb00a41    ..A.    VMOVLT.F32 s0,s2
        0x0000c5ee:    f1a70c03    ....    SUBLT    r12,r7,#3
        0x0000c5f2:    eeb40a42    ..B.    VCMP.F32 s0,s4
        0x0000c5f6:    eef1fa10    ....    VMRS     APSR_nzcv,FPSCR
        0x0000c5fa:    bfbc        ..      ITT      LT
        0x0000c5fc:    eeb00a42    ..B.    VMOVLT.F32 s0,s4
        0x0000c600:    f1a70c02    ....    SUBLT    r12,r7,#2
        0x0000c604:    eeb40a43    ..C.    VCMP.F32 s0,s6
        0x0000c608:    eef1fa10    ....    VMRS     APSR_nzcv,FPSCR
        0x0000c60c:    bfbc        ..      ITT      LT
        0x0000c60e:    eeb00a43    ..C.    VMOVLT.F32 s0,s6
        0x0000c612:    f1a70c01    ....    SUBLT    r12,r7,#1
        0x0000c616:    eeb40a44    ..D.    VCMP.F32 s0,s8
        0x0000c61a:    eef1fa10    ....    VMRS     APSR_nzcv,FPSCR
        0x0000c61e:    bfbc        ..      ITT      LT
        0x0000c620:    eeb00a44    ..D.    VMOVLT.F32 s0,s8
        0x0000c624:    46bc        .F      MOVLT    r12,r7
        0x0000c626:    3d01        .=      SUBS     r5,#1
        0x0000c628:    f1070704    ....    ADD      r7,r7,#4
        0x0000c62c:    f10e0e10    ....    ADD      lr,lr,#0x10
        0x0000c630:    d1ce        ..      BNE      0xc5d0 ; arm_max_f32 + 40
        0x0000c632:    eb000e86    ....    ADD      lr,r0,r6,LSL #2
        0x0000c636:    f0140003    ....    ANDS     r0,r4,#3
        0x0000c63a:    d00e        ..      BEQ      0xc65a ; arm_max_f32 + 178
        0x0000c63c:    4240        @B      RSBS     r0,r0,#0
        0x0000c63e:    bf00        ..      NOP      
        0x0000c640:    ecbe1a01    ....    VLDM     lr!,{s2}
        0x0000c644:    eeb40a41    ..A.    VCMP.F32 s0,s2
        0x0000c648:    eef1fa10    ....    VMRS     APSR_nzcv,FPSCR
        0x0000c64c:    bfbc        ..      ITT      LT
        0x0000c64e:    eeb00a41    ..A.    VMOVLT.F32 s0,s2
        0x0000c652:    eb010c00    ....    ADDLT    r12,r1,r0
        0x0000c656:    3001        .0      ADDS     r0,#1
        0x0000c658:    d3f2        ..      BCC      0xc640 ; arm_max_f32 + 152
        0x0000c65a:    ed820a00    ....    VSTR     s0,[r2,#0]
        0x0000c65e:    f8c3c000    ....    STR      r12,[r3,#0]
        0x0000c662:    bdf0        ..      POP      {r4-r7,pc}
    arm_radix4_butterfly_f32
        0x0000c664:    e92d4ff0    -..O    PUSH     {r4-r11,lr}
        0x0000c668:    b088        ..      SUB      sp,sp,#0x20
        0x0000c66a:    ea4f0991    O...    LSR      r9,r1,#2
        0x0000c66e:    ea4f1609    O...    LSL      r6,r9,#4
        0x0000c672:    eb090749    ..I.    ADD      r7,r9,r9,LSL #1
        0x0000c676:    9606        ..      STR      r6,[sp,#0x18]
        0x0000c678:    ea4f06c9    O...    LSL      r6,r9,#3
        0x0000c67c:    00ff        ..      LSLS     r7,r7,#3
        0x0000c67e:    e9cd6204    ...b    STRD     r6,r2,[sp,#0x10]
        0x0000c682:    1d16        ..      ADDS     r6,r2,#4
        0x0000c684:    eb030243    ..C.    ADD      r2,r3,r3,LSL #1
        0x0000c688:    9707        ..      STR      r7,[sp,#0x1c]
        0x0000c68a:    1d07        ..      ADDS     r7,r0,#4
        0x0000c68c:    ea4f1a03    O...    LSL      r10,r3,#4
        0x0000c690:    ea4f0bc3    O...    LSL      r11,r3,#3
        0x0000c694:    ea4f0cc2    O...    LSL      r12,r2,#3
        0x0000c698:    4634        4F      MOV      r4,r6
        0x0000c69a:    4632        2F      MOV      r2,r6
        0x0000c69c:    461d        .F      MOV      r5,r3
        0x0000c69e:    9303        ..      STR      r3,[sp,#0xc]
        0x0000c6a0:    f8cd9000    ....    STR      r9,[sp,#0]
        0x0000c6a4:    9b04        ..      LDR      r3,[sp,#0x10]
        0x0000c6a6:    ed170a01    ....    VLDR     s0,[r7,#-4]
        0x0000c6aa:    18fd        ..      ADDS     r5,r7,r3
        0x0000c6ac:    9b06        ..      LDR      r3,[sp,#0x18]
        0x0000c6ae:    ed971a00    ....    VLDR     s2,[r7,#0]
        0x0000c6b2:    eb070e03    ....    ADD      lr,r7,r3
        0x0000c6b6:    9b07        ..      LDR      r3,[sp,#0x1c]
        0x0000c6b8:    ed152a01    ...*    VLDR     s4,[r5,#-4]
        0x0000c6bc:    eb070803    ....    ADD      r8,r7,r3
        0x0000c6c0:    ed953a00    ...:    VLDR     s6,[r5,#0]
        0x0000c6c4:    ed1e4a01    ...J    VLDR     s8,[lr,#-4]
        0x0000c6c8:    ed9e5a00    ...Z    VLDR     s10,[lr,#0]
        0x0000c6cc:    ed186a01    ...j    VLDR     s12,[r8,#-4]
        0x0000c6d0:    ed987a00    ...z    VLDR     s14,[r8,#0]
        0x0000c6d4:    ee700a04    p...    VADD.F32 s1,s0,s8
        0x0000c6d8:    ee721a06    r...    VADD.F32 s3,s4,s12
        0x0000c6dc:    ee712a05    q..*    VADD.F32 s5,s2,s10
        0x0000c6e0:    ee733a07    s..:    VADD.F32 s7,s6,s14
        0x0000c6e4:    ee322a46    2.F*    VSUB.F32 s4,s4,s12
        0x0000c6e8:    ee311a45    1.E.    VSUB.F32 s2,s2,s10
        0x0000c6ec:    ee305aa1    0..Z    VADD.F32 s10,s1,s3
        0x0000c6f0:    ee326aa3    2..j    VADD.F32 s12,s5,s7
        0x0000c6f4:    ed524a01    R..J    VLDR     s9,[r2,#-4]
        0x0000c6f8:    ee300a44    0.D.    VSUB.F32 s0,s0,s8
        0x0000c6fc:    ed924a00    ...J    VLDR     s8,[r2,#0]
        0x0000c700:    ee333a47    3.G:    VSUB.F32 s6,s6,s14
        0x0000c704:    ed075a01    ...Z    VSTR     s10,[r7,#-4]
        0x0000c708:    ed876a00    ...j    VSTR     s12,[r7,#0]
        0x0000c70c:    ee305a03    0..Z    VADD.F32 s10,s0,s6
        0x0000c710:    ee316a42    1.Bj    VSUB.F32 s12,s2,s4
        0x0000c714:    ee307ae1    0..z    VSUB.F32 s14,s1,s3
        0x0000c718:    ee720ae3    r...    VSUB.F32 s1,s5,s7
        0x0000c71c:    ee300a43    0.C.    VSUB.F32 s0,s0,s6
        0x0000c720:    ee311a02    1...    VADD.F32 s2,s2,s4
        0x0000c724:    ed142a01    ...*    VLDR     s4,[r4,#-4]
        0x0000c728:    ed943a00    ...:    VLDR     s6,[r4,#0]
        0x0000c72c:    ed561a01    V...    VLDR     s3,[r6,#-4]
        0x0000c730:    edd62a00    ...*    VLDR     s5,[r6,#0]
        0x0000c734:    ee653a02    e..:    VMUL.F32 s7,s10,s4
        0x0000c738:    ee262a02    &..*    VMUL.F32 s4,s12,s4
        0x0000c73c:    ee266a03    &..j    VMUL.F32 s12,s12,s6
        0x0000c740:    ee253a03    %..:    VMUL.F32 s6,s10,s6
        0x0000c744:    ee275a24    '.$Z    VMUL.F32 s10,s14,s9
        0x0000c748:    ee644aa0    d..J    VMUL.F32 s9,s9,s1
        0x0000c74c:    ee600a84    `...    VMUL.F32 s1,s1,s8
        0x0000c750:    ee274a04    '..J    VMUL.F32 s8,s14,s8
        0x0000c754:    ee207a21     .!z    VMUL.F32 s14,s0,s3
        0x0000c758:    ee611a21    a.!.    VMUL.F32 s3,s2,s3
        0x0000c75c:    ee211a22    !.".    VMUL.F32 s2,s2,s5
        0x0000c760:    ee200a22     .".    VMUL.F32 s0,s0,s5
        0x0000c764:    ee336a86    3..j    VADD.F32 s12,s7,s12
        0x0000c768:    ee322a43    2.C*    VSUB.F32 s4,s4,s6
        0x0000c76c:    ee353a20    5. :    VADD.F32 s6,s10,s1
        0x0000c770:    ee344ac4    4..J    VSUB.F32 s8,s9,s8
        0x0000c774:    ee371a01    7...    VADD.F32 s2,s14,s2
        0x0000c778:    ee310ac0    1...    VSUB.F32 s0,s3,s0
        0x0000c77c:    f1b90901    ....    SUBS     r9,r9,#1
        0x0000c780:    f1070708    ....    ADD      r7,r7,#8
        0x0000c784:    4452        RD      ADD      r2,r2,r10
        0x0000c786:    445c        \D      ADD      r4,r4,r11
        0x0000c788:    4466        fD      ADD      r6,r6,r12
        0x0000c78a:    ed053a01    ...:    VSTR     s6,[r5,#-4]
        0x0000c78e:    ed854a00    ...J    VSTR     s8,[r5,#0]
        0x0000c792:    ed0e6a01    ...j    VSTR     s12,[lr,#-4]
        0x0000c796:    ed8e2a00    ...*    VSTR     s4,[lr,#0]
        0x0000c79a:    ed081a01    ....    VSTR     s2,[r8,#-4]
        0x0000c79e:    ed880a00    ....    VSTR     s0,[r8,#0]
        0x0000c7a2:    f47faf7f    ....    BNE      0xc6a4 ; arm_radix4_butterfly_f32 + 64
        0x0000c7a6:    2914        .)      CMP      r1,#0x14
        0x0000c7a8:    f0c080c1    ....    BCC.W    0xc92e ; arm_radix4_butterfly_f32 + 714
        0x0000c7ac:    9d00        ..      LDR      r5,[sp,#0]
        0x0000c7ae:    9001        ..      STR      r0,[sp,#4]
        0x0000c7b0:    462a        *F      MOV      r2,r5
        0x0000c7b2:    bf00        ..      NOP      
        0x0000c7b4:    9204        ..      STR      r2,[sp,#0x10]
        0x0000c7b6:    9a03        ..      LDR      r2,[sp,#0xc]
        0x0000c7b8:    08ab        ..      LSRS     r3,r5,#2
        0x0000c7ba:    0092        ..      LSLS     r2,r2,#2
        0x0000c7bc:    9203        ..      STR      r2,[sp,#0xc]
        0x0000c7be:    b292        ..      UXTH     r2,r2
        0x0000c7c0:    9207        ..      STR      r2,[sp,#0x1c]
        0x0000c7c2:    f04f32ff    O..2    MOV      r2,#0xffffffff
        0x0000c7c6:    eb020295    ....    ADD      r2,r2,r5,LSR #2
        0x0000c7ca:    9206        ..      STR      r2,[sp,#0x18]
        0x0000c7cc:    eb030243    ..C.    ADD      r2,r3,r3,LSL #1
        0x0000c7d0:    00d7        ..      LSLS     r7,r2,#3
        0x0000c7d2:    00da        ..      LSLS     r2,r3,#3
        0x0000c7d4:    00ee        ..      LSLS     r6,r5,#3
        0x0000c7d6:    1d14        ..      ADDS     r4,r2,#4
        0x0000c7d8:    ea4f1e03    O...    LSL      lr,r3,#4
        0x0000c7dc:    f04f0c00    O...    MOV      r12,#0
        0x0000c7e0:    4602        .F      MOV      r2,r0
        0x0000c7e2:    f04f0900    O...    MOV      r9,#0
        0x0000c7e6:    9302        ..      STR      r3,[sp,#8]
        0x0000c7e8:    4690        .F      MOV      r8,r2
        0x0000c7ea:    9a05        ..      LDR      r2,[sp,#0x14]
        0x0000c7ec:    ea4f03c9    O...    LSL      r3,r9,#3
        0x0000c7f0:    eb0200c9    ....    ADD      r0,r2,r9,LSL #3
        0x0000c7f4:    ed900a00    ....    VLDR     s0,[r0,#0]
        0x0000c7f8:    1d18        ..      ADDS     r0,r3,#4
        0x0000c7fa:    4410        .D      ADD      r0,r0,r2
        0x0000c7fc:    ed901a00    ....    VLDR     s2,[r0,#0]
        0x0000c800:    eb021009    ....    ADD      r0,r2,r9,LSL #4
        0x0000c804:    ea4f1309    O...    LSL      r3,r9,#4
        0x0000c808:    ed902a00    ...*    VLDR     s4,[r0,#0]
        0x0000c80c:    1d18        ..      ADDS     r0,r3,#4
        0x0000c80e:    4410        .D      ADD      r0,r0,r2
        0x0000c810:    ed903a00    ...:    VLDR     s6,[r0,#0]
        0x0000c814:    eb090049    ..I.    ADD      r0,r9,r9,LSL #1
        0x0000c818:    eb0203c0    ....    ADD      r3,r2,r0,LSL #3
        0x0000c81c:    00c0        ..      LSLS     r0,r0,#3
        0x0000c81e:    3004        .0      ADDS     r0,#4
        0x0000c820:    4410        .D      ADD      r0,r0,r2
        0x0000c822:    ed934a00    ...J    VLDR     s8,[r3,#0]
        0x0000c826:    ed905a00    ...Z    VLDR     s10,[r0,#0]
        0x0000c82a:    4642        BF      MOV      r2,r8
        0x0000c82c:    4640        @F      MOV      r0,r8
        0x0000c82e:    46e0        .F      MOV      r8,r12
        0x0000c830:    eb000a04    ....    ADD      r10,r0,r4
        0x0000c834:    eb000b0e    ....    ADD      r11,r0,lr
        0x0000c838:    19c3        ..      ADDS     r3,r0,r7
        0x0000c83a:    ed906a00    ...j    VLDR     s12,[r0,#0]
        0x0000c83e:    ed1a7a01    ...z    VLDR     s14,[r10,#-4]
        0x0000c842:    eddb0a00    ....    VLDR     s1,[r11,#0]
        0x0000c846:    edd31a00    ....    VLDR     s3,[r3,#0]
        0x0000c84a:    ee762a60    v.`*    VSUB.F32 s5,s12,s1
        0x0000c84e:    ee366a20    6. j    VADD.F32 s12,s12,s1
        0x0000c852:    ee770a61    w.a.    VSUB.F32 s1,s14,s3
        0x0000c856:    ee377a21    7.!z    VADD.F32 s14,s14,s3
        0x0000c85a:    edd01a01    ....    VLDR     s3,[r0,#4]
        0x0000c85e:    edda3a00    ...:    VLDR     s7,[r10,#0]
        0x0000c862:    eddb4a01    ...J    VLDR     s9,[r11,#4]
        0x0000c866:    edd35a01    ...Z    VLDR     s11,[r3,#4]
        0x0000c86a:    ee716ae4    q..j    VSUB.F32 s13,s3,s9
        0x0000c86e:    ee711aa4    q...    VADD.F32 s3,s3,s9
        0x0000c872:    ee734ae5    s..J    VSUB.F32 s9,s7,s11
        0x0000c876:    ee733aa5    s..:    VADD.F32 s7,s7,s11
        0x0000c87a:    ee725aa4    r..Z    VADD.F32 s11,s5,s9
        0x0000c87e:    ee722ae4    r..*    VSUB.F32 s5,s5,s9
        0x0000c882:    ee764ae0    v..J    VSUB.F32 s9,s13,s1
        0x0000c886:    ee760aa0    v...    VADD.F32 s1,s13,s1
        0x0000c88a:    ee766a47    v.Gj    VSUB.F32 s13,s12,s14
        0x0000c88e:    ee366a07    6..j    VADD.F32 s12,s12,s14
        0x0000c892:    ee317ae3    1..z    VSUB.F32 s14,s3,s7
        0x0000c896:    ee711aa3    q...    VADD.F32 s3,s3,s7
        0x0000c89a:    ed806a00    ...j    VSTR     s12,[r0,#0]
        0x0000c89e:    edc01a01    ....    VSTR     s3,[r0,#4]
        0x0000c8a2:    ee206a25     .%j    VMUL.F32 s12,s0,s11
        0x0000c8a6:    ee611a24    a.$.    VMUL.F32 s3,s2,s9
        0x0000c8aa:    ee316a86    1..j    VADD.F32 s12,s3,s12
        0x0000c8ae:    ee601a24    `.$.    VMUL.F32 s3,s0,s9
        0x0000c8b2:    ee613a25    a.%:    VMUL.F32 s7,s2,s11
        0x0000c8b6:    ee711ae3    q...    VSUB.F32 s3,s3,s7
        0x0000c8ba:    ee623a26    b.&:    VMUL.F32 s7,s4,s13
        0x0000c8be:    ee634a07    c..J    VMUL.F32 s9,s6,s14
        0x0000c8c2:    ee733aa4    s..:    VADD.F32 s7,s7,s9
        0x0000c8c6:    ee227a07    "..z    VMUL.F32 s14,s4,s14
        0x0000c8ca:    ee634a26    c.&J    VMUL.F32 s9,s6,s13
        0x0000c8ce:    ee377a64    7.dz    VSUB.F32 s14,s14,s9
        0x0000c8d2:    ee644a22    d."J    VMUL.F32 s9,s8,s5
        0x0000c8d6:    ee655a20    e. Z    VMUL.F32 s11,s10,s1
        0x0000c8da:    ee640a20    d. .    VMUL.F32 s1,s8,s1
        0x0000c8de:    ee652a22    e."*    VMUL.F32 s5,s10,s5
        0x0000c8e2:    44a8        .D      ADD      r8,r8,r5
        0x0000c8e4:    ee754aa4    u..J    VADD.F32 s9,s11,s9
        0x0000c8e8:    ee700ae2    p...    VSUB.F32 s1,s1,s5
        0x0000c8ec:    4588        .E      CMP      r8,r1
        0x0000c8ee:    4430        0D      ADD      r0,r0,r6
        0x0000c8f0:    ed4a3a01    J..:    VSTR     s7,[r10,#-4]
        0x0000c8f4:    ed8a7a00    ...z    VSTR     s14,[r10,#0]
        0x0000c8f8:    ed8b6a00    ...j    VSTR     s12,[r11,#0]
        0x0000c8fc:    edcb1a01    ....    VSTR     s3,[r11,#4]
        0x0000c900:    edc34a00    ...J    VSTR     s9,[r3,#0]
        0x0000c904:    edc30a01    ....    VSTR     s1,[r3,#4]
        0x0000c908:    d392        ..      BCC      0xc830 ; arm_radix4_butterfly_f32 + 460
        0x0000c90a:    9807        ..      LDR      r0,[sp,#0x1c]
        0x0000c90c:    f10c0c01    ....    ADD      r12,r12,#1
        0x0000c910:    4481        .D      ADD      r9,r9,r0
        0x0000c912:    9806        ..      LDR      r0,[sp,#0x18]
        0x0000c914:    3208        .2      ADDS     r2,r2,#8
        0x0000c916:    4584        .E      CMP      r12,r0
        0x0000c918:    f67faf66    ..f.    BLS      0xc7e8 ; arm_radix4_butterfly_f32 + 388
        0x0000c91c:    9804        ..      LDR      r0,[sp,#0x10]
        0x0000c91e:    2813        .(      CMP      r0,#0x13
        0x0000c920:    ea4f0090    O...    LSR      r0,r0,#2
        0x0000c924:    4602        .F      MOV      r2,r0
        0x0000c926:    e9dd0501    ....    LDRD     r0,r5,[sp,#4]
        0x0000c92a:    f63faf43    ?.C.    BHI      0xc7b4 ; arm_radix4_butterfly_f32 + 336
        0x0000c92e:    9900        ..      LDR      r1,[sp,#0]
        0x0000c930:    ed900a00    ....    VLDR     s0,[r0,#0]
        0x0000c934:    ed901a01    ....    VLDR     s2,[r0,#4]
        0x0000c938:    ed902a02    ...*    VLDR     s4,[r0,#8]
        0x0000c93c:    ed903a03    ...:    VLDR     s6,[r0,#0xc]
        0x0000c940:    ed904a04    ...J    VLDR     s8,[r0,#0x10]
        0x0000c944:    ed905a05    ...Z    VLDR     s10,[r0,#0x14]
        0x0000c948:    ed906a06    ...j    VLDR     s12,[r0,#0x18]
        0x0000c94c:    ed907a07    ...z    VLDR     s14,[r0,#0x1c]
        0x0000c950:    ee700a04    p...    VADD.F32 s1,s0,s8
        0x0000c954:    ee300a44    0.D.    VSUB.F32 s0,s0,s8
        0x0000c958:    ee314a05    1..J    VADD.F32 s8,s2,s10
        0x0000c95c:    ee311a45    1.E.    VSUB.F32 s2,s2,s10
        0x0000c960:    ee325a06    2..Z    VADD.F32 s10,s4,s12
        0x0000c964:    ee731a07    s...    VADD.F32 s3,s6,s14
        0x0000c968:    ee322a46    2.F*    VSUB.F32 s4,s4,s12
        0x0000c96c:    ee333a47    3.G:    VSUB.F32 s6,s6,s14
        0x0000c970:    ee306a85    0..j    VADD.F32 s12,s1,s10
        0x0000c974:    ee347a21    4.!z    VADD.F32 s14,s8,s3
        0x0000c978:    ee305ac5    0..Z    VSUB.F32 s10,s1,s10
        0x0000c97c:    ee344a61    4.aJ    VSUB.F32 s8,s8,s3
        0x0000c980:    ee700a03    p...    VADD.F32 s1,s0,s6
        0x0000c984:    ee711a42    q.B.    VSUB.F32 s3,s2,s4
        0x0000c988:    ee300a43    0.C.    VSUB.F32 s0,s0,s6
        0x0000c98c:    ee311a02    1...    VADD.F32 s2,s2,s4
        0x0000c990:    ed806a00    ...j    VSTR     s12,[r0,#0]
        0x0000c994:    ed807a01    ...z    VSTR     s14,[r0,#4]
        0x0000c998:    ed805a02    ...Z    VSTR     s10,[r0,#8]
        0x0000c99c:    ed804a03    ...J    VSTR     s8,[r0,#0xc]
        0x0000c9a0:    edc00a04    ....    VSTR     s1,[r0,#0x10]
        0x0000c9a4:    edc01a05    ....    VSTR     s3,[r0,#0x14]
        0x0000c9a8:    ed800a06    ....    VSTR     s0,[r0,#0x18]
        0x0000c9ac:    ed801a07    ....    VSTR     s2,[r0,#0x1c]
        0x0000c9b0:    3901        .9      SUBS     r1,#1
        0x0000c9b2:    f1000020    .. .    ADD      r0,r0,#0x20
        0x0000c9b6:    d1bb        ..      BNE      0xc930 ; arm_radix4_butterfly_f32 + 716
        0x0000c9b8:    b008        ..      ADD      sp,sp,#0x20
        0x0000c9ba:    e8bd8ff0    ....    POP      {r4-r11,pc}
        0x0000c9be:    0000        ..      MOVS     r0,r0
    arm_radix4_butterfly_inverse_f32
        0x0000c9c0:    e92d4ff0    -..O    PUSH     {r4-r11,lr}
        0x0000c9c4:    b088        ..      SUB      sp,sp,#0x20
        0x0000c9c6:    ea4f0991    O...    LSR      r9,r1,#2
        0x0000c9ca:    ea4f1609    O...    LSL      r6,r9,#4
        0x0000c9ce:    eb090749    ..I.    ADD      r7,r9,r9,LSL #1
        0x0000c9d2:    9606        ..      STR      r6,[sp,#0x18]
        0x0000c9d4:    ea4f06c9    O...    LSL      r6,r9,#3
        0x0000c9d8:    00ff        ..      LSLS     r7,r7,#3
        0x0000c9da:    e9cd6204    ...b    STRD     r6,r2,[sp,#0x10]
        0x0000c9de:    1d16        ..      ADDS     r6,r2,#4
        0x0000c9e0:    eb030243    ..C.    ADD      r2,r3,r3,LSL #1
        0x0000c9e4:    9707        ..      STR      r7,[sp,#0x1c]
        0x0000c9e6:    1d07        ..      ADDS     r7,r0,#4
        0x0000c9e8:    ea4f1a03    O...    LSL      r10,r3,#4
        0x0000c9ec:    ea4f0bc3    O...    LSL      r11,r3,#3
        0x0000c9f0:    ea4f0cc2    O...    LSL      r12,r2,#3
        0x0000c9f4:    4634        4F      MOV      r4,r6
        0x0000c9f6:    4632        2F      MOV      r2,r6
        0x0000c9f8:    461d        .F      MOV      r5,r3
        0x0000c9fa:    9303        ..      STR      r3,[sp,#0xc]
        0x0000c9fc:    f8cd9000    ....    STR      r9,[sp,#0]
        0x0000ca00:    9b06        ..      LDR      r3,[sp,#0x18]
        0x0000ca02:    ed171a01    ....    VLDR     s2,[r7,#-4]
        0x0000ca06:    18fd        ..      ADDS     r5,r7,r3
        0x0000ca08:    9b04        ..      LDR      r3,[sp,#0x10]
        0x0000ca0a:    ed972a00    ...*    VLDR     s4,[r7,#0]
        0x0000ca0e:    eb070803    ....    ADD      r8,r7,r3
        0x0000ca12:    9b07        ..      LDR      r3,[sp,#0x1c]
        0x0000ca14:    ed153a01    ...:    VLDR     s6,[r5,#-4]
        0x0000ca18:    eb070e03    ....    ADD      lr,r7,r3
        0x0000ca1c:    ed954a00    ...J    VLDR     s8,[r5,#0]
        0x0000ca20:    ed185a01    ...Z    VLDR     s10,[r8,#-4]
        0x0000ca24:    ed986a00    ...j    VLDR     s12,[r8,#0]
        0x0000ca28:    ed1e7a01    ...z    VLDR     s14,[lr,#-4]
        0x0000ca2c:    edde0a00    ....    VLDR     s1,[lr,#0]
        0x0000ca30:    ee711a03    q...    VADD.F32 s3,s2,s6
        0x0000ca34:    ee752a07    u..*    VADD.F32 s5,s10,s14
        0x0000ca38:    ee723a04    r..:    VADD.F32 s7,s4,s8
        0x0000ca3c:    ee764a20    v. J    VADD.F32 s9,s12,s1
        0x0000ca40:    ee355a47    5.GZ    VSUB.F32 s10,s10,s14
        0x0000ca44:    ee322a44    2.D*    VSUB.F32 s4,s4,s8
        0x0000ca48:    ee364a60    6.`J    VSUB.F32 s8,s12,s1
        0x0000ca4c:    ee316aa2    1..j    VADD.F32 s12,s3,s5
        0x0000ca50:    ee337aa4    3..z    VADD.F32 s14,s7,s9
        0x0000ca54:    ed525a01    R..Z    VLDR     s11,[r2,#-4]
        0x0000ca58:    ee311a43    1.C.    VSUB.F32 s2,s2,s6
        0x0000ca5c:    ed923a00    ...:    VLDR     s6,[r2,#0]
        0x0000ca60:    ed076a01    ...j    VSTR     s12,[r7,#-4]
        0x0000ca64:    ed877a00    ...z    VSTR     s14,[r7,#0]
        0x0000ca68:    ee316a44    1.Dj    VSUB.F32 s12,s2,s8
        0x0000ca6c:    ee327a05    2..z    VADD.F32 s14,s4,s10
        0x0000ca70:    ee710ae2    q...    VSUB.F32 s1,s3,s5
        0x0000ca74:    ee731ae4    s...    VSUB.F32 s3,s7,s9
        0x0000ca78:    ee311a04    1...    VADD.F32 s2,s2,s8
        0x0000ca7c:    ee322a45    2.E*    VSUB.F32 s4,s4,s10
        0x0000ca80:    ed144a01    ...J    VLDR     s8,[r4,#-4]
        0x0000ca84:    ed945a00    ...Z    VLDR     s10,[r4,#0]
        0x0000ca88:    ed562a01    V..*    VLDR     s5,[r6,#-4]
        0x0000ca8c:    edd63a00    ...:    VLDR     s7,[r6,#0]
        0x0000ca90:    ee664a04    f..J    VMUL.F32 s9,s12,s8
        0x0000ca94:    ee274a04    '..J    VMUL.F32 s8,s14,s8
        0x0000ca98:    ee277a05    '..z    VMUL.F32 s14,s14,s10
        0x0000ca9c:    ee265a05    &..Z    VMUL.F32 s10,s12,s10
        0x0000caa0:    ee206aa5     ..j    VMUL.F32 s12,s1,s11
        0x0000caa4:    ee655aa1    e..Z    VMUL.F32 s11,s11,s3
        0x0000caa8:    ee611a83    a...    VMUL.F32 s3,s3,s6
        0x0000caac:    ee203a83     ..:    VMUL.F32 s6,s1,s6
        0x0000cab0:    ee610a22    a.".    VMUL.F32 s1,s2,s5
        0x0000cab4:    ee622a22    b."*    VMUL.F32 s5,s4,s5
        0x0000cab8:    ee222a23    ".#*    VMUL.F32 s4,s4,s7
        0x0000cabc:    ee211a23    !.#.    VMUL.F32 s2,s2,s7
        0x0000cac0:    ee347ac7    4..z    VSUB.F32 s14,s9,s14
        0x0000cac4:    ee344a05    4..J    VADD.F32 s8,s8,s10
        0x0000cac8:    ee365a61    6.aZ    VSUB.F32 s10,s12,s3
        0x0000cacc:    ee353a83    5..:    VADD.F32 s6,s11,s6
        0x0000cad0:    ee302ac2    0..*    VSUB.F32 s4,s1,s4
        0x0000cad4:    ee321a81    2...    VADD.F32 s2,s5,s2
        0x0000cad8:    f1b90901    ....    SUBS     r9,r9,#1
        0x0000cadc:    f1070708    ....    ADD      r7,r7,#8
        0x0000cae0:    4452        RD      ADD      r2,r2,r10
        0x0000cae2:    445c        \D      ADD      r4,r4,r11
        0x0000cae4:    4466        fD      ADD      r6,r6,r12
        0x0000cae6:    ed085a01    ...Z    VSTR     s10,[r8,#-4]
        0x0000caea:    ed883a00    ...:    VSTR     s6,[r8,#0]
        0x0000caee:    ed057a01    ...z    VSTR     s14,[r5,#-4]
        0x0000caf2:    ed854a00    ...J    VSTR     s8,[r5,#0]
        0x0000caf6:    ed0e2a01    ...*    VSTR     s4,[lr,#-4]
        0x0000cafa:    ed8e1a00    ....    VSTR     s2,[lr,#0]
        0x0000cafe:    f47faf7f    ....    BNE      0xca00 ; arm_radix4_butterfly_inverse_f32 + 64
        0x0000cb02:    2914        .)      CMP      r1,#0x14
        0x0000cb04:    f0c080c1    ....    BCC.W    0xcc8a ; arm_radix4_butterfly_inverse_f32 + 714
        0x0000cb08:    9d00        ..      LDR      r5,[sp,#0]
        0x0000cb0a:    9001        ..      STR      r0,[sp,#4]
        0x0000cb0c:    462a        *F      MOV      r2,r5
        0x0000cb0e:    bf00        ..      NOP      
        0x0000cb10:    9204        ..      STR      r2,[sp,#0x10]
        0x0000cb12:    9a03        ..      LDR      r2,[sp,#0xc]
        0x0000cb14:    08ab        ..      LSRS     r3,r5,#2
        0x0000cb16:    0092        ..      LSLS     r2,r2,#2
        0x0000cb18:    9203        ..      STR      r2,[sp,#0xc]
        0x0000cb1a:    b292        ..      UXTH     r2,r2
        0x0000cb1c:    9207        ..      STR      r2,[sp,#0x1c]
        0x0000cb1e:    f04f32ff    O..2    MOV      r2,#0xffffffff
        0x0000cb22:    eb020295    ....    ADD      r2,r2,r5,LSR #2
        0x0000cb26:    9206        ..      STR      r2,[sp,#0x18]
        0x0000cb28:    eb030243    ..C.    ADD      r2,r3,r3,LSL #1
        0x0000cb2c:    00d7        ..      LSLS     r7,r2,#3
        0x0000cb2e:    00da        ..      LSLS     r2,r3,#3
        0x0000cb30:    00ee        ..      LSLS     r6,r5,#3
        0x0000cb32:    1d14        ..      ADDS     r4,r2,#4
        0x0000cb34:    ea4f1e03    O...    LSL      lr,r3,#4
        0x0000cb38:    f04f0c00    O...    MOV      r12,#0
        0x0000cb3c:    4602        .F      MOV      r2,r0
        0x0000cb3e:    f04f0900    O...    MOV      r9,#0
        0x0000cb42:    9302        ..      STR      r3,[sp,#8]
        0x0000cb44:    4690        .F      MOV      r8,r2
        0x0000cb46:    9a05        ..      LDR      r2,[sp,#0x14]
        0x0000cb48:    ea4f03c9    O...    LSL      r3,r9,#3
        0x0000cb4c:    eb0200c9    ....    ADD      r0,r2,r9,LSL #3
        0x0000cb50:    ed901a00    ....    VLDR     s2,[r0,#0]
        0x0000cb54:    1d18        ..      ADDS     r0,r3,#4
        0x0000cb56:    4410        .D      ADD      r0,r0,r2
        0x0000cb58:    ed902a00    ...*    VLDR     s4,[r0,#0]
        0x0000cb5c:    eb021009    ....    ADD      r0,r2,r9,LSL #4
        0x0000cb60:    ea4f1309    O...    LSL      r3,r9,#4
        0x0000cb64:    ed903a00    ...:    VLDR     s6,[r0,#0]
        0x0000cb68:    1d18        ..      ADDS     r0,r3,#4
        0x0000cb6a:    4410        .D      ADD      r0,r0,r2
        0x0000cb6c:    ed904a00    ...J    VLDR     s8,[r0,#0]
        0x0000cb70:    eb090049    ..I.    ADD      r0,r9,r9,LSL #1
        0x0000cb74:    eb0203c0    ....    ADD      r3,r2,r0,LSL #3
        0x0000cb78:    00c0        ..      LSLS     r0,r0,#3
        0x0000cb7a:    3004        .0      ADDS     r0,#4
        0x0000cb7c:    4410        .D      ADD      r0,r0,r2
        0x0000cb7e:    ed935a00    ...Z    VLDR     s10,[r3,#0]
        0x0000cb82:    ed906a00    ...j    VLDR     s12,[r0,#0]
        0x0000cb86:    4642        BF      MOV      r2,r8
        0x0000cb88:    4640        @F      MOV      r0,r8
        0x0000cb8a:    46e0        .F      MOV      r8,r12
        0x0000cb8c:    eb000a04    ....    ADD      r10,r0,r4
        0x0000cb90:    eb000b0e    ....    ADD      r11,r0,lr
        0x0000cb94:    19c3        ..      ADDS     r3,r0,r7
        0x0000cb96:    ed907a00    ...z    VLDR     s14,[r0,#0]
        0x0000cb9a:    ed5a0a01    Z...    VLDR     s1,[r10,#-4]
        0x0000cb9e:    eddb1a00    ....    VLDR     s3,[r11,#0]
        0x0000cba2:    edd32a00    ...*    VLDR     s5,[r3,#0]
        0x0000cba6:    ee773a61    w.a:    VSUB.F32 s7,s14,s3
        0x0000cbaa:    ee377a21    7.!z    VADD.F32 s14,s14,s3
        0x0000cbae:    ee701ae2    p...    VSUB.F32 s3,s1,s5
        0x0000cbb2:    ee700aa2    p...    VADD.F32 s1,s1,s5
        0x0000cbb6:    edd02a01    ...*    VLDR     s5,[r0,#4]
        0x0000cbba:    edda4a00    ...J    VLDR     s9,[r10,#0]
        0x0000cbbe:    eddb5a01    ...Z    VLDR     s11,[r11,#4]
        0x0000cbc2:    edd36a01    ...j    VLDR     s13,[r3,#4]
        0x0000cbc6:    ee727ae5    r..z    VSUB.F32 s15,s5,s11
        0x0000cbca:    ee722aa5    r..*    VADD.F32 s5,s5,s11
        0x0000cbce:    ee745ae6    t..Z    VSUB.F32 s11,s9,s13
        0x0000cbd2:    ee744aa6    t..J    VADD.F32 s9,s9,s13
        0x0000cbd6:    ee736ae5    s..j    VSUB.F32 s13,s7,s11
        0x0000cbda:    ee733aa5    s..:    VADD.F32 s7,s7,s11
        0x0000cbde:    ee775aa1    w..Z    VADD.F32 s11,s15,s3
        0x0000cbe2:    ee771ae1    w...    VSUB.F32 s3,s15,s3
        0x0000cbe6:    ee777a60    w.`z    VSUB.F32 s15,s14,s1
        0x0000cbea:    ee377a20    7. z    VADD.F32 s14,s14,s1
        0x0000cbee:    ee720ae4    r...    VSUB.F32 s1,s5,s9
        0x0000cbf2:    ee722aa4    r..*    VADD.F32 s5,s5,s9
        0x0000cbf6:    ed807a00    ...z    VSTR     s14,[r0,#0]
        0x0000cbfa:    edc02a01    ...*    VSTR     s5,[r0,#4]
        0x0000cbfe:    ee217a26    !.&z    VMUL.F32 s14,s2,s13
        0x0000cc02:    ee622a25    b.%*    VMUL.F32 s5,s4,s11
        0x0000cc06:    ee377a62    7.bz    VSUB.F32 s14,s14,s5
        0x0000cc0a:    ee612a25    a.%*    VMUL.F32 s5,s2,s11
        0x0000cc0e:    ee624a26    b.&J    VMUL.F32 s9,s4,s13
        0x0000cc12:    ee722aa4    r..*    VADD.F32 s5,s5,s9
        0x0000cc16:    ee634a27    c.'J    VMUL.F32 s9,s6,s15
        0x0000cc1a:    ee645a20    d. Z    VMUL.F32 s11,s8,s1
        0x0000cc1e:    ee744ae5    t..J    VSUB.F32 s9,s9,s11
        0x0000cc22:    ee630a20    c. .    VMUL.F32 s1,s6,s1
        0x0000cc26:    ee645a27    d.'Z    VMUL.F32 s11,s8,s15
        0x0000cc2a:    ee750aa0    u...    VADD.F32 s1,s11,s1
        0x0000cc2e:    ee655a23    e.#Z    VMUL.F32 s11,s10,s7
        0x0000cc32:    ee666a21    f.!j    VMUL.F32 s13,s12,s3
        0x0000cc36:    ee651a21    e.!.    VMUL.F32 s3,s10,s3
        0x0000cc3a:    ee663a23    f.#:    VMUL.F32 s7,s12,s7
        0x0000cc3e:    44a8        .D      ADD      r8,r8,r5
        0x0000cc40:    ee755ae6    u..Z    VSUB.F32 s11,s11,s13
        0x0000cc44:    ee711aa3    q...    VADD.F32 s3,s3,s7
        0x0000cc48:    4588        .E      CMP      r8,r1
        0x0000cc4a:    4430        0D      ADD      r0,r0,r6
        0x0000cc4c:    ed4a4a01    J..J    VSTR     s9,[r10,#-4]
        0x0000cc50:    edca0a00    ....    VSTR     s1,[r10,#0]
        0x0000cc54:    ed8b7a00    ...z    VSTR     s14,[r11,#0]
        0x0000cc58:    edcb2a01    ...*    VSTR     s5,[r11,#4]
        0x0000cc5c:    edc35a00    ...Z    VSTR     s11,[r3,#0]
        0x0000cc60:    edc31a01    ....    VSTR     s3,[r3,#4]
        0x0000cc64:    d392        ..      BCC      0xcb8c ; arm_radix4_butterfly_inverse_f32 + 460
        0x0000cc66:    9807        ..      LDR      r0,[sp,#0x1c]
        0x0000cc68:    f10c0c01    ....    ADD      r12,r12,#1
        0x0000cc6c:    4481        .D      ADD      r9,r9,r0
        0x0000cc6e:    9806        ..      LDR      r0,[sp,#0x18]
        0x0000cc70:    3208        .2      ADDS     r2,r2,#8
        0x0000cc72:    4584        .E      CMP      r12,r0
        0x0000cc74:    f67faf66    ..f.    BLS      0xcb44 ; arm_radix4_butterfly_inverse_f32 + 388
        0x0000cc78:    9804        ..      LDR      r0,[sp,#0x10]
        0x0000cc7a:    2813        .(      CMP      r0,#0x13
        0x0000cc7c:    ea4f0090    O...    LSR      r0,r0,#2
        0x0000cc80:    4602        .F      MOV      r2,r0
        0x0000cc82:    e9dd0501    ....    LDRD     r0,r5,[sp,#4]
        0x0000cc86:    f63faf43    ?.C.    BHI      0xcb10 ; arm_radix4_butterfly_inverse_f32 + 336
        0x0000cc8a:    9900        ..      LDR      r1,[sp,#0]
        0x0000cc8c:    ed901a00    ....    VLDR     s2,[r0,#0]
        0x0000cc90:    ed902a01    ...*    VLDR     s4,[r0,#4]
        0x0000cc94:    ed903a02    ...:    VLDR     s6,[r0,#8]
        0x0000cc98:    ed904a03    ...J    VLDR     s8,[r0,#0xc]
        0x0000cc9c:    ed905a04    ...Z    VLDR     s10,[r0,#0x10]
        0x0000cca0:    ed906a05    ...j    VLDR     s12,[r0,#0x14]
        0x0000cca4:    ed907a06    ...z    VLDR     s14,[r0,#0x18]
        0x0000cca8:    edd00a07    ....    VLDR     s1,[r0,#0x1c]
        0x0000ccac:    ee711a05    q...    VADD.F32 s3,s2,s10
        0x0000ccb0:    ee311a45    1.E.    VSUB.F32 s2,s2,s10
        0x0000ccb4:    ee325a06    2..Z    VADD.F32 s10,s4,s12
        0x0000ccb8:    ee322a46    2.F*    VSUB.F32 s4,s4,s12
        0x0000ccbc:    ee336a07    3..j    VADD.F32 s12,s6,s14
        0x0000ccc0:    ee742a20    t. *    VADD.F32 s5,s8,s1
        0x0000ccc4:    ee333a47    3.G:    VSUB.F32 s6,s6,s14
        0x0000ccc8:    ee344a60    4.`J    VSUB.F32 s8,s8,s1
        0x0000cccc:    ee317a86    1..z    VADD.F32 s14,s3,s12
        0x0000ccd0:    ee750a22    u.".    VADD.F32 s1,s10,s5
        0x0000ccd4:    ee316ac6    1..j    VSUB.F32 s12,s3,s12
        0x0000ccd8:    ee355a62    5.bZ    VSUB.F32 s10,s10,s5
        0x0000ccdc:    ee711a44    q.D.    VSUB.F32 s3,s2,s8
        0x0000cce0:    ee722a03    r..*    VADD.F32 s5,s4,s6
        0x0000cce4:    ee311a04    1...    VADD.F32 s2,s2,s8
        0x0000cce8:    ee322a43    2.C*    VSUB.F32 s4,s4,s6
        0x0000ccec:    ee273a00    '..:    VMUL.F32 s6,s14,s0
        0x0000ccf0:    ee204a80     ..J    VMUL.F32 s8,s1,s0
        0x0000ccf4:    ee266a00    &..j    VMUL.F32 s12,s12,s0
        0x0000ccf8:    ee255a00    %..Z    VMUL.F32 s10,s10,s0
        0x0000ccfc:    ee217a80    !..z    VMUL.F32 s14,s3,s0
        0x0000cd00:    ee620a80    b...    VMUL.F32 s1,s5,s0
        0x0000cd04:    ee211a00    !...    VMUL.F32 s2,s2,s0
        0x0000cd08:    ee222a00    "..*    VMUL.F32 s4,s4,s0
        0x0000cd0c:    ed803a00    ...:    VSTR     s6,[r0,#0]
        0x0000cd10:    ed804a01    ...J    VSTR     s8,[r0,#4]
        0x0000cd14:    ed806a02    ...j    VSTR     s12,[r0,#8]
        0x0000cd18:    ed805a03    ...Z    VSTR     s10,[r0,#0xc]
        0x0000cd1c:    ed807a04    ...z    VSTR     s14,[r0,#0x10]
        0x0000cd20:    edc00a05    ....    VSTR     s1,[r0,#0x14]
        0x0000cd24:    ed801a06    ....    VSTR     s2,[r0,#0x18]
        0x0000cd28:    ed802a07    ...*    VSTR     s4,[r0,#0x1c]
        0x0000cd2c:    3901        .9      SUBS     r1,#1
        0x0000cd2e:    f1000020    .. .    ADD      r0,r0,#0x20
        0x0000cd32:    d1ab        ..      BNE      0xcc8c ; arm_radix4_butterfly_inverse_f32 + 716
        0x0000cd34:    b008        ..      ADD      sp,sp,#0x20
        0x0000cd36:    e8bd8ff0    ....    POP      {r4-r11,pc}
    $t
    i.__hardfp_sqrtf
    __hardfp_sqrtf
        0x0000cd3a:    b510        ..      PUSH     {r4,lr}
        0x0000cd3c:    ed2d8b02    -...    VPUSH    {d8}
        0x0000cd40:    eeb18ac0    ....    VSQRT.F32 s16,s0
        0x0000cd44:    ee180a10    ....    VMOV     r0,s16
        0x0000cd48:    f0204000     ..@    BIC      r0,r0,#0x80000000
        0x0000cd4c:    f1c040ff    ...@    RSB      r0,r0,#0x7f800000
        0x0000cd50:    0fc0        ..      LSRS     r0,r0,#31
        0x0000cd52:    d00a        ..      BEQ      0xcd6a ; __hardfp_sqrtf + 48
        0x0000cd54:    ee100a10    ....    VMOV     r0,s0
        0x0000cd58:    f0204000     ..@    BIC      r0,r0,#0x80000000
        0x0000cd5c:    f1c040ff    ...@    RSB      r0,r0,#0x7f800000
        0x0000cd60:    0fc0        ..      LSRS     r0,r0,#31
        0x0000cd62:    bf04        ..      ITT      EQ
        0x0000cd64:    2001        .       MOVEQ    r0,#1
        0x0000cd66:    f7fffa67    ..g.    BLEQ     __set_errno ; 0xc238
        0x0000cd6a:    eeb00a48    ..H.    VMOV.F32 s0,s16
        0x0000cd6e:    ecbd8b02    ....    VPOP     {d8}
        0x0000cd72:    bd10        ..      POP      {r4,pc}
    i.am_bsp_itm_printf_enable
    am_bsp_itm_printf_enable
        0x0000cd74:    b500        ..      PUSH     {lr}
        0x0000cd76:    490a        .I      LDR      r1,[pc,#40] ; [0xcda0] = 0x10000038
        0x0000cd78:    b085        ..      SUB      sp,sp,#0x14
        0x0000cd7a:    2001        .       MOVS     r0,#1
        0x0000cd7c:    6008        .`      STR      r0,[r1,#0]
        0x0000cd7e:    f000fa71    ..q.    BL       am_hal_itm_enable ; 0xd264
        0x0000cd82:    4808        .H      LDR      r0,[pc,#32] ; [0xcda4] = 0xf4240
        0x0000cd84:    9000        ..      STR      r0,[sp,#0]
        0x0000cd86:    4668        hF      MOV      r0,sp
        0x0000cd88:    f000fe08    ....    BL       am_hal_tpiu_enable ; 0xd99c
        0x0000cd8c:    4806        .H      LDR      r0,[pc,#24] ; [0xcda8] = 0xf090
        0x0000cd8e:    6801        .h      LDR      r1,[r0,#0]
        0x0000cd90:    2029        )       MOVS     r0,#0x29
        0x0000cd92:    f000f8e7    ....    BL       am_hal_gpio_pinconfig ; 0xcf64
        0x0000cd96:    4805        .H      LDR      r0,[pc,#20] ; [0xcdac] = 0xd2ad
        0x0000cd98:    f001f8e6    ....    BL       am_util_stdio_printf_init ; 0xdf68
        0x0000cd9c:    b005        ..      ADD      sp,sp,#0x14
        0x0000cd9e:    bd00        ..      POP      {pc}
    $d
        0x0000cda0:    10000038    8...    DCD    268435512
        0x0000cda4:    000f4240    @B..    DCD    1000000
        0x0000cda8:    0000f090    ....    DCD    61584
        0x0000cdac:    0000d2ad    ....    DCD    53933
    $t
    i.am_hal_cachectrl_config
    am_hal_cachectrl_config
        0x0000cdb0:    b538        8.      PUSH     {r3-r5,lr}
        0x0000cdb2:    4604        .F      MOV      r4,r0
        0x0000cdb4:    f7fffa24    ..$.    BL       am_hal_interrupt_master_disable ; 0xc200
        0x0000cdb8:    4d0f        .M      LDR      r5,[pc,#60] ; [0xcdf8] = 0x40018000
        0x0000cdba:    9000        ..      STR      r0,[sp,#0]
        0x0000cdbc:    6828        (h      LDR      r0,[r5,#0]
        0x0000cdbe:    f4207040     .@p    BIC      r0,r0,#0x300
        0x0000cdc2:    6028        (`      STR      r0,[r5,#0]
        0x0000cdc4:    9800        ..      LDR      r0,[sp,#0]
        0x0000cdc6:    f7fffa1f    ....    BL       am_hal_interrupt_master_set ; 0xc208
        0x0000cdca:    78a0        .x      LDRB     r0,[r4,#2]
        0x0000cdcc:    2102        .!      MOVS     r1,#2
        0x0000cdce:    ea010040    ..@.    AND      r0,r1,r0,LSL #1
        0x0000cdd2:    7821        !x      LDRB     r1,[r4,#0]
        0x0000cdd4:    22f0        ."      MOVS     r2,#0xf0
        0x0000cdd6:    ea021101    ....    AND      r1,r2,r1,LSL #4
        0x0000cdda:    4308        .C      ORRS     r0,r0,r1
        0x0000cddc:    7861        ax      LDRB     r1,[r4,#1]
        0x0000cdde:    f44f7240    O.@r    MOV      r2,#0x300
        0x0000cde2:    ea022101    ...!    AND      r1,r2,r1,LSL #8
        0x0000cde6:    4308        .C      ORRS     r0,r0,r1
        0x0000cde8:    f4406080    @..`    ORR      r0,r0,#0x400
        0x0000cdec:    f4401080    @...    ORR      r0,r0,#0x100000
        0x0000cdf0:    6028        (`      STR      r0,[r5,#0]
        0x0000cdf2:    2000        .       MOVS     r0,#0
        0x0000cdf4:    bd38        8.      POP      {r3-r5,pc}
    $d
        0x0000cdf6:    0000        ..      DCW    0
        0x0000cdf8:    40018000    ...@    DCD    1073840128
    $t
    i.am_hal_cachectrl_enable
    am_hal_cachectrl_enable
        0x0000cdfc:    4803        .H      LDR      r0,[pc,#12] ; [0xce0c] = 0x40018000
        0x0000cdfe:    6801        .h      LDR      r1,[r0,#0]
        0x0000ce00:    f0410101    A...    ORR      r1,r1,#1
        0x0000ce04:    6001        .`      STR      r1,[r0,#0]
        0x0000ce06:    2000        .       MOVS     r0,#0
        0x0000ce08:    4770        pG      BX       lr
    $d
        0x0000ce0a:    0000        ..      DCW    0
        0x0000ce0c:    40018000    ...@    DCD    1073840128
    $t
    i.am_hal_clkgen_control
    am_hal_clkgen_control
        0x0000ce10:    b510        ..      PUSH     {r4,lr}
        0x0000ce12:    460c        .F      MOV      r4,r1
        0x0000ce14:    4939        9I      LDR      r1,[pc,#228] ; [0xcefc] = 0x10000098
        0x0000ce16:    680a        .h      LDR      r2,[r1,#0]
        0x0000ce18:    b912        ..      CBNZ     r2,0xce20 ; am_hal_clkgen_control + 16
        0x0000ce1a:    4a39        9J      LDR      r2,[pc,#228] ; [0xcf00] = 0x4ffff000
        0x0000ce1c:    6812        .h      LDR      r2,[r2,#0]
        0x0000ce1e:    600a        .`      STR      r2,[r1,#0]
        0x0000ce20:    280a        .(      CMP      r0,#0xa
        0x0000ce22:    d269        i.      BCS      0xcef8 ; am_hal_clkgen_control + 232
        0x0000ce24:    e8dff000    ....    TBB      [pc,r0]
    $d
        0x0000ce28:    27151b05    ...'    DCD    655694597
        0x0000ce2c:    3a400c21    !.@:    DCD    977275937
        0x0000ce30:    6047        G`      DCW    24647
    $t
        0x0000ce32:    f04f2040    O.@     MOV      r0,#0x40004000
        0x0000ce36:    2147        G!      MOVS     r1,#0x47
        0x0000ce38:    6141        Aa      STR      r1,[r0,#0x14]
        0x0000ce3a:    2100        .!      MOVS     r1,#0
        0x0000ce3c:    6181        .a      STR      r1,[r0,#0x18]
        0x0000ce3e:    e006        ..      B        0xce4e ; am_hal_clkgen_control + 62
        0x0000ce40:    f04f2040    O.@     MOV      r0,#0x40004000
        0x0000ce44:    2147        G!      MOVS     r1,#0x47
        0x0000ce46:    6141        Aa      STR      r1,[r0,#0x14]
        0x0000ce48:    2101        .!      MOVS     r1,#1
        0x0000ce4a:    6181        .a      STR      r1,[r0,#0x18]
        0x0000ce4c:    2100        .!      MOVS     r1,#0
        0x0000ce4e:    6141        Aa      STR      r1,[r0,#0x14]
        0x0000ce50:    e050        P.      B        0xcef4 ; am_hal_clkgen_control + 228
        0x0000ce52:    f04f2040    O.@     MOV      r0,#0x40004000
        0x0000ce56:    68c1        .h      LDR      r1,[r0,#0xc]
        0x0000ce58:    f0210102    !...    BIC      r1,r1,#2
        0x0000ce5c:    e029        ).      B        0xceb2 ; am_hal_clkgen_control + 162
        0x0000ce5e:    f04f2040    O.@     MOV      r0,#0x40004000
        0x0000ce62:    68c1        .h      LDR      r1,[r0,#0xc]
        0x0000ce64:    f0210101    !...    BIC      r1,r1,#1
        0x0000ce68:    e023        #.      B        0xceb2 ; am_hal_clkgen_control + 162
        0x0000ce6a:    f04f2040    O.@     MOV      r0,#0x40004000
        0x0000ce6e:    68c1        .h      LDR      r1,[r0,#0xc]
        0x0000ce70:    f0410102    A...    ORR      r1,r1,#2
        0x0000ce74:    e01d        ..      B        0xceb2 ; am_hal_clkgen_control + 162
        0x0000ce76:    4823        #H      LDR      r0,[pc,#140] ; [0xcf04] = 0x40020000
        0x0000ce78:    68c1        .h      LDR      r1,[r0,#0xc]
        0x0000ce7a:    b2c9        ..      UXTB     r1,r1
        0x0000ce7c:    2921        !)      CMP      r1,#0x21
        0x0000ce7e:    d107        ..      BNE      0xce90 ; am_hal_clkgen_control + 128
        0x0000ce80:    f8d01120    .. .    LDR      r1,[r0,#0x120]
        0x0000ce84:    f4217140    !.@q    BIC      r1,r1,#0x300
        0x0000ce88:    f5017180    ...q    ADD      r1,r1,#0x100
        0x0000ce8c:    f8c01120    .. .    STR      r1,[r0,#0x120]
        0x0000ce90:    f04f2040    O.@     MOV      r0,#0x40004000
        0x0000ce94:    68c1        .h      LDR      r1,[r0,#0xc]
        0x0000ce96:    f0410101    A...    ORR      r1,r1,#1
        0x0000ce9a:    e00a        ..      B        0xceb2 ; am_hal_clkgen_control + 162
        0x0000ce9c:    f04f2040    O.@     MOV      r0,#0x40004000
        0x0000cea0:    68c1        .h      LDR      r1,[r0,#0xc]
        0x0000cea2:    f0410180    A...    ORR      r1,r1,#0x80
        0x0000cea6:    e004        ..      B        0xceb2 ; am_hal_clkgen_control + 162
        0x0000cea8:    f04f2040    O.@     MOV      r0,#0x40004000
        0x0000ceac:    68c1        .h      LDR      r1,[r0,#0xc]
        0x0000ceae:    f0210180    !...    BIC      r1,r1,#0x80
        0x0000ceb2:    60c1        .`      STR      r1,[r0,#0xc]
        0x0000ceb4:    e01e        ..      B        0xcef4 ; am_hal_clkgen_control + 228
        0x0000ceb6:    4813        .H      LDR      r0,[pc,#76] ; [0xcf04] = 0x40020000
        0x0000ceb8:    68c1        .h      LDR      r1,[r0,#0xc]
        0x0000ceba:    b2c9        ..      UXTB     r1,r1
        0x0000cebc:    2921        !)      CMP      r1,#0x21
        0x0000cebe:    d109        ..      BNE      0xced4 ; am_hal_clkgen_control + 196
        0x0000cec0:    f8d01120    .. .    LDR      r1,[r0,#0x120]
        0x0000cec4:    f4417140    A.@q    ORR      r1,r1,#0x300
        0x0000cec8:    f8c01120    .. .    STR      r1,[r0,#0x120]
        0x0000cecc:    f44f507a    O.zP    MOV      r0,#0x3e80
        0x0000ced0:    f000f836    ..6.    BL       am_hal_flash_delay ; 0xcf40
        0x0000ced4:    2c00        .,      CMP      r4,#0
        0x0000ced6:    bf0c        ..      ITE      EQ
        0x0000ced8:    480b        .H      LDREQ    r0,[pc,#44] ; [0xcf08] = 0x25b801
        0x0000ceda:    6820         h      LDRNE    r0,[r4,#0]
        0x0000cedc:    f0400001    @...    ORR      r0,r0,#1
        0x0000cee0:    f04f2140    O.@!    MOV      r1,#0x40004000
        0x0000cee4:    6208        .b      STR      r0,[r1,#0x20]
        0x0000cee6:    e005        ..      B        0xcef4 ; am_hal_clkgen_control + 228
        0x0000cee8:    f04f2040    O.@     MOV      r0,#0x40004000
        0x0000ceec:    6a01        .j      LDR      r1,[r0,#0x20]
        0x0000ceee:    f0210101    !...    BIC      r1,r1,#1
        0x0000cef2:    6201        .b      STR      r1,[r0,#0x20]
        0x0000cef4:    2000        .       MOVS     r0,#0
        0x0000cef6:    bd10        ..      POP      {r4,pc}
        0x0000cef8:    2006        .       MOVS     r0,#6
        0x0000cefa:    bd10        ..      POP      {r4,pc}
    $d
        0x0000cefc:    10000098    ....    DCD    268435608
        0x0000cf00:    4ffff000    ...O    DCD    1342173184
        0x0000cf04:    40020000    ...@    DCD    1073872896
        0x0000cf08:    0025b801    ..%.    DCD    2471937
    $t
    i.am_hal_clkgen_status_get
    am_hal_clkgen_status_get
        0x0000cf0c:    2800        .(      CMP      r0,#0
        0x0000cf0e:    bf04        ..      ITT      EQ
        0x0000cf10:    2006        .       MOVEQ    r0,#6
        0x0000cf12:    4770        pG      BXEQ     lr
        0x0000cf14:    f04f2140    O.@!    MOV      r1,#0x40004000
        0x0000cf18:    698a        .i      LDR      r2,[r1,#0x18]
        0x0000cf1a:    f0120f01    ....    TST      r2,#1
        0x0000cf1e:    bf14        ..      ITE      NE
        0x0000cf20:    4a05        .J      LDRNE    r2,[pc,#20] ; [0xcf38] = 0x16e3600
        0x0000cf22:    4a06        .J      LDREQ    r2,[pc,#24] ; [0xcf3c] = 0x2dc6c00
        0x0000cf24:    6002        .`      STR      r2,[r0,#0]
        0x0000cf26:    69c9        .i      LDR      r1,[r1,#0x1c]
        0x0000cf28:    f0010201    ....    AND      r2,r1,#1
        0x0000cf2c:    f3c10140    ..@.    UBFX     r1,r1,#1,#1
        0x0000cf30:    6042        B`      STR      r2,[r0,#4]
        0x0000cf32:    7201        .r      STRB     r1,[r0,#8]
        0x0000cf34:    2000        .       MOVS     r0,#0
        0x0000cf36:    4770        pG      BX       lr
    $d
        0x0000cf38:    016e3600    .6n.    DCD    24000000
        0x0000cf3c:    02dc6c00    .l..    DCD    48000000
    $t
    i.am_hal_flash_delay
    am_hal_flash_delay
        0x0000cf40:    f04f2140    O.@!    MOV      r1,#0x40004000
        0x0000cf44:    6b49        Ik      LDR      r1,[r1,#0x34]
        0x0000cf46:    f0110f04    ....    TST      r1,#4
        0x0000cf4a:    bf1a        ..      ITTE     NE
        0x0000cf4c:    0040        @.      LSLNE    r0,r0,#1
        0x0000cf4e:    210e        .!      MOVNE    r1,#0xe
        0x0000cf50:    210b        .!      MOVEQ    r1,#0xb
        0x0000cf52:    4288        .B      CMP      r0,r1
        0x0000cf54:    bf98        ..      IT       LS
        0x0000cf56:    4770        pG      BXLS     lr
        0x0000cf58:    1a40        @.      SUBS     r0,r0,r1
        0x0000cf5a:    4901        .I      LDR      r1,[pc,#4] ; [0xcf60] = 0x800009d
        0x0000cf5c:    4708        .G      BX       r1
    $d
        0x0000cf5e:    0000        ..      DCW    0
        0x0000cf60:    0800009d    ....    DCD    134217885
    $t
    i.am_hal_gpio_pinconfig
    am_hal_gpio_pinconfig
        0x0000cf64:    e92d4ff0    -..O    PUSH     {r4-r11,lr}
        0x0000cf68:    2500        .%      MOVS     r5,#0
        0x0000cf6a:    b08b        ..      SUB      sp,sp,#0x2c
        0x0000cf6c:    4604        .F      MOV      r4,r0
        0x0000cf6e:    2832        2(      CMP      r0,#0x32
        0x0000cf70:    bf22        ".      ITTT     CS
        0x0000cf72:    2006        .       MOVCS    r0,#6
        0x0000cf74:    b00b        ..      ADDCS    sp,sp,#0x2c
        0x0000cf76:    e8bd8ff0    ....    POPCS    {r4-r11,pc}
        0x0000cf7a:    2200        ."      MOVS     r2,#0
        0x0000cf7c:    f0010307    ....    AND      r3,r1,#7
        0x0000cf80:    4f8b        .O      LDR      r7,[pc,#556] ; [0xd1b0] = 0xeede
        0x0000cf82:    f3c10cc1    ....    UBFX     r12,r1,#3,#2
        0x0000cf86:    ea4200c3    B...    ORR      r0,r2,r3,LSL #3
        0x0000cf8a:    f0110fe0    ....    TST      r1,#0xe0
        0x0000cf8e:    d021        !.      BEQ      0xcfd4 ; am_hal_gpio_pinconfig + 112
        0x0000cf90:    f3c11642    ..B.    UBFX     r6,r1,#5,#3
        0x0000cf94:    f1a60902    ....    SUB      r9,r6,#2
        0x0000cf98:    f8df8218    ....    LDR      r8,[pc,#536] ; [0xd1b4] = 0x8000100
        0x0000cf9c:    f0400001    @...    ORR      r0,r0,#1
        0x0000cfa0:    f1b90f03    ....    CMP      r9,#3
        0x0000cfa4:    d809        ..      BHI      0xcfba ; am_hal_gpio_pinconfig + 86
        0x0000cfa6:    f06f097f    o...    MVN      r9,#0x7f
        0x0000cfaa:    eb091686    ....    ADD      r6,r9,r6,LSL #6
        0x0000cfae:    4330        0C      ORRS     r0,r0,r6
        0x0000cfb0:    5d3e        >]      LDRB     r6,[r7,r4]
        0x0000cfb2:    f0160f01    ....    TST      r6,#1
        0x0000cfb6:    d10d        ..      BNE      0xcfd4 ; am_hal_gpio_pinconfig + 112
        0x0000cfb8:    e016        ..      B        0xcfe8 ; am_hal_gpio_pinconfig + 132
        0x0000cfba:    2e06        ..      CMP      r6,#6
        0x0000cfbc:    d004        ..      BEQ      0xcfc8 ; am_hal_gpio_pinconfig + 100
        0x0000cfbe:    2e01        ..      CMP      r6,#1
        0x0000cfc0:    bf08        ..      IT       EQ
        0x0000cfc2:    2c14        .,      CMPEQ    r4,#0x14
        0x0000cfc4:    d010        ..      BEQ      0xcfe8 ; am_hal_gpio_pinconfig + 132
        0x0000cfc6:    e005        ..      B        0xcfd4 ; am_hal_gpio_pinconfig + 112
        0x0000cfc8:    2c14        .,      CMP      r4,#0x14
        0x0000cfca:    bf1e        ..      ITTT     NE
        0x0000cfcc:    487a        zH      LDRNE    r0,[pc,#488] ; [0xd1b8] = 0x8000101
        0x0000cfce:    b00b        ..      ADDNE    sp,sp,#0x2c
        0x0000cfd0:    e8bd8ff0    ....    POPNE    {r4-r11,pc}
        0x0000cfd4:    f1bc0f00    ....    CMP      r12,#0
        0x0000cfd8:    d012        ..      BEQ      0xd000 ; am_hal_gpio_pinconfig + 156
        0x0000cfda:    f1bc0f01    ....    CMP      r12,#1
        0x0000cfde:    d007        ..      BEQ      0xcff0 ; am_hal_gpio_pinconfig + 140
        0x0000cfe0:    f1bc0f02    ....    CMP      r12,#2
        0x0000cfe4:    d03a        :.      BEQ      0xd05c ; am_hal_gpio_pinconfig + 248
        0x0000cfe6:    e041        A.      B        0xd06c ; am_hal_gpio_pinconfig + 264
        0x0000cfe8:    b00b        ..      ADD      sp,sp,#0x2c
        0x0000cfea:    4640        @F      MOV      r0,r8
        0x0000cfec:    e8bd8ff0    ....    POP      {r4-r11,pc}
        0x0000cff0:    f817c004    ....    LDRB     r12,[r7,r4]
        0x0000cff4:    f01c0f02    ....    TST      r12,#2
        0x0000cff8:    bf18        ..      IT       NE
        0x0000cffa:    f0400040    @.@.    ORRNE    r0,r0,#0x40
        0x0000cffe:    d035        5.      BEQ      0xd06c ; am_hal_gpio_pinconfig + 264
        0x0000d000:    f8dfc1b8    ....    LDR      r12,[pc,#440] ; [0xd1bc] = 0xeeac
        0x0000d004:    f81c6004    ...`    LDRB     r6,[r12,r4]
        0x0000d008:    f04f0c01    O...    MOV      r12,#1
        0x0000d00c:    fa0cfc03    ....    LSL      r12,r12,r3
        0x0000d010:    ea160c0c    ....    ANDS     r12,r6,r12
        0x0000d014:    bf18        ..      IT       NE
        0x0000d016:    f04f0c02    O...    MOVNE    r12,#2
        0x0000d01a:    ea4c0000    L...    ORR      r0,r12,r0
        0x0000d01e:    f8dfc1a0    ....    LDR      r12,[pc,#416] ; [0xd1c0] = 0xef10
        0x0000d022:    f81cc004    ....    LDRB     r12,[r12,r4]
        0x0000d026:    459c        .E      CMP      r12,r3
        0x0000d028:    d132        2.      BNE      0xd090 ; am_hal_gpio_pinconfig + 300
        0x0000d02a:    f3c14302    ...C    UBFX     r3,r1,#16,#3
        0x0000d02e:    2b06        .+      CMP      r3,#6
        0x0000d030:    bf82        ..      ITTT     HI
        0x0000d032:    4864        dH      LDRHI    r0,[pc,#400] ; [0xd1c4] = 0x8000103
        0x0000d034:    b00b        ..      ADDHI    sp,sp,#0x2c
        0x0000d036:    e8bd8ff0    ....    POPHI    {r4-r11,pc}
        0x0000d03a:    f3c14cc1    ...L    UBFX     r12,r1,#19,#2
        0x0000d03e:    ea4c1603    L...    ORR      r6,r12,r3,LSL #4
        0x0000d042:    f8dfc184    ....    LDR      r12,[pc,#388] ; [0xd1c8] = 0xef42
        0x0000d046:    2300        .#      MOVS     r3,#0
        0x0000d048:    eb0c0c84    ....    ADD      r12,r12,r4,LSL #2
        0x0000d04c:    f81c7003    ...p    LDRB     r7,[r12,r3]
        0x0000d050:    42b7        .B      CMP      r7,r6
        0x0000d052:    d00f        ..      BEQ      0xd074 ; am_hal_gpio_pinconfig + 272
        0x0000d054:    1c5b        [.      ADDS     r3,r3,#1
        0x0000d056:    2b04        .+      CMP      r3,#4
        0x0000d058:    d3f8        ..      BCC      0xd04c ; am_hal_gpio_pinconfig + 232
        0x0000d05a:    e00d        ..      B        0xd078 ; am_hal_gpio_pinconfig + 276
        0x0000d05c:    f817c004    ....    LDRB     r12,[r7,r4]
        0x0000d060:    f01c0f04    ....    TST      r12,#4
        0x0000d064:    bf18        ..      IT       NE
        0x0000d066:    f0400080    @...    ORRNE    r0,r0,#0x80
        0x0000d06a:    d1c9        ..      BNE      0xd000 ; am_hal_gpio_pinconfig + 156
        0x0000d06c:    b00b        ..      ADD      sp,sp,#0x2c
        0x0000d06e:    4857        WH      LDR      r0,[pc,#348] ; [0xd1cc] = 0x8000102
        0x0000d070:    e8bd8ff0    ....    POP      {r4-r11,pc}
        0x0000d074:    2b04        .+      CMP      r3,#4
        0x0000d076:    d303        ..      BCC      0xd080 ; am_hal_gpio_pinconfig + 284
        0x0000d078:    b00b        ..      ADD      sp,sp,#0x2c
        0x0000d07a:    4855        UH      LDR      r0,[pc,#340] ; [0xd1d0] = 0x8000104
        0x0000d07c:    e8bd8ff0    ....    POP      {r4-r11,pc}
        0x0000d080:    005b        [.      LSLS     r3,r3,#1
        0x0000d082:    f3c15c40    ..@\    UBFX     r12,r1,#21,#1
        0x0000d086:    ea430ccc    C...    ORR      r12,r3,r12,LSL #3
        0x0000d08a:    ea4c0302    L...    ORR      r3,r12,r2
        0x0000d08e:    e022        ".      B        0xd0d6 ; am_hal_gpio_pinconfig + 370
        0x0000d090:    f3c13300    ...3    UBFX     r3,r1,#12,#1
        0x0000d094:    f3c12c81    ...,    UBFX     r12,r1,#10,#2
        0x0000d098:    ea400043    @.C.    ORR      r0,r0,r3,LSL #1
        0x0000d09c:    ea4f064c    O.L.    LSL      r6,r12,#1
        0x0000d0a0:    f3c13340    ..@3    UBFX     r3,r1,#13,#1
        0x0000d0a4:    ea4603c3    F...    ORR      r3,r6,r3,LSL #3
        0x0000d0a8:    f3c13641    ..A6    UBFX     r6,r1,#13,#2
        0x0000d0ac:    ea430356    C.V.    ORR      r3,r3,r6,LSR #1
        0x0000d0b0:    f1bc0f01    ....    CMP      r12,#1
        0x0000d0b4:    d005        ..      BEQ      0xd0c2 ; am_hal_gpio_pinconfig + 350
        0x0000d0b6:    f8dfc11c    ....    LDR      r12,[pc,#284] ; [0xd1d4] = 0xeea8
        0x0000d0ba:    f8dcc000    ....    LDR      r12,[r12,#0]
        0x0000d0be:    4561        aE      CMP      r1,r12
        0x0000d0c0:    d100        ..      BNE      0xd0c4 ; am_hal_gpio_pinconfig + 352
        0x0000d0c2:    2501        .%      MOVS     r5,#1
        0x0000d0c4:    f4114fc0    ...O    TST      r1,#0x6000
        0x0000d0c8:    d105        ..      BNE      0xd0d6 ; am_hal_gpio_pinconfig + 370
        0x0000d0ca:    f0230301    #...    BIC      r3,r3,#1
        0x0000d0ce:    f3c13cc0    ...<    UBFX     r12,r1,#15,#1
        0x0000d0d2:    ea4c0303    L...    ORR      r3,r12,r3
        0x0000d0d6:    f3c12101    ...!    UBFX     r1,r1,#8,#2
        0x0000d0da:    b179        y.      CBZ      r1,0xd0fc ; am_hal_gpio_pinconfig + 408
        0x0000d0dc:    2901        .)      CMP      r1,#1
        0x0000d0de:    bf08        ..      IT       EQ
        0x0000d0e0:    f0400004    @...    ORREQ    r0,r0,#4
        0x0000d0e4:    d00a        ..      BEQ      0xd0fc ; am_hal_gpio_pinconfig + 408
        0x0000d0e6:    2902        .)      CMP      r1,#2
        0x0000d0e8:    bf08        ..      IT       EQ
        0x0000d0ea:    f0420201    B...    ORREQ    r2,r2,#1
        0x0000d0ee:    d005        ..      BEQ      0xd0fc ; am_hal_gpio_pinconfig + 408
        0x0000d0f0:    2903        .)      CMP      r1,#3
        0x0000d0f2:    bf04        ..      ITT      EQ
        0x0000d0f4:    f0400004    @...    ORREQ    r0,r0,#4
        0x0000d0f8:    f0420201    B...    ORREQ    r2,r2,#1
        0x0000d0fc:    f06f0103    o...    MVN      r1,#3
        0x0000d100:    f8dfc0d4    ....    LDR      r12,[pc,#212] ; [0xd1d8] = 0x40010040
        0x0000d104:    ea010154    ..T.    AND      r1,r1,r4,LSR #1
        0x0000d108:    eb01090c    ....    ADD      r9,r1,r12
        0x0000d10c:    f0240103    $...    BIC      r1,r4,#3
        0x0000d110:    f8dfc0c8    ....    LDR      r12,[pc,#200] ; [0xd1dc] = 0x400100e0
        0x0000d114:    f1014880    ...H    ADD      r8,r1,#0x40000000
        0x0000d118:    eb01070c    ....    ADD      r7,r1,r12
        0x0000d11c:    0761        a.      LSLS     r1,r4,#29
        0x0000d11e:    ea4f6cd1    O..l    LSR      r12,r1,#27
        0x0000d122:    07a1        ..      LSLS     r1,r4,#30
        0x0000d124:    0ec9        ..      LSRS     r1,r1,#27
        0x0000d126:    260f        .&      MOVS     r6,#0xf
        0x0000d128:    fa06f60c    ....    LSL      r6,r6,r12
        0x0000d12c:    ea6f0a06    o...    MVN      r10,r6
        0x0000d130:    26ff        .&      MOVS     r6,#0xff
        0x0000d132:    408e        .@      LSLS     r6,r6,r1
        0x0000d134:    4088        .@      LSLS     r0,r0,r1
        0x0000d136:    9000        ..      STR      r0,[sp,#0]
        0x0000d138:    fa02f001    ....    LSL      r0,r2,r1
        0x0000d13c:    f5083880    ...8    ADD      r8,r8,#0x10000
        0x0000d140:    43f6        .C      MVNS     r6,r6
        0x0000d142:    fa03fb0c    ....    LSL      r11,r3,r12
        0x0000d146:    9002        ..      STR      r0,[sp,#8]
        0x0000d148:    f7fff85a    ..Z.    BL       am_hal_interrupt_master_disable ; 0xc200
        0x0000d14c:    9003        ..      STR      r0,[sp,#0xc]
        0x0000d14e:    b165        e.      CBZ      r5,0xd16a ; am_hal_gpio_pinconfig + 518
        0x0000d150:    f004011f    ....    AND      r1,r4,#0x1f
        0x0000d154:    2001        .       MOVS     r0,#1
        0x0000d156:    4088        .@      LSLS     r0,r0,r1
        0x0000d158:    2104        .!      MOVS     r1,#4
        0x0000d15a:    ea0101d4    ....    AND      r1,r1,r4,LSR #3
        0x0000d15e:    f1014180    ...A    ADD      r1,r1,#0x40000000
        0x0000d162:    f5013180    ...1    ADD      r1,r1,#0x10000
        0x0000d166:    f8c100b4    ....    STR      r0,[r1,#0xb4]
        0x0000d16a:    481d        .H      LDR      r0,[pc,#116] ; [0xd1e0] = 0x40010000
        0x0000d16c:    2173        s!      MOVS     r1,#0x73
        0x0000d16e:    6601        .f      STR      r1,[r0,#0x60]
        0x0000d170:    f8d81000    ....    LDR      r1,[r8,#0]
        0x0000d174:    ea010206    ....    AND      r2,r1,r6
        0x0000d178:    9900        ..      LDR      r1,[sp,#0]
        0x0000d17a:    4311        .C      ORRS     r1,r1,r2
        0x0000d17c:    f8c81000    ....    STR      r1,[r8,#0]
        0x0000d180:    f8d91000    ....    LDR      r1,[r9,#0]
        0x0000d184:    ea01010a    ....    AND      r1,r1,r10
        0x0000d188:    ea41010b    A...    ORR      r1,r1,r11
        0x0000d18c:    f8c91000    ....    STR      r1,[r9,#0]
        0x0000d190:    6839        9h      LDR      r1,[r7,#0]
        0x0000d192:    ea010206    ....    AND      r2,r1,r6
        0x0000d196:    9902        ..      LDR      r1,[sp,#8]
        0x0000d198:    4311        .C      ORRS     r1,r1,r2
        0x0000d19a:    6039        9`      STR      r1,[r7,#0]
        0x0000d19c:    2100        .!      MOVS     r1,#0
        0x0000d19e:    6601        .f      STR      r1,[r0,#0x60]
        0x0000d1a0:    9803        ..      LDR      r0,[sp,#0xc]
        0x0000d1a2:    f7fff831    ..1.    BL       am_hal_interrupt_master_set ; 0xc208
        0x0000d1a6:    b00b        ..      ADD      sp,sp,#0x2c
        0x0000d1a8:    2000        .       MOVS     r0,#0
        0x0000d1aa:    e8bd8ff0    ....    POP      {r4-r11,pc}
    $d
        0x0000d1ae:    0000        ..      DCW    0
        0x0000d1b0:    0000eede    ....    DCD    61150
        0x0000d1b4:    08000100    ....    DCD    134217984
        0x0000d1b8:    08000101    ....    DCD    134217985
        0x0000d1bc:    0000eeac    ....    DCD    61100
        0x0000d1c0:    0000ef10    ....    DCD    61200
        0x0000d1c4:    08000103    ....    DCD    134217987
        0x0000d1c8:    0000ef42    B...    DCD    61250
        0x0000d1cc:    08000102    ....    DCD    134217986
        0x0000d1d0:    08000104    ....    DCD    134217988
        0x0000d1d4:    0000eea8    ....    DCD    61096
        0x0000d1d8:    40010040    @..@    DCD    1073807424
        0x0000d1dc:    400100e0    ...@    DCD    1073807584
        0x0000d1e0:    40010000    ...@    DCD    1073807360
    $t
    i.am_hal_gpio_state_write
    am_hal_gpio_state_write
        0x0000d1e4:    b5f8        ..      PUSH     {r3-r7,lr}
        0x0000d1e6:    2700        .'      MOVS     r7,#0
        0x0000d1e8:    460d        .F      MOV      r5,r1
        0x0000d1ea:    4606        .F      MOV      r6,r0
        0x0000d1ec:    2832        2(      CMP      r0,#0x32
        0x0000d1ee:    bf24        $.      ITT      CS
        0x0000d1f0:    2005        .       MOVCS    r0,#5
        0x0000d1f2:    bdf8        ..      POPCS    {r3-r7,pc}
        0x0000d1f4:    2d05        .-      CMP      r5,#5
        0x0000d1f6:    bf84        ..      ITT      HI
        0x0000d1f8:    2006        .       MOVHI    r0,#6
        0x0000d1fa:    bdf8        ..      POPHI    {r3-r7,pc}
        0x0000d1fc:    f006001f    ....    AND      r0,r6,#0x1f
        0x0000d200:    2101        .!      MOVS     r1,#1
        0x0000d202:    fa01f400    ....    LSL      r4,r1,r0
        0x0000d206:    f7fefffb    ....    BL       am_hal_interrupt_master_disable ; 0xc200
        0x0000d20a:    9000        ..      STR      r0,[sp,#0]
        0x0000d20c:    2004        .       MOVS     r0,#4
        0x0000d20e:    ea0000d6    ....    AND      r0,r0,r6,LSR #3
        0x0000d212:    f1004080    ...@    ADD      r0,r0,#0x40000000
        0x0000d216:    f5003080    ...0    ADD      r0,r0,#0x10000
        0x0000d21a:    2d06        .-      CMP      r5,#6
        0x0000d21c:    d21c        ..      BCS      0xd258 ; am_hal_gpio_state_write + 116
        0x0000d21e:    e8dff005    ....    TBB      [pc,r5]
    $d
        0x0000d222:    0306        ..      DCW    774
        0x0000d224:    150f1209    ....    DCD    353309193
    $t
        0x0000d228:    f8c04090    ...@    STR      r4,[r0,#0x90]
        0x0000d22c:    e015        ..      B        0xd25a ; am_hal_gpio_state_write + 118
        0x0000d22e:    f8c04098    ...@    STR      r4,[r0,#0x98]
        0x0000d232:    e012        ..      B        0xd25a ; am_hal_gpio_state_write + 118
        0x0000d234:    f8d01088    ....    LDR      r1,[r0,#0x88]
        0x0000d238:    4061        a@      EORS     r1,r1,r4
        0x0000d23a:    f8c01088    ....    STR      r1,[r0,#0x88]
        0x0000d23e:    e00c        ..      B        0xd25a ; am_hal_gpio_state_write + 118
        0x0000d240:    f8c040a8    ...@    STR      r4,[r0,#0xa8]
        0x0000d244:    e009        ..      B        0xd25a ; am_hal_gpio_state_write + 118
        0x0000d246:    f8c040b4    ...@    STR      r4,[r0,#0xb4]
        0x0000d24a:    e006        ..      B        0xd25a ; am_hal_gpio_state_write + 118
        0x0000d24c:    f8d010b4    ....    LDR      r1,[r0,#0xb4]
        0x0000d250:    4061        a@      EORS     r1,r1,r4
        0x0000d252:    f8c010b4    ....    STR      r1,[r0,#0xb4]
        0x0000d256:    e000        ..      B        0xd25a ; am_hal_gpio_state_write + 118
        0x0000d258:    2706        .'      MOVS     r7,#6
        0x0000d25a:    9800        ..      LDR      r0,[sp,#0]
        0x0000d25c:    f7feffd4    ....    BL       am_hal_interrupt_master_set ; 0xc208
        0x0000d260:    4638        8F      MOV      r0,r7
        0x0000d262:    bdf8        ..      POP      {r3-r7,pc}
    i.am_hal_itm_enable
    am_hal_itm_enable
        0x0000d264:    480a        .H      LDR      r0,[pc,#40] ; [0xd290] = 0xe000edfc
        0x0000d266:    6801        .h      LDR      r1,[r0,#0]
        0x0000d268:    f0417180    A..q    ORR      r1,r1,#0x1000000
        0x0000d26c:    6001        .`      STR      r1,[r0,#0]
        0x0000d26e:    6801        .h      LDR      r1,[r0,#0]
        0x0000d270:    f0117f80    ....    TST      r1,#0x1000000
        0x0000d274:    d0fb        ..      BEQ      0xd26e ; am_hal_itm_enable + 10
        0x0000d276:    4908        .I      LDR      r1,[pc,#32] ; [0xd298] = 0xe0000fb0
        0x0000d278:    4806        .H      LDR      r0,[pc,#24] ; [0xd294] = 0xc5acce55
        0x0000d27a:    6008        .`      STR      r0,[r1,#0]
        0x0000d27c:    4907        .I      LDR      r1,[pc,#28] ; [0xd29c] = 0xe0000e40
        0x0000d27e:    200f        .       MOVS     r0,#0xf
        0x0000d280:    6008        .`      STR      r0,[r1,#0]
        0x0000d282:    1748        H.      ASRS     r0,r1,#29
        0x0000d284:    4906        .I      LDR      r1,[pc,#24] ; [0xd2a0] = 0xe0000e00
        0x0000d286:    6008        .`      STR      r0,[r1,#0]
        0x0000d288:    4907        .I      LDR      r1,[pc,#28] ; [0xd2a8] = 0xe0000e80
        0x0000d28a:    4806        .H      LDR      r0,[pc,#24] ; [0xd2a4] = 0x150511
        0x0000d28c:    6008        .`      STR      r0,[r1,#0]
        0x0000d28e:    4770        pG      BX       lr
    $d
        0x0000d290:    e000edfc    ....    DCD    3758157308
        0x0000d294:    c5acce55    U...    DCD    3316436565
        0x0000d298:    e0000fb0    ....    DCD    3758100400
        0x0000d29c:    e0000e40    @...    DCD    3758100032
        0x0000d2a0:    e0000e00    ....    DCD    3758099968
        0x0000d2a4:    00150511    ....    DCD    1377553
        0x0000d2a8:    e0000e80    ....    DCD    3758100096
    $t
    i.am_hal_itm_print
    am_hal_itm_print
        0x0000d2ac:    7802        .x      LDRB     r2,[r0,#0]
        0x0000d2ae:    2100        .!      MOVS     r1,#0
        0x0000d2b0:    2a00        .*      CMP      r2,#0
        0x0000d2b2:    bf08        ..      IT       EQ
        0x0000d2b4:    4770        pG      BXEQ     lr
        0x0000d2b6:    1c49        I.      ADDS     r1,r1,#1
        0x0000d2b8:    5c42        B\      LDRB     r2,[r0,r1]
        0x0000d2ba:    2a00        .*      CMP      r2,#0
        0x0000d2bc:    d1fb        ..      BNE      0xd2b6 ; am_hal_itm_print + 10
        0x0000d2be:    2900        .)      CMP      r1,#0
        0x0000d2c0:    bf08        ..      IT       EQ
        0x0000d2c2:    4770        pG      BXEQ     lr
        0x0000d2c4:    f810cb01    ....    LDRB     r12,[r0],#1
        0x0000d2c8:    f04f4260    O.`B    MOV      r2,#0xe0000000
        0x0000d2cc:    6813        .h      LDR      r3,[r2,#0]
        0x0000d2ce:    2b00        .+      CMP      r3,#0
        0x0000d2d0:    d0fc        ..      BEQ      0xd2cc ; am_hal_itm_print + 32
        0x0000d2d2:    f882c000    ....    STRB     r12,[r2,#0]
        0x0000d2d6:    1e49        I.      SUBS     r1,r1,#1
        0x0000d2d8:    d1f4        ..      BNE      0xd2c4 ; am_hal_itm_print + 24
        0x0000d2da:    4770        pG      BX       lr
    i.am_hal_mcuctrl_info_get
    am_hal_mcuctrl_info_get
        0x0000d2dc:    b129        ).      CBZ      r1,0xd2ea ; am_hal_mcuctrl_info_get + 14
        0x0000d2de:    4a45        EJ      LDR      r2,[pc,#276] ; [0xd3f4] = 0x40020000
        0x0000d2e0:    b128        (.      CBZ      r0,0xd2ee ; am_hal_mcuctrl_info_get + 18
        0x0000d2e2:    2801        .(      CMP      r0,#1
        0x0000d2e4:    d017        ..      BEQ      0xd316 ; am_hal_mcuctrl_info_get + 58
        0x0000d2e6:    2802        .(      CMP      r0,#2
        0x0000d2e8:    d069        i.      BEQ      0xd3be ; am_hal_mcuctrl_info_get + 226
        0x0000d2ea:    2006        .       MOVS     r0,#6
        0x0000d2ec:    4770        pG      BX       lr
        0x0000d2ee:    6990        .i      LDR      r0,[r2,#0x18]
        0x0000d2f0:    f3c01380    ....    UBFX     r3,r0,#6,#1
        0x0000d2f4:    700b        .p      STRB     r3,[r1,#0]
        0x0000d2f6:    f3c00080    ....    UBFX     r0,r0,#2,#1
        0x0000d2fa:    7048        Hp      STRB     r0,[r1,#1]
        0x0000d2fc:    f8d201a0    ....    LDR      r0,[r2,#0x1a0]
        0x0000d300:    f3c06081    ...`    UBFX     r0,r0,#26,#2
        0x0000d304:    7108        .q      STRB     r0,[r1,#4]
        0x0000d306:    6950        Pi      LDR      r0,[r2,#0x14]
        0x0000d308:    f3c00240    ..@.    UBFX     r2,r0,#1,#1
        0x0000d30c:    708a        .p      STRB     r2,[r1,#2]
        0x0000d30e:    f0000001    ....    AND      r0,r0,#1
        0x0000d312:    70c8        .p      STRB     r0,[r1,#3]
        0x0000d314:    e06b        k.      B        0xd3ee ; am_hal_mcuctrl_info_get + 274
        0x0000d316:    6810        .h      LDR      r0,[r2,#0]
        0x0000d318:    6008        .`      STR      r0,[r1,#0]
        0x0000d31a:    6853        Sh      LDR      r3,[r2,#4]
        0x0000d31c:    604b        K`      STR      r3,[r1,#4]
        0x0000d31e:    6893        .h      LDR      r3,[r2,#8]
        0x0000d320:    608b        .`      STR      r3,[r1,#8]
        0x0000d322:    68d3        .h      LDR      r3,[r2,#0xc]
        0x0000d324:    60cb        .`      STR      r3,[r1,#0xc]
        0x0000d326:    6913        .i      LDR      r3,[r2,#0x10]
        0x0000d328:    610b        .a      STR      r3,[r1,#0x10]
        0x0000d32a:    6952        Ri      LDR      r2,[r2,#0x14]
        0x0000d32c:    614a        Ja      STR      r2,[r1,#0x14]
        0x0000d32e:    f0000201    ....    AND      r2,r0,#1
        0x0000d332:    618a        .a      STR      r2,[r1,#0x18]
        0x0000d334:    223c        <"      MOVS     r2,#0x3c
        0x0000d336:    ea024390    ...C    AND      r3,r2,r0,LSR #18
        0x0000d33a:    f8dfc0bc    ....    LDR      r12,[pc,#188] ; [0xd3f8] = 0xf010
        0x0000d33e:    ea023090    ...0    AND      r0,r2,r0,LSR #14
        0x0000d342:    f10c0240    ..@.    ADD      r2,r12,#0x40
        0x0000d346:    f85c3003    \..0    LDR      r3,[r12,r3]
        0x0000d34a:    61cb        .a      STR      r3,[r1,#0x1c]
        0x0000d34c:    5810        .X      LDR      r0,[r2,r0]
        0x0000d34e:    6208        .b      STR      r0,[r1,#0x20]
        0x0000d350:    482a        *H      LDR      r0,[pc,#168] ; [0xd3fc] = 0xf0000fe0
        0x0000d352:    6800        .h      LDR      r0,[r0,#0]
        0x0000d354:    4a2a        *J      LDR      r2,[pc,#168] ; [0xd400] = 0xf0000fe4
        0x0000d356:    b2c0        ..      UXTB     r0,r0
        0x0000d358:    6248        Hb      STR      r0,[r1,#0x24]
        0x0000d35a:    6813        .h      LDR      r3,[r2,#0]
        0x0000d35c:    f003030f    ....    AND      r3,r3,#0xf
        0x0000d360:    ea402003    @..     ORR      r0,r0,r3,LSL #8
        0x0000d364:    6248        Hb      STR      r0,[r1,#0x24]
        0x0000d366:    6810        .h      LDR      r0,[r2,#0]
        0x0000d368:    1d12        ..      ADDS     r2,r2,#4
        0x0000d36a:    f3c01003    ....    UBFX     r0,r0,#4,#4
        0x0000d36e:    6288        .b      STR      r0,[r1,#0x28]
        0x0000d370:    6813        .h      LDR      r3,[r2,#0]
        0x0000d372:    f003030f    ....    AND      r3,r3,#0xf
        0x0000d376:    ea401003    @...    ORR      r0,r0,r3,LSL #4
        0x0000d37a:    6288        .b      STR      r0,[r1,#0x28]
        0x0000d37c:    6810        .h      LDR      r0,[r2,#0]
        0x0000d37e:    f3c01003    ....    UBFX     r0,r0,#4,#4
        0x0000d382:    0100        ..      LSLS     r0,r0,#4
        0x0000d384:    1d12        ..      ADDS     r2,r2,#4
        0x0000d386:    62c8        .b      STR      r0,[r1,#0x2c]
        0x0000d388:    6812        .h      LDR      r2,[r2,#0]
        0x0000d38a:    f3c21203    ....    UBFX     r2,r2,#4,#4
        0x0000d38e:    4310        .C      ORRS     r0,r0,r2
        0x0000d390:    62c8        .b      STR      r0,[r1,#0x2c]
        0x0000d392:    481c        .H      LDR      r0,[pc,#112] ; [0xd404] = 0xf0000ffc
        0x0000d394:    6800        .h      LDR      r0,[r0,#0]
        0x0000d396:    4a1c        .J      LDR      r2,[pc,#112] ; [0xd408] = 0xf0000ff8
        0x0000d398:    0600        ..      LSLS     r0,r0,#24
        0x0000d39a:    6308        .c      STR      r0,[r1,#0x30]
        0x0000d39c:    6812        .h      LDR      r2,[r2,#0]
        0x0000d39e:    b2d2        ..      UXTB     r2,r2
        0x0000d3a0:    ea404002    @..@    ORR      r0,r0,r2,LSL #16
        0x0000d3a4:    4a19        .J      LDR      r2,[pc,#100] ; [0xd40c] = 0xf0000ff4
        0x0000d3a6:    6308        .c      STR      r0,[r1,#0x30]
        0x0000d3a8:    6812        .h      LDR      r2,[r2,#0]
        0x0000d3aa:    b2d2        ..      UXTB     r2,r2
        0x0000d3ac:    ea402002    @..     ORR      r0,r0,r2,LSL #8
        0x0000d3b0:    4a17        .J      LDR      r2,[pc,#92] ; [0xd410] = 0xf0000ff0
        0x0000d3b2:    6308        .c      STR      r0,[r1,#0x30]
        0x0000d3b4:    6812        .h      LDR      r2,[r2,#0]
        0x0000d3b6:    b2d2        ..      UXTB     r2,r2
        0x0000d3b8:    4310        .C      ORRS     r0,r0,r2
        0x0000d3ba:    6308        .c      STR      r0,[r1,#0x30]
        0x0000d3bc:    e017        ..      B        0xd3ee ; am_hal_mcuctrl_info_get + 274
        0x0000d3be:    f8d201cc    ....    LDR      r0,[r2,#0x1cc]
        0x0000d3c2:    f0000301    ....    AND      r3,r0,#1
        0x0000d3c6:    700b        .p      STRB     r3,[r1,#0]
        0x0000d3c8:    f3c00340    ..@.    UBFX     r3,r0,#1,#1
        0x0000d3cc:    720b        .r      STRB     r3,[r1,#8]
        0x0000d3ce:    f3c00080    ....    UBFX     r0,r0,#2,#1
        0x0000d3d2:    7408        .t      STRB     r0,[r1,#0x10]
        0x0000d3d4:    f8d201c4    ....    LDR      r0,[r2,#0x1c4]
        0x0000d3d8:    60c8        .`      STR      r0,[r1,#0xc]
        0x0000d3da:    6848        Hh      LDR      r0,[r1,#4]
        0x0000d3dc:    f8d231c0    ...1    LDR      r3,[r2,#0x1c0]
        0x0000d3e0:    4318        .C      ORRS     r0,r0,r3
        0x0000d3e2:    6048        H`      STR      r0,[r1,#4]
        0x0000d3e4:    6948        Hi      LDR      r0,[r1,#0x14]
        0x0000d3e6:    f8d221c8    ...!    LDR      r2,[r2,#0x1c8]
        0x0000d3ea:    4310        .C      ORRS     r0,r0,r2
        0x0000d3ec:    6148        Ha      STR      r0,[r1,#0x14]
        0x0000d3ee:    2000        .       MOVS     r0,#0
        0x0000d3f0:    4770        pG      BX       lr
    $d
        0x0000d3f2:    0000        ..      DCW    0
        0x0000d3f4:    40020000    ...@    DCD    1073872896
        0x0000d3f8:    0000f010    ....    DCD    61456
        0x0000d3fc:    f0000fe0    ....    DCD    4026535904
        0x0000d400:    f0000fe4    ....    DCD    4026535908
        0x0000d404:    f0000ffc    ....    DCD    4026535932
        0x0000d408:    f0000ff8    ....    DCD    4026535928
        0x0000d40c:    f0000ff4    ....    DCD    4026535924
        0x0000d410:    f0000ff0    ....    DCD    4026535920
    $t
    i.am_hal_pdm_configure
    am_hal_pdm_configure
        0x0000d414:    b510        ..      PUSH     {r4,lr}
        0x0000d416:    b084        ..      SUB      sp,sp,#0x10
        0x0000d418:    2800        .(      CMP      r0,#0
        0x0000d41a:    bf1c        ..      ITT      NE
        0x0000d41c:    6800        .h      LDRNE    r0,[r0,#0]
        0x0000d41e:    f0107f80    ....    TSTNE    r0,#0x1000000
        0x0000d422:    d004        ..      BEQ      0xd42e ; am_hal_pdm_configure + 26
        0x0000d424:    4a3d        =J      LDR      r2,[pc,#244] ; [0xd51c] = 0xf956e2
        0x0000d426:    f020407f     ..@    BIC      r0,r0,#0xff000000
        0x0000d42a:    4290        .B      CMP      r0,r2
        0x0000d42c:    d002        ..      BEQ      0xd434 ; am_hal_pdm_configure + 32
        0x0000d42e:    b004        ..      ADD      sp,sp,#0x10
        0x0000d430:    2002        .       MOVS     r0,#2
        0x0000d432:    bd10        ..      POP      {r4,pc}
        0x0000d434:    4c3a        :L      LDR      r4,[pc,#232] ; [0xd520] = 0x50011000
        0x0000d436:    7f4a        J.      LDRB     r2,[r1,#0x1d]
        0x0000d438:    6820         h      LDR      r0,[r4,#0]
        0x0000d43a:    f3620041    b.A.    BFI      r0,r2,#1,#1
        0x0000d43e:    6020         `      STR      r0,[r4,#0]
        0x0000d440:    7e0a        .~      LDRB     r2,[r1,#0x18]
        0x0000d442:    6820         h      LDR      r0,[r4,#0]
        0x0000d444:    f3620084    b...    BFI      r0,r2,#2,#3
        0x0000d448:    6020         `      STR      r0,[r4,#0]
        0x0000d44a:    7b0a        .{      LDRB     r2,[r1,#0xc]
        0x0000d44c:    6820         h      LDR      r0,[r4,#0]
        0x0000d44e:    f3621048    b.H.    BFI      r0,r2,#5,#4
        0x0000d452:    6020         `      STR      r0,[r4,#0]
        0x0000d454:    7a0a        .z      LDRB     r2,[r1,#8]
        0x0000d456:    6820         h      LDR      r0,[r4,#0]
        0x0000d458:    f3622049    b.I     BFI      r0,r2,#9,#1
        0x0000d45c:    6020         `      STR      r0,[r4,#0]
        0x0000d45e:    790a        .y      LDRB     r2,[r1,#4]
        0x0000d460:    6820         h      LDR      r0,[r4,#0]
        0x0000d462:    f3622090    b..     BFI      r0,r2,#10,#7
        0x0000d466:    6020         `      STR      r0,[r4,#0]
        0x0000d468:    780a        .x      LDRB     r2,[r1,#0]
        0x0000d46a:    6820         h      LDR      r0,[r4,#0]
        0x0000d46c:    f3624052    b.R@    BFI      r0,r2,#17,#2
        0x0000d470:    6020         `      STR      r0,[r4,#0]
        0x0000d472:    784a        Jx      LDRB     r2,[r1,#1]
        0x0000d474:    6820         h      LDR      r0,[r4,#0]
        0x0000d476:    f3625059    b.YP    BFI      r0,r2,#21,#5
        0x0000d47a:    6020         `      STR      r0,[r4,#0]
        0x0000d47c:    788a        .x      LDRB     r2,[r1,#2]
        0x0000d47e:    6820         h      LDR      r0,[r4,#0]
        0x0000d480:    f362609e    b..`    BFI      r0,r2,#26,#5
        0x0000d484:    6020         `      STR      r0,[r4,#0]
        0x0000d486:    7f8a        ..      LDRB     r2,[r1,#0x1e]
        0x0000d488:    6820         h      LDR      r0,[r4,#0]
        0x0000d48a:    f36270df    b..p    BFI      r0,r2,#31,#1
        0x0000d48e:    6020         `      STR      r0,[r4,#0]
        0x0000d490:    6820         h      LDR      r0,[r4,#0]
        0x0000d492:    f0400001    @...    ORR      r0,r0,#1
        0x0000d496:    6020         `      STR      r0,[r4,#0]
        0x0000d498:    6860        `h      LDR      r0,[r4,#4]
        0x0000d49a:    f0206080     ..`    BIC      r0,r0,#0x4000000
        0x0000d49e:    6060        ``      STR      r0,[r4,#4]
        0x0000d4a0:    6860        `h      LDR      r0,[r4,#4]
        0x0000d4a2:    f0204000     ..@    BIC      r0,r0,#0x80000000
        0x0000d4a6:    6060        ``      STR      r0,[r4,#4]
        0x0000d4a8:    6860        `h      LDR      r0,[r4,#4]
        0x0000d4aa:    f0204080     ..@    BIC      r0,r0,#0x40000000
        0x0000d4ae:    6060        ``      STR      r0,[r4,#4]
        0x0000d4b0:    7d4a        J}      LDRB     r2,[r1,#0x15]
        0x0000d4b2:    6860        `h      LDR      r0,[r4,#4]
        0x0000d4b4:    f36200c4    b...    BFI      r0,r2,#3,#2
        0x0000d4b8:    6060        ``      STR      r0,[r4,#4]
        0x0000d4ba:    7d0a        .}      LDRB     r2,[r1,#0x14]
        0x0000d4bc:    6860        `h      LDR      r0,[r4,#4]
        0x0000d4be:    f3622008    b..     BFI      r0,r2,#8,#1
        0x0000d4c2:    6060        ``      STR      r0,[r4,#4]
        0x0000d4c4:    7c8a        .|      LDRB     r2,[r1,#0x12]
        0x0000d4c6:    6860        `h      LDR      r0,[r4,#4]
        0x0000d4c8:    f3624010    b..@    BFI      r0,r2,#16,#1
        0x0000d4cc:    6060        ``      STR      r0,[r4,#4]
        0x0000d4ce:    7cca        .|      LDRB     r2,[r1,#0x13]
        0x0000d4d0:    6860        `h      LDR      r0,[r4,#4]
        0x0000d4d2:    f3624051    b.Q@    BFI      r0,r2,#17,#1
        0x0000d4d6:    6060        ``      STR      r0,[r4,#4]
        0x0000d4d8:    7c4a        J|      LDRB     r2,[r1,#0x11]
        0x0000d4da:    6860        `h      LDR      r0,[r4,#4]
        0x0000d4dc:    f36240d3    b..@    BFI      r0,r2,#19,#1
        0x0000d4e0:    6060        ``      STR      r0,[r4,#4]
        0x0000d4e2:    7f0a        ..      LDRB     r2,[r1,#0x1c]
        0x0000d4e4:    6860        `h      LDR      r0,[r4,#4]
        0x0000d4e6:    f3625014    b..P    BFI      r0,r2,#20,#1
        0x0000d4ea:    6060        ``      STR      r0,[r4,#4]
        0x0000d4ec:    7c09        .|      LDRB     r1,[r1,#0x10]
        0x0000d4ee:    6860        `h      LDR      r0,[r4,#4]
        0x0000d4f0:    f36160dd    a..`    BFI      r0,r1,#27,#3
        0x0000d4f4:    6060        ``      STR      r0,[r4,#4]
        0x0000d4f6:    4668        hF      MOV      r0,sp
        0x0000d4f8:    f7fffd08    ....    BL       am_hal_clkgen_status_get ; 0xcf0c
        0x0000d4fc:    4909        .I      LDR      r1,[pc,#36] ; [0xd524] = 0x2dc6c0
        0x0000d4fe:    9800        ..      LDR      r0,[sp,#0]
        0x0000d500:    fbb0f0f1    ....    UDIV     r0,r0,r1
        0x0000d504:    2164        d!      MOVS     r1,#0x64
        0x0000d506:    4348        HC      MULS     r0,r1,r0
        0x0000d508:    f7fffd1a    ....    BL       am_hal_flash_delay ; 0xcf40
        0x0000d50c:    6860        `h      LDR      r0,[r4,#4]
        0x0000d50e:    f0404080    @..@    ORR      r0,r0,#0x40000000
        0x0000d512:    6060        ``      STR      r0,[r4,#4]
        0x0000d514:    b004        ..      ADD      sp,sp,#0x10
        0x0000d516:    2000        .       MOVS     r0,#0
        0x0000d518:    bd10        ..      POP      {r4,pc}
    $d
        0x0000d51a:    0000        ..      DCW    0
        0x0000d51c:    00f956e2    .V..    DCD    16340706
        0x0000d520:    50011000    ...P    DCD    1342246912
        0x0000d524:    002dc6c0    ..-.    DCD    3000000
    $t
    i.am_hal_pdm_disable
    am_hal_pdm_disable
        0x0000d528:    2800        .(      CMP      r0,#0
        0x0000d52a:    bf1c        ..      ITT      NE
        0x0000d52c:    6800        .h      LDRNE    r0,[r0,#0]
        0x0000d52e:    f0107f80    ....    TSTNE    r0,#0x1000000
        0x0000d532:    d004        ..      BEQ      0xd53e ; am_hal_pdm_disable + 22
        0x0000d534:    4908        .I      LDR      r1,[pc,#32] ; [0xd558] = 0xf956e2
        0x0000d536:    f020407f     ..@    BIC      r0,r0,#0xff000000
        0x0000d53a:    4288        .B      CMP      r0,r1
        0x0000d53c:    d001        ..      BEQ      0xd542 ; am_hal_pdm_disable + 26
        0x0000d53e:    2002        .       MOVS     r0,#2
        0x0000d540:    4770        pG      BX       lr
        0x0000d542:    4806        .H      LDR      r0,[pc,#24] ; [0xd55c] = 0x50011000
        0x0000d544:    6841        Ah      LDR      r1,[r0,#4]
        0x0000d546:    f0214100    !..A    BIC      r1,r1,#0x80000000
        0x0000d54a:    6041        A`      STR      r1,[r0,#4]
        0x0000d54c:    6841        Ah      LDR      r1,[r0,#4]
        0x0000d54e:    f0216180    !..a    BIC      r1,r1,#0x4000000
        0x0000d552:    6041        A`      STR      r1,[r0,#4]
        0x0000d554:    2000        .       MOVS     r0,#0
        0x0000d556:    4770        pG      BX       lr
    $d
        0x0000d558:    00f956e2    .V..    DCD    16340706
        0x0000d55c:    50011000    ...P    DCD    1342246912
    $t
    i.am_hal_pdm_dma_start
    am_hal_pdm_dma_start
        0x0000d560:    2800        .(      CMP      r0,#0
        0x0000d562:    bf1c        ..      ITT      NE
        0x0000d564:    6800        .h      LDRNE    r0,[r0,#0]
        0x0000d566:    f0107f80    ....    TSTNE    r0,#0x1000000
        0x0000d56a:    d004        ..      BEQ      0xd576 ; am_hal_pdm_dma_start + 22
        0x0000d56c:    4a1f        .J      LDR      r2,[pc,#124] ; [0xd5ec] = 0xf956e2
        0x0000d56e:    f020407f     ..@    BIC      r0,r0,#0xff000000
        0x0000d572:    4290        .B      CMP      r0,r2
        0x0000d574:    d001        ..      BEQ      0xd57a ; am_hal_pdm_dma_start + 26
        0x0000d576:    2002        .       MOVS     r0,#2
        0x0000d578:    4770        pG      BX       lr
        0x0000d57a:    2310        .#      MOVS     r3,#0x10
        0x0000d57c:    684a        Jh      LDR      r2,[r1,#4]
        0x0000d57e:    2018        .       MOVS     r0,#0x18
        0x0000d580:    fbb2fcf0    ....    UDIV     r12,r2,r0
        0x0000d584:    fb002c1c    ...,    MLS      r12,r0,r12,r2
        0x0000d588:    f1bc0f00    ....    CMP      r12,#0
        0x0000d58c:    d002        ..      BEQ      0xd594 ; am_hal_pdm_dma_start + 52
        0x0000d58e:    1f00        ..      SUBS     r0,r0,#4
        0x0000d590:    4298        .B      CMP      r0,r3
        0x0000d592:    d2f5        ..      BCS      0xd580 ; am_hal_pdm_dma_start + 32
        0x0000d594:    4298        .B      CMP      r0,r3
        0x0000d596:    d325        %.      BCC      0xd5e4 ; am_hal_pdm_dma_start + 132
        0x0000d598:    b320         .      CBZ      r0,0xd5e4 ; am_hal_pdm_dma_start + 132
        0x0000d59a:    4a15        .J      LDR      r2,[pc,#84] ; [0xd5f0] = 0x50011000
        0x0000d59c:    6150        Pa      STR      r0,[r2,#0x14]
        0x0000d59e:    2000        .       MOVS     r0,#0
        0x0000d5a0:    f8c20280    ....    STR      r0,[r2,#0x280]
        0x0000d5a4:    f8d20280    ....    LDR      r0,[r2,#0x280]
        0x0000d5a8:    f4207080     ..p    BIC      r0,r0,#0x100
        0x0000d5ac:    f8c20280    ....    STR      r0,[r2,#0x280]
        0x0000d5b0:    f8d20280    ....    LDR      r0,[r2,#0x280]
        0x0000d5b4:    f0200004     ...    BIC      r0,r0,#4
        0x0000d5b8:    f8c20280    ....    STR      r0,[r2,#0x280]
        0x0000d5bc:    6848        Hh      LDR      r0,[r1,#4]
        0x0000d5be:    f8c20288    ....    STR      r0,[r2,#0x288]
        0x0000d5c2:    6808        .h      LDR      r0,[r1,#0]
        0x0000d5c4:    f8c2028c    ....    STR      r0,[r2,#0x28c]
        0x0000d5c8:    f8d20240    ..@.    LDR      r0,[r2,#0x240]
        0x0000d5cc:    f0400001    @...    ORR      r0,r0,#1
        0x0000d5d0:    f8c20240    ..@.    STR      r0,[r2,#0x240]
        0x0000d5d4:    f8d20280    ....    LDR      r0,[r2,#0x280]
        0x0000d5d8:    f0400001    @...    ORR      r0,r0,#1
        0x0000d5dc:    f8c20280    ....    STR      r0,[r2,#0x280]
        0x0000d5e0:    2000        .       MOVS     r0,#0
        0x0000d5e2:    4770        pG      BX       lr
        0x0000d5e4:    f04f6000    O..`    MOV      r0,#0x8000000
        0x0000d5e8:    4770        pG      BX       lr
    $d
        0x0000d5ea:    0000        ..      DCW    0
        0x0000d5ec:    00f956e2    .V..    DCD    16340706
        0x0000d5f0:    50011000    ...P    DCD    1342246912
    $t
    i.am_hal_pdm_enable
    am_hal_pdm_enable
        0x0000d5f4:    2800        .(      CMP      r0,#0
        0x0000d5f6:    bf1c        ..      ITT      NE
        0x0000d5f8:    6800        .h      LDRNE    r0,[r0,#0]
        0x0000d5fa:    f0107f80    ....    TSTNE    r0,#0x1000000
        0x0000d5fe:    d004        ..      BEQ      0xd60a ; am_hal_pdm_enable + 22
        0x0000d600:    4908        .I      LDR      r1,[pc,#32] ; [0xd624] = 0xf956e2
        0x0000d602:    f020407f     ..@    BIC      r0,r0,#0xff000000
        0x0000d606:    4288        .B      CMP      r0,r1
        0x0000d608:    d001        ..      BEQ      0xd60e ; am_hal_pdm_enable + 26
        0x0000d60a:    2002        .       MOVS     r0,#2
        0x0000d60c:    4770        pG      BX       lr
        0x0000d60e:    4806        .H      LDR      r0,[pc,#24] ; [0xd628] = 0x50011000
        0x0000d610:    6841        Ah      LDR      r1,[r0,#4]
        0x0000d612:    f0414100    A..A    ORR      r1,r1,#0x80000000
        0x0000d616:    6041        A`      STR      r1,[r0,#4]
        0x0000d618:    6841        Ah      LDR      r1,[r0,#4]
        0x0000d61a:    f0416180    A..a    ORR      r1,r1,#0x4000000
        0x0000d61e:    6041        A`      STR      r1,[r0,#4]
        0x0000d620:    2000        .       MOVS     r0,#0
        0x0000d622:    4770        pG      BX       lr
    $d
        0x0000d624:    00f956e2    .V..    DCD    16340706
        0x0000d628:    50011000    ...P    DCD    1342246912
    $t
    i.am_hal_pdm_fifo_flush
    am_hal_pdm_fifo_flush
        0x0000d62c:    2800        .(      CMP      r0,#0
        0x0000d62e:    bf1c        ..      ITT      NE
        0x0000d630:    6800        .h      LDRNE    r0,[r0,#0]
        0x0000d632:    f0107f80    ....    TSTNE    r0,#0x1000000
        0x0000d636:    d004        ..      BEQ      0xd642 ; am_hal_pdm_fifo_flush + 22
        0x0000d638:    4905        .I      LDR      r1,[pc,#20] ; [0xd650] = 0xf956e2
        0x0000d63a:    f020407f     ..@    BIC      r0,r0,#0xff000000
        0x0000d63e:    4288        .B      CMP      r0,r1
        0x0000d640:    d001        ..      BEQ      0xd646 ; am_hal_pdm_fifo_flush + 26
        0x0000d642:    2002        .       MOVS     r0,#2
        0x0000d644:    4770        pG      BX       lr
        0x0000d646:    4903        .I      LDR      r1,[pc,#12] ; [0xd654] = 0x50011000
        0x0000d648:    2001        .       MOVS     r0,#1
        0x0000d64a:    6108        .a      STR      r0,[r1,#0x10]
        0x0000d64c:    2000        .       MOVS     r0,#0
        0x0000d64e:    4770        pG      BX       lr
    $d
        0x0000d650:    00f956e2    .V..    DCD    16340706
        0x0000d654:    50011000    ...P    DCD    1342246912
    $t
    i.am_hal_pdm_initialize
    am_hal_pdm_initialize
        0x0000d658:    2800        .(      CMP      r0,#0
        0x0000d65a:    bf1c        ..      ITT      NE
        0x0000d65c:    2005        .       MOVNE    r0,#5
        0x0000d65e:    4770        pG      BXNE     lr
        0x0000d660:    2900        .)      CMP      r1,#0
        0x0000d662:    bf04        ..      ITT      EQ
        0x0000d664:    2006        .       MOVEQ    r0,#6
        0x0000d666:    4770        pG      BXEQ     lr
        0x0000d668:    2200        ."      MOVS     r2,#0
        0x0000d66a:    4809        .H      LDR      r0,[pc,#36] ; [0xd690] = 0x10015ca0
        0x0000d66c:    6803        .h      LDR      r3,[r0,#0]
        0x0000d66e:    f0137f80    ....    TST      r3,#0x1000000
        0x0000d672:    bf1c        ..      ITT      NE
        0x0000d674:    2007        .       MOVNE    r0,#7
        0x0000d676:    4770        pG      BXNE     lr
        0x0000d678:    f0437380    C..s    ORR      r3,r3,#0x1000000
        0x0000d67c:    f8dfc014    ....    LDR      r12,[pc,#20] ; [0xd694] = 0xf956e2
        0x0000d680:    f36c0317    l...    BFI      r3,r12,#0,#24
        0x0000d684:    6003        .`      STR      r3,[r0,#0]
        0x0000d686:    6082        .`      STR      r2,[r0,#8]
        0x0000d688:    7102        .q      STRB     r2,[r0,#4]
        0x0000d68a:    6008        .`      STR      r0,[r1,#0]
        0x0000d68c:    2000        .       MOVS     r0,#0
        0x0000d68e:    4770        pG      BX       lr
    $d
        0x0000d690:    10015ca0    .\..    DCD    268524704
        0x0000d694:    00f956e2    .V..    DCD    16340706
    $t
    i.am_hal_pdm_interrupt_clear
    am_hal_pdm_interrupt_clear
        0x0000d698:    2800        .(      CMP      r0,#0
        0x0000d69a:    bf1c        ..      ITT      NE
        0x0000d69c:    6800        .h      LDRNE    r0,[r0,#0]
        0x0000d69e:    f0107f80    ....    TSTNE    r0,#0x1000000
        0x0000d6a2:    d004        ..      BEQ      0xd6ae ; am_hal_pdm_interrupt_clear + 22
        0x0000d6a4:    4a05        .J      LDR      r2,[pc,#20] ; [0xd6bc] = 0xf956e2
        0x0000d6a6:    f020407f     ..@    BIC      r0,r0,#0xff000000
        0x0000d6aa:    4290        .B      CMP      r0,r2
        0x0000d6ac:    d001        ..      BEQ      0xd6b2 ; am_hal_pdm_interrupt_clear + 26
        0x0000d6ae:    2002        .       MOVS     r0,#2
        0x0000d6b0:    4770        pG      BX       lr
        0x0000d6b2:    4803        .H      LDR      r0,[pc,#12] ; [0xd6c0] = 0x50011000
        0x0000d6b4:    f8c01208    ....    STR      r1,[r0,#0x208]
        0x0000d6b8:    2000        .       MOVS     r0,#0
        0x0000d6ba:    4770        pG      BX       lr
    $d
        0x0000d6bc:    00f956e2    .V..    DCD    16340706
        0x0000d6c0:    50011000    ...P    DCD    1342246912
    $t
    i.am_hal_pdm_interrupt_enable
    am_hal_pdm_interrupt_enable
        0x0000d6c4:    2800        .(      CMP      r0,#0
        0x0000d6c6:    bf1c        ..      ITT      NE
        0x0000d6c8:    6800        .h      LDRNE    r0,[r0,#0]
        0x0000d6ca:    f0107f80    ....    TSTNE    r0,#0x1000000
        0x0000d6ce:    d004        ..      BEQ      0xd6da ; am_hal_pdm_interrupt_enable + 22
        0x0000d6d0:    4a07        .J      LDR      r2,[pc,#28] ; [0xd6f0] = 0xf956e2
        0x0000d6d2:    f020407f     ..@    BIC      r0,r0,#0xff000000
        0x0000d6d6:    4290        .B      CMP      r0,r2
        0x0000d6d8:    d001        ..      BEQ      0xd6de ; am_hal_pdm_interrupt_enable + 26
        0x0000d6da:    2002        .       MOVS     r0,#2
        0x0000d6dc:    4770        pG      BX       lr
        0x0000d6de:    4805        .H      LDR      r0,[pc,#20] ; [0xd6f4] = 0x50011000
        0x0000d6e0:    f8d02200    ..."    LDR      r2,[r0,#0x200]
        0x0000d6e4:    4311        .C      ORRS     r1,r1,r2
        0x0000d6e6:    f8c01200    ....    STR      r1,[r0,#0x200]
        0x0000d6ea:    2000        .       MOVS     r0,#0
        0x0000d6ec:    4770        pG      BX       lr
    $d
        0x0000d6ee:    0000        ..      DCW    0
        0x0000d6f0:    00f956e2    .V..    DCD    16340706
        0x0000d6f4:    50011000    ...P    DCD    1342246912
    $t
    i.am_hal_pdm_interrupt_status_get
    am_hal_pdm_interrupt_status_get
        0x0000d6f8:    2800        .(      CMP      r0,#0
        0x0000d6fa:    bf1c        ..      ITT      NE
        0x0000d6fc:    6800        .h      LDRNE    r0,[r0,#0]
        0x0000d6fe:    f0107f80    ....    TSTNE    r0,#0x1000000
        0x0000d702:    d004        ..      BEQ      0xd70e ; am_hal_pdm_interrupt_status_get + 22
        0x0000d704:    4b0a        .K      LDR      r3,[pc,#40] ; [0xd730] = 0xf956e2
        0x0000d706:    f020407f     ..@    BIC      r0,r0,#0xff000000
        0x0000d70a:    4298        .B      CMP      r0,r3
        0x0000d70c:    d001        ..      BEQ      0xd712 ; am_hal_pdm_interrupt_status_get + 26
        0x0000d70e:    2002        .       MOVS     r0,#2
        0x0000d710:    4770        pG      BX       lr
        0x0000d712:    4808        .H      LDR      r0,[pc,#32] ; [0xd734] = 0x50011000
        0x0000d714:    2a00        .*      CMP      r2,#0
        0x0000d716:    bf08        ..      IT       EQ
        0x0000d718:    f8d00204    ....    LDREQ    r0,[r0,#0x204]
        0x0000d71c:    d005        ..      BEQ      0xd72a ; am_hal_pdm_interrupt_status_get + 50
        0x0000d71e:    f8d02204    ..."    LDR      r2,[r0,#0x204]
        0x0000d722:    600a        .`      STR      r2,[r1,#0]
        0x0000d724:    f8d00200    ....    LDR      r0,[r0,#0x200]
        0x0000d728:    4010        .@      ANDS     r0,r0,r2
        0x0000d72a:    6008        .`      STR      r0,[r1,#0]
        0x0000d72c:    2000        .       MOVS     r0,#0
        0x0000d72e:    4770        pG      BX       lr
    $d
        0x0000d730:    00f956e2    .V..    DCD    16340706
        0x0000d734:    50011000    ...P    DCD    1342246912
    $t
    i.am_hal_pdm_power_control
    am_hal_pdm_power_control
        0x0000d738:    b538        8.      PUSH     {r3-r5,lr}
        0x0000d73a:    7a03        .z      LDRB     r3,[r0,#8]
        0x0000d73c:    1e04        ..      SUBS     r4,r0,#0
        0x0000d73e:    f103030d    ....    ADD      r3,r3,#0xd
        0x0000d742:    b2dd        ..      UXTB     r5,r3
        0x0000d744:    bf1c        ..      ITT      NE
        0x0000d746:    6820         h      LDRNE    r0,[r4,#0]
        0x0000d748:    f0107f80    ....    TSTNE    r0,#0x1000000
        0x0000d74c:    d004        ..      BEQ      0xd758 ; am_hal_pdm_power_control + 32
        0x0000d74e:    4b18        .K      LDR      r3,[pc,#96] ; [0xd7b0] = 0xf956e2
        0x0000d750:    f020407f     ..@    BIC      r0,r0,#0xff000000
        0x0000d754:    4298        .B      CMP      r0,r3
        0x0000d756:    d001        ..      BEQ      0xd75c ; am_hal_pdm_power_control + 36
        0x0000d758:    2002        .       MOVS     r0,#2
        0x0000d75a:    bd38        8.      POP      {r3-r5,pc}
        0x0000d75c:    b191        ..      CBZ      r1,0xd784 ; am_hal_pdm_power_control + 76
        0x0000d75e:    2901        .)      CMP      r1,#1
        0x0000d760:    bf1e        ..      ITTT     NE
        0x0000d762:    2902        .)      CMPNE    r1,#2
        0x0000d764:    2006        .       MOVNE    r0,#6
        0x0000d766:    bd38        8.      POPNE    {r3-r5,pc}
        0x0000d768:    b13a        :.      CBZ      r2,0xd77a ; am_hal_pdm_power_control + 66
        0x0000d76a:    f7fefd49    ..I.    BL       am_hal_interrupt_master_disable ; 0xc200
        0x0000d76e:    9000        ..      STR      r0,[sp,#0]
        0x0000d770:    2001        .       MOVS     r0,#1
        0x0000d772:    7120         q      STRB     r0,[r4,#4]
        0x0000d774:    9800        ..      LDR      r0,[sp,#0]
        0x0000d776:    f7fefd47    ..G.    BL       am_hal_interrupt_master_set ; 0xc208
        0x0000d77a:    4628        (F      MOV      r0,r5
        0x0000d77c:    f000f81a    ....    BL       am_hal_pwrctrl_periph_disable ; 0xd7b4
        0x0000d780:    2000        .       MOVS     r0,#0
        0x0000d782:    bd38        8.      POP      {r3-r5,pc}
        0x0000d784:    b182        ..      CBZ      r2,0xd7a8 ; am_hal_pdm_power_control + 112
        0x0000d786:    7920         y      LDRB     r0,[r4,#4]
        0x0000d788:    2800        .(      CMP      r0,#0
        0x0000d78a:    bf04        ..      ITT      EQ
        0x0000d78c:    2007        .       MOVEQ    r0,#7
        0x0000d78e:    bd38        8.      POPEQ    {r3-r5,pc}
        0x0000d790:    4628        (F      MOV      r0,r5
        0x0000d792:    f000f86d    ..m.    BL       am_hal_pwrctrl_periph_enable ; 0xd870
        0x0000d796:    f7fefd33    ..3.    BL       am_hal_interrupt_master_disable ; 0xc200
        0x0000d79a:    9000        ..      STR      r0,[sp,#0]
        0x0000d79c:    2000        .       MOVS     r0,#0
        0x0000d79e:    7120         q      STRB     r0,[r4,#4]
        0x0000d7a0:    9800        ..      LDR      r0,[sp,#0]
        0x0000d7a2:    f7fefd31    ..1.    BL       am_hal_interrupt_master_set ; 0xc208
        0x0000d7a6:    e7eb        ..      B        0xd780 ; am_hal_pdm_power_control + 72
        0x0000d7a8:    4628        (F      MOV      r0,r5
        0x0000d7aa:    f000f861    ..a.    BL       am_hal_pwrctrl_periph_enable ; 0xd870
        0x0000d7ae:    e7e7        ..      B        0xd780 ; am_hal_pdm_power_control + 72
    $d
        0x0000d7b0:    00f956e2    .V..    DCD    16340706
    $t
    i.am_hal_pwrctrl_periph_disable
    am_hal_pwrctrl_periph_disable
        0x0000d7b4:    e92d43f8    -..C    PUSH     {r3-r9,lr}
        0x0000d7b8:    4604        .F      MOV      r4,r0
        0x0000d7ba:    f7fefd21    ..!.    BL       am_hal_interrupt_master_disable ; 0xc200
        0x0000d7be:    f8df80a8    ....    LDR      r8,[pc,#168] ; [0xd868] = 0x40021000
        0x0000d7c2:    9000        ..      STR      r0,[sp,#0]
        0x0000d7c4:    f8d80008    ....    LDR      r0,[r8,#8]
        0x0000d7c8:    4f28        (O      LDR      r7,[pc,#160] ; [0xd86c] = 0xf094
        0x0000d7ca:    eb040544    ..D.    ADD      r5,r4,r4,LSL #1
        0x0000d7ce:    f8571025    W.%.    LDR      r1,[r7,r5,LSL #2]
        0x0000d7d2:    4388        .C      BICS     r0,r0,r1
        0x0000d7d4:    f8c80008    ....    STR      r0,[r8,#8]
        0x0000d7d8:    9800        ..      LDR      r0,[sp,#0]
        0x0000d7da:    f7fefd15    ....    BL       am_hal_interrupt_master_set ; 0xc208
        0x0000d7de:    2400        .$      MOVS     r4,#0
        0x0000d7e0:    eb070685    ....    ADD      r6,r7,r5,LSL #2
        0x0000d7e4:    20a0        .       MOVS     r0,#0xa0
        0x0000d7e6:    f7fffbab    ....    BL       am_hal_flash_delay ; 0xcf40
        0x0000d7ea:    f8d80018    ....    LDR      r0,[r8,#0x18]
        0x0000d7ee:    6871        qh      LDR      r1,[r6,#4]
        0x0000d7f0:    4208        .B      TST      r0,r1
        0x0000d7f2:    d002        ..      BEQ      0xd7fa ; am_hal_pwrctrl_periph_disable + 70
        0x0000d7f4:    340a        .4      ADDS     r4,r4,#0xa
        0x0000d7f6:    2c14        .,      CMP      r4,#0x14
        0x0000d7f8:    d3f4        ..      BCC      0xd7e4 ; am_hal_pwrctrl_periph_disable + 48
        0x0000d7fa:    f8d80018    ....    LDR      r0,[r8,#0x18]
        0x0000d7fe:    460a        .F      MOV      r2,r1
        0x0000d800:    4010        .@      ANDS     r0,r0,r2
        0x0000d802:    bf08        ..      IT       EQ
        0x0000d804:    e8bd83f8    ....    POPEQ    {r3-r9,pc}
        0x0000d808:    2001        .       MOVS     r0,#1
        0x0000d80a:    f8d81008    ....    LDR      r1,[r8,#8]
        0x0000d80e:    2a04        .*      CMP      r2,#4
        0x0000d810:    d010        ..      BEQ      0xd834 ; am_hal_pwrctrl_periph_disable + 128
        0x0000d812:    2a08        .*      CMP      r2,#8
        0x0000d814:    d01d        ..      BEQ      0xd852 ; am_hal_pwrctrl_periph_disable + 158
        0x0000d816:    2a10        .*      CMP      r2,#0x10
        0x0000d818:    bf18        ..      IT       NE
        0x0000d81a:    e8bd83f8    ....    POPNE    {r3-r9,pc}
        0x0000d81e:    f0110f70    ..p.    TST      r1,#0x70
        0x0000d822:    bf08        ..      IT       EQ
        0x0000d824:    e8bd83f8    ....    POPEQ    {r3-r9,pc}
        0x0000d828:    f8572025    W.%     LDR      r2,[r7,r5,LSL #2]
        0x0000d82c:    420a        .B      TST      r2,r1
        0x0000d82e:    d00d        ..      BEQ      0xd84c ; am_hal_pwrctrl_periph_disable + 152
        0x0000d830:    e8bd83f8    ....    POP      {r3-r9,pc}
        0x0000d834:    f2405281    @..R    MOV      r2,#0x581
        0x0000d838:    4211        .B      TST      r1,r2
        0x0000d83a:    bf08        ..      IT       EQ
        0x0000d83c:    e8bd83f8    ....    POPEQ    {r3-r9,pc}
        0x0000d840:    f8572025    W.%     LDR      r2,[r7,r5,LSL #2]
        0x0000d844:    420a        .B      TST      r2,r1
        0x0000d846:    bf18        ..      IT       NE
        0x0000d848:    e8bd83f8    ....    POPNE    {r3-r9,pc}
        0x0000d84c:    2000        .       MOVS     r0,#0
        0x0000d84e:    e8bd83f8    ....    POP      {r3-r9,pc}
        0x0000d852:    f0110f0e    ....    TST      r1,#0xe
        0x0000d856:    bf08        ..      IT       EQ
        0x0000d858:    e8bd83f8    ....    POPEQ    {r3-r9,pc}
        0x0000d85c:    f8572025    W.%     LDR      r2,[r7,r5,LSL #2]
        0x0000d860:    420a        .B      TST      r2,r1
        0x0000d862:    d0f3        ..      BEQ      0xd84c ; am_hal_pwrctrl_periph_disable + 152
        0x0000d864:    e8bd83f8    ....    POP      {r3-r9,pc}
    $d
        0x0000d868:    40021000    ...@    DCD    1073876992
        0x0000d86c:    0000f094    ....    DCD    61588
    $t
    i.am_hal_pwrctrl_periph_enable
    am_hal_pwrctrl_periph_enable
        0x0000d870:    e92d43f8    -..C    PUSH     {r3-r9,lr}
        0x0000d874:    4605        .F      MOV      r5,r0
        0x0000d876:    f7fefcc3    ....    BL       am_hal_interrupt_master_disable ; 0xc200
        0x0000d87a:    4c17        .L      LDR      r4,[pc,#92] ; [0xd8d8] = 0x40021000
        0x0000d87c:    9000        ..      STR      r0,[sp,#0]
        0x0000d87e:    68a0        .h      LDR      r0,[r4,#8]
        0x0000d880:    f8df8058    ..X.    LDR      r8,[pc,#88] ; [0xd8dc] = 0xf094
        0x0000d884:    eb050645    ..E.    ADD      r6,r5,r5,LSL #1
        0x0000d888:    f8581026    X.&.    LDR      r1,[r8,r6,LSL #2]
        0x0000d88c:    4308        .C      ORRS     r0,r0,r1
        0x0000d88e:    60a0        .`      STR      r0,[r4,#8]
        0x0000d890:    9800        ..      LDR      r0,[sp,#0]
        0x0000d892:    f7fefcb9    ....    BL       am_hal_interrupt_master_set ; 0xc208
        0x0000d896:    2500        .%      MOVS     r5,#0
        0x0000d898:    eb080786    ....    ADD      r7,r8,r6,LSL #2
        0x0000d89c:    20a0        .       MOVS     r0,#0xa0
        0x0000d89e:    f7fffb4f    ..O.    BL       am_hal_flash_delay ; 0xcf40
        0x0000d8a2:    69a0        .i      LDR      r0,[r4,#0x18]
        0x0000d8a4:    6879        yh      LDR      r1,[r7,#4]
        0x0000d8a6:    4208        .B      TST      r0,r1
        0x0000d8a8:    d102        ..      BNE      0xd8b0 ; am_hal_pwrctrl_periph_enable + 64
        0x0000d8aa:    350a        .5      ADDS     r5,r5,#0xa
        0x0000d8ac:    2d14        .-      CMP      r5,#0x14
        0x0000d8ae:    d3f5        ..      BCC      0xd89c ; am_hal_pwrctrl_periph_enable + 44
        0x0000d8b0:    69a0        .i      LDR      r0,[r4,#0x18]
        0x0000d8b2:    4208        .B      TST      r0,r1
        0x0000d8b4:    bf1c        ..      ITT      NE
        0x0000d8b6:    2000        .       MOVNE    r0,#0
        0x0000d8b8:    e8bd83f8    ....    POPNE    {r3-r9,pc}
        0x0000d8bc:    f7fefca0    ....    BL       am_hal_interrupt_master_disable ; 0xc200
        0x0000d8c0:    9000        ..      STR      r0,[sp,#0]
        0x0000d8c2:    68a0        .h      LDR      r0,[r4,#8]
        0x0000d8c4:    f8581026    X.&.    LDR      r1,[r8,r6,LSL #2]
        0x0000d8c8:    4388        .C      BICS     r0,r0,r1
        0x0000d8ca:    60a0        .`      STR      r0,[r4,#8]
        0x0000d8cc:    9800        ..      LDR      r0,[sp,#0]
        0x0000d8ce:    f7fefc9b    ....    BL       am_hal_interrupt_master_set ; 0xc208
        0x0000d8d2:    2001        .       MOVS     r0,#1
        0x0000d8d4:    e8bd83f8    ....    POP      {r3-r9,pc}
    $d
        0x0000d8d8:    40021000    ...@    DCD    1073876992
        0x0000d8dc:    0000f094    ....    DCD    61588
    $t
    i.am_hal_sysctrl_sleep
    am_hal_sysctrl_sleep
        0x0000d8e0:    b5f8        ..      PUSH     {r3-r7,lr}
        0x0000d8e2:    4605        .F      MOV      r5,r0
        0x0000d8e4:    f7fefc8c    ....    BL       am_hal_interrupt_master_disable ; 0xc200
        0x0000d8e8:    4f25        %O      LDR      r7,[pc,#148] ; [0xd980] = 0x10000090
        0x0000d8ea:    9000        ..      STR      r0,[sp,#0]
        0x0000d8ec:    4c25        %L      LDR      r4,[pc,#148] ; [0xd984] = 0xe000ed10
        0x0000d8ee:    6838        8h      LDR      r0,[r7,#0]
        0x0000d8f0:    1c40        @.      ADDS     r0,r0,#1
        0x0000d8f2:    6038        8`      STR      r0,[r7,#0]
        0x0000d8f4:    b12d        -.      CBZ      r5,0xd902 ; am_hal_sysctrl_sleep + 34
        0x0000d8f6:    4e24        $N      LDR      r6,[pc,#144] ; [0xd988] = 0x40020000
        0x0000d8f8:    f8d60250    ..P.    LDR      r0,[r6,#0x250]
        0x0000d8fc:    f0100f01    ....    TST      r0,#1
        0x0000d900:    d003        ..      BEQ      0xd90a ; am_hal_sysctrl_sleep + 42
        0x0000d902:    6820         h      LDR      r0,[r4,#0]
        0x0000d904:    f0200004     ...    BIC      r0,r0,#4
        0x0000d908:    e02b        +.      B        0xd962 ; am_hal_sysctrl_sleep + 130
        0x0000d90a:    4820         H      LDR      r0,[pc,#128] ; [0xd98c] = 0x10000098
        0x0000d90c:    6801        .h      LDR      r1,[r0,#0]
        0x0000d90e:    b911        ..      CBNZ     r1,0xd916 ; am_hal_sysctrl_sleep + 54
        0x0000d910:    491f        .I      LDR      r1,[pc,#124] ; [0xd990] = 0x4ffff000
        0x0000d912:    6809        .h      LDR      r1,[r1,#0]
        0x0000d914:    6001        .`      STR      r1,[r0,#0]
        0x0000d916:    f8d65350    ..PS    LDR      r5,[r6,#0x350]
        0x0000d91a:    f3c54005    ...@    UBFX     r0,r5,#16,#6
        0x0000d91e:    3009        .0      ADDS     r0,r0,#9
        0x0000d920:    283f        ?(      CMP      r0,#0x3f
        0x0000d922:    bf88        ..      IT       HI
        0x0000d924:    203f        ?       MOVHI    r0,#0x3f
        0x0000d926:    f44f117c    O.|.    MOV      r1,#0x3f0000
        0x0000d92a:    ea014100    ...A    AND      r1,r1,r0,LSL #16
        0x0000d92e:    f3c50009    ....    UBFX     r0,r5,#0,#10
        0x0000d932:    3018        .0      ADDS     r0,r0,#0x18
        0x0000d934:    f5b06f80    ...o    CMP      r0,#0x400
        0x0000d938:    bf28        (.      IT       CS
        0x0000d93a:    f24030ff    @..0    MOVCS    r0,#0x3ff
        0x0000d93e:    f3c00009    ....    UBFX     r0,r0,#0,#10
        0x0000d942:    4a14        .J      LDR      r2,[pc,#80] ; [0xd994] = 0x3f03ff
        0x0000d944:    ea250202    %...    BIC      r2,r5,r2
        0x0000d948:    4311        .C      ORRS     r1,r1,r2
        0x0000d94a:    4308        .C      ORRS     r0,r0,r1
        0x0000d94c:    f8c60350    ..P.    STR      r0,[r6,#0x350]
        0x0000d950:    f44f70a0    O..p    MOV      r0,#0x140
        0x0000d954:    f7fffaf4    ....    BL       am_hal_flash_delay ; 0xcf40
        0x0000d958:    f8c65350    ..PS    STR      r5,[r6,#0x350]
        0x0000d95c:    6820         h      LDR      r0,[r4,#0]
        0x0000d95e:    f0400004    @...    ORR      r0,r0,#4
        0x0000d962:    6020         `      STR      r0,[r4,#0]
        0x0000d964:    f3bf8f4f    ..O.    DSB      
        0x0000d968:    480b        .H      LDR      r0,[pc,#44] ; [0xd998] = 0x5fff0000
        0x0000d96a:    6800        .h      LDR      r0,[r0,#0]
        0x0000d96c:    6078        x`      STR      r0,[r7,#4]
        0x0000d96e:    bf30        0.      WFI      
        0x0000d970:    f3bf8f6f    ..o.    ISB      
        0x0000d974:    9800        ..      LDR      r0,[sp,#0]
        0x0000d976:    e8bd40f8    ...@    POP      {r3-r7,lr}
        0x0000d97a:    f7febc45    ..E.    B        am_hal_interrupt_master_set ; 0xc208
    $d
        0x0000d97e:    0000        ..      DCW    0
        0x0000d980:    10000090    ....    DCD    268435600
        0x0000d984:    e000ed10    ....    DCD    3758157072
        0x0000d988:    40020000    ...@    DCD    1073872896
        0x0000d98c:    10000098    ....    DCD    268435608
        0x0000d990:    4ffff000    ...O    DCD    1342173184
        0x0000d994:    003f03ff    ..?.    DCD    4129791
        0x0000d998:    5fff0000    ..._    DCD    1610547200
    $t
    i.am_hal_tpiu_enable
    am_hal_tpiu_enable
        0x0000d99c:    e92d41f0    -..A    PUSH     {r4-r8,lr}
        0x0000d9a0:    4c1d        .L      LDR      r4,[pc,#116] ; [0xda18] = 0xe0040000
        0x0000d9a2:    b084        ..      SUB      sp,sp,#0x10
        0x0000d9a4:    2600        .&      MOVS     r6,#0
        0x0000d9a6:    6805        .h      LDR      r5,[r0,#0]
        0x0000d9a8:    f8c46304    ...c    STR      r6,[r4,#0x304]
        0x0000d9ac:    4f1b        .O      LDR      r7,[pc,#108] ; [0xda1c] = 0xe0040f00
        0x0000d9ae:    f8df8070    ..p.    LDR      r8,[pc,#112] ; [0xda20] = 0x40020000
        0x0000d9b2:    2101        .!      MOVS     r1,#1
        0x0000d9b4:    b31d        ..      CBZ      r5,0xd9fe ; am_hal_tpiu_enable + 98
        0x0000d9b6:    6061        a`      STR      r1,[r4,#4]
        0x0000d9b8:    491a        .I      LDR      r1,[pc,#104] ; [0xda24] = 0x1da381
        0x0000d9ba:    f5a54061    ..a@    SUB      r0,r5,#0xe100
        0x0000d9be:    4288        .B      CMP      r0,r1
        0x0000d9c0:    bf28        (.      IT       CS
        0x0000d9c2:    4d19        .M      LDRCS    r5,[pc,#100] ; [0xda28] = 0xf4240
        0x0000d9c4:    4668        hF      MOV      r0,sp
        0x0000d9c6:    f7fffaa1    ....    BL       am_hal_clkgen_status_get ; 0xcf0c
        0x0000d9ca:    9800        ..      LDR      r0,[sp,#0]
        0x0000d9cc:    f1b03fff    ...?    CMP      r0,#0xffffffff
        0x0000d9d0:    bf1d        ..      ITTTE    NE
        0x0000d9d2:    08c0        ..      LSRNE    r0,r0,#3
        0x0000d9d4:    fbb0f0f5    ....    UDIVNE   r0,r0,r5
        0x0000d9d8:    1e40        @.      SUBNE    r0,r0,#1
        0x0000d9da:    2005        .       MOVEQ    r0,#5
        0x0000d9dc:    b280        ..      UXTH     r0,r0
        0x0000d9de:    6120         a      STR      r0,[r4,#0x10]
        0x0000d9e0:    2002        .       MOVS     r0,#2
        0x0000d9e2:    f8c400f0    ....    STR      r0,[r4,#0xf0]
        0x0000d9e6:    603e        >`      STR      r6,[r7,#0]
        0x0000d9e8:    f2402001    @..     MOV      r0,#0x201
        0x0000d9ec:    f8c80250    ..P.    STR      r0,[r8,#0x250]
        0x0000d9f0:    f44f7048    O.Hp    MOV      r0,#0x320
        0x0000d9f4:    f7fffaa4    ....    BL       am_hal_flash_delay ; 0xcf40
        0x0000d9f8:    b004        ..      ADD      sp,sp,#0x10
        0x0000d9fa:    e8bd81f0    ....    POP      {r4-r8,pc}
        0x0000d9fe:    6902        .i      LDR      r2,[r0,#0x10]
        0x0000da00:    6122        "a      STR      r2,[r4,#0x10]
        0x0000da02:    6882        .h      LDR      r2,[r0,#8]
        0x0000da04:    f8c420f0    ...     STR      r2,[r4,#0xf0]
        0x0000da08:    7b02        .{      LDRB     r2,[r0,#0xc]
        0x0000da0a:    1e52        R.      SUBS     r2,r2,#1
        0x0000da0c:    4091        .@      LSLS     r1,r1,r2
        0x0000da0e:    6061        a`      STR      r1,[r4,#4]
        0x0000da10:    603e        >`      STR      r6,[r7,#0]
        0x0000da12:    6840        @h      LDR      r0,[r0,#4]
        0x0000da14:    e7ea        ..      B        0xd9ec ; am_hal_tpiu_enable + 80
    $d
        0x0000da16:    0000        ..      DCW    0
        0x0000da18:    e0040000    ....    DCD    3758358528
        0x0000da1c:    e0040f00    ....    DCD    3758362368
        0x0000da20:    40020000    ...@    DCD    1073872896
        0x0000da24:    001da381    ....    DCD    1942401
        0x0000da28:    000f4240    @B..    DCD    1000000
    $t
    i.am_pdm0_isr
    am_pdm0_isr
        0x0000da2c:    b538        8.      PUSH     {r3-r5,lr}
        0x0000da2e:    4c0a        .L      LDR      r4,[pc,#40] ; [0xda58] = 0x10000000
        0x0000da30:    2201        ."      MOVS     r2,#1
        0x0000da32:    4669        iF      MOV      r1,sp
        0x0000da34:    68a0        .h      LDR      r0,[r4,#8]
        0x0000da36:    f7fffe5f    .._.    BL       am_hal_pdm_interrupt_status_get ; 0xd6f8
        0x0000da3a:    9900        ..      LDR      r1,[sp,#0]
        0x0000da3c:    68a0        .h      LDR      r0,[r4,#8]
        0x0000da3e:    f7fffe2b    ..+.    BL       am_hal_pdm_interrupt_clear ; 0xd698
        0x0000da42:    9800        ..      LDR      r0,[sp,#0]
        0x0000da44:    f0100f08    ....    TST      r0,#8
        0x0000da48:    bf08        ..      IT       EQ
        0x0000da4a:    bd38        8.      POPEQ    {r3-r5,pc}
        0x0000da4c:    68a0        .h      LDR      r0,[r4,#8]
        0x0000da4e:    f7fffd6b    ..k.    BL       am_hal_pdm_disable ; 0xd528
        0x0000da52:    2001        .       MOVS     r0,#1
        0x0000da54:    7020         p      STRB     r0,[r4,#0]
        0x0000da56:    bd38        8.      POP      {r3-r5,pc}
    $d
        0x0000da58:    10000000    ....    DCD    268435456
    $t
    i.am_util_delay_ms
    am_util_delay_ms
        0x0000da5c:    b510        ..      PUSH     {r4,lr}
        0x0000da5e:    b084        ..      SUB      sp,sp,#0x10
        0x0000da60:    4604        .F      MOV      r4,r0
        0x0000da62:    4668        hF      MOV      r0,sp
        0x0000da64:    f7fffa52    ..R.    BL       am_hal_clkgen_status_get ; 0xcf0c
        0x0000da68:    9800        ..      LDR      r0,[sp,#0]
        0x0000da6a:    f64031b8    @..1    MOV      r1,#0xbb8
        0x0000da6e:    fbb0f0f1    ....    UDIV     r0,r0,r1
        0x0000da72:    4360        `C      MULS     r0,r4,r0
        0x0000da74:    f7fffa64    ..d.    BL       am_hal_flash_delay ; 0xcf40
        0x0000da78:    b004        ..      ADD      sp,sp,#0x10
        0x0000da7a:    bd10        ..      POP      {r4,pc}
    i.am_util_faultisr_collect_data
    am_util_faultisr_collect_data
        0x0000da7c:    b092        ..      SUB      sp,sp,#0x48
        0x0000da7e:    4604        .F      MOV      r4,r0
        0x0000da80:    2000        .       MOVS     r0,#0
        0x0000da82:    9000        ..      STR      r0,[sp,#0]
        0x0000da84:    9001        ..      STR      r0,[sp,#4]
        0x0000da86:    9002        ..      STR      r0,[sp,#8]
        0x0000da88:    9003        ..      STR      r0,[sp,#0xc]
        0x0000da8a:    9004        ..      STR      r0,[sp,#0x10]
        0x0000da8c:    9005        ..      STR      r0,[sp,#0x14]
        0x0000da8e:    9010        ..      STR      r0,[sp,#0x40]
        0x0000da90:    4864        dH      LDR      r0,[pc,#400] ; [0xdc24] = 0xe000ed28
        0x0000da92:    6800        .h      LDR      r0,[r0,#0]
        0x0000da94:    9010        ..      STR      r0,[sp,#0x40]
        0x0000da96:    9810        ..      LDR      r0,[sp,#0x40]
        0x0000da98:    f88d0044    ..D.    STRB     r0,[sp,#0x44]
        0x0000da9c:    9810        ..      LDR      r0,[sp,#0x40]
        0x0000da9e:    0a00        ..      LSRS     r0,r0,#8
        0x0000daa0:    f88d0045    ..E.    STRB     r0,[sp,#0x45]
        0x0000daa4:    9810        ..      LDR      r0,[sp,#0x40]
        0x0000daa6:    0c00        ..      LSRS     r0,r0,#16
        0x0000daa8:    f8ad0046    ..F.    STRH     r0,[sp,#0x46]
        0x0000daac:    485e        ^H      LDR      r0,[pc,#376] ; [0xdc28] = 0xe000ed38
        0x0000daae:    6800        .h      LDR      r0,[r0,#0]
        0x0000dab0:    900f        ..      STR      r0,[sp,#0x3c]
        0x0000dab2:    f89d0045    ..E.    LDRB     r0,[sp,#0x45]
        0x0000dab6:    f0100f02    ....    TST      r0,#2
        0x0000daba:    bf08        ..      IT       EQ
        0x0000dabc:    f04f30ff    O..0    MOVEQ    r0,#0xffffffff
        0x0000dac0:    d003        ..      BEQ      0xdaca ; am_util_faultisr_collect_data + 78
        0x0000dac2:    4621        !F      MOV      r1,r4
        0x0000dac4:    2006        .       MOVS     r0,#6
        0x0000dac6:    f7fefb92    ....    BL       getStackedReg ; 0xc1ee
        0x0000daca:    900e        ..      STR      r0,[sp,#0x38]
        0x0000dacc:    4621        !F      MOV      r1,r4
        0x0000dace:    2000        .       MOVS     r0,#0
        0x0000dad0:    f7fefb8d    ....    BL       getStackedReg ; 0xc1ee
        0x0000dad4:    9006        ..      STR      r0,[sp,#0x18]
        0x0000dad6:    4621        !F      MOV      r1,r4
        0x0000dad8:    2001        .       MOVS     r0,#1
        0x0000dada:    f7fefb88    ....    BL       getStackedReg ; 0xc1ee
        0x0000dade:    9007        ..      STR      r0,[sp,#0x1c]
        0x0000dae0:    4621        !F      MOV      r1,r4
        0x0000dae2:    2002        .       MOVS     r0,#2
        0x0000dae4:    f7fefb83    ....    BL       getStackedReg ; 0xc1ee
        0x0000dae8:    9008        ..      STR      r0,[sp,#0x20]
        0x0000daea:    4621        !F      MOV      r1,r4
        0x0000daec:    2003        .       MOVS     r0,#3
        0x0000daee:    f7fefb7e    ..~.    BL       getStackedReg ; 0xc1ee
        0x0000daf2:    9009        ..      STR      r0,[sp,#0x24]
        0x0000daf4:    4621        !F      MOV      r1,r4
        0x0000daf6:    2004        .       MOVS     r0,#4
        0x0000daf8:    f7fefb79    ..y.    BL       getStackedReg ; 0xc1ee
        0x0000dafc:    900a        ..      STR      r0,[sp,#0x28]
        0x0000dafe:    4621        !F      MOV      r1,r4
        0x0000db00:    2005        .       MOVS     r0,#5
        0x0000db02:    f7fefb74    ..t.    BL       getStackedReg ; 0xc1ee
        0x0000db06:    900b        ..      STR      r0,[sp,#0x2c]
        0x0000db08:    4621        !F      MOV      r1,r4
        0x0000db0a:    2006        .       MOVS     r0,#6
        0x0000db0c:    f7fefb6f    ..o.    BL       getStackedReg ; 0xc1ee
        0x0000db10:    900c        ..      STR      r0,[sp,#0x30]
        0x0000db12:    4621        !F      MOV      r1,r4
        0x0000db14:    2007        .       MOVS     r0,#7
        0x0000db16:    f7fefb6a    ..j.    BL       getStackedReg ; 0xc1ee
        0x0000db1a:    900d        ..      STR      r0,[sp,#0x34]
        0x0000db1c:    4669        iF      MOV      r1,sp
        0x0000db1e:    2002        .       MOVS     r0,#2
        0x0000db20:    f7fffbdc    ....    BL       am_hal_mcuctrl_info_get ; 0xd2dc
        0x0000db24:    a041        A.      ADR      r0,{pc}+0x108 ; 0xdc2c
        0x0000db26:    f000fa05    ....    BL       am_util_stdio_printf ; 0xdf34
        0x0000db2a:    9906        ..      LDR      r1,[sp,#0x18]
        0x0000db2c:    a046        F.      ADR      r0,{pc}+0x11c ; 0xdc48
        0x0000db2e:    f000fa01    ....    BL       am_util_stdio_printf ; 0xdf34
        0x0000db32:    9907        ..      LDR      r1,[sp,#0x1c]
        0x0000db34:    a049        I.      ADR      r0,{pc}+0x128 ; 0xdc5c
        0x0000db36:    f000f9fd    ....    BL       am_util_stdio_printf ; 0xdf34
        0x0000db3a:    9908        ..      LDR      r1,[sp,#0x20]
        0x0000db3c:    a04c        L.      ADR      r0,{pc}+0x134 ; 0xdc70
        0x0000db3e:    f000f9f9    ....    BL       am_util_stdio_printf ; 0xdf34
        0x0000db42:    9909        ..      LDR      r1,[sp,#0x24]
        0x0000db44:    a04f        O.      ADR      r0,{pc}+0x140 ; 0xdc84
        0x0000db46:    f000f9f5    ....    BL       am_util_stdio_printf ; 0xdf34
        0x0000db4a:    990a        ..      LDR      r1,[sp,#0x28]
        0x0000db4c:    a052        R.      ADR      r0,{pc}+0x14c ; 0xdc98
        0x0000db4e:    f000f9f1    ....    BL       am_util_stdio_printf ; 0xdf34
        0x0000db52:    990b        ..      LDR      r1,[sp,#0x2c]
        0x0000db54:    a055        U.      ADR      r0,{pc}+0x158 ; 0xdcac
        0x0000db56:    f000f9ed    ....    BL       am_util_stdio_printf ; 0xdf34
        0x0000db5a:    990c        ..      LDR      r1,[sp,#0x30]
        0x0000db5c:    a058        X.      ADR      r0,{pc}+0x164 ; 0xdcc0
        0x0000db5e:    f000f9e9    ....    BL       am_util_stdio_printf ; 0xdf34
        0x0000db62:    990d        ..      LDR      r1,[sp,#0x34]
        0x0000db64:    a05b        [.      ADR      r0,{pc}+0x170 ; 0xdcd4
        0x0000db66:    f000f9e5    ....    BL       am_util_stdio_printf ; 0xdf34
        0x0000db6a:    a05f        _.      ADR      r0,{pc}+0x17e ; 0xdce8
        0x0000db6c:    f000f9e2    ....    BL       am_util_stdio_printf ; 0xdf34
        0x0000db70:    990e        ..      LDR      r1,[sp,#0x38]
        0x0000db72:    a063        c.      ADR      r0,{pc}+0x18e ; 0xdd00
        0x0000db74:    f000f9de    ....    BL       am_util_stdio_printf ; 0xdf34
        0x0000db78:    990f        ..      LDR      r1,[sp,#0x3c]
        0x0000db7a:    a068        h.      ADR      r0,{pc}+0x1a2 ; 0xdd1c
        0x0000db7c:    f000f9da    ....    BL       am_util_stdio_printf ; 0xdf34
        0x0000db80:    f89d1044    ..D.    LDRB     r1,[sp,#0x44]
        0x0000db84:    a06f        o.      ADR      r0,{pc}+0x1c0 ; 0xdd44
        0x0000db86:    f000f9d5    ....    BL       am_util_stdio_printf ; 0xdf34
        0x0000db8a:    f89d1045    ..E.    LDRB     r1,[sp,#0x45]
        0x0000db8e:    a079        y.      ADR      r0,{pc}+0x1e6 ; 0xdd74
        0x0000db90:    f000f9d0    ....    BL       am_util_stdio_printf ; 0xdf34
        0x0000db94:    f8bd1046    ..F.    LDRH     r1,[sp,#0x46]
        0x0000db98:    a081        ..      ADR      r0,{pc}+0x208 ; 0xdda0
        0x0000db9a:    f000f9cb    ....    BL       am_util_stdio_printf ; 0xdf34
        0x0000db9e:    2480        .$      MOVS     r4,#0x80
        0x0000dba0:    f89d0045    ..E.    LDRB     r0,[sp,#0x45]
        0x0000dba4:    4020         @      ANDS     r0,r0,r4
        0x0000dba6:    2810        .(      CMP      r0,#0x10
        0x0000dba8:    bf08        ..      IT       EQ
        0x0000dbaa:    a088        ..      ADREQ    r0,{pc}+0x222 ; 0xddcc
        0x0000dbac:    d01d        ..      BEQ      0xdbea ; am_util_faultisr_collect_data + 366
        0x0000dbae:    dc10        ..      BGT      0xdbd2 ; am_util_faultisr_collect_data + 342
        0x0000dbb0:    2801        .(      CMP      r0,#1
        0x0000dbb2:    bf08        ..      IT       EQ
        0x0000dbb4:    a08c        ..      ADREQ    r0,{pc}+0x234 ; 0xdde8
        0x0000dbb6:    d018        ..      BEQ      0xdbea ; am_util_faultisr_collect_data + 366
        0x0000dbb8:    2802        .(      CMP      r0,#2
        0x0000dbba:    bf08        ..      IT       EQ
        0x0000dbbc:    a091        ..      ADREQ    r0,{pc}+0x248 ; 0xde04
        0x0000dbbe:    d014        ..      BEQ      0xdbea ; am_util_faultisr_collect_data + 366
        0x0000dbc0:    2804        .(      CMP      r0,#4
        0x0000dbc2:    bf08        ..      IT       EQ
        0x0000dbc4:    a097        ..      ADREQ    r0,{pc}+0x260 ; 0xde24
        0x0000dbc6:    d010        ..      BEQ      0xdbea ; am_util_faultisr_collect_data + 366
        0x0000dbc8:    2808        .(      CMP      r0,#8
        0x0000dbca:    bf08        ..      IT       EQ
        0x0000dbcc:    a09d        ..      ADREQ    r0,{pc}+0x278 ; 0xde44
        0x0000dbce:    d00c        ..      BEQ      0xdbea ; am_util_faultisr_collect_data + 366
        0x0000dbd0:    e00d        ..      B        0xdbee ; am_util_faultisr_collect_data + 370
        0x0000dbd2:    2820         (      CMP      r0,#0x20
        0x0000dbd4:    bf08        ..      IT       EQ
        0x0000dbd6:    a0a3        ..      ADREQ    r0,{pc}+0x28e ; 0xde64
        0x0000dbd8:    d007        ..      BEQ      0xdbea ; am_util_faultisr_collect_data + 366
        0x0000dbda:    2840        @(      CMP      r0,#0x40
        0x0000dbdc:    bf08        ..      IT       EQ
        0x0000dbde:    a0a8        ..      ADREQ    r0,{pc}+0x2a2 ; 0xde80
        0x0000dbe0:    d003        ..      BEQ      0xdbea ; am_util_faultisr_collect_data + 366
        0x0000dbe2:    2880        .(      CMP      r0,#0x80
        0x0000dbe4:    bf08        ..      IT       EQ
        0x0000dbe6:    a0ae        ..      ADREQ    r0,{pc}+0x2ba ; 0xdea0
        0x0000dbe8:    d101        ..      BNE      0xdbee ; am_util_faultisr_collect_data + 370
        0x0000dbea:    f000f9a3    ....    BL       am_util_stdio_printf ; 0xdf34
        0x0000dbee:    0864        d.      LSRS     r4,r4,#1
        0x0000dbf0:    d1d6        ..      BNE      0xdba0 ; am_util_faultisr_collect_data + 292
        0x0000dbf2:    a0b3        ..      ADR      r0,{pc}+0x2ce ; 0xdec0
        0x0000dbf4:    f000f99e    ....    BL       am_util_stdio_printf ; 0xdf34
        0x0000dbf8:    f89d0000    ....    LDRB     r0,[sp,#0]
        0x0000dbfc:    b118        ..      CBZ      r0,0xdc06 ; am_util_faultisr_collect_data + 394
        0x0000dbfe:    a0b5        ..      ADR      r0,{pc}+0x2d6 ; 0xded4
        0x0000dc00:    9901        ..      LDR      r1,[sp,#4]
        0x0000dc02:    f000f997    ....    BL       am_util_stdio_printf ; 0xdf34
        0x0000dc06:    f89d0008    ....    LDRB     r0,[sp,#8]
        0x0000dc0a:    b118        ..      CBZ      r0,0xdc14 ; am_util_faultisr_collect_data + 408
        0x0000dc0c:    a0b9        ..      ADR      r0,{pc}+0x2e8 ; 0xdef4
        0x0000dc0e:    9903        ..      LDR      r1,[sp,#0xc]
        0x0000dc10:    f000f990    ....    BL       am_util_stdio_printf ; 0xdf34
        0x0000dc14:    f89d0010    ....    LDRB     r0,[sp,#0x10]
        0x0000dc18:    b118        ..      CBZ      r0,0xdc22 ; am_util_faultisr_collect_data + 422
        0x0000dc1a:    a0be        ..      ADR      r0,{pc}+0x2fa ; 0xdf14
        0x0000dc1c:    9905        ..      LDR      r1,[sp,#0x14]
        0x0000dc1e:    f000f989    ....    BL       am_util_stdio_printf ; 0xdf34
        0x0000dc22:    e7fe        ..      B        0xdc22 ; am_util_faultisr_collect_data + 422
    $d
        0x0000dc24:    e000ed28    (...    DCD    3758157096
        0x0000dc28:    e000ed38    8...    DCD    3758157112
        0x0000dc2c:    64726148    Hard    DCD    1685217608
        0x0000dc30:    75614620     Fau    DCD    1969309216
        0x0000dc34:    7320746c    lt s    DCD    1931506796
        0x0000dc38:    6b636174    tack    DCD    1801675124
        0x0000dc3c:    64206465    ed d    DCD    1679844453
        0x0000dc40:    3a617461    ata:    DCD    979465313
        0x0000dc44:    0000000a    ....    DCD    10
        0x0000dc48:    20202020            DCD    538976288
        0x0000dc4c:    20203052    R0      DCD    538980434
        0x0000dc50:    7830203d    = 0x    DCD    2016419901
        0x0000dc54:    58383025    %08X    DCD    1480077349
        0x0000dc58:    0000000a    ....    DCD    10
        0x0000dc5c:    20202020            DCD    538976288
        0x0000dc60:    20203152    R1      DCD    538980690
        0x0000dc64:    7830203d    = 0x    DCD    2016419901
        0x0000dc68:    58383025    %08X    DCD    1480077349
        0x0000dc6c:    0000000a    ....    DCD    10
        0x0000dc70:    20202020            DCD    538976288
        0x0000dc74:    20203252    R2      DCD    538980946
        0x0000dc78:    7830203d    = 0x    DCD    2016419901
        0x0000dc7c:    58383025    %08X    DCD    1480077349
        0x0000dc80:    0000000a    ....    DCD    10
        0x0000dc84:    20202020            DCD    538976288
        0x0000dc88:    20203352    R3      DCD    538981202
        0x0000dc8c:    7830203d    = 0x    DCD    2016419901
        0x0000dc90:    58383025    %08X    DCD    1480077349
        0x0000dc94:    0000000a    ....    DCD    10
        0x0000dc98:    20202020            DCD    538976288
        0x0000dc9c:    20323152    R12     DCD    540160338
        0x0000dca0:    7830203d    = 0x    DCD    2016419901
        0x0000dca4:    58383025    %08X    DCD    1480077349
        0x0000dca8:    0000000a    ....    DCD    10
        0x0000dcac:    20202020            DCD    538976288
        0x0000dcb0:    2020524c    LR      DCD    538989132
        0x0000dcb4:    7830203d    = 0x    DCD    2016419901
        0x0000dcb8:    58383025    %08X    DCD    1480077349
        0x0000dcbc:    0000000a    ....    DCD    10
        0x0000dcc0:    20202020            DCD    538976288
        0x0000dcc4:    20204350    PC      DCD    538985296
        0x0000dcc8:    7830203d    = 0x    DCD    2016419901
        0x0000dccc:    58383025    %08X    DCD    1480077349
        0x0000dcd0:    0000000a    ....    DCD    10
        0x0000dcd4:    20202020            DCD    538976288
        0x0000dcd8:    20525350    PSR     DCD    542266192
        0x0000dcdc:    7830203d    = 0x    DCD    2016419901
        0x0000dce0:    58383025    %08X    DCD    1480077349
        0x0000dce4:    0000000a    ....    DCD    10
        0x0000dce8:    6568744f    Othe    DCD    1701344335
        0x0000dcec:    61482072    r Ha    DCD    1632116850
        0x0000dcf0:    46206472    rd F    DCD    1176527986
        0x0000dcf4:    746c7561    ault    DCD    1953264993
        0x0000dcf8:    74616420     dat    DCD    1952539680
        0x0000dcfc:    000a3a61    a:..    DCD    670305
        0x0000dd00:    20202020            DCD    538976288
        0x0000dd04:    6c756146    Faul    DCD    1819631942
        0x0000dd08:    64612074    t ad    DCD    1684086900
        0x0000dd0c:    73657264    dres    DCD    1936028260
        0x0000dd10:    203d2073    s =     DCD    540876915
        0x0000dd14:    30257830    0x%0    DCD    807761968
        0x0000dd18:    000a5838    8X..    DCD    677944
        0x0000dd1c:    20202020            DCD    538976288
        0x0000dd20:    52414642    BFAR    DCD    1380009538
        0x0000dd24:    75422820     (Bu    DCD    1967269920
        0x0000dd28:    61462073    s Fa    DCD    1631985779
        0x0000dd2c:    20746c75    ult     DCD    544500853
        0x0000dd30:    72646441    Addr    DCD    1919181889
        0x0000dd34:    67655220     Reg    DCD    1734693408
        0x0000dd38:    203d2029    ) =     DCD    540876841
        0x0000dd3c:    30257830    0x%0    DCD    807761968
        0x0000dd40:    000a5838    8X..    DCD    677944
        0x0000dd44:    20202020            DCD    538976288
        0x0000dd48:    52534d4d    MMSR    DCD    1381190989
        0x0000dd4c:    654d2820     (Me    DCD    1699555360
        0x0000dd50:    674d206d    m Mg    DCD    1733107821
        0x0000dd54:    4620746d    mt F    DCD    1176532077
        0x0000dd58:    746c7561    ault    DCD    1953264993
        0x0000dd5c:    61745320     Sta    DCD    1635013408
        0x0000dd60:    20737574    tus     DCD    544437620
        0x0000dd64:    29676552    Reg)    DCD    694642002
        0x0000dd68:    30203d20     = 0    DCD    807419168
        0x0000dd6c:    32302578    x%02    DCD    842016120
        0x0000dd70:    00000a58    X...    DCD    2648
        0x0000dd74:    20202020            DCD    538976288
        0x0000dd78:    52534642    BFSR    DCD    1381189186
        0x0000dd7c:    75422820     (Bu    DCD    1967269920
        0x0000dd80:    61462073    s Fa    DCD    1631985779
        0x0000dd84:    20746c75    ult     DCD    544500853
        0x0000dd88:    74617453    Stat    DCD    1952543827
        0x0000dd8c:    52207375    us R    DCD    1377858421
        0x0000dd90:    20296765    eg)     DCD    539584357
        0x0000dd94:    7830203d    = 0x    DCD    2016419901
        0x0000dd98:    58323025    %02X    DCD    1479684133
        0x0000dd9c:    0000000a    ....    DCD    10
        0x0000dda0:    20202020            DCD    538976288
        0x0000dda4:    52534655    UFSR    DCD    1381189205
        0x0000dda8:    73552820     (Us    DCD    1934960672
        0x0000ddac:    20656761    age     DCD    543516513
        0x0000ddb0:    6c756146    Faul    DCD    1819631942
        0x0000ddb4:    74532074    t St    DCD    1951604852
        0x0000ddb8:    73757461    atus    DCD    1937077345
        0x0000ddbc:    67655220     Reg    DCD    1734693408
        0x0000ddc0:    203d2029    ) =     DCD    540876841
        0x0000ddc4:    30257830    0x%0    DCD    807761968
        0x0000ddc8:    000a5834    4X..    DCD    677940
        0x0000ddcc:    20202020            DCD    538976288
        0x0000ddd0:    20202020            DCD    538976288
        0x0000ddd4:    52534642    BFSR    DCD    1381189186
        0x0000ddd8:    74696220     bit    DCD    1953063456
        0x0000dddc:    53203a34    4: S    DCD    1394620980
        0x0000dde0:    52454b54    TKER    DCD    1380272980
        0x0000dde4:    00000a52    R...    DCD    2642
        0x0000dde8:    20202020            DCD    538976288
        0x0000ddec:    20202020            DCD    538976288
        0x0000ddf0:    52534642    BFSR    DCD    1381189186
        0x0000ddf4:    74696220     bit    DCD    1953063456
        0x0000ddf8:    49203a30    0: I    DCD    1226848816
        0x0000ddfc:    45535542    BUSE    DCD    1163089218
        0x0000de00:    000a5252    RR..    DCD    676434
        0x0000de04:    20202020            DCD    538976288
        0x0000de08:    20202020            DCD    538976288
        0x0000de0c:    52534642    BFSR    DCD    1381189186
        0x0000de10:    74696220     bit    DCD    1953063456
        0x0000de14:    50203a31    1: P    DCD    1344289329
        0x0000de18:    49434552    RECI    DCD    1229145426
        0x0000de1c:    52454553    SEER    DCD    1380271443
        0x0000de20:    00000a52    R...    DCD    2642
        0x0000de24:    20202020            DCD    538976288
        0x0000de28:    20202020            DCD    538976288
        0x0000de2c:    52534642    BFSR    DCD    1381189186
        0x0000de30:    74696220     bit    DCD    1953063456
        0x0000de34:    49203a32    2: I    DCD    1226848818
        0x0000de38:    4552504d    MPRE    DCD    1163022413
        0x0000de3c:    45534943    CISE    DCD    1163086147
        0x0000de40:    000a5252    RR..    DCD    676434
        0x0000de44:    20202020            DCD    538976288
        0x0000de48:    20202020            DCD    538976288
        0x0000de4c:    52534642    BFSR    DCD    1381189186
        0x0000de50:    74696220     bit    DCD    1953063456
        0x0000de54:    55203a33    3: U    DCD    1428175411
        0x0000de58:    4b54534e    NSTK    DCD    1263817550
        0x0000de5c:    0a525245    ERR.    DCD    173167173
        0x0000de60:    00000000    ....    DCD    0
        0x0000de64:    20202020            DCD    538976288
        0x0000de68:    20202020            DCD    538976288
        0x0000de6c:    52534642    BFSR    DCD    1381189186
        0x0000de70:    74696220     bit    DCD    1953063456
        0x0000de74:    4c203a35    5: L    DCD    1277180469
        0x0000de78:    52455053    SPER    DCD    1380274259
        0x0000de7c:    00000a52    R...    DCD    2642
        0x0000de80:    20202020            DCD    538976288
        0x0000de84:    20202020            DCD    538976288
        0x0000de88:    52534642    BFSR    DCD    1381189186
        0x0000de8c:    74696220     bit    DCD    1953063456
        0x0000de90:    52203a36    6: R    DCD    1377843766
        0x0000de94:    52455345    ESER    DCD    1380275013
        0x0000de98:    0a444556    VED.    DCD    172246358
        0x0000de9c:    00000000    ....    DCD    0
        0x0000dea0:    20202020            DCD    538976288
        0x0000dea4:    20202020            DCD    538976288
        0x0000dea8:    52534642    BFSR    DCD    1381189186
        0x0000deac:    74696220     bit    DCD    1953063456
        0x0000deb0:    42203a37    7: B    DCD    1109408311
        0x0000deb4:    56524146    FARV    DCD    1448231238
        0x0000deb8:    44494c41    ALID    DCD    1145654337
        0x0000debc:    0000000a    ....    DCD    10
        0x0000dec0:    2055434d    MCU     DCD    542458701
        0x0000dec4:    6c756146    Faul    DCD    1819631942
        0x0000dec8:    61642074    t da    DCD    1633951860
        0x0000decc:    0a3a6174    ta:.    DCD    171598196
        0x0000ded0:    00000000    ....    DCD    0
        0x0000ded4:    49202020       I    DCD    1226842144
        0x0000ded8:    45444f43    CODE    DCD    1162104643
        0x0000dedc:    75614620     Fau    DCD    1969309216
        0x0000dee0:    4120746c    lt A    DCD    1092645996
        0x0000dee4:    65726464    ddre    DCD    1701995620
        0x0000dee8:    203a7373    ss:     DCD    540701555
        0x0000deec:    30257830    0x%0    DCD    807761968
        0x0000def0:    000a5838    8X..    DCD    677944
        0x0000def4:    44202020       D    DCD    1142956064
        0x0000def8:    45444f43    CODE    DCD    1162104643
        0x0000defc:    75614620     Fau    DCD    1969309216
        0x0000df00:    4120746c    lt A    DCD    1092645996
        0x0000df04:    65726464    ddre    DCD    1701995620
        0x0000df08:    203a7373    ss:     DCD    540701555
        0x0000df0c:    30257830    0x%0    DCD    807761968
        0x0000df10:    000a5838    8X..    DCD    677944
        0x0000df14:    53202020       S    DCD    1394614304
        0x0000df18:    46205359    YS F    DCD    1176523609
        0x0000df1c:    746c7561    ault    DCD    1953264993
        0x0000df20:    64644120     Add    DCD    1684291872
        0x0000df24:    73736572    ress    DCD    1936942450
        0x0000df28:    7830203a    : 0x    DCD    2016419898
        0x0000df2c:    58383025    %08X    DCD    1480077349
        0x0000df30:    0000000a    ....    DCD    10
    $t
    i.am_util_stdio_printf
    am_util_stdio_printf
        0x0000df34:    b40f        ..      PUSH     {r0-r3}
        0x0000df36:    b570        p.      PUSH     {r4-r6,lr}
        0x0000df38:    4c09        .L      LDR      r4,[pc,#36] ; [0xdf60] = 0x1000002c
        0x0000df3a:    6860        `h      LDR      r0,[r4,#4]
        0x0000df3c:    2800        .(      CMP      r0,#0
        0x0000df3e:    bf04        ..      ITT      EQ
        0x0000df40:    bc70        p.      POPEQ    {r4-r6}
        0x0000df42:    f85dfb14    ]...    LDREQ    pc,[sp],#0x14
        0x0000df46:    aa05        ..      ADD      r2,sp,#0x14
        0x0000df48:    4806        .H      LDR      r0,[pc,#24] ; [0xdf64] = 0x100150a0
        0x0000df4a:    9904        ..      LDR      r1,[sp,#0x10]
        0x0000df4c:    f000f830    ..0.    BL       am_util_stdio_vsprintf ; 0xdfb0
        0x0000df50:    4605        .F      MOV      r5,r0
        0x0000df52:    6861        ah      LDR      r1,[r4,#4]
        0x0000df54:    4803        .H      LDR      r0,[pc,#12] ; [0xdf64] = 0x100150a0
        0x0000df56:    4788        .G      BLX      r1
        0x0000df58:    4628        (F      MOV      r0,r5
        0x0000df5a:    bc70        p.      POP      {r4-r6}
        0x0000df5c:    f85dfb14    ]...    LDR      pc,[sp],#0x14
    $d
        0x0000df60:    1000002c    ,...    DCD    268435500
        0x0000df64:    100150a0    .P..    DCD    268521632
    $t
    i.am_util_stdio_printf_init
    am_util_stdio_printf_init
        0x0000df68:    4901        .I      LDR      r1,[pc,#4] ; [0xdf70] = 0x1000002c
        0x0000df6a:    6048        H`      STR      r0,[r1,#4]
        0x0000df6c:    4770        pG      BX       lr
    $d
        0x0000df6e:    0000        ..      DCW    0
        0x0000df70:    1000002c    ,...    DCD    268435500
    $t
    i.am_util_stdio_terminal_clear
    am_util_stdio_terminal_clear
        0x0000df74:    b538        8.      PUSH     {r3-r5,lr}
        0x0000df76:    4c0c        .L      LDR      r4,[pc,#48] ; [0xdfa8] = 0x1000002c
        0x0000df78:    a106        ..      ADR      r1,{pc}+0x1c ; 0xdf94
        0x0000df7a:    9100        ..      STR      r1,[sp,#0]
        0x0000df7c:    6860        `h      LDR      r0,[r4,#4]
        0x0000df7e:    2800        .(      CMP      r0,#0
        0x0000df80:    bf08        ..      IT       EQ
        0x0000df82:    bd38        8.      POPEQ    {r3-r5,pc}
        0x0000df84:    aa01        ..      ADD      r2,sp,#4
        0x0000df86:    4809        .H      LDR      r0,[pc,#36] ; [0xdfac] = 0x100150a0
        0x0000df88:    f000f812    ....    BL       am_util_stdio_vsprintf ; 0xdfb0
        0x0000df8c:    6861        ah      LDR      r1,[r4,#4]
        0x0000df8e:    4807        .H      LDR      r0,[pc,#28] ; [0xdfac] = 0x100150a0
        0x0000df90:    4788        .G      BLX      r1
        0x0000df92:    bd38        8.      POP      {r3-r5,pc}
    $d
        0x0000df94:    0a0a0a0a    ....    DCD    168430090
        0x0000df98:    0a0a0a0a    ....    DCD    168430090
        0x0000df9c:    0a0a0a0a    ....    DCD    168430090
        0x0000dfa0:    0a0a0a0a    ....    DCD    168430090
        0x0000dfa4:    00000a0a    ....    DCD    2570
        0x0000dfa8:    1000002c    ,...    DCD    268435500
        0x0000dfac:    100150a0    .P..    DCD    268521632
    $t
    i.am_util_stdio_vsprintf
    am_util_stdio_vsprintf
        0x0000dfb0:    e92d4ff7    -..O    PUSH     {r0-r2,r4-r11,lr}
        0x0000dfb4:    4604        .F      MOV      r4,r0
        0x0000dfb6:    7808        .x      LDRB     r0,[r1,#0]
        0x0000dfb8:    2500        .%      MOVS     r5,#0
        0x0000dfba:    b088        ..      SUB      sp,sp,#0x20
        0x0000dfbc:    2800        .(      CMP      r0,#0
        0x0000dfbe:    f0008385    ....    BEQ.W    0xe6cc ; am_util_stdio_vsprintf + 1820
        0x0000dfc2:    bf00        ..      NOP      
        0x0000dfc4:    b2c0        ..      UXTB     r0,r0
        0x0000dfc6:    f04f0906    O...    MOV      r9,#6
        0x0000dfca:    2825        %(      CMP      r0,#0x25
        0x0000dfcc:    d010        ..      BEQ      0xdff0 ; am_util_stdio_vsprintf + 64
        0x0000dfce:    b15c        \.      CBZ      r4,0xdfe8 ; am_util_stdio_vsprintf + 56
        0x0000dfd0:    280a        .(      CMP      r0,#0xa
        0x0000dfd2:    d106        ..      BNE      0xdfe2 ; am_util_stdio_vsprintf + 50
        0x0000dfd4:    48fe        .H      LDR      r0,[pc,#1016] ; [0xe3d0] = 0x1000002c
        0x0000dfd6:    7800        .x      LDRB     r0,[r0,#0]
        0x0000dfd8:    b118        ..      CBZ      r0,0xdfe2 ; am_util_stdio_vsprintf + 50
        0x0000dfda:    200d        .       MOVS     r0,#0xd
        0x0000dfdc:    f8040b01    ....    STRB     r0,[r4],#1
        0x0000dfe0:    1c6d        m.      ADDS     r5,r5,#1
        0x0000dfe2:    7808        .x      LDRB     r0,[r1,#0]
        0x0000dfe4:    f8040b01    ....    STRB     r0,[r4],#1
        0x0000dfe8:    1c49        I.      ADDS     r1,r1,#1
        0x0000dfea:    1c6d        m.      ADDS     r5,r5,#1
        0x0000dfec:    f000bb6a    ..j.    B.W      0xe6c4 ; am_util_stdio_vsprintf + 1812
        0x0000dff0:    2020                MOVS     r0,#0x20
        0x0000dff2:    9001        ..      STR      r0,[sp,#4]
        0x0000dff4:    2700        .'      MOVS     r7,#0
        0x0000dff6:    f8110f01    ....    LDRB     r0,[r1,#1]!
        0x0000dffa:    46bc        .F      MOV      r12,r7
        0x0000dffc:    2830        0(      CMP      r0,#0x30
        0x0000dffe:    d101        ..      BNE      0xe004 ; am_util_stdio_vsprintf + 84
        0x0000e000:    1c49        I.      ADDS     r1,r1,#1
        0x0000e002:    9001        ..      STR      r0,[sp,#4]
        0x0000e004:    2600        .&      MOVS     r6,#0
        0x0000e006:    f891a000    ....    LDRB     r10,[r1,#0]
        0x0000e00a:    460a        .F      MOV      r2,r1
        0x0000e00c:    f10d0808    ....    ADD      r8,sp,#8
        0x0000e010:    4630        0F      MOV      r0,r6
        0x0000e012:    4633        3F      MOV      r3,r6
        0x0000e014:    f1ba0f2d    ..-.    CMP      r10,#0x2d
        0x0000e018:    d102        ..      BNE      0xe020 ; am_util_stdio_vsprintf + 112
        0x0000e01a:    2601        .&      MOVS     r6,#1
        0x0000e01c:    1c4a        J.      ADDS     r2,r1,#1
        0x0000e01e:    4633        3F      MOV      r3,r6
        0x0000e020:    f892a000    ....    LDRB     r10,[r2,#0]
        0x0000e024:    f1aa0a30    ..0.    SUB      r10,r10,#0x30
        0x0000e028:    f1ba0f09    ....    CMP      r10,#9
        0x0000e02c:    d80f        ..      BHI      0xe04e ; am_util_stdio_vsprintf + 158
        0x0000e02e:    bf00        ..      NOP      
        0x0000e030:    eb000080    ....    ADD      r0,r0,r0,LSL #2
        0x0000e034:    0040        @.      LSLS     r0,r0,#1
        0x0000e036:    f812ab01    ....    LDRB     r10,[r2],#1
        0x0000e03a:    3830        08      SUBS     r0,r0,#0x30
        0x0000e03c:    4450        PD      ADD      r0,r0,r10
        0x0000e03e:    f892a000    ....    LDRB     r10,[r2,#0]
        0x0000e042:    1c5b        [.      ADDS     r3,r3,#1
        0x0000e044:    f1aa0a30    ..0.    SUB      r10,r10,#0x30
        0x0000e048:    f1ba0f09    ....    CMP      r10,#9
        0x0000e04c:    d9f0        ..      BLS      0xe030 ; am_util_stdio_vsprintf + 128
        0x0000e04e:    f1b80f00    ....    CMP      r8,#0
        0x0000e052:    bf18        ..      IT       NE
        0x0000e054:    9302        ..      STRNE    r3,[sp,#8]
        0x0000e056:    2e00        ..      CMP      r6,#0
        0x0000e058:    bf18        ..      IT       NE
        0x0000e05a:    4240        @B      RSBNE    r0,r0,#0
        0x0000e05c:    9000        ..      STR      r0,[sp,#0]
        0x0000e05e:    9802        ..      LDR      r0,[sp,#8]
        0x0000e060:    180e        ..      ADDS     r6,r1,r0
        0x0000e062:    7830        0x      LDRB     r0,[r6,#0]
        0x0000e064:    2873        s(      CMP      r0,#0x73
        0x0000e066:    d037        7.      BEQ      0xe0d8 ; am_util_stdio_vsprintf + 296
        0x0000e068:    9900        ..      LDR      r1,[sp,#0]
        0x0000e06a:    2900        .)      CMP      r1,#0
        0x0000e06c:    bfbc        ..      ITT      LT
        0x0000e06e:    4249        IB      RSBLT    r1,r1,#0
        0x0000e070:    9100        ..      STRLT    r1,[sp,#0]
        0x0000e072:    282e        .(      CMP      r0,#0x2e
        0x0000e074:    d003        ..      BEQ      0xe07e ; am_util_stdio_vsprintf + 206
        0x0000e076:    7830        0x      LDRB     r0,[r6,#0]
        0x0000e078:    286c        l(      CMP      r0,#0x6c
        0x0000e07a:    d12d        -.      BNE      0xe0d8 ; am_util_stdio_vsprintf + 296
        0x0000e07c:    e025        %.      B        0xe0ca ; am_util_stdio_vsprintf + 282
        0x0000e07e:    1c72        r.      ADDS     r2,r6,#1
        0x0000e080:    2300        .#      MOVS     r3,#0
        0x0000e082:    7811        .x      LDRB     r1,[r2,#0]
        0x0000e084:    4616        .F      MOV      r6,r2
        0x0000e086:    4699        .F      MOV      r9,r3
        0x0000e088:    4618        .F      MOV      r0,r3
        0x0000e08a:    292d        -)      CMP      r1,#0x2d
        0x0000e08c:    d102        ..      BNE      0xe094 ; am_util_stdio_vsprintf + 228
        0x0000e08e:    2301        .#      MOVS     r3,#1
        0x0000e090:    1c56        V.      ADDS     r6,r2,#1
        0x0000e092:    4618        .F      MOV      r0,r3
        0x0000e094:    7831        1x      LDRB     r1,[r6,#0]
        0x0000e096:    3930        09      SUBS     r1,r1,#0x30
        0x0000e098:    2909        .)      CMP      r1,#9
        0x0000e09a:    d80b        ..      BHI      0xe0b4 ; am_util_stdio_vsprintf + 260
        0x0000e09c:    eb090189    ....    ADD      r1,r9,r9,LSL #2
        0x0000e0a0:    0049        I.      LSLS     r1,r1,#1
        0x0000e0a2:    f8169b01    ....    LDRB     r9,[r6],#1
        0x0000e0a6:    3930        09      SUBS     r1,r1,#0x30
        0x0000e0a8:    4489        .D      ADD      r9,r9,r1
        0x0000e0aa:    7831        1x      LDRB     r1,[r6,#0]
        0x0000e0ac:    1c40        @.      ADDS     r0,r0,#1
        0x0000e0ae:    3930        09      SUBS     r1,r1,#0x30
        0x0000e0b0:    2909        .)      CMP      r1,#9
        0x0000e0b2:    d9f3        ..      BLS      0xe09c ; am_util_stdio_vsprintf + 236
        0x0000e0b4:    f1b80f00    ....    CMP      r8,#0
        0x0000e0b8:    bf18        ..      IT       NE
        0x0000e0ba:    9002        ..      STRNE    r0,[sp,#8]
        0x0000e0bc:    2b00        .+      CMP      r3,#0
        0x0000e0be:    bf18        ..      IT       NE
        0x0000e0c0:    f1c90900    ....    RSBNE    r9,r9,#0
        0x0000e0c4:    9802        ..      LDR      r0,[sp,#8]
        0x0000e0c6:    1816        ..      ADDS     r6,r2,r0
        0x0000e0c8:    e7d5        ..      B        0xe076 ; am_util_stdio_vsprintf + 198
        0x0000e0ca:    f8160f01    ....    LDRB     r0,[r6,#1]!
        0x0000e0ce:    286c        l(      CMP      r0,#0x6c
        0x0000e0d0:    bf04        ..      ITT      EQ
        0x0000e0d2:    f04f0c01    O...    MOVEQ    r12,#1
        0x0000e0d6:    1c76        v.      ADDEQ    r6,r6,#1
        0x0000e0d8:    7830        0x      LDRB     r0,[r6,#0]
        0x0000e0da:    2866        f(      CMP      r0,#0x66
        0x0000e0dc:    f000822a    ..*.    BEQ.W    0xe534 ; am_util_stdio_vsprintf + 1412
        0x0000e0e0:    dc0a        ..      BGT      0xe0f8 ; am_util_stdio_vsprintf + 328
        0x0000e0e2:    2846        F(      CMP      r0,#0x46
        0x0000e0e4:    f0008226    ..&.    BEQ.W    0xe534 ; am_util_stdio_vsprintf + 1412
        0x0000e0e8:    2858        X(      CMP      r0,#0x58
        0x0000e0ea:    d07d        }.      BEQ      0xe1e8 ; am_util_stdio_vsprintf + 568
        0x0000e0ec:    2863        c(      CMP      r0,#0x63
        0x0000e0ee:    d014        ..      BEQ      0xe11a ; am_util_stdio_vsprintf + 362
        0x0000e0f0:    2864        d(      CMP      r0,#0x64
        0x0000e0f2:    f00081b5    ....    BEQ.W    0xe460 ; am_util_stdio_vsprintf + 1200
        0x0000e0f6:    e00b        ..      B        0xe110 ; am_util_stdio_vsprintf + 352
        0x0000e0f8:    2869        i(      CMP      r0,#0x69
        0x0000e0fa:    f00081b1    ....    BEQ.W    0xe460 ; am_util_stdio_vsprintf + 1200
        0x0000e0fe:    2873        s(      CMP      r0,#0x73
        0x0000e100:    d016        ..      BEQ      0xe130 ; am_util_stdio_vsprintf + 384
        0x0000e102:    2875        u(      CMP      r0,#0x75
        0x0000e104:    f000810c    ....    BEQ.W    0xe320 ; am_util_stdio_vsprintf + 880
        0x0000e108:    2878        x(      CMP      r0,#0x78
        0x0000e10a:    bf08        ..      IT       EQ
        0x0000e10c:    2701        .'      MOVEQ    r7,#1
        0x0000e10e:    d06e        n.      BEQ      0xe1ee ; am_util_stdio_vsprintf + 574
        0x0000e110:    2c00        .,      CMP      r4,#0
        0x0000e112:    bf18        ..      IT       NE
        0x0000e114:    f8040b01    ....    STRBNE   r0,[r4],#1
        0x0000e118:    e007        ..      B        0xe12a ; am_util_stdio_vsprintf + 378
        0x0000e11a:    980a        ..      LDR      r0,[sp,#0x28]
        0x0000e11c:    2c00        .,      CMP      r4,#0
        0x0000e11e:    f8101b04    ....    LDRB     r1,[r0],#4
        0x0000e122:    900a        ..      STR      r0,[sp,#0x28]
        0x0000e124:    bf18        ..      IT       NE
        0x0000e126:    f8041b01    ....    STRBNE   r1,[r4],#1
        0x0000e12a:    1c6d        m.      ADDS     r5,r5,#1
        0x0000e12c:    f000bac9    ....    B.W      0xe6c2 ; am_util_stdio_vsprintf + 1810
        0x0000e130:    990a        ..      LDR      r1,[sp,#0x28]
        0x0000e132:    2200        ."      MOVS     r2,#0
        0x0000e134:    f8510b04    Q...    LDR      r0,[r1],#4
        0x0000e138:    910a        ..      STR      r1,[sp,#0x28]
        0x0000e13a:    b140        @.      CBZ      r0,0xe14e ; am_util_stdio_vsprintf + 414
        0x0000e13c:    7803        .x      LDRB     r3,[r0,#0]
        0x0000e13e:    1c41        A.      ADDS     r1,r0,#1
        0x0000e140:    b12b        +.      CBZ      r3,0xe14e ; am_util_stdio_vsprintf + 414
        0x0000e142:    bf00        ..      NOP      
        0x0000e144:    f8113b01    ...;    LDRB     r3,[r1],#1
        0x0000e148:    1c52        R.      ADDS     r2,r2,#1
        0x0000e14a:    2b00        .+      CMP      r3,#0
        0x0000e14c:    d1fa        ..      BNE      0xe144 ; am_util_stdio_vsprintf + 404
        0x0000e14e:    9900        ..      LDR      r1,[sp,#0]
        0x0000e150:    2900        .)      CMP      r1,#0
        0x0000e152:    dd1e        ..      BLE      0xe192 ; am_util_stdio_vsprintf + 482
        0x0000e154:    428a        .B      CMP      r2,r1
        0x0000e156:    d21c        ..      BCS      0xe192 ; am_util_stdio_vsprintf + 482
        0x0000e158:    1a8b        ..      SUBS     r3,r1,r2
        0x0000e15a:    9f01        ..      LDR      r7,[sp,#4]
        0x0000e15c:    4621        !F      MOV      r1,r4
        0x0000e15e:    f04f0c00    O...    MOV      r12,#0
        0x0000e162:    2b00        .+      CMP      r3,#0
        0x0000e164:    bfc4        ..      ITT      GT
        0x0000e166:    1e5b        [.      SUBGT    r3,r3,#1
        0x0000e168:    f1b33fff    ...?    CMPGT    r3,#0xffffffff
        0x0000e16c:    dd09        ..      BLE      0xe182 ; am_util_stdio_vsprintf + 466
        0x0000e16e:    2900        .)      CMP      r1,#0
        0x0000e170:    bf18        ..      IT       NE
        0x0000e172:    f8017b01    ...{    STRBNE   r7,[r1],#1
        0x0000e176:    1e5b        [.      SUBS     r3,r3,#1
        0x0000e178:    f10c0c01    ....    ADD      r12,r12,#1
        0x0000e17c:    f1b33fff    ...?    CMP      r3,#0xffffffff
        0x0000e180:    dcf5        ..      BGT      0xe16e ; am_util_stdio_vsprintf + 446
        0x0000e182:    2c00        .,      CMP      r4,#0
        0x0000e184:    bf14        ..      ITE      NE
        0x0000e186:    4661        aF      MOVNE    r1,r12
        0x0000e188:    2100        .!      MOVEQ    r1,#0
        0x0000e18a:    440c        .D      ADD      r4,r4,r1
        0x0000e18c:    2100        .!      MOVS     r1,#0
        0x0000e18e:    4465        eD      ADD      r5,r5,r12
        0x0000e190:    9100        ..      STR      r1,[sp,#0]
        0x0000e192:    7801        .x      LDRB     r1,[r0,#0]
        0x0000e194:    b139        9.      CBZ      r1,0xe1a6 ; am_util_stdio_vsprintf + 502
        0x0000e196:    b10c        ..      CBZ      r4,0xe19c ; am_util_stdio_vsprintf + 492
        0x0000e198:    f8041b01    ....    STRB     r1,[r4],#1
        0x0000e19c:    f8101f01    ....    LDRB     r1,[r0,#1]!
        0x0000e1a0:    1c6d        m.      ADDS     r5,r5,#1
        0x0000e1a2:    2900        .)      CMP      r1,#0
        0x0000e1a4:    d1f7        ..      BNE      0xe196 ; am_util_stdio_vsprintf + 486
        0x0000e1a6:    9800        ..      LDR      r0,[sp,#0]
        0x0000e1a8:    2800        .(      CMP      r0,#0
        0x0000e1aa:    bf1c        ..      ITT      NE
        0x0000e1ac:    4240        @B      RSBNE    r0,r0,#0
        0x0000e1ae:    4282        .B      CMPNE    r2,r0
        0x0000e1b0:    f0808287    ....    BCS.W    0xe6c2 ; am_util_stdio_vsprintf + 1810
        0x0000e1b4:    1a82        ..      SUBS     r2,r0,r2
        0x0000e1b6:    2000        .       MOVS     r0,#0
        0x0000e1b8:    9b01        ..      LDR      r3,[sp,#4]
        0x0000e1ba:    4621        !F      MOV      r1,r4
        0x0000e1bc:    2a00        .*      CMP      r2,#0
        0x0000e1be:    bfc4        ..      ITT      GT
        0x0000e1c0:    1e52        R.      SUBGT    r2,r2,#1
        0x0000e1c2:    f1b23fff    ...?    CMPGT    r2,#0xffffffff
        0x0000e1c6:    dd08        ..      BLE      0xe1da ; am_util_stdio_vsprintf + 554
        0x0000e1c8:    2900        .)      CMP      r1,#0
        0x0000e1ca:    bf18        ..      IT       NE
        0x0000e1cc:    f8013b01    ...;    STRBNE   r3,[r1],#1
        0x0000e1d0:    1c40        @.      ADDS     r0,r0,#1
        0x0000e1d2:    1e52        R.      SUBS     r2,r2,#1
        0x0000e1d4:    f1b23fff    ...?    CMP      r2,#0xffffffff
        0x0000e1d8:    dcf6        ..      BGT      0xe1c8 ; am_util_stdio_vsprintf + 536
        0x0000e1da:    2c00        .,      CMP      r4,#0
        0x0000e1dc:    bf14        ..      ITE      NE
        0x0000e1de:    4601        .F      MOVNE    r1,r0
        0x0000e1e0:    2100        .!      MOVEQ    r1,#0
        0x0000e1e2:    440c        .D      ADD      r4,r4,r1
        0x0000e1e4:    4405        .D      ADD      r5,r5,r0
        0x0000e1e6:    e000        ..      B        0xe1ea ; am_util_stdio_vsprintf + 570
        0x0000e1e8:    e001        ..      B        0xe1ee ; am_util_stdio_vsprintf + 574
        0x0000e1ea:    f000ba6a    ..j.    B.W      0xe6c2 ; am_util_stdio_vsprintf + 1810
        0x0000e1ee:    f1bc0f00    ....    CMP      r12,#0
        0x0000e1f2:    d007        ..      BEQ      0xe204 ; am_util_stdio_vsprintf + 596
        0x0000e1f4:    980a        ..      LDR      r0,[sp,#0x28]
        0x0000e1f6:    1dc0        ..      ADDS     r0,r0,#7
        0x0000e1f8:    f0200207     ...    BIC      r2,r0,#7
        0x0000e1fc:    e8f20102    ....    LDRD     r0,r1,[r2],#8
        0x0000e200:    920a        ..      STR      r2,[sp,#0x28]
        0x0000e202:    e004        ..      B        0xe20e ; am_util_stdio_vsprintf + 606
        0x0000e204:    990a        ..      LDR      r1,[sp,#0x28]
        0x0000e206:    f8510b04    Q...    LDR      r0,[r1],#4
        0x0000e20a:    910a        ..      STR      r1,[sp,#0x28]
        0x0000e20c:    2100        .!      MOVS     r1,#0
        0x0000e20e:    9a00        ..      LDR      r2,[sp,#0]
        0x0000e210:    b38a        ..      CBZ      r2,0xe276 ; am_util_stdio_vsprintf + 710
        0x0000e212:    460b        .F      MOV      r3,r1
        0x0000e214:    4602        .F      MOV      r2,r0
        0x0000e216:    ea500c03    P...    ORRS     r12,r0,r3
        0x0000e21a:    bf0c        ..      ITE      EQ
        0x0000e21c:    f04f0c01    O...    MOVEQ    r12,#1
        0x0000e220:    f04f0c00    O...    MOVNE    r12,#0
        0x0000e224:    d008        ..      BEQ      0xe238 ; am_util_stdio_vsprintf + 648
        0x0000e226:    0912        ..      LSRS     r2,r2,#4
        0x0000e228:    ea427203    B..r    ORR      r2,r2,r3,LSL #28
        0x0000e22c:    091b        ..      LSRS     r3,r3,#4
        0x0000e22e:    f10c0c01    ....    ADD      r12,r12,#1
        0x0000e232:    ea520803    R...    ORRS     r8,r2,r3
        0x0000e236:    d1f6        ..      BNE      0xe226 ; am_util_stdio_vsprintf + 630
        0x0000e238:    9a00        ..      LDR      r2,[sp,#0]
        0x0000e23a:    9b01        ..      LDR      r3,[sp,#4]
        0x0000e23c:    eba2020c    ....    SUB      r2,r2,r12
        0x0000e240:    46a4        .F      MOV      r12,r4
        0x0000e242:    f04f0800    O...    MOV      r8,#0
        0x0000e246:    2a00        .*      CMP      r2,#0
        0x0000e248:    bfc4        ..      ITT      GT
        0x0000e24a:    1e52        R.      SUBGT    r2,r2,#1
        0x0000e24c:    f1b23fff    ...?    CMPGT    r2,#0xffffffff
        0x0000e250:    dd0b        ..      BLE      0xe26a ; am_util_stdio_vsprintf + 698
        0x0000e252:    bf00        ..      NOP      
        0x0000e254:    f1bc0f00    ....    CMP      r12,#0
        0x0000e258:    bf18        ..      IT       NE
        0x0000e25a:    f80c3b01    ...;    STRBNE   r3,[r12],#1
        0x0000e25e:    1e52        R.      SUBS     r2,r2,#1
        0x0000e260:    f1080801    ....    ADD      r8,r8,#1
        0x0000e264:    f1b23fff    ...?    CMP      r2,#0xffffffff
        0x0000e268:    dcf4        ..      BGT      0xe254 ; am_util_stdio_vsprintf + 676
        0x0000e26a:    2c00        .,      CMP      r4,#0
        0x0000e26c:    bf14        ..      ITE      NE
        0x0000e26e:    4642        BF      MOVNE    r2,r8
        0x0000e270:    2200        ."      MOVEQ    r2,#0
        0x0000e272:    4414        .D      ADD      r4,r4,r2
        0x0000e274:    4445        ED      ADD      r5,r5,r8
        0x0000e276:    46a0        .F      MOV      r8,r4
        0x0000e278:    f04f0c00    O...    MOV      r12,#0
        0x0000e27c:    ea500201    P...    ORRS     r2,r0,r1
        0x0000e280:    d106        ..      BNE      0xe290 ; am_util_stdio_vsprintf + 736
        0x0000e282:    bf00        ..      NOP      
        0x0000e284:    f04f0230    O.0.    MOV      r2,#0x30
        0x0000e288:    f88d200c    ...     STRB     r2,[sp,#0xc]
        0x0000e28c:    f04f0c01    O...    MOV      r12,#1
        0x0000e290:    bf18        ..      IT       NE
        0x0000e292:    ab03        ..      ADDNE    r3,sp,#0xc
        0x0000e294:    d017        ..      BEQ      0xe2c6 ; am_util_stdio_vsprintf + 790
        0x0000e296:    bf00        ..      NOP      
        0x0000e298:    f000020f    ....    AND      r2,r0,#0xf
        0x0000e29c:    2a09        .*      CMP      r2,#9
        0x0000e29e:    d906        ..      BLS      0xe2ae ; am_util_stdio_vsprintf + 766
        0x0000e2a0:    2f00        ./      CMP      r7,#0
        0x0000e2a2:    bf14        ..      ITE      NE
        0x0000e2a4:    f04f0927    O.'.    MOVNE    r9,#0x27
        0x0000e2a8:    f04f0907    O...    MOVEQ    r9,#7
        0x0000e2ac:    444a        JD      ADD      r2,r2,r9
        0x0000e2ae:    3230        02      ADDS     r2,r2,#0x30
        0x0000e2b0:    0900        ..      LSRS     r0,r0,#4
        0x0000e2b2:    f803200c    ...     STRB     r2,[r3,r12]
        0x0000e2b6:    ea407001    @..p    ORR      r0,r0,r1,LSL #28
        0x0000e2ba:    0909        ..      LSRS     r1,r1,#4
        0x0000e2bc:    f10c0c01    ....    ADD      r12,r12,#1
        0x0000e2c0:    ea500201    P...    ORRS     r2,r0,r1
        0x0000e2c4:    d1e8        ..      BNE      0xe298 ; am_util_stdio_vsprintf + 744
        0x0000e2c6:    f1b80f00    ....    CMP      r8,#0
        0x0000e2ca:    d022        ".      BEQ      0xe312 ; am_util_stdio_vsprintf + 866
        0x0000e2cc:    f1ac0301    ....    SUB      r3,r12,#1
        0x0000e2d0:    f1bc0200    ....    SUBS     r2,r12,#0
        0x0000e2d4:    dd1a        ..      BLE      0xe30c ; am_util_stdio_vsprintf + 860
        0x0000e2d6:    a803        ..      ADD      r0,sp,#0xc
        0x0000e2d8:    4418        .D      ADD      r0,r0,r3
        0x0000e2da:    1c41        A.      ADDS     r1,r0,#1
        0x0000e2dc:    f1a80001    ....    SUB      r0,r8,#1
        0x0000e2e0:    f0130f01    ....    TST      r3,#1
        0x0000e2e4:    d103        ..      BNE      0xe2ee ; am_util_stdio_vsprintf + 830
        0x0000e2e6:    f8117d01    ...}    LDRB     r7,[r1,#-1]!
        0x0000e2ea:    f8007f01    ....    STRB     r7,[r0,#1]!
        0x0000e2ee:    1052        R.      ASRS     r2,r2,#1
        0x0000e2f0:    d009        ..      BEQ      0xe306 ; am_util_stdio_vsprintf + 854
        0x0000e2f2:    bf00        ..      NOP      
        0x0000e2f4:    f8117c01    ...|    LDRB     r7,[r1,#-1]
        0x0000e2f8:    7047        Gp      STRB     r7,[r0,#1]
        0x0000e2fa:    f8117d02    ...}    LDRB     r7,[r1,#-2]!
        0x0000e2fe:    f8007f02    ....    STRB     r7,[r0,#2]!
        0x0000e302:    1e52        R.      SUBS     r2,r2,#1
        0x0000e304:    d1f6        ..      BNE      0xe2f4 ; am_util_stdio_vsprintf + 836
        0x0000e306:    18e0        ..      ADDS     r0,r4,r3
        0x0000e308:    f1000801    ....    ADD      r8,r0,#1
        0x0000e30c:    2000        .       MOVS     r0,#0
        0x0000e30e:    f8880000    ....    STRB     r0,[r8,#0]
        0x0000e312:    2c00        .,      CMP      r4,#0
        0x0000e314:    bf18        ..      IT       NE
        0x0000e316:    4464        dD      ADDNE    r4,r4,r12
        0x0000e318:    4465        eD      ADD      r5,r5,r12
        0x0000e31a:    f000b9d2    ....    B.W      0xe6c2 ; am_util_stdio_vsprintf + 1810
        0x0000e31e:    bf00        ..      NOP      
        0x0000e320:    980a        ..      LDR      r0,[sp,#0x28]
        0x0000e322:    f1bc0f00    ....    CMP      r12,#0
        0x0000e326:    d006        ..      BEQ      0xe336 ; am_util_stdio_vsprintf + 902
        0x0000e328:    1dc0        ..      ADDS     r0,r0,#7
        0x0000e32a:    f0200107     ...    BIC      r1,r0,#7
        0x0000e32e:    e8f1e002    ....    LDRD     lr,r0,[r1],#8
        0x0000e332:    910a        ..      STR      r1,[sp,#0x28]
        0x0000e334:    e003        ..      B        0xe33e ; am_util_stdio_vsprintf + 910
        0x0000e336:    f850eb04    P...    LDR      lr,[r0],#4
        0x0000e33a:    900a        ..      STR      r0,[sp,#0x28]
        0x0000e33c:    2000        .       MOVS     r0,#0
        0x0000e33e:    9003        ..      STR      r0,[sp,#0xc]
        0x0000e340:    9800        ..      LDR      r0,[sp,#0]
        0x0000e342:    2800        .(      CMP      r0,#0
        0x0000e344:    d07e        ~.      BEQ      0xe444 ; am_util_stdio_vsprintf + 1172
        0x0000e346:    9903        ..      LDR      r1,[sp,#0xc]
        0x0000e348:    4670        pF      MOV      r0,lr
        0x0000e34a:    ea5e0201    ^...    ORRS     r2,lr,r1
        0x0000e34e:    bf0e        ..      ITEE     EQ
        0x0000e350:    2301        .#      MOVEQ    r3,#1
        0x0000e352:    2300        .#      MOVNE    r3,#0
        0x0000e354:    f04f0c00    O...    MOVNE    r12,#0
        0x0000e358:    d05e        ^.      BEQ      0xe418 ; am_util_stdio_vsprintf + 1128
        0x0000e35a:    b3c1        ..      CBZ      r1,0xe3ce ; am_util_stdio_vsprintf + 1054
        0x0000e35c:    084a        J.      LSRS     r2,r1,#1
        0x0000e35e:    ea4f0990    O...    LSR      r9,r0,#2
        0x0000e362:    ea4f0730    O.0.    RRX      r7,r0
        0x0000e366:    ea497881    I..x    ORR      r8,r9,r1,LSL #30
        0x0000e36a:    eb170708    ....    ADDS     r7,r7,r8
        0x0000e36e:    eb420291    B...    ADC      r2,r2,r1,LSR #2
        0x0000e372:    ea4f1917    O...    LSR      r9,r7,#4
        0x0000e376:    ea497802    I..x    ORR      r8,r9,r2,LSL #28
        0x0000e37a:    eb180707    ....    ADDS     r7,r8,r7
        0x0000e37e:    eb421812    B...    ADC      r8,r2,r2,LSR #4
        0x0000e382:    ea4f2917    O..)    LSR      r9,r7,#8
        0x0000e386:    ea496208    I..b    ORR      r2,r9,r8,LSL #24
        0x0000e38a:    19d2        ..      ADDS     r2,r2,r7
        0x0000e38c:    eb482718    H..'    ADC      r7,r8,r8,LSR #8
        0x0000e390:    ea4f4912    O..I    LSR      r9,r2,#16
        0x0000e394:    ea494807    I..H    ORR      r8,r9,r7,LSL #16
        0x0000e398:    eb180802    ....    ADDS     r8,r8,r2
        0x0000e39c:    eb474217    G..B    ADC      r2,r7,r7,LSR #16
        0x0000e3a0:    eb180702    ....    ADDS     r7,r8,r2
        0x0000e3a4:    eb42020c    B...    ADC      r2,r2,r12
        0x0000e3a8:    08ff        ..      LSRS     r7,r7,#3
        0x0000e3aa:    ea477742    G.Bw    ORR      r7,r7,r2,LSL #29
        0x0000e3ae:    f04f080a    O...    MOV      r8,#0xa
        0x0000e3b2:    fba7ab08    ....    UMULL    r10,r11,r7,r8
        0x0000e3b6:    08d2        ..      LSRS     r2,r2,#3
        0x0000e3b8:    fb02b808    ....    MLA      r8,r2,r8,r11
        0x0000e3bc:    f04f0900    O...    MOV      r9,#0
        0x0000e3c0:    fb078909    ....    MLA      r9,r7,r9,r8
        0x0000e3c4:    ebb0080a    ....    SUBS     r8,r0,r10
        0x0000e3c8:    eb610009    a...    SBC      r0,r1,r9
        0x0000e3cc:    e002        ..      B        0xe3d4 ; am_util_stdio_vsprintf + 1060
        0x0000e3ce:    e00c        ..      B        0xe3ea ; am_util_stdio_vsprintf + 1082
    $d
        0x0000e3d0:    1000002c    ,...    DCD    268435500
    $t
        0x0000e3d4:    f1180106    ....    ADDS     r1,r8,#6
        0x0000e3d8:    f1400800    @...    ADC      r8,r0,#0
        0x0000e3dc:    0909        ..      LSRS     r1,r1,#4
        0x0000e3de:    ea417008    A..p    ORR      r0,r1,r8,LSL #28
        0x0000e3e2:    19c0        ..      ADDS     r0,r0,r7
        0x0000e3e4:    eb421118    B...    ADC      r1,r2,r8,LSR #4
        0x0000e3e8:    e012        ..      B        0xe410 ; am_util_stdio_vsprintf + 1120
        0x0000e3ea:    0841        A.      LSRS     r1,r0,#1
        0x0000e3ec:    eb010190    ....    ADD      r1,r1,r0,LSR #2
        0x0000e3f0:    eb011111    ....    ADD      r1,r1,r1,LSR #4
        0x0000e3f4:    eb012111    ...!    ADD      r1,r1,r1,LSR #8
        0x0000e3f8:    eb014111    ...A    ADD      r1,r1,r1,LSR #16
        0x0000e3fc:    08c9        ..      LSRS     r1,r1,#3
        0x0000e3fe:    424a        JB      RSBS     r2,r1,#0
        0x0000e400:    eb020282    ....    ADD      r2,r2,r2,LSL #2
        0x0000e404:    eb000042    ..B.    ADD      r0,r0,r2,LSL #1
        0x0000e408:    1d80        ..      ADDS     r0,r0,#6
        0x0000e40a:    eb011010    ....    ADD      r0,r1,r0,LSR #4
        0x0000e40e:    4661        aF      MOV      r1,r12
        0x0000e410:    1c5b        [.      ADDS     r3,r3,#1
        0x0000e412:    ea500201    P...    ORRS     r2,r0,r1
        0x0000e416:    d1a0        ..      BNE      0xe35a ; am_util_stdio_vsprintf + 938
        0x0000e418:    9800        ..      LDR      r0,[sp,#0]
        0x0000e41a:    2100        .!      MOVS     r1,#0
        0x0000e41c:    1ac2        ..      SUBS     r2,r0,r3
        0x0000e41e:    9b01        ..      LDR      r3,[sp,#4]
        0x0000e420:    4620         F      MOV      r0,r4
        0x0000e422:    2a00        .*      CMP      r2,#0
        0x0000e424:    bfc4        ..      ITT      GT
        0x0000e426:    1e52        R.      SUBGT    r2,r2,#1
        0x0000e428:    f1b23fff    ...?    CMPGT    r2,#0xffffffff
        0x0000e42c:    dd08        ..      BLE      0xe440 ; am_util_stdio_vsprintf + 1168
        0x0000e42e:    2800        .(      CMP      r0,#0
        0x0000e430:    bf18        ..      IT       NE
        0x0000e432:    f8003b01    ...;    STRBNE   r3,[r0],#1
        0x0000e436:    1c49        I.      ADDS     r1,r1,#1
        0x0000e438:    1e52        R.      SUBS     r2,r2,#1
        0x0000e43a:    f1b23fff    ...?    CMP      r2,#0xffffffff
        0x0000e43e:    dcf6        ..      BGT      0xe42e ; am_util_stdio_vsprintf + 1150
        0x0000e440:    2c00        .,      CMP      r4,#0
        0x0000e442:    e000        ..      B        0xe446 ; am_util_stdio_vsprintf + 1174
        0x0000e444:    e004        ..      B        0xe450 ; am_util_stdio_vsprintf + 1184
        0x0000e446:    bf14        ..      ITE      NE
        0x0000e448:    4608        .F      MOVNE    r0,r1
        0x0000e44a:    2000        .       MOVEQ    r0,#0
        0x0000e44c:    4404        .D      ADD      r4,r4,r0
        0x0000e44e:    440d        .D      ADD      r5,r5,r1
        0x0000e450:    4622        "F      MOV      r2,r4
        0x0000e452:    4670        pF      MOV      r0,lr
        0x0000e454:    9903        ..      LDR      r1,[sp,#0xc]
        0x0000e456:    f000fb8f    ....    BL       uint64_to_str ; 0xeb78
        0x0000e45a:    bbdc        ..      CBNZ     r4,0xe4d4 ; am_util_stdio_vsprintf + 1316
        0x0000e45c:    4405        .D      ADD      r5,r5,r0
        0x0000e45e:    e130        0.      B        0xe6c2 ; am_util_stdio_vsprintf + 1810
        0x0000e460:    980a        ..      LDR      r0,[sp,#0x28]
        0x0000e462:    f1bc0f00    ....    CMP      r12,#0
        0x0000e466:    d006        ..      BEQ      0xe476 ; am_util_stdio_vsprintf + 1222
        0x0000e468:    1dc0        ..      ADDS     r0,r0,#7
        0x0000e46a:    f0200007     ...    BIC      r0,r0,#7
        0x0000e46e:    e8f08702    ....    LDRD     r8,r7,[r0],#8
        0x0000e472:    900a        ..      STR      r0,[sp,#0x28]
        0x0000e474:    e004        ..      B        0xe480 ; am_util_stdio_vsprintf + 1232
        0x0000e476:    f8508b04    P...    LDR      r8,[r0],#4
        0x0000e47a:    900a        ..      STR      r0,[sp,#0x28]
        0x0000e47c:    ea4f77e8    O..w    ASR      r7,r8,#31
        0x0000e480:    2f00        ./      CMP      r7,#0
        0x0000e482:    bfa8        ..      IT       GE
        0x0000e484:    f04f0900    O...    MOVGE    r9,#0
        0x0000e488:    da06        ..      BGE      0xe498 ; am_util_stdio_vsprintf + 1256
        0x0000e48a:    2000        .       MOVS     r0,#0
        0x0000e48c:    f1d80800    ....    RSBS     r8,r8,#0
        0x0000e490:    eb600707    `...    SBC      r7,r0,r7
        0x0000e494:    f04f0901    O...    MOV      r9,#1
        0x0000e498:    9800        ..      LDR      r0,[sp,#0]
        0x0000e49a:    b3d8        ..      CBZ      r0,0xe514 ; am_util_stdio_vsprintf + 1380
        0x0000e49c:    4640        @F      MOV      r0,r8
        0x0000e49e:    0039        9.      MOVS     r1,r7
        0x0000e4a0:    d503        ..      BPL      0xe4aa ; am_util_stdio_vsprintf + 1274
        0x0000e4a2:    2200        ."      MOVS     r2,#0
        0x0000e4a4:    4240        @B      RSBS     r0,r0,#0
        0x0000e4a6:    eb620107    b...    SBC      r1,r2,r7
        0x0000e4aa:    f000f9e9    ....    BL       ndigits_in_u64 ; 0xe880
        0x0000e4ae:    9900        ..      LDR      r1,[sp,#0]
        0x0000e4b0:    1a0a        ..      SUBS     r2,r1,r0
        0x0000e4b2:    f1b90f00    ....    CMP      r9,#0
        0x0000e4b6:    d008        ..      BEQ      0xe4ca ; am_util_stdio_vsprintf + 1306
        0x0000e4b8:    9801        ..      LDR      r0,[sp,#4]
        0x0000e4ba:    1e52        R.      SUBS     r2,r2,#1
        0x0000e4bc:    2830        0(      CMP      r0,#0x30
        0x0000e4be:    d104        ..      BNE      0xe4ca ; am_util_stdio_vsprintf + 1306
        0x0000e4c0:    b114        ..      CBZ      r4,0xe4c8 ; am_util_stdio_vsprintf + 1304
        0x0000e4c2:    202d        -       MOVS     r0,#0x2d
        0x0000e4c4:    f8040b01    ....    STRB     r0,[r4],#1
        0x0000e4c8:    1c6d        m.      ADDS     r5,r5,#1
        0x0000e4ca:    2100        .!      MOVS     r1,#0
        0x0000e4cc:    4620         F      MOV      r0,r4
        0x0000e4ce:    9b01        ..      LDR      r3,[sp,#4]
        0x0000e4d0:    2a00        .*      CMP      r2,#0
        0x0000e4d2:    e000        ..      B        0xe4d6 ; am_util_stdio_vsprintf + 1318
        0x0000e4d4:    e02c        ,.      B        0xe530 ; am_util_stdio_vsprintf + 1408
        0x0000e4d6:    bfc4        ..      ITT      GT
        0x0000e4d8:    1e52        R.      SUBGT    r2,r2,#1
        0x0000e4da:    f1b23fff    ...?    CMPGT    r2,#0xffffffff
        0x0000e4de:    dd08        ..      BLE      0xe4f2 ; am_util_stdio_vsprintf + 1346
        0x0000e4e0:    2800        .(      CMP      r0,#0
        0x0000e4e2:    bf18        ..      IT       NE
        0x0000e4e4:    f8003b01    ...;    STRBNE   r3,[r0],#1
        0x0000e4e8:    1c49        I.      ADDS     r1,r1,#1
        0x0000e4ea:    1e52        R.      SUBS     r2,r2,#1
        0x0000e4ec:    f1b23fff    ...?    CMP      r2,#0xffffffff
        0x0000e4f0:    dcf6        ..      BGT      0xe4e0 ; am_util_stdio_vsprintf + 1328
        0x0000e4f2:    2c00        .,      CMP      r4,#0
        0x0000e4f4:    bf14        ..      ITE      NE
        0x0000e4f6:    4608        .F      MOVNE    r0,r1
        0x0000e4f8:    2000        .       MOVEQ    r0,#0
        0x0000e4fa:    4404        .D      ADD      r4,r4,r0
        0x0000e4fc:    440d        .D      ADD      r5,r5,r1
        0x0000e4fe:    f1b90f00    ....    CMP      r9,#0
        0x0000e502:    d00e        ..      BEQ      0xe522 ; am_util_stdio_vsprintf + 1394
        0x0000e504:    9801        ..      LDR      r0,[sp,#4]
        0x0000e506:    2820         (      CMP      r0,#0x20
        0x0000e508:    d10b        ..      BNE      0xe522 ; am_util_stdio_vsprintf + 1394
        0x0000e50a:    b14c        L.      CBZ      r4,0xe520 ; am_util_stdio_vsprintf + 1392
        0x0000e50c:    202d        -       MOVS     r0,#0x2d
        0x0000e50e:    f8040b01    ....    STRB     r0,[r4],#1
        0x0000e512:    e005        ..      B        0xe520 ; am_util_stdio_vsprintf + 1392
        0x0000e514:    e7ff        ..      B        0xe516 ; am_util_stdio_vsprintf + 1382
        0x0000e516:    f1b90f00    ....    CMP      r9,#0
        0x0000e51a:    d002        ..      BEQ      0xe522 ; am_util_stdio_vsprintf + 1394
        0x0000e51c:    2c00        .,      CMP      r4,#0
        0x0000e51e:    d1f5        ..      BNE      0xe50c ; am_util_stdio_vsprintf + 1372
        0x0000e520:    1c6d        m.      ADDS     r5,r5,#1
        0x0000e522:    4622        "F      MOV      r2,r4
        0x0000e524:    4640        @F      MOV      r0,r8
        0x0000e526:    4639        9F      MOV      r1,r7
        0x0000e528:    f000fb26    ..&.    BL       uint64_to_str ; 0xeb78
        0x0000e52c:    2c00        .,      CMP      r4,#0
        0x0000e52e:    d095        ..      BEQ      0xe45c ; am_util_stdio_vsprintf + 1196
        0x0000e530:    4404        .D      ADD      r4,r4,r0
        0x0000e532:    e793        ..      B        0xe45c ; am_util_stdio_vsprintf + 1196
        0x0000e534:    2c00        .,      CMP      r4,#0
        0x0000e536:    d07d        }.      BEQ      0xe634 ; am_util_stdio_vsprintf + 1668
        0x0000e538:    980a        ..      LDR      r0,[sp,#0x28]
        0x0000e53a:    1dc0        ..      ADDS     r0,r0,#7
        0x0000e53c:    f0200007     ...    BIC      r0,r0,#7
        0x0000e540:    ecb00b02    ....    VLDM     r0!,{d0}
        0x0000e544:    900a        ..      STR      r0,[sp,#0x28]
        0x0000e546:    ec510b10    Q...    VMOV     r0,r1,d0
        0x0000e54a:    f000fba9    ....    BL       __aeabi_d2f ; 0xeca0
        0x0000e54e:    ee000a10    ....    VMOV     s0,r0
        0x0000e552:    f04f0a14    O...    MOV      r10,#0x14
        0x0000e556:    4627        'F      MOV      r7,r4
        0x0000e558:    eeb50ac0    ....    VCMPE.F32 s0,#0.0
        0x0000e55c:    f8c4a000    ....    STR      r10,[r4,#0]
        0x0000e560:    eef1fa10    ....    VMRS     APSR_nzcv,FPSCR
        0x0000e564:    d103        ..      BNE      0xe56e ; am_util_stdio_vsprintf + 1470
        0x0000e566:    485f        _H      LDR      r0,[pc,#380] ; [0xe6e4] = 0x302e30
        0x0000e568:    6020         `      STR      r0,[r4,#0]
        0x0000e56a:    2003        .       MOVS     r0,#3
        0x0000e56c:    e0a7        ..      B        0xe6be ; am_util_stdio_vsprintf + 1806
        0x0000e56e:    ee100a10    ....    VMOV     r0,s0
        0x0000e572:    f04f0800    O...    MOV      r8,#0
        0x0000e576:    46a3        .F      MOV      r11,r4
        0x0000e578:    f3c051c7    ...Q    UBFX     r1,r0,#23,#8
        0x0000e57c:    f020427f     ..B    BIC      r2,r0,#0xff000000
        0x0000e580:    397f        .9      SUBS     r1,r1,#0x7f
        0x0000e582:    f4420200    B...    ORR      r2,r2,#0x800000
        0x0000e586:    4643        CF      MOV      r3,r8
        0x0000e588:    291f        .)      CMP      r1,#0x1f
        0x0000e58a:    da7d        }.      BGE      0xe688 ; am_util_stdio_vsprintf + 1752
        0x0000e58c:    f1110f17    ....    CMN      r1,#0x17
        0x0000e590:    db7b        {.      BLT      0xe68a ; am_util_stdio_vsprintf + 1754
        0x0000e592:    2917        .)      CMP      r1,#0x17
        0x0000e594:    bfa4        ..      ITT      GE
        0x0000e596:    3917        .9      SUBGE    r1,r1,#0x17
        0x0000e598:    fa02f301    ....    LSLGE    r3,r2,r1
        0x0000e59c:    da0e        ..      BGE      0xe5bc ; am_util_stdio_vsprintf + 1548
        0x0000e59e:    2900        .)      CMP      r1,#0
        0x0000e5a0:    bfbc        ..      ITT      LT
        0x0000e5a2:    43c9        .C      MVNLT    r1,r1
        0x0000e5a4:    fa22f801    "...    LSRLT    r8,r2,r1
        0x0000e5a8:    db08        ..      BLT      0xe5bc ; am_util_stdio_vsprintf + 1548
        0x0000e5aa:    f1c10317    ....    RSB      r3,r1,#0x17
        0x0000e5ae:    fa42f303    B...    ASR      r3,r2,r3
        0x0000e5b2:    1c49        I.      ADDS     r1,r1,#1
        0x0000e5b4:    fa02f101    ....    LSL      r1,r2,r1
        0x0000e5b8:    f021487f    !..H    BIC      r8,r1,#0xff000000
        0x0000e5bc:    2800        .(      CMP      r0,#0
        0x0000e5be:    da03        ..      BGE      0xe5c8 ; am_util_stdio_vsprintf + 1560
        0x0000e5c0:    202d        -       MOVS     r0,#0x2d
        0x0000e5c2:    7038        8p      STRB     r0,[r7,#0]
        0x0000e5c4:    f10b0701    ....    ADD      r7,r11,#1
        0x0000e5c8:    2b00        .+      CMP      r3,#0
        0x0000e5ca:    bf04        ..      ITT      EQ
        0x0000e5cc:    2030        0       MOVEQ    r0,#0x30
        0x0000e5ce:    f8070b01    ....    STRBEQ   r0,[r7],#1
        0x0000e5d2:    d015        ..      BEQ      0xe600 ; am_util_stdio_vsprintf + 1616
        0x0000e5d4:    dd06        ..      BLE      0xe5e4 ; am_util_stdio_vsprintf + 1588
        0x0000e5d6:    463a        :F      MOV      r2,r7
        0x0000e5d8:    4618        .F      MOV      r0,r3
        0x0000e5da:    ea4f71e3    O..q    ASR      r1,r3,#31
        0x0000e5de:    f000facb    ....    BL       uint64_to_str ; 0xeb78
        0x0000e5e2:    e007        ..      B        0xe5f4 ; am_util_stdio_vsprintf + 1604
        0x0000e5e4:    202d        -       MOVS     r0,#0x2d
        0x0000e5e6:    f8070b01    ....    STRB     r0,[r7],#1
        0x0000e5ea:    4258        XB      RSBS     r0,r3,#0
        0x0000e5ec:    463a        :F      MOV      r2,r7
        0x0000e5ee:    17c1        ..      ASRS     r1,r0,#31
        0x0000e5f0:    f000fac2    ....    BL       uint64_to_str ; 0xeb78
        0x0000e5f4:    7838        8x      LDRB     r0,[r7,#0]
        0x0000e5f6:    b118        ..      CBZ      r0,0xe600 ; am_util_stdio_vsprintf + 1616
        0x0000e5f8:    f8170f01    ....    LDRB     r0,[r7,#1]!
        0x0000e5fc:    2800        .(      CMP      r0,#0
        0x0000e5fe:    d1fb        ..      BNE      0xe5f8 ; am_util_stdio_vsprintf + 1608
        0x0000e600:    202e        .       MOVS     r0,#0x2e
        0x0000e602:    1c7a        z.      ADDS     r2,r7,#1
        0x0000e604:    7038        8p      STRB     r0,[r7,#0]
        0x0000e606:    f1b80f00    ....    CMP      r8,#0
        0x0000e60a:    d041        A.      BEQ      0xe690 ; am_util_stdio_vsprintf + 1760
        0x0000e60c:    eba2000b    ....    SUB      r0,r2,r11
        0x0000e610:    ebaa0000    ....    SUB      r0,r10,r0
        0x0000e614:    f1a00c01    ....    SUB      r12,r0,#1
        0x0000e618:    45cc        .E      CMP      r12,r9
        0x0000e61a:    bfc8        ..      IT       GT
        0x0000e61c:    46cc        .F      MOVGT    r12,r9
        0x0000e61e:    f1bc0f00    ....    CMP      r12,#0
        0x0000e622:    dd11        ..      BLE      0xe648 ; am_util_stdio_vsprintf + 1688
        0x0000e624:    4617        .F      MOV      r7,r2
        0x0000e626:    4660        `F      MOV      r0,r12
        0x0000e628:    f05f0330    _.0.    MOVS.W   r3,#0x30
        0x0000e62c:    eb080188    ....    ADD      r1,r8,r8,LSL #2
        0x0000e630:    0049        I.      LSLS     r1,r1,#1
        0x0000e632:    e000        ..      B        0xe636 ; am_util_stdio_vsprintf + 1670
        0x0000e634:    e045        E.      B        0xe6c2 ; am_util_stdio_vsprintf + 1810
        0x0000e636:    eb036821    ..!h    ADD      r8,r3,r1,ASR #24
        0x0000e63a:    f8078b01    ....    STRB     r8,[r7],#1
        0x0000e63e:    f021487f    !..H    BIC      r8,r1,#0xff000000
        0x0000e642:    1e40        @.      SUBS     r0,r0,#1
        0x0000e644:    d1f2        ..      BNE      0xe62c ; am_util_stdio_vsprintf + 1660
        0x0000e646:    4462        bD      ADD      r2,r2,r12
        0x0000e648:    eb080088    ....    ADD      r0,r8,r8,LSL #2
        0x0000e64c:    0041        A.      LSLS     r1,r0,#1
        0x0000e64e:    2005        .       MOVS     r0,#5
        0x0000e650:    ebb06f21    ..!o    CMP      r0,r1,ASR #24
        0x0000e654:    dc24        $.      BGT      0xe6a0 ; am_util_stdio_vsprintf + 1776
        0x0000e656:    1e50        P.      SUBS     r0,r2,#1
        0x0000e658:    ebab0300    ....    SUB      r3,r11,r0
        0x0000e65c:    2101        .!      MOVS     r1,#1
        0x0000e65e:    f1c30301    ....    RSB      r3,r3,#1
        0x0000e662:    2b01        .+      CMP      r3,#1
        0x0000e664:    bfa8        ..      IT       GE
        0x0000e666:    2730        0'      MOVGE    r7,#0x30
        0x0000e668:    db1a        ..      BLT      0xe6a0 ; am_util_stdio_vsprintf + 1776
        0x0000e66a:    bf00        ..      NOP      
        0x0000e66c:    f890c000    ....    LDRB     r12,[r0,#0]
        0x0000e670:    f1bc0f2e    ....    CMP      r12,#0x2e
        0x0000e674:    d010        ..      BEQ      0xe698 ; am_util_stdio_vsprintf + 1768
        0x0000e676:    f1bc0f39    ..9.    CMP      r12,#0x39
        0x0000e67a:    bf08        ..      IT       EQ
        0x0000e67c:    7007        .p      STRBEQ   r7,[r0,#0]
        0x0000e67e:    d00b        ..      BEQ      0xe698 ; am_util_stdio_vsprintf + 1768
        0x0000e680:    f00c01ff    ....    AND      r1,r12,#0xff
        0x0000e684:    1c49        I.      ADDS     r1,r1,#1
        0x0000e686:    e001        ..      B        0xe68c ; am_util_stdio_vsprintf + 1756
        0x0000e688:    e02a        *.      B        0xe6e0 ; am_util_stdio_vsprintf + 1840
        0x0000e68a:    e027        '.      B        0xe6dc ; am_util_stdio_vsprintf + 1836
        0x0000e68c:    7001        .p      STRB     r1,[r0,#0]
        0x0000e68e:    e007        ..      B        0xe6a0 ; am_util_stdio_vsprintf + 1776
        0x0000e690:    2030        0       MOVS     r0,#0x30
        0x0000e692:    f8020b01    ....    STRB     r0,[r2],#1
        0x0000e696:    e003        ..      B        0xe6a0 ; am_util_stdio_vsprintf + 1776
        0x0000e698:    1e40        @.      SUBS     r0,r0,#1
        0x0000e69a:    1c49        I.      ADDS     r1,r1,#1
        0x0000e69c:    428b        .B      CMP      r3,r1
        0x0000e69e:    dae5        ..      BGE      0xe66c ; am_util_stdio_vsprintf + 1724
        0x0000e6a0:    2000        .       MOVS     r0,#0
        0x0000e6a2:    7010        .p      STRB     r0,[r2,#0]
        0x0000e6a4:    ebb2000b    ....    SUBS     r0,r2,r11
        0x0000e6a8:    d509        ..      BPL      0xe6be ; am_util_stdio_vsprintf + 1806
        0x0000e6aa:    f1b03fff    ...?    CMP      r0,#0xffffffff
        0x0000e6ae:    d015        ..      BEQ      0xe6dc ; am_util_stdio_vsprintf + 1836
        0x0000e6b0:    f1100f02    ....    CMN      r0,#2
        0x0000e6b4:    bf18        ..      IT       NE
        0x0000e6b6:    480c        .H      LDRNE    r0,[pc,#48] ; [0xe6e8] = 0x3f2e3f
        0x0000e6b8:    d012        ..      BEQ      0xe6e0 ; am_util_stdio_vsprintf + 1840
        0x0000e6ba:    6020         `      STR      r0,[r4,#0]
        0x0000e6bc:    2003        .       MOVS     r0,#3
        0x0000e6be:    4405        .D      ADD      r5,r5,r0
        0x0000e6c0:    4404        .D      ADD      r4,r4,r0
        0x0000e6c2:    1c71        q.      ADDS     r1,r6,#1
        0x0000e6c4:    7808        .x      LDRB     r0,[r1,#0]
        0x0000e6c6:    2800        .(      CMP      r0,#0
        0x0000e6c8:    f47fac7c    ..|.    BNE      0xdfc4 ; am_util_stdio_vsprintf + 20
        0x0000e6cc:    2c00        .,      CMP      r4,#0
        0x0000e6ce:    bf1c        ..      ITT      NE
        0x0000e6d0:    2000        .       MOVNE    r0,#0
        0x0000e6d2:    7020         p      STRBNE   r0,[r4,#0]
        0x0000e6d4:    4628        (F      MOV      r0,r5
        0x0000e6d6:    b00b        ..      ADD      sp,sp,#0x2c
        0x0000e6d8:    e8bd8ff0    ....    POP      {r4-r11,pc}
        0x0000e6dc:    4801        .H      LDR      r0,[pc,#4] ; [0xe6e4] = 0x302e30
        0x0000e6de:    e7ec        ..      B        0xe6ba ; am_util_stdio_vsprintf + 1802
        0x0000e6e0:    4802        .H      LDR      r0,[pc,#8] ; [0xe6ec] = 0x232e23
        0x0000e6e2:    e7ea        ..      B        0xe6ba ; am_util_stdio_vsprintf + 1802
    $d
        0x0000e6e4:    00302e30    0.0.    DCD    3157552
        0x0000e6e8:    003f2e3f    ?.?.    DCD    4140607
        0x0000e6ec:    00232e23    #.#.    DCD    2305571
    $t
    i.main
    main
        0x0000e6f0:    ed2d8b02    -...    VPUSH    {d8}
        0x0000e6f4:    2100        .!      MOVS     r1,#0
        0x0000e6f6:    b088        ..      SUB      sp,sp,#0x20
        0x0000e6f8:    4608        .F      MOV      r0,r1
        0x0000e6fa:    f7fefb89    ....    BL       am_hal_clkgen_control ; 0xce10
        0x0000e6fe:    4852        RH      LDR      r0,[pc,#328] ; [0xe848] = 0xeea2
        0x0000e700:    f7fefb56    ..V.    BL       am_hal_cachectrl_config ; 0xcdb0
        0x0000e704:    f7fefb7a    ..z.    BL       am_hal_cachectrl_enable ; 0xcdfc
        0x0000e708:    f7fefb34    ..4.    BL       am_bsp_itm_printf_enable ; 0xcd74
        0x0000e70c:    f7fffc32    ..2.    BL       am_util_stdio_terminal_clear ; 0xdf74
        0x0000e710:    a04e        N.      ADR      r0,{pc}+0x13c ; 0xe84c
        0x0000e712:    f7fffc0f    ....    BL       am_util_stdio_printf ; 0xdf34
        0x0000e716:    4952        RI      LDR      r1,[pc,#328] ; [0xe860] = 0x10000008
        0x0000e718:    2000        .       MOVS     r0,#0
        0x0000e71a:    f7feff9d    ....    BL       am_hal_pdm_initialize ; 0xd658
        0x0000e71e:    4d51        QM      LDR      r5,[pc,#324] ; [0xe864] = 0x10000000
        0x0000e720:    2200        ."      MOVS     r2,#0
        0x0000e722:    4611        .F      MOV      r1,r2
        0x0000e724:    68a8        .h      LDR      r0,[r5,#8]
        0x0000e726:    f7fff807    ....    BL       am_hal_pdm_power_control ; 0xd738
        0x0000e72a:    f105010c    ....    ADD      r1,r5,#0xc
        0x0000e72e:    68a8        .h      LDR      r0,[r5,#8]
        0x0000e730:    f7fefe70    ..p.    BL       am_hal_pdm_configure ; 0xd414
        0x0000e734:    68a8        .h      LDR      r0,[r5,#8]
        0x0000e736:    f7feff5d    ..].    BL       am_hal_pdm_enable ; 0xd5f4
        0x0000e73a:    f04f0800    O...    MOV      r8,#0
        0x0000e73e:    2107        .!      MOVS     r1,#7
        0x0000e740:    200b        .       MOVS     r0,#0xb
        0x0000e742:    f7fefc0f    ....    BL       am_hal_gpio_pinconfig ; 0xcf64
        0x0000e746:    2105        .!      MOVS     r1,#5
        0x0000e748:    200c        .       MOVS     r0,#0xc
        0x0000e74a:    f7fefc0b    ....    BL       am_hal_gpio_pinconfig ; 0xcf64
        0x0000e74e:    2100        .!      MOVS     r1,#0
        0x0000e750:    200e        .       MOVS     r0,#0xe
        0x0000e752:    f7fefd47    ..G.    BL       am_hal_gpio_state_write ; 0xd1e4
        0x0000e756:    4844        DH      LDR      r0,[pc,#272] ; [0xe868] = 0xf00c
        0x0000e758:    6801        .h      LDR      r1,[r0,#0]
        0x0000e75a:    200e        .       MOVS     r0,#0xe
        0x0000e75c:    f7fefc02    ....    BL       am_hal_gpio_pinconfig ; 0xcf64
        0x0000e760:    211e        .!      MOVS     r1,#0x1e
        0x0000e762:    68a8        .h      LDR      r0,[r5,#8]
        0x0000e764:    f7feffae    ....    BL       am_hal_pdm_interrupt_enable ; 0xd6c4
        0x0000e768:    f04f21e0    O..!    MOV      r1,#0xe000e000
        0x0000e76c:    f44f2000    O..     MOV      r0,#0x80000
        0x0000e770:    f8c10100    ....    STR      r0,[r1,#0x100]
        0x0000e774:    f000f938    ..8.    BL       pdm_config_print ; 0xe9e8
        0x0000e778:    68a8        .h      LDR      r0,[r5,#8]
        0x0000e77a:    f7feff57    ..W.    BL       am_hal_pdm_fifo_flush ; 0xd62c
        0x0000e77e:    4e3b        ;N      LDR      r6,[pc,#236] ; [0xe86c] = 0x100010a0
        0x0000e780:    f44f5700    O..W    MOV      r7,#0x2000
        0x0000e784:    e9cd6700    ...g    STRD     r6,r7,[sp,#0]
        0x0000e788:    68a8        .h      LDR      r0,[r5,#8]
        0x0000e78a:    f7feff33    ..3.    BL       am_hal_pdm_enable ; 0xd5f4
        0x0000e78e:    2064        d       MOVS     r0,#0x64
        0x0000e790:    f7fff964    ..d.    BL       am_util_delay_ms ; 0xda5c
        0x0000e794:    68a8        .h      LDR      r0,[r5,#8]
        0x0000e796:    f7feff49    ..I.    BL       am_hal_pdm_fifo_flush ; 0xd62c
        0x0000e79a:    4669        iF      MOV      r1,sp
        0x0000e79c:    68a8        .h      LDR      r0,[r5,#8]
        0x0000e79e:    f7fefedf    ....    BL       am_hal_pdm_dma_start ; 0xd560
        0x0000e7a2:    ed9f8a33    ..3.    VLDR     s16,[pc,#204] ; [0xe870] = 0
        0x0000e7a6:    f5064480    ...D    ADD      r4,r6,#0x4000
        0x0000e7aa:    bf00        ..      NOP      
        0x0000e7ac:    f7fdfd28    ..(.    BL       am_hal_interrupt_master_disable ; 0xc200
        0x0000e7b0:    7828        (x      LDRB     r0,[r5,#0]
        0x0000e7b2:    2800        .(      CMP      r0,#0
        0x0000e7b4:    d042        B.      BEQ      0xe83c ; main + 332
        0x0000e7b6:    f8858000    ....    STRB     r8,[r5,#0]
        0x0000e7ba:    492c        ,I      LDR      r1,[pc,#176] ; [0xe86c] = 0x100010a0
        0x0000e7bc:    f05f0000    _...    MOVS.W   r0,#0
        0x0000e7c0:    f9312010    1..     LDRSH    r2,[r1,r0,LSL #1]
        0x0000e7c4:    ee002a10    ...*    VMOV     s0,r2
        0x0000e7c8:    eb0402c0    ....    ADD      r2,r4,r0,LSL #3
        0x0000e7cc:    1c40        @.      ADDS     r0,r0,#1
        0x0000e7ce:    eeb80ac0    ....    VCVT.F32.S32 s0,s0
        0x0000e7d2:    f5b05f80    ..._    CMP      r0,#0x1000
        0x0000e7d6:    ed820a00    ....    VSTR     s0,[r2,#0]
        0x0000e7da:    ed828a01    ....    VSTR     s16,[r2,#4]
        0x0000e7de:    d3ef        ..      BCC      0xe7c0 ; main + 208
        0x0000e7e0:    2301        .#      MOVS     r3,#1
        0x0000e7e2:    2200        ."      MOVS     r2,#0
        0x0000e7e4:    0319        ..      LSLS     r1,r3,#12
        0x0000e7e6:    4668        hF      MOV      r0,sp
        0x0000e7e8:    f7fdfdea    ....    BL       arm_cfft_radix4_init_f32 ; 0xc3c0
        0x0000e7ec:    4921        !I      LDR      r1,[pc,#132] ; [0xe874] = 0x100050a0
        0x0000e7ee:    4668        hF      MOV      r0,sp
        0x0000e7f0:    f7fdfdc5    ....    BL       arm_cfft_radix4_f32 ; 0xc37e
        0x0000e7f4:    4920         I      LDR      r1,[pc,#128] ; [0xe878] = 0x1000d0a0
        0x0000e7f6:    f44f5280    O..R    MOV      r2,#0x1000
        0x0000e7fa:    f5a14000    ...@    SUB      r0,r1,#0x8000
        0x0000e7fe:    f7fdfe29    ..).    BL       arm_cmplx_mag_f32 ; 0xc454
        0x0000e802:    ab05        ..      ADD      r3,sp,#0x14
        0x0000e804:    aa06        ..      ADD      r2,sp,#0x18
        0x0000e806:    f44f6100    O..a    MOV      r1,#0x800
        0x0000e80a:    481b        .H      LDR      r0,[pc,#108] ; [0xe878] = 0x1000d0a0
        0x0000e80c:    f7fdfecc    ....    BL       arm_max_f32 ; 0xc5a8
        0x0000e810:    6868        hh      LDR      r0,[r5,#4]
        0x0000e812:    9905        ..      LDR      r1,[sp,#0x14]
        0x0000e814:    4348        HC      MULS     r0,r1,r0
        0x0000e816:    0b01        ..      LSRS     r1,r0,#12
        0x0000e818:    4818        .H      LDR      r0,[pc,#96] ; [0xe87c] = 0xe9d0
        0x0000e81a:    f7fffb8b    ....    BL       am_util_stdio_printf ; 0xdf34
        0x0000e81e:    e9cd6700    ...g    STRD     r6,r7,[sp,#0]
        0x0000e822:    68a8        .h      LDR      r0,[r5,#8]
        0x0000e824:    f7fefee6    ....    BL       am_hal_pdm_enable ; 0xd5f4
        0x0000e828:    2064        d       MOVS     r0,#0x64
        0x0000e82a:    f7fff917    ....    BL       am_util_delay_ms ; 0xda5c
        0x0000e82e:    68a8        .h      LDR      r0,[r5,#8]
        0x0000e830:    f7fefefc    ....    BL       am_hal_pdm_fifo_flush ; 0xd62c
        0x0000e834:    4669        iF      MOV      r1,sp
        0x0000e836:    68a8        .h      LDR      r0,[r5,#8]
        0x0000e838:    f7fefe92    ....    BL       am_hal_pdm_dma_start ; 0xd560
        0x0000e83c:    2001        .       MOVS     r0,#1
        0x0000e83e:    f7fff84f    ..O.    BL       am_hal_sysctrl_sleep ; 0xd8e0
        0x0000e842:    f7fdfcd9    ....    BL       am_hal_interrupt_master_enable ; 0xc1f8
        0x0000e846:    e7b1        ..      B        0xe7ac ; main + 188
    $d
        0x0000e848:    0000eea2    ....    DCD    61090
        0x0000e84c:    204d4450    PDM     DCD    541934672
        0x0000e850:    20544646    FFT     DCD    542393926
        0x0000e854:    6d617865    exam    DCD    1835104357
        0x0000e858:    2e656c70    ple.    DCD    778398832
        0x0000e85c:    00000a0a    ....    DCD    2570
        0x0000e860:    10000008    ....    DCD    268435464
        0x0000e864:    10000000    ....    DCD    268435456
        0x0000e868:    0000f00c    ....    DCD    61452
        0x0000e86c:    100010a0    ....    DCD    268439712
        0x0000e870:    00000000    ....    DCD    0
        0x0000e874:    100050a0    .P..    DCD    268456096
        0x0000e878:    1000d0a0    ....    DCD    268488864
        0x0000e87c:    0000e9d0    ....    DCD    59856
    $t
    i.ndigits_in_u64
    ndigits_in_u64
        0x0000e880:    e92d01f0    -...    PUSH     {r4-r8}
        0x0000e884:    ea500201    P...    ORRS     r2,r0,r1
        0x0000e888:    bf0e        ..      ITEE     EQ
        0x0000e88a:    2301        .#      MOVEQ    r3,#1
        0x0000e88c:    2300        .#      MOVNE    r3,#0
        0x0000e88e:    f04f0c00    O...    MOVNE    r12,#0
        0x0000e892:    d054        T.      BEQ      0xe93e ; ndigits_in_u64 + 190
        0x0000e894:    2900        .)      CMP      r1,#0
        0x0000e896:    d03b        ;.      BEQ      0xe910 ; ndigits_in_u64 + 144
        0x0000e898:    084c        L.      LSRS     r4,r1,#1
        0x0000e89a:    ea4f0690    O...    LSR      r6,r0,#2
        0x0000e89e:    ea4f0230    O.0.    RRX      r2,r0
        0x0000e8a2:    ea467681    F..v    ORR      r6,r6,r1,LSL #30
        0x0000e8a6:    1992        ..      ADDS     r2,r2,r6
        0x0000e8a8:    eb440491    D...    ADC      r4,r4,r1,LSR #2
        0x0000e8ac:    ea4f1612    O...    LSR      r6,r2,#4
        0x0000e8b0:    ea467504    F..u    ORR      r5,r6,r4,LSL #28
        0x0000e8b4:    18aa        ..      ADDS     r2,r5,r2
        0x0000e8b6:    eb441414    D...    ADC      r4,r4,r4,LSR #4
        0x0000e8ba:    ea4f2612    O..&    LSR      r6,r2,#8
        0x0000e8be:    ea466504    F..e    ORR      r5,r6,r4,LSL #24
        0x0000e8c2:    18aa        ..      ADDS     r2,r5,r2
        0x0000e8c4:    eb442514    D..%    ADC      r5,r4,r4,LSR #8
        0x0000e8c8:    ea4f4612    O..F    LSR      r6,r2,#16
        0x0000e8cc:    ea464405    F..D    ORR      r4,r6,r5,LSL #16
        0x0000e8d0:    18a4        ..      ADDS     r4,r4,r2
        0x0000e8d2:    eb454215    E..B    ADC      r2,r5,r5,LSR #16
        0x0000e8d6:    18a4        ..      ADDS     r4,r4,r2
        0x0000e8d8:    eb42020c    B...    ADC      r2,r2,r12
        0x0000e8dc:    08e4        ..      LSRS     r4,r4,#3
        0x0000e8de:    ea447442    D.Bt    ORR      r4,r4,r2,LSL #29
        0x0000e8e2:    270a        .'      MOVS     r7,#0xa
        0x0000e8e4:    fba45807    ...X    UMULL    r5,r8,r4,r7
        0x0000e8e8:    08d2        ..      LSRS     r2,r2,#3
        0x0000e8ea:    fb028707    ....    MLA      r7,r2,r7,r8
        0x0000e8ee:    2600        .&      MOVS     r6,#0
        0x0000e8f0:    fb047606    ...v    MLA      r6,r4,r6,r7
        0x0000e8f4:    1b40        @.      SUBS     r0,r0,r5
        0x0000e8f6:    eb610106    a...    SBC      r1,r1,r6
        0x0000e8fa:    1d85        ..      ADDS     r5,r0,#6
        0x0000e8fc:    f1410000    A...    ADC      r0,r1,#0
        0x0000e900:    092d        -.      LSRS     r5,r5,#4
        0x0000e902:    ea457100    E..q    ORR      r1,r5,r0,LSL #28
        0x0000e906:    0905        ..      LSRS     r5,r0,#4
        0x0000e908:    1908        ..      ADDS     r0,r1,r4
        0x0000e90a:    eb450102    E...    ADC      r1,r5,r2
        0x0000e90e:    e012        ..      B        0xe936 ; ndigits_in_u64 + 182
        0x0000e910:    0841        A.      LSRS     r1,r0,#1
        0x0000e912:    eb010190    ....    ADD      r1,r1,r0,LSR #2
        0x0000e916:    eb011111    ....    ADD      r1,r1,r1,LSR #4
        0x0000e91a:    eb012111    ...!    ADD      r1,r1,r1,LSR #8
        0x0000e91e:    eb014111    ...A    ADD      r1,r1,r1,LSR #16
        0x0000e922:    08c9        ..      LSRS     r1,r1,#3
        0x0000e924:    424a        JB      RSBS     r2,r1,#0
        0x0000e926:    eb020282    ....    ADD      r2,r2,r2,LSL #2
        0x0000e92a:    eb000042    ..B.    ADD      r0,r0,r2,LSL #1
        0x0000e92e:    1d80        ..      ADDS     r0,r0,#6
        0x0000e930:    eb011010    ....    ADD      r0,r1,r0,LSR #4
        0x0000e934:    4661        aF      MOV      r1,r12
        0x0000e936:    1c5b        [.      ADDS     r3,r3,#1
        0x0000e938:    ea500201    P...    ORRS     r2,r0,r1
        0x0000e93c:    d1aa        ..      BNE      0xe894 ; ndigits_in_u64 + 20
        0x0000e93e:    e8bd01f0    ....    POP      {r4-r8}
        0x0000e942:    4618        .F      MOV      r0,r3
        0x0000e944:    4770        pG      BX       lr
        0x0000e946:    0000        ..      MOVS     r0,r0
    i.pcm_fft_print
    pcm_fft_print
        0x0000e948:    b500        ..      PUSH     {lr}
        0x0000e94a:    491c        .I      LDR      r1,[pc,#112] ; [0xe9bc] = 0x100010a0
        0x0000e94c:    eddf0a1c    ....    VLDR     s1,[pc,#112] ; [0xe9c0] = 0
        0x0000e950:    b087        ..      SUB      sp,sp,#0x1c
        0x0000e952:    2000        .       MOVS     r0,#0
        0x0000e954:    f5014280    ...B    ADD      r2,r1,#0x4000
        0x0000e958:    f9313010    1..0    LDRSH    r3,[r1,r0,LSL #1]
        0x0000e95c:    ee003a10    ...:    VMOV     s0,r3
        0x0000e960:    eb0203c0    ....    ADD      r3,r2,r0,LSL #3
        0x0000e964:    1c40        @.      ADDS     r0,r0,#1
        0x0000e966:    eeb80ac0    ....    VCVT.F32.S32 s0,s0
        0x0000e96a:    f5b05f80    ..._    CMP      r0,#0x1000
        0x0000e96e:    ed830a00    ....    VSTR     s0,[r3,#0]
        0x0000e972:    edc30a01    ....    VSTR     s1,[r3,#4]
        0x0000e976:    d3ef        ..      BCC      0xe958 ; pcm_fft_print + 16
        0x0000e978:    2301        .#      MOVS     r3,#1
        0x0000e97a:    2200        ."      MOVS     r2,#0
        0x0000e97c:    0319        ..      LSLS     r1,r3,#12
        0x0000e97e:    4668        hF      MOV      r0,sp
        0x0000e980:    f7fdfd1e    ....    BL       arm_cfft_radix4_init_f32 ; 0xc3c0
        0x0000e984:    490f        .I      LDR      r1,[pc,#60] ; [0xe9c4] = 0x100050a0
        0x0000e986:    4668        hF      MOV      r0,sp
        0x0000e988:    f7fdfcf9    ....    BL       arm_cfft_radix4_f32 ; 0xc37e
        0x0000e98c:    490e        .I      LDR      r1,[pc,#56] ; [0xe9c8] = 0x1000d0a0
        0x0000e98e:    f44f5280    O..R    MOV      r2,#0x1000
        0x0000e992:    f5a14000    ...@    SUB      r0,r1,#0x8000
        0x0000e996:    f7fdfd5d    ..].    BL       arm_cmplx_mag_f32 ; 0xc454
        0x0000e99a:    ab05        ..      ADD      r3,sp,#0x14
        0x0000e99c:    aa06        ..      ADD      r2,sp,#0x18
        0x0000e99e:    f44f6100    O..a    MOV      r1,#0x800
        0x0000e9a2:    4809        .H      LDR      r0,[pc,#36] ; [0xe9c8] = 0x1000d0a0
        0x0000e9a4:    f7fdfe00    ....    BL       arm_max_f32 ; 0xc5a8
        0x0000e9a8:    4808        .H      LDR      r0,[pc,#32] ; [0xe9cc] = 0x10000000
        0x0000e9aa:    9905        ..      LDR      r1,[sp,#0x14]
        0x0000e9ac:    6840        @h      LDR      r0,[r0,#4]
        0x0000e9ae:    4348        HC      MULS     r0,r1,r0
        0x0000e9b0:    0b01        ..      LSRS     r1,r0,#12
        0x0000e9b2:    a007        ..      ADR      r0,{pc}+0x1e ; 0xe9d0
        0x0000e9b4:    f7fffabe    ....    BL       am_util_stdio_printf ; 0xdf34
        0x0000e9b8:    b007        ..      ADD      sp,sp,#0x1c
        0x0000e9ba:    bd00        ..      POP      {pc}
    $d
        0x0000e9bc:    100010a0    ....    DCD    268439712
        0x0000e9c0:    00000000    ....    DCD    0
        0x0000e9c4:    100050a0    .P..    DCD    268456096
        0x0000e9c8:    1000d0a0    ....    DCD    268488864
        0x0000e9cc:    10000000    ....    DCD    268435456
        0x0000e9d0:    64756f4c    Loud    DCD    1685417804
        0x0000e9d4:    20747365    est     DCD    544502629
        0x0000e9d8:    71657266    freq    DCD    1902473830
        0x0000e9dc:    636e6575    uenc    DCD    1668179317
        0x0000e9e0:    25203a79    y: %    DCD    622869113
        0x0000e9e4:    00000a64    d...    DCD    2660
    $t
    i.pdm_config_print
    pdm_config_print
        0x0000e9e8:    b570        p.      PUSH     {r4-r6,lr}
        0x0000e9ea:    4d2f        /M      LDR      r5,[pc,#188] ; [0xeaa8] = 0x1000000c
        0x0000e9ec:    ed2d8b02    -...    VPUSH    {d8}
        0x0000e9f0:    7828        (x      LDRB     r0,[r5,#0]
        0x0000e9f2:    2800        .(      CMP      r0,#0
        0x0000e9f4:    bf08        ..      IT       EQ
        0x0000e9f6:    2001        .       MOVEQ    r0,#1
        0x0000e9f8:    d00b        ..      BEQ      0xea12 ; pdm_config_print + 42
        0x0000e9fa:    2801        .(      CMP      r0,#1
        0x0000e9fc:    bf08        ..      IT       EQ
        0x0000e9fe:    2002        .       MOVEQ    r0,#2
        0x0000ea00:    d007        ..      BEQ      0xea12 ; pdm_config_print + 42
        0x0000ea02:    2802        .(      CMP      r0,#2
        0x0000ea04:    bf08        ..      IT       EQ
        0x0000ea06:    2003        .       MOVEQ    r0,#3
        0x0000ea08:    d003        ..      BEQ      0xea12 ; pdm_config_print + 42
        0x0000ea0a:    2803        .(      CMP      r0,#3
        0x0000ea0c:    bf14        ..      ITE      NE
        0x0000ea0e:    2000        .       MOVNE    r0,#0
        0x0000ea10:    2004        .       MOVEQ    r0,#4
        0x0000ea12:    7c29        )|      LDRB     r1,[r5,#0x10]
        0x0000ea14:    2908        .)      CMP      r1,#8
        0x0000ea16:    d213        ..      BCS      0xea40 ; pdm_config_print + 88
        0x0000ea18:    e8dff001    ....    TBB      [pc,r1]
    $d
        0x0000ea1c:    08060412    ....    DCD    134611986
        0x0000ea20:    100e0c0a    ....    DCD    269356042
    $t
        0x0000ea24:    4c21        !L      LDR      r4,[pc,#132] ; [0xeaac] = 0xb71b00
        0x0000ea26:    e00c        ..      B        0xea42 ; pdm_config_print + 90
        0x0000ea28:    4c21        !L      LDR      r4,[pc,#132] ; [0xeab0] = 0x5b8d80
        0x0000ea2a:    e00a        ..      B        0xea42 ; pdm_config_print + 90
        0x0000ea2c:    4c21        !L      LDR      r4,[pc,#132] ; [0xeab4] = 0x2dc6c0
        0x0000ea2e:    e008        ..      B        0xea42 ; pdm_config_print + 90
        0x0000ea30:    4c21        !L      LDR      r4,[pc,#132] ; [0xeab8] = 0x16e360
        0x0000ea32:    e006        ..      B        0xea42 ; pdm_config_print + 90
        0x0000ea34:    4c21        !L      LDR      r4,[pc,#132] ; [0xeabc] = 0xb71b0
        0x0000ea36:    e004        ..      B        0xea42 ; pdm_config_print + 90
        0x0000ea38:    4c21        !L      LDR      r4,[pc,#132] ; [0xeac0] = 0x5b8d8
        0x0000ea3a:    e002        ..      B        0xea42 ; pdm_config_print + 90
        0x0000ea3c:    4c21        !L      LDR      r4,[pc,#132] ; [0xeac4] = 0x2da78
        0x0000ea3e:    e000        ..      B        0xea42 ; pdm_config_print + 90
        0x0000ea40:    2400        .$      MOVS     r4,#0
        0x0000ea42:    6869        ih      LDR      r1,[r5,#4]
        0x0000ea44:    4e20         N      LDR      r6,[pc,#128] ; [0xeac8] = 0x10000000
        0x0000ea46:    4348        HC      MULS     r0,r1,r0
        0x0000ea48:    0040        @.      LSLS     r0,r0,#1
        0x0000ea4a:    fbb4f0f0    ....    UDIV     r0,r4,r0
        0x0000ea4e:    ee000a10    ....    VMOV     s0,r0
        0x0000ea52:    eddf0a1e    ....    VLDR     s1,[pc,#120] ; [0xeacc] = 0x39800000
        0x0000ea56:    6070        p`      STR      r0,[r6,#4]
        0x0000ea58:    eeb80a40    ..@.    VCVT.F32.U32 s0,s0
        0x0000ea5c:    a01c        ..      ADR      r0,{pc}+0x74 ; 0xead0
        0x0000ea5e:    ee208a20     . .    VMUL.F32 s16,s0,s1
        0x0000ea62:    f7fffa67    ..g.    BL       am_util_stdio_printf ; 0xdf34
        0x0000ea66:    4621        !F      MOV      r1,r4
        0x0000ea68:    a01c        ..      ADR      r0,{pc}+0x74 ; 0xeadc
        0x0000ea6a:    f7fffa63    ..c.    BL       am_util_stdio_printf ; 0xdf34
        0x0000ea6e:    a023        #.      ADR      r0,{pc}+0x8e ; 0xeafc
        0x0000ea70:    6869        ih      LDR      r1,[r5,#4]
        0x0000ea72:    f7fffa5f    .._.    BL       am_util_stdio_printf ; 0xdf34
        0x0000ea76:    a029        ).      ADR      r0,{pc}+0xa6 ; 0xeb1c
        0x0000ea78:    6871        qh      LDR      r1,[r6,#4]
        0x0000ea7a:    f7fffa5b    ..[.    BL       am_util_stdio_printf ; 0xdf34
        0x0000ea7e:    f44f5180    O..Q    MOV      r1,#0x1000
        0x0000ea82:    a02e        ..      ADR      r0,{pc}+0xba ; 0xeb3c
        0x0000ea84:    f7fffa56    ..V.    BL       am_util_stdio_printf ; 0xdf34
        0x0000ea88:    ee180a10    ....    VMOV     r0,s16
        0x0000ea8c:    f000f98e    ....    BL       __aeabi_f2d ; 0xedac
        0x0000ea90:    ecbd8b02    ....    VPOP     {d8}
        0x0000ea94:    ec410b10    A...    VMOV     d0,r0,r1
        0x0000ea98:    e8bd4070    ..p@    POP      {r4-r6,lr}
        0x0000ea9c:    ec532b10    S..+    VMOV     r2,r3,d0
        0x0000eaa0:    a02e        ..      ADR      r0,{pc}+0xbc ; 0xeb5c
        0x0000eaa2:    f7ffba47    ..G.    B        am_util_stdio_printf ; 0xdf34
    $d
        0x0000eaa6:    0000        ..      DCW    0
        0x0000eaa8:    1000000c    ....    DCD    268435468
        0x0000eaac:    00b71b00    ....    DCD    12000000
        0x0000eab0:    005b8d80    ..[.    DCD    6000000
        0x0000eab4:    002dc6c0    ..-.    DCD    3000000
        0x0000eab8:    0016e360    `...    DCD    1500000
        0x0000eabc:    000b71b0    .q..    DCD    750000
        0x0000eac0:    0005b8d8    ....    DCD    375000
        0x0000eac4:    0002da78    x...    DCD    187000
        0x0000eac8:    10000000    ....    DCD    268435456
        0x0000eacc:    39800000    ...9    DCD    964689920
        0x0000ead0:    74746553    Sett    DCD    1953785171
        0x0000ead4:    73676e69    ings    DCD    1936158313
        0x0000ead8:    00000a3a    :...    DCD    2618
        0x0000eadc:    204d4450    PDM     DCD    541934672
        0x0000eae0:    636f6c43    Cloc    DCD    1668246595
        0x0000eae4:    4828206b    k (H    DCD    1210589291
        0x0000eae8:    203a297a    z):     DCD    540682618
        0x0000eaec:    20202020            DCD    538976288
        0x0000eaf0:    20202020            DCD    538976288
        0x0000eaf4:    64323125    %12d    DCD    1681010981
        0x0000eaf8:    0000000a    ....    DCD    10
        0x0000eafc:    69636544    Deci    DCD    1768121668
        0x0000eb00:    6974616d    mati    DCD    1769234797
        0x0000eb04:    52206e6f    on R    DCD    1377857135
        0x0000eb08:    3a657461    ate:    DCD    979727457
        0x0000eb0c:    20202020            DCD    538976288
        0x0000eb10:    20202020            DCD    538976288
        0x0000eb14:    64323125    %12d    DCD    1681010981
        0x0000eb18:    0000000a    ....    DCD    10
        0x0000eb1c:    65666645    Effe    DCD    1701209669
        0x0000eb20:    76697463    ctiv    DCD    1986622563
        0x0000eb24:    61532065    e Sa    DCD    1632837733
        0x0000eb28:    656c706d    mple    DCD    1701605485
        0x0000eb2c:    65724620     Fre    DCD    1701987872
        0x0000eb30:    203a2e71    q.:     DCD    540683889
        0x0000eb34:    64323125    %12d    DCD    1681010981
        0x0000eb38:    0000000a    ....    DCD    10
        0x0000eb3c:    20544646    FFT     DCD    542393926
        0x0000eb40:    676e654c    Leng    DCD    1735288140
        0x0000eb44:    203a6874    th:     DCD    540698740
        0x0000eb48:    20202020            DCD    538976288
        0x0000eb4c:    20202020            DCD    538976288
        0x0000eb50:    20202020            DCD    538976288
        0x0000eb54:    64323125    %12d    DCD    1681010981
        0x0000eb58:    00000a0a    ....    DCD    2570
        0x0000eb5c:    20544646    FFT     DCD    542393926
        0x0000eb60:    6f736552    Reso    DCD    1869833554
        0x0000eb64:    6974756c    luti    DCD    1769239916
        0x0000eb68:    203a6e6f    on:     DCD    540700271
        0x0000eb6c:    2e353125    %15.    DCD    775237925
        0x0000eb70:    48206633    3f H    DCD    1210082867
        0x0000eb74:    00000a7a    z...    DCD    2682
    $t
    i.uint64_to_str
    uint64_to_str
        0x0000eb78:    e92d07f0    -...    PUSH     {r4-r10}
        0x0000eb7c:    b087        ..      SUB      sp,sp,#0x1c
        0x0000eb7e:    f04f0c00    O...    MOV      r12,#0
        0x0000eb82:    4666        fF      MOV      r6,r12
        0x0000eb84:    466d        mF      MOV      r5,sp
        0x0000eb86:    2900        .)      CMP      r1,#0
        0x0000eb88:    d03f        ?.      BEQ      0xec0a ; uint64_to_str + 146
        0x0000eb8a:    084f        O.      LSRS     r7,r1,#1
        0x0000eb8c:    ea4f0390    O...    LSR      r3,r0,#2
        0x0000eb90:    ea4f0430    O.0.    RRX      r4,r0
        0x0000eb94:    ea437381    C..s    ORR      r3,r3,r1,LSL #30
        0x0000eb98:    18e4        ..      ADDS     r4,r4,r3
        0x0000eb9a:    eb470391    G...    ADC      r3,r7,r1,LSR #2
        0x0000eb9e:    ea4f1814    O...    LSR      r8,r4,#4
        0x0000eba2:    ea487803    H..x    ORR      r8,r8,r3,LSL #28
        0x0000eba6:    eb180404    ....    ADDS     r4,r8,r4
        0x0000ebaa:    eb431313    C...    ADC      r3,r3,r3,LSR #4
        0x0000ebae:    ea4f2814    O..(    LSR      r8,r4,#8
        0x0000ebb2:    ea486803    H..h    ORR      r8,r8,r3,LSL #24
        0x0000ebb6:    eb180404    ....    ADDS     r4,r8,r4
        0x0000ebba:    eb432313    C..#    ADC      r3,r3,r3,LSR #8
        0x0000ebbe:    ea4f4814    O..H    LSR      r8,r4,#16
        0x0000ebc2:    ea484803    H..H    ORR      r8,r8,r3,LSL #16
        0x0000ebc6:    eb180404    ....    ADDS     r4,r8,r4
        0x0000ebca:    eb434313    C..C    ADC      r3,r3,r3,LSR #16
        0x0000ebce:    18e7        ..      ADDS     r7,r4,r3
        0x0000ebd0:    eb430406    C...    ADC      r4,r3,r6
        0x0000ebd4:    08ff        ..      LSRS     r7,r7,#3
        0x0000ebd6:    ea477344    G.Ds    ORR      r3,r7,r4,LSL #29
        0x0000ebda:    270a        .'      MOVS     r7,#0xa
        0x0000ebdc:    fba39a07    ....    UMULL    r9,r10,r3,r7
        0x0000ebe0:    08e4        ..      LSRS     r4,r4,#3
        0x0000ebe2:    fb04a707    ....    MLA      r7,r4,r7,r10
        0x0000ebe6:    f04f0800    O...    MOV      r8,#0
        0x0000ebea:    fb037808    ...x    MLA      r8,r3,r8,r7
        0x0000ebee:    ebb00709    ....    SUBS     r7,r0,r9
        0x0000ebf2:    eb610108    a...    SBC      r1,r1,r8
        0x0000ebf6:    1dbf        ..      ADDS     r7,r7,#6
        0x0000ebf8:    f1410100    A...    ADC      r1,r1,#0
        0x0000ebfc:    093f        ?.      LSRS     r7,r7,#4
        0x0000ebfe:    ea477701    G..w    ORR      r7,r7,r1,LSL #28
        0x0000ec02:    18fb        ..      ADDS     r3,r7,r3
        0x0000ec04:    eb441411    D...    ADC      r4,r4,r1,LSR #4
        0x0000ec08:    e012        ..      B        0xec30 ; uint64_to_str + 184
        0x0000ec0a:    0843        C.      LSRS     r3,r0,#1
        0x0000ec0c:    eb030390    ....    ADD      r3,r3,r0,LSR #2
        0x0000ec10:    eb031313    ....    ADD      r3,r3,r3,LSR #4
        0x0000ec14:    eb032313    ...#    ADD      r3,r3,r3,LSR #8
        0x0000ec18:    eb034313    ...C    ADD      r3,r3,r3,LSR #16
        0x0000ec1c:    08db        ..      LSRS     r3,r3,#3
        0x0000ec1e:    425c        \B      RSBS     r4,r3,#0
        0x0000ec20:    eb040484    ....    ADD      r4,r4,r4,LSL #2
        0x0000ec24:    eb000144    ..D.    ADD      r1,r0,r4,LSL #1
        0x0000ec28:    1d89        ..      ADDS     r1,r1,#6
        0x0000ec2a:    eb031311    ....    ADD      r3,r3,r1,LSR #4
        0x0000ec2e:    4634        4F      MOV      r4,r6
        0x0000ec30:    4621        !F      MOV      r1,r4
        0x0000ec32:    240a        .$      MOVS     r4,#0xa
        0x0000ec34:    fba34704    ...G    UMULL    r4,r7,r3,r4
        0x0000ec38:    1b00        ..      SUBS     r0,r0,r4
        0x0000ec3a:    f1000030    ..0.    ADD      r0,r0,#0x30
        0x0000ec3e:    f805000c    ....    STRB     r0,[r5,r12]
        0x0000ec42:    4618        .F      MOV      r0,r3
        0x0000ec44:    f10c0c01    ....    ADD      r12,r12,#1
        0x0000ec48:    430b        .C      ORRS     r3,r3,r1
        0x0000ec4a:    d19c        ..      BNE      0xeb86 ; uint64_to_str + 14
        0x0000ec4c:    4660        `F      MOV      r0,r12
        0x0000ec4e:    2a00        .*      CMP      r2,#0
        0x0000ec50:    bf02        ..      ITTT     EQ
        0x0000ec52:    b007        ..      ADDEQ    sp,sp,#0x1c
        0x0000ec54:    e8bd07f0    ....    POPEQ    {r4-r10}
        0x0000ec58:    4770        pG      BXEQ     lr
        0x0000ec5a:    1e47        G.      SUBS     r7,r0,#1
        0x0000ec5c:    f1b00c00    ....    SUBS     r12,r0,#0
        0x0000ec60:    dd18        ..      BLE      0xec94 ; uint64_to_str + 284
        0x0000ec62:    19e9        ..      ADDS     r1,r5,r7
        0x0000ec64:    1c4b        K.      ADDS     r3,r1,#1
        0x0000ec66:    1e51        Q.      SUBS     r1,r2,#1
        0x0000ec68:    f0170f01    ....    TST      r7,#1
        0x0000ec6c:    d103        ..      BNE      0xec76 ; uint64_to_str + 254
        0x0000ec6e:    f8134d01    ...M    LDRB     r4,[r3,#-1]!
        0x0000ec72:    f8014f01    ...O    STRB     r4,[r1,#1]!
        0x0000ec76:    ea5f046c    _.l.    ASRS     r4,r12,#1
        0x0000ec7a:    d009        ..      BEQ      0xec90 ; uint64_to_str + 280
        0x0000ec7c:    f813cc01    ....    LDRB     r12,[r3,#-1]
        0x0000ec80:    f881c001    ....    STRB     r12,[r1,#1]
        0x0000ec84:    f813cd02    ....    LDRB     r12,[r3,#-2]!
        0x0000ec88:    f801cf02    ....    STRB     r12,[r1,#2]!
        0x0000ec8c:    1e64        d.      SUBS     r4,r4,#1
        0x0000ec8e:    d1f5        ..      BNE      0xec7c ; uint64_to_str + 260
        0x0000ec90:    19d1        ..      ADDS     r1,r2,r7
        0x0000ec92:    1c4a        J.      ADDS     r2,r1,#1
        0x0000ec94:    7016        .p      STRB     r6,[r2,#0]
        0x0000ec96:    b007        ..      ADD      sp,sp,#0x1c
        0x0000ec98:    e8bd07f0    ....    POP      {r4-r10}
        0x0000ec9c:    4770        pG      BX       lr
        0x0000ec9e:    0000        ..      MOVS     r0,r0
    x$fpl$d2f
    $v0
    __aeabi_d2f
    _d2f
        0x0000eca0:    f0214200    !..B    BIC      r2,r1,#0x80000000
        0x0000eca4:    f1a25260    ..`R    SUB      r2,r2,#0x38000000
        0x0000eca8:    f5b21f80    ....    CMP      r2,#0x100000
        0x0000ecac:    f0014300    ...C    AND      r3,r1,#0x80000000
        0x0000ecb0:    bf28        (.      IT       CS
        0x0000ecb2:    f1d26c7f    ...l    RSBSCS   r12,r2,#0xff00000
        0x0000ecb6:    d90b        ..      BLS      0xecd0 ; __aeabi_d2f + 48
        0x0000ecb8:    ea5f1c00    _...    LSLS     r12,r0,#4
        0x0000ecbc:    ea4302c2    C...    ORR      r2,r3,r2,LSL #3
        0x0000ecc0:    eb427050    B.Pp    ADC      r0,r2,r0,LSR #29
        0x0000ecc4:    bf18        ..      IT       NE
        0x0000ecc6:    4770        pG      BXNE     lr
        0x0000ecc8:    bf28        (.      IT       CS
        0x0000ecca:    f0200001     ...    BICCS    r0,r0,#1
        0x0000ecce:    4770        pG      BX       lr
        0x0000ecd0:    f5b21f80    ....    CMP      r2,#0x100000
        0x0000ecd4:    bfbc        ..      ITT      LT
        0x0000ecd6:    4618        .F      MOVLT    r0,r3
        0x0000ecd8:    4770        pG      BXLT     lr
        0x0000ecda:    ea4f0c41    O.A.    LSL      r12,r1,#1
        0x0000ecde:    f51c1f00    ....    CMN      r12,#0x200000
        0x0000ece2:    d202        ..      BCS      0xecea ; __aeabi_d2f + 74
        0x0000ece4:    4608        .F      MOV      r0,r1
        0x0000ece6:    f000b8d7    ....    B.W      __fpl_fretinf ; 0xee98
        0x0000ecea:    b570        p.      PUSH     {r4-r6,lr}
        0x0000ecec:    f000f809    ....    BL       __fpl_dnaninf ; 0xed02
    $d
        0x0000ecf0:    89000000    ....    DCD    2298478592
    $t
        0x0000ecf4:    f7ffbff6    ....    B.W      0xece4 ; __aeabi_d2f + 68
        0x0000ecf8:    f04f4000    O..@    MOV      r0,#0x80000000
        0x0000ecfc:    f5a00080    ....    SUB      r0,r0,#0x400000
        0x0000ed00:    4770        pG      BX       lr
    x$fpl$dnaninf
    $v0
    __fpl_dnaninf
        0x0000ed02:    f10e0e02    ....    ADD      lr,lr,#2
        0x0000ed06:    f02e0e03    ....    BIC      lr,lr,#3
        0x0000ed0a:    f85e6b04    ^..k    LDR      r6,[lr],#4
        0x0000ed0e:    4236        6B      TST      r6,r6
        0x0000ed10:    d405        ..      BMI      0xed1e ; __fpl_dnaninf + 28
        0x0000ed12:    2a01        .*      CMP      r2,#1
        0x0000ed14:    eb430503    C...    ADC      r5,r3,r3
        0x0000ed18:    f5151f00    ....    CMN      r5,#0x200000
        0x0000ed1c:    d812        ..      BHI      0xed44 ; __fpl_dnaninf + 66
        0x0000ed1e:    2801        .(      CMP      r0,#1
        0x0000ed20:    eb410c01    A...    ADC      r12,r1,r1
        0x0000ed24:    f51c1f00    ....    CMN      r12,#0x200000
        0x0000ed28:    d80c        ..      BHI      0xed44 ; __fpl_dnaninf + 66
        0x0000ed2a:    d10e        ..      BNE      0xed4a ; __fpl_dnaninf + 72
        0x0000ed2c:    ea4f7cd1    O..|    LSR      r12,r1,#31
        0x0000ed30:    f5151f00    ....    CMN      r5,#0x200000
        0x0000ed34:    eb0c0c4c    ..L.    ADD      r12,r12,r12,LSL #1
        0x0000ed38:    f10c0c02    ....    ADD      r12,r12,#2
        0x0000ed3c:    bf08        ..      IT       EQ
        0x0000ed3e:    eb4c7cd3    L..|    ADCEQ    r12,r12,r3,LSR #31
        0x0000ed42:    e004        ..      B        0xed4e ; __fpl_dnaninf + 76
        0x0000ed44:    f04f0c08    O...    MOV      r12,#8
        0x0000ed48:    e001        ..      B        0xed4e ; __fpl_dnaninf + 76
        0x0000ed4a:    ea4f7cd3    O..|    LSR      r12,r3,#31
        0x0000ed4e:    eb0c054c    ..L.    ADD      r5,r12,r12,LSL #1
        0x0000ed52:    fa26f605    &...    LSR      r6,r6,r5
        0x0000ed56:    f0060607    ....    AND      r6,r6,#7
        0x0000ed5a:    f1b60c04    ....    SUBS     r12,r6,#4
        0x0000ed5e:    d206        ..      BCS      0xed6e ; __fpl_dnaninf + 108
        0x0000ed60:    eb0e0c86    ....    ADD      r12,lr,r6,LSL #2
        0x0000ed64:    e8bd4070    ..p@    POP      {r4-r6,lr}
        0x0000ed68:    f04c0c01    L...    ORR      r12,r12,#1
        0x0000ed6c:    4760        `G      BX       r12
        0x0000ed6e:    e8dff00c    ....    TBB      [pc,r12]
    $d
        0x0000ed72:    0b09        ..      DCW    2825
        0x0000ed74:    0202        ..      DCW    514
    $t
        0x0000ed76:    f04f4100    O..A    MOV      r1,#0x80000000
        0x0000ed7a:    f04f0000    O...    MOV      r0,#0
        0x0000ed7e:    f5a12100    ...!    SUB      r1,r1,#0x80000
        0x0000ed82:    bd70        p.      POP      {r4-r6,pc}
        0x0000ed84:    4619        .F      MOV      r1,r3
        0x0000ed86:    4610        .F      MOV      r0,r2
        0x0000ed88:    2801        .(      CMP      r0,#1
        0x0000ed8a:    eb510401    Q...    ADCS     r4,r1,r1
        0x0000ed8e:    bf18        ..      IT       NE
        0x0000ed90:    f5d41400    ....    RSBSNE   r4,r4,#0x200000
        0x0000ed94:    bf84        ..      ITT      HI
        0x0000ed96:    2000        .       MOVHI    r0,#0
        0x0000ed98:    f0014100    ...A    ANDHI    r1,r1,#0x80000000
        0x0000ed9c:    bd70        p.      POP      {r4-r6,pc}
    x$fpl$dretinf
    $v0
    __fpl_dretinf
        0x0000ed9e:    0808        ..      LSRS     r0,r1,#32
        0x0000eda0:    f5a01100    ....    SUB      r1,r0,#0x200000
        0x0000eda4:    ea4f0131    O.1.    RRX      r1,r1
        0x0000eda8:    4770        pG      BX       lr
        0x0000edaa:    0000        ..      MOVS     r0,r0
    x$fpl$f2d
    $v0
    __aeabi_f2d
    _f2d
        0x0000edac:    0043        C.      LSLS     r3,r0,#1
        0x0000edae:    ea4f0cd3    O...    LSR      r12,r3,#3
        0x0000edb2:    ea4f0c3c    O.<.    RRX      r12,r12
        0x0000edb6:    4043        C@      EORS     r3,r3,r0
        0x0000edb8:    bf1f        ..      ITTTT    NE
        0x0000edba:    0740        @.      LSLNE    r0,r0,#29
        0x0000edbc:    f10c5160    ..`Q    ADDNE    r1,r12,#0x38000000
        0x0000edc0:    f0134ffe    ...O    TSTNE    r3,#0x7f000000
        0x0000edc4:    4770        pG      BXNE     lr
        0x0000edc6:    f01c6f00    ...o    TST      r12,#0x8000000
        0x0000edca:    d103        ..      BNE      0xedd4 ; __aeabi_f2d + 40
        0x0000edcc:    2000        .       MOVS     r0,#0
        0x0000edce:    f00c4100    ...A    AND      r1,r12,#0x80000000
        0x0000edd2:    4770        pG      BX       lr
        0x0000edd4:    f00c4300    ...C    AND      r3,r12,#0x80000000
        0x0000edd8:    ea437050    C.Pp    ORR      r0,r3,r0,LSR #29
        0x0000eddc:    b510        ..      PUSH     {r4,lr}
        0x0000edde:    ea4000cc    @...    ORR      r0,r0,r12,LSL #3
        0x0000ede2:    f000f80e    ....    BL       __fpl_fnaninf ; 0xee02
        0x0000ede6:    bf00        ..      NOP      
    $d
        0x0000ede8:    92000000    ....    DCD    2449473536
    $t
        0x0000edec:    ea4f0100    O...    MOV.W    r1,r0
        0x0000edf0:    f7ffbfd5    ....    B.W      __fpl_dretinf ; 0xed9e
        0x0000edf4:    f04f4100    O..A    MOV      r1,#0x80000000
        0x0000edf8:    f04f0000    O...    MOV      r0,#0
        0x0000edfc:    f5a12100    ...!    SUB      r1,r1,#0x80000
        0x0000ee00:    4770        pG      BX       lr
    x$fpl$fnaninf
    $v0
    __fpl_fnaninf
        0x0000ee02:    f10e0e02    ....    ADD      lr,lr,#2
        0x0000ee06:    f02e0e03    ....    BIC      lr,lr,#3
        0x0000ee0a:    f85e4b04    ^..K    LDR      r4,[lr],#4
        0x0000ee0e:    4224        $B      TST      r4,r4
        0x0000ee10:    d404        ..      BMI      0xee1c ; __fpl_fnaninf + 26
        0x0000ee12:    ea4f0241    O.A.    LSL      r2,r1,#1
        0x0000ee16:    f1b24f7f    ...O    CMP      r2,#0xff000000
        0x0000ee1a:    d811        ..      BHI      0xee40 ; __fpl_fnaninf + 62
        0x0000ee1c:    ea4f0340    O.@.    LSL      r3,r0,#1
        0x0000ee20:    f1b34f7f    ...O    CMP      r3,#0xff000000
        0x0000ee24:    d80c        ..      BHI      0xee40 ; __fpl_fnaninf + 62
        0x0000ee26:    d10e        ..      BNE      0xee46 ; __fpl_fnaninf + 68
        0x0000ee28:    ea4f7cd0    O..|    LSR      r12,r0,#31
        0x0000ee2c:    f1b24f7f    ...O    CMP      r2,#0xff000000
        0x0000ee30:    eb0c0c4c    ..L.    ADD      r12,r12,r12,LSL #1
        0x0000ee34:    f10c0c02    ....    ADD      r12,r12,#2
        0x0000ee38:    bf08        ..      IT       EQ
        0x0000ee3a:    eb4c7cd1    L..|    ADCEQ    r12,r12,r1,LSR #31
        0x0000ee3e:    e004        ..      B        0xee4a ; __fpl_fnaninf + 72
        0x0000ee40:    f04f0c08    O...    MOV      r12,#8
        0x0000ee44:    e001        ..      B        0xee4a ; __fpl_fnaninf + 72
        0x0000ee46:    ea4f7cd1    O..|    LSR      r12,r1,#31
        0x0000ee4a:    eb0c034c    ..L.    ADD      r3,r12,r12,LSL #1
        0x0000ee4e:    fa24f403    $...    LSR      r4,r4,r3
        0x0000ee52:    f0040407    ....    AND      r4,r4,#7
        0x0000ee56:    f1b40c04    ....    SUBS     r12,r4,#4
        0x0000ee5a:    d206        ..      BCS      0xee6a ; __fpl_fnaninf + 104
        0x0000ee5c:    eb0e0c84    ....    ADD      r12,lr,r4,LSL #2
        0x0000ee60:    e8bd4010    ...@    POP      {r4,lr}
        0x0000ee64:    f04c0c01    L...    ORR      r12,r12,#1
        0x0000ee68:    4760        `G      BX       r12
        0x0000ee6a:    e8dff00c    ....    TBB      [pc,r12]
    $d
        0x0000ee6e:    0807        ..      DCW    2055
        0x0000ee70:    0202        ..      DCW    514
    $t
        0x0000ee72:    f04f4000    O..@    MOV      r0,#0x80000000
        0x0000ee76:    f5a00080    ....    SUB      r0,r0,#0x400000
        0x0000ee7a:    bd10        ..      POP      {r4,pc}
        0x0000ee7c:    4608        .F      MOV      r0,r1
        0x0000ee7e:    0042        B.      LSLS     r2,r0,#1
        0x0000ee80:    bf18        ..      IT       NE
        0x0000ee82:    f1d27280    ...r    RSBSNE   r2,r2,#0x1000000
        0x0000ee86:    bf88        ..      IT       HI
        0x0000ee88:    f0004000    ...@    ANDHI    r0,r0,#0x80000000
        0x0000ee8c:    bd10        ..      POP      {r4,pc}
    x$fpl$fpinit
    $v0
    _fp_init
        0x0000ee8e:    f04f7040    O.@p    MOV      r0,#0x3000000
        0x0000ee92:    eee10a10    ....    VMSR     FPSCR,r0
    __fplib_config_fpu_vfp
    __fplib_config_pureend_doubles
        0x0000ee96:    4770        pG      BX       lr
    x$fpl$fretinf
    $v0
    __fpl_fretinf
        0x0000ee98:    21ff        .!      MOVS     r1,#0xff
        0x0000ee9a:    ea4150d0    A..P    ORR      r0,r1,r0,LSR #23
        0x0000ee9e:    05c0        ..      LSLS     r0,r0,#23
        0x0000eea0:    4770        pG      BX       lr
    $d.realdata
    .constdata
    x$fpl$usenofp
    __I$use$fp
    am_hal_cachectrl_defaults
        0x0000eea2:    0308        ..      DCW    776
        0x0000eea4:    00000000    ....    DCD    0
    .constdata
    g_AM_HAL_GPIO_DISABLE
        0x0000eea8:    00000003    ....    DCD    3
    g_ui8Inpen
        0x0000eeac:    62272323    ##'b    DCD    1646732067
        0x0000eeb0:    108703a1    ....    DCD    277283745
        0x0000eeb4:    e1005303    .S..    DCD    3774894851
        0x0000eeb8:    55418151    Q.AU    DCD    1430356305
        0x0000eebc:    4080c405    ...@    DCD    1082180613
        0x0000eec0:    4140b101    ..@A    DCD    1094758657
        0x0000eec4:    31a03114    .1.1    DCD    832581908
        0x0000eec8:    1180f100    ....    DCD    293662976
        0x0000eecc:    11c12191    .!..    DCD    297869713
        0x0000eed0:    304511e5    ..E0    DCD    809832933
        0x0000eed4:    31300037    7.01    DCD    825229367
        0x0000eed8:    40007100    .q.@    DCD    1073770752
        0x0000eedc:    3130        01      DCW    12592
    g_ui8Bit76Capabilities
        0x0000eede:    0101        ..      DCW    257
        0x0000eee0:    01800280    ....    DCD    25166464
        0x0000eee4:    01018001    ....    DCD    16875521
        0x0000eee8:    80808080    ....    DCD    2155905152
        0x0000eeec:    80808080    ....    DCD    2155905152
        0x0000eef0:    80088080    ....    DCD    2148040832
        0x0000eef4:    01808080    ....    DCD    25198720
        0x0000eef8:    80800180    ....    DCD    2155872640
        0x0000eefc:    80808080    ....    DCD    2155905152
        0x0000ef00:    04028080    ....    DCD    67272832
        0x0000ef04:    04010180    ....    DCD    67174784
        0x0000ef08:    80800101    ....    DCD    2155872513
        0x0000ef0c:    01018080    ....    DCD    16875648
    g_ui8nCEpins
        0x0000ef10:    02070707    ....    DCD    34014983
        0x0000ef14:    00080802    ....    DCD    526338
        0x0000ef18:    01020202    ....    DCD    16908802
        0x0000ef1c:    01010101    ....    DCD    16843009
        0x0000ef20:    01010101    ....    DCD    16843009
        0x0000ef24:    01010101    ....    DCD    16843009
        0x0000ef28:    01010101    ....    DCD    16843009
        0x0000ef2c:    01010101    ....    DCD    16843009
        0x0000ef30:    01010101    ....    DCD    16843009
        0x0000ef34:    08010101    ....    DCD    134283521
        0x0000ef38:    01010008    ....    DCD    16842760
        0x0000ef3c:    01010101    ....    DCD    16843009
        0x0000ef40:    0101        ..      DCW    257
    g_ui8NCEtable
        0x0000ef42:    4232        2B      DCW    16946
        0x0000ef44:    12021352    R...    DCD    302125906
        0x0000ef48:    43336022    "`3C    DCD    1127440418
        0x0000ef4c:    40302153    S!0@    DCD    1076896083
        0x0000ef50:    41312050    P 1A    DCD    1093738576
        0x0000ef54:    ffff1151    Q...    DCD    4294906193
        0x0000ef58:    ffffffff    ....    DCD    4294967295
        0x0000ef5c:    4131ffff    ..1A    DCD    1093795839
        0x0000ef60:    40306051    Q`0@    DCD    1076912209
        0x0000ef64:    43330050    P.3C    DCD    1127415888
        0x0000ef68:    42322353    S#2B    DCD    1110582099
        0x0000ef6c:    10006052    R`..    DCD    268460114
        0x0000ef70:    40303020     00@    DCD    1076899872
        0x0000ef74:    41316150    Pa1A    DCD    1093755216
        0x0000ef78:    12020151    Q...    DCD    302121297
        0x0000ef7c:    13034222    "B..    DCD    318980642
        0x0000ef80:    10006023    #`..    DCD    268460067
        0x0000ef84:    11015020     P..    DCD    285298720
        0x0000ef88:    12024121    !A..    DCD    302137633
        0x0000ef8c:    13033222    "2..    DCD    318976546
        0x0000ef90:    41316033    3`1A    DCD    1093754931
        0x0000ef94:    42322151    Q!2B    DCD    1110581585
        0x0000ef98:    43332252    R"3C    DCD    1127424594
        0x0000ef9c:    10000353    S...    DCD    268436307
        0x0000efa0:    11014020     @..    DCD    285294624
        0x0000efa4:    42325121    !Q2B    DCD    1110593825
        0x0000efa8:    43330252    R.3C    DCD    1127416402
        0x0000efac:    40301353    S.0@    DCD    1076892499
        0x0000efb0:    41311050    P.1A    DCD    1093734480
        0x0000efb4:    42326051    Q`2B    DCD    1110597713
        0x0000efb8:    43331252    R.3C    DCD    1127420498
        0x0000efbc:    10000353    S...    DCD    268436307
        0x0000efc0:    11014020     @..    DCD    285294624
        0x0000efc4:    12026121    !a..    DCD    302145825
        0x0000efc8:    13035222    "R..    DCD    318984738
        0x0000efcc:    10003323    #3..    DCD    268448547
        0x0000efd0:    41313020     01A    DCD    1093742624
        0x0000efd4:    42326151    Qa2B    DCD    1110597969
        0x0000efd8:    13030252    R...    DCD    318964306
        0x0000efdc:    ffff5333    3S..    DCD    4294923059
        0x0000efe0:    ffffffff    ....    DCD    4294967295
        0x0000efe4:    1101ffff    ....    DCD    285343743
        0x0000efe8:    10006121    !a..    DCD    268460321
        0x0000efec:    11015020     P..    DCD    285298720
        0x0000eff0:    12026121    !a..    DCD    302145825
        0x0000eff4:    43335222    "R3C    DCD    1127436834
        0x0000eff8:    40301353    S.0@    DCD    1076892499
        0x0000effc:    11016150    Pa..    DCD    285303120
        0x0000f000:    12023121    !1..    DCD    302133537
        0x0000f004:    13033222    "2..    DCD    318976546
        0x0000f008:    00004323    #C..    DCD    17187
    .constdata
    g_AM_HAL_GPIO_OUTPUT
        0x0000f00c:    00000403    ....    DCD    1027
    .constdata
    g_am_hal_mcuctrl_flash_size
        0x0000f010:    00004000    .@..    DCD    16384
        0x0000f014:    00008000    ....    DCD    32768
        0x0000f018:    00010000    ....    DCD    65536
        0x0000f01c:    00020000    ....    DCD    131072
        0x0000f020:    00040000    ....    DCD    262144
        0x0000f024:    00080000    ....    DCD    524288
        0x0000f028:    00100000    ....    DCD    1048576
        0x0000f02c:    00200000    .. .    DCD    2097152
        0x0000f030:    00180000    ....    DCD    1572864
        0x0000f034:    00000000    ....    DCD    0
        0x0000f038:    00000000    ....    DCD    0
        0x0000f03c:    00000000    ....    DCD    0
        0x0000f040:    00000000    ....    DCD    0
        0x0000f044:    00000000    ....    DCD    0
        0x0000f048:    00000000    ....    DCD    0
        0x0000f04c:    00000000    ....    DCD    0
    g_am_hal_mcuctrl_sram_size
        0x0000f050:    00004000    .@..    DCD    16384
        0x0000f054:    00008000    ....    DCD    32768
        0x0000f058:    00010000    ....    DCD    65536
        0x0000f05c:    00020000    ....    DCD    131072
        0x0000f060:    00040000    ....    DCD    262144
        0x0000f064:    00080000    ....    DCD    524288
        0x0000f068:    00100000    ....    DCD    1048576
        0x0000f06c:    00060000    ....    DCD    393216
        0x0000f070:    000c0000    ....    DCD    786432
        0x0000f074:    00000000    ....    DCD    0
        0x0000f078:    00000000    ....    DCD    0
        0x0000f07c:    00000000    ....    DCD    0
        0x0000f080:    00000000    ....    DCD    0
        0x0000f084:    00000000    ....    DCD    0
        0x0000f088:    00000000    ....    DCD    0
        0x0000f08c:    00000000    ....    DCD    0
    .constdata
    g_AM_BSP_GPIO_ITM_SWO
        0x0000f090:    00000002    ....    DCD    2
    .constdata
    am_hal_pwrctrl_peripheral_control
        0x0000f094:    00000000    ....    DCD    0
        0x0000f098:    00000000    ....    DCD    0
        0x0000f09c:    00000000    ....    DCD    0
        0x0000f0a0:    00000001    ....    DCD    1
        0x0000f0a4:    00000004    ....    DCD    4
        0x0000f0a8:    00000004    ....    DCD    4
        0x0000f0ac:    00000002    ....    DCD    2
        0x0000f0b0:    00000008    ....    DCD    8
        0x0000f0b4:    00000008    ....    DCD    8
        0x0000f0b8:    00000004    ....    DCD    4
        0x0000f0bc:    00000008    ....    DCD    8
        0x0000f0c0:    00000008    ....    DCD    8
        0x0000f0c4:    00000008    ....    DCD    8
        0x0000f0c8:    00000008    ....    DCD    8
        0x0000f0cc:    00000008    ....    DCD    8
        0x0000f0d0:    00000010    ....    DCD    16
        0x0000f0d4:    00000010    ....    DCD    16
        0x0000f0d8:    00000010    ....    DCD    16
        0x0000f0dc:    00000020     ...    DCD    32
        0x0000f0e0:    00000010    ....    DCD    16
        0x0000f0e4:    00000010    ....    DCD    16
        0x0000f0e8:    00000040    @...    DCD    64
        0x0000f0ec:    00000010    ....    DCD    16
        0x0000f0f0:    00000010    ....    DCD    16
        0x0000f0f4:    00000080    ....    DCD    128
        0x0000f0f8:    00000004    ....    DCD    4
        0x0000f0fc:    00000004    ....    DCD    4
        0x0000f100:    00000100    ....    DCD    256
        0x0000f104:    00000004    ....    DCD    4
        0x0000f108:    00000004    ....    DCD    4
        0x0000f10c:    00000200    ....    DCD    512
        0x0000f110:    00000020     ...    DCD    32
        0x0000f114:    00000020     ...    DCD    32
        0x0000f118:    00000400    ....    DCD    1024
        0x0000f11c:    00000004    ....    DCD    4
        0x0000f120:    00000004    ....    DCD    4
        0x0000f124:    00000800    ....    DCD    2048
        0x0000f128:    00000040    @...    DCD    64
        0x0000f12c:    00000040    @...    DCD    64
        0x0000f130:    00001000    ....    DCD    4096
        0x0000f134:    00000080    ....    DCD    128
        0x0000f138:    00000080    ....    DCD    128
        0x0000f13c:    00002000    . ..    DCD    8192
        0x0000f140:    00000100    ....    DCD    256
        0x0000f144:    00000100    ....    DCD    256
    am_hal_pwrctrl_memory_control
        0x0000f148:    00000000    ....    DCD    0
        0x0000f14c:    00000000    ....    DCD    0
        0x0000f150:    00000000    ....    DCD    0
        0x0000f154:    00000000    ....    DCD    0
        0x0000f158:    00000000    ....    DCD    0
        0x0000f15c:    00000000    ....    DCD    0
        0x0000f160:    00000001    ....    DCD    1
        0x0000f164:    00000001    ....    DCD    1
        0x0000f168:    00000001    ....    DCD    1
        0x0000f16c:    00001fff    ....    DCD    8191
        0x0000f170:    00001fff    ....    DCD    8191
        0x0000f174:    00000001    ....    DCD    1
        0x0000f178:    00000003    ....    DCD    3
        0x0000f17c:    00000003    ....    DCD    3
        0x0000f180:    00000003    ....    DCD    3
        0x0000f184:    00001fff    ....    DCD    8191
        0x0000f188:    00001fff    ....    DCD    8191
        0x0000f18c:    00000003    ....    DCD    3
        0x0000f190:    00000007    ....    DCD    7
        0x0000f194:    00000007    ....    DCD    7
        0x0000f198:    00000007    ....    DCD    7
        0x0000f19c:    00001fff    ....    DCD    8191
        0x0000f1a0:    00001fff    ....    DCD    8191
        0x0000f1a4:    00000007    ....    DCD    7
        0x0000f1a8:    0000000f    ....    DCD    15
        0x0000f1ac:    0000000f    ....    DCD    15
        0x0000f1b0:    0000000f    ....    DCD    15
        0x0000f1b4:    00001fff    ....    DCD    8191
        0x0000f1b8:    00001fff    ....    DCD    8191
        0x0000f1bc:    0000000f    ....    DCD    15
        0x0000f1c0:    0000001f    ....    DCD    31
        0x0000f1c4:    0000001f    ....    DCD    31
        0x0000f1c8:    0000001f    ....    DCD    31
        0x0000f1cc:    00001fff    ....    DCD    8191
        0x0000f1d0:    00001fff    ....    DCD    8191
        0x0000f1d4:    0000001f    ....    DCD    31
        0x0000f1d8:    0000003f    ?...    DCD    63
        0x0000f1dc:    0000003f    ?...    DCD    63
        0x0000f1e0:    0000003f    ?...    DCD    63
        0x0000f1e4:    00001fff    ....    DCD    8191
        0x0000f1e8:    00001fff    ....    DCD    8191
        0x0000f1ec:    0000003f    ?...    DCD    63
        0x0000f1f0:    0000007f    ....    DCD    127
        0x0000f1f4:    0000007f    ....    DCD    127
        0x0000f1f8:    0000007f    ....    DCD    127
        0x0000f1fc:    00001fff    ....    DCD    8191
        0x0000f200:    00001fff    ....    DCD    8191
        0x0000f204:    0000007f    ....    DCD    127
        0x0000f208:    000000ff    ....    DCD    255
        0x0000f20c:    000000ff    ....    DCD    255
        0x0000f210:    000000ff    ....    DCD    255
        0x0000f214:    00001fff    ....    DCD    8191
        0x0000f218:    00001fff    ....    DCD    8191
        0x0000f21c:    000000ff    ....    DCD    255
        0x0000f220:    000001ff    ....    DCD    511
        0x0000f224:    000001ff    ....    DCD    511
        0x0000f228:    000001ff    ....    DCD    511
        0x0000f22c:    00001fff    ....    DCD    8191
        0x0000f230:    00001fff    ....    DCD    8191
        0x0000f234:    000001ff    ....    DCD    511
        0x0000f238:    000003ff    ....    DCD    1023
        0x0000f23c:    000003ff    ....    DCD    1023
        0x0000f240:    000003ff    ....    DCD    1023
        0x0000f244:    00001fff    ....    DCD    8191
        0x0000f248:    00001fff    ....    DCD    8191
        0x0000f24c:    000003ff    ....    DCD    1023
        0x0000f250:    000007ff    ....    DCD    2047
        0x0000f254:    000007ff    ....    DCD    2047
        0x0000f258:    000007ff    ....    DCD    2047
        0x0000f25c:    00001fff    ....    DCD    8191
        0x0000f260:    00001fff    ....    DCD    8191
        0x0000f264:    000007ff    ....    DCD    2047
        0x0000f268:    00000fff    ....    DCD    4095
        0x0000f26c:    00000fff    ....    DCD    4095
        0x0000f270:    00000fff    ....    DCD    4095
        0x0000f274:    00001fff    ....    DCD    8191
        0x0000f278:    00001fff    ....    DCD    8191
        0x0000f27c:    00000fff    ....    DCD    4095
        0x0000f280:    00001fff    ....    DCD    8191
        0x0000f284:    00001fff    ....    DCD    8191
        0x0000f288:    00001fff    ....    DCD    8191
        0x0000f28c:    00001fff    ....    DCD    8191
        0x0000f290:    00001fff    ....    DCD    8191
        0x0000f294:    00001fff    ....    DCD    8191
        0x0000f298:    00002000    . ..    DCD    8192
        0x0000f29c:    00002000    . ..    DCD    8192
        0x0000f2a0:    00002000    . ..    DCD    8192
        0x0000f2a4:    00006000    .`..    DCD    24576
        0x0000f2a8:    00006000    .`..    DCD    24576
        0x0000f2ac:    00002000    . ..    DCD    8192
        0x0000f2b0:    00006000    .`..    DCD    24576
        0x0000f2b4:    00006000    .`..    DCD    24576
        0x0000f2b8:    00006000    .`..    DCD    24576
        0x0000f2bc:    00006000    .`..    DCD    24576
        0x0000f2c0:    00006000    .`..    DCD    24576
        0x0000f2c4:    00006000    .`..    DCD    24576
        0x0000f2c8:    c0000000    ....    DCD    3221225472
        0x0000f2cc:    00000000    ....    DCD    0
        0x0000f2d0:    c0000000    ....    DCD    3221225472
        0x0000f2d4:    c0000000    ....    DCD    3221225472
        0x0000f2d8:    00000000    ....    DCD    0
        0x0000f2dc:    80000000    ....    DCD    2147483648
        0x0000f2e0:    c0007fff    ....    DCD    3221258239
        0x0000f2e4:    00007fff    ....    DCD    32767
        0x0000f2e8:    c0007fff    ....    DCD    3221258239
        0x0000f2ec:    c0007fff    ....    DCD    3221258239
        0x0000f2f0:    00007fff    ....    DCD    32767
        0x0000f2f4:    80007fff    ....    DCD    2147516415
    armBitRevTable
        0x0000f2f8:    02000400    ....    DCD    33555456
        0x0000f2fc:    01000600    ....    DCD    16778752
        0x0000f300:    03000500    ....    DCD    50332928
        0x0000f304:    00800700    ....    DCD    8390400
        0x0000f308:    02800480    ....    DCD    41944192
        0x0000f30c:    01800680    ....    DCD    25167488
        0x0000f310:    03800580    ....    DCD    58721664
        0x0000f314:    00400780    ..@.    DCD    4196224
        0x0000f318:    02400440    @.@.    DCD    37749824
        0x0000f31c:    01400640    @.@.    DCD    20973120
        0x0000f320:    03400540    @.@.    DCD    54527296
        0x0000f324:    00c00740    @...    DCD    12584768
        0x0000f328:    02c004c0    ....    DCD    46138560
        0x0000f32c:    01c006c0    ....    DCD    29361856
        0x0000f330:    03c005c0    ....    DCD    62916032
        0x0000f334:    002007c0    .. .    DCD    2099136
        0x0000f338:    02200420     . .    DCD    35652640
        0x0000f33c:    01200620     . .    DCD    18875936
        0x0000f340:    03200520     . .    DCD    52430112
        0x0000f344:    00a00720     ...    DCD    10487584
        0x0000f348:    02a004a0    ....    DCD    44041376
        0x0000f34c:    01a006a0    ....    DCD    27264672
        0x0000f350:    03a005a0    ....    DCD    60818848
        0x0000f354:    006007a0    ..`.    DCD    6293408
        0x0000f358:    02600460    `.`.    DCD    39847008
        0x0000f35c:    01600660    `.`.    DCD    23070304
        0x0000f360:    03600560    `.`.    DCD    56624480
        0x0000f364:    00e00760    `...    DCD    14681952
        0x0000f368:    02e004e0    ....    DCD    48235744
        0x0000f36c:    01e006e0    ....    DCD    31459040
        0x0000f370:    03e005e0    ....    DCD    65013216
        0x0000f374:    001007e0    ....    DCD    1050592
        0x0000f378:    02100410    ....    DCD    34604048
        0x0000f37c:    01100610    ....    DCD    17827344
        0x0000f380:    03100510    ....    DCD    51381520
        0x0000f384:    00900710    ....    DCD    9438992
        0x0000f388:    02900490    ....    DCD    42992784
        0x0000f38c:    01900690    ....    DCD    26216080
        0x0000f390:    03900590    ....    DCD    59770256
        0x0000f394:    00500790    ..P.    DCD    5244816
        0x0000f398:    02500450    P.P.    DCD    38798416
        0x0000f39c:    01500650    P.P.    DCD    22021712
        0x0000f3a0:    03500550    P.P.    DCD    55575888
        0x0000f3a4:    00d00750    P...    DCD    13633360
        0x0000f3a8:    02d004d0    ....    DCD    47187152
        0x0000f3ac:    01d006d0    ....    DCD    30410448
        0x0000f3b0:    03d005d0    ....    DCD    63964624
        0x0000f3b4:    003007d0    ..0.    DCD    3147728
        0x0000f3b8:    02300430    0.0.    DCD    36701232
        0x0000f3bc:    01300630    0.0.    DCD    19924528
        0x0000f3c0:    03300530    0.0.    DCD    53478704
        0x0000f3c4:    00b00730    0...    DCD    11536176
        0x0000f3c8:    02b004b0    ....    DCD    45089968
        0x0000f3cc:    01b006b0    ....    DCD    28313264
        0x0000f3d0:    03b005b0    ....    DCD    61867440
        0x0000f3d4:    007007b0    ..p.    DCD    7342000
        0x0000f3d8:    02700470    p.p.    DCD    40895600
        0x0000f3dc:    01700670    p.p.    DCD    24118896
        0x0000f3e0:    03700570    p.p.    DCD    57673072
        0x0000f3e4:    00f00770    p...    DCD    15730544
        0x0000f3e8:    02f004f0    ....    DCD    49284336
        0x0000f3ec:    01f006f0    ....    DCD    32507632
        0x0000f3f0:    03f005f0    ....    DCD    66061808
        0x0000f3f4:    000807f0    ....    DCD    526320
        0x0000f3f8:    02080408    ....    DCD    34079752
        0x0000f3fc:    01080608    ....    DCD    17303048
        0x0000f400:    03080508    ....    DCD    50857224
        0x0000f404:    00880708    ....    DCD    8914696
        0x0000f408:    02880488    ....    DCD    42468488
        0x0000f40c:    01880688    ....    DCD    25691784
        0x0000f410:    03880588    ....    DCD    59245960
        0x0000f414:    00480788    ..H.    DCD    4720520
        0x0000f418:    02480448    H.H.    DCD    38274120
        0x0000f41c:    01480648    H.H.    DCD    21497416
        0x0000f420:    03480548    H.H.    DCD    55051592
        0x0000f424:    00c80748    H...    DCD    13109064
        0x0000f428:    02c804c8    ....    DCD    46662856
        0x0000f42c:    01c806c8    ....    DCD    29886152
        0x0000f430:    03c805c8    ....    DCD    63440328
        0x0000f434:    002807c8    ..(.    DCD    2623432
        0x0000f438:    02280428    (.(.    DCD    36176936
        0x0000f43c:    01280628    (.(.    DCD    19400232
        0x0000f440:    03280528    (.(.    DCD    52954408
        0x0000f444:    00a80728    (...    DCD    11011880
        0x0000f448:    02a804a8    ....    DCD    44565672
        0x0000f44c:    01a806a8    ....    DCD    27788968
        0x0000f450:    03a805a8    ....    DCD    61343144
        0x0000f454:    006807a8    ..h.    DCD    6817704
        0x0000f458:    02680468    h.h.    DCD    40371304
        0x0000f45c:    01680668    h.h.    DCD    23594600
        0x0000f460:    03680568    h.h.    DCD    57148776
        0x0000f464:    00e80768    h...    DCD    15206248
        0x0000f468:    02e804e8    ....    DCD    48760040
        0x0000f46c:    01e806e8    ....    DCD    31983336
        0x0000f470:    03e805e8    ....    DCD    65537512
        0x0000f474:    001807e8    ....    DCD    1574888
        0x0000f478:    02180418    ....    DCD    35128344
        0x0000f47c:    01180618    ....    DCD    18351640
        0x0000f480:    03180518    ....    DCD    51905816
        0x0000f484:    00980718    ....    DCD    9963288
        0x0000f488:    02980498    ....    DCD    43517080
        0x0000f48c:    01980698    ....    DCD    26740376
        0x0000f490:    03980598    ....    DCD    60294552
        0x0000f494:    00580798    ..X.    DCD    5769112
        0x0000f498:    02580458    X.X.    DCD    39322712
        0x0000f49c:    01580658    X.X.    DCD    22546008
        0x0000f4a0:    03580558    X.X.    DCD    56100184
        0x0000f4a4:    00d80758    X...    DCD    14157656
        0x0000f4a8:    02d804d8    ....    DCD    47711448
        0x0000f4ac:    01d806d8    ....    DCD    30934744
        0x0000f4b0:    03d805d8    ....    DCD    64488920
        0x0000f4b4:    003807d8    ..8.    DCD    3672024
        0x0000f4b8:    02380438    8.8.    DCD    37225528
        0x0000f4bc:    01380638    8.8.    DCD    20448824
        0x0000f4c0:    03380538    8.8.    DCD    54003000
        0x0000f4c4:    00b80738    8...    DCD    12060472
        0x0000f4c8:    02b804b8    ....    DCD    45614264
        0x0000f4cc:    01b806b8    ....    DCD    28837560
        0x0000f4d0:    03b805b8    ....    DCD    62391736
        0x0000f4d4:    007807b8    ..x.    DCD    7866296
        0x0000f4d8:    02780478    x.x.    DCD    41419896
        0x0000f4dc:    01780678    x.x.    DCD    24643192
        0x0000f4e0:    03780578    x.x.    DCD    58197368
        0x0000f4e4:    00f80778    x...    DCD    16254840
        0x0000f4e8:    02f804f8    ....    DCD    49808632
        0x0000f4ec:    01f806f8    ....    DCD    33031928
        0x0000f4f0:    03f805f8    ....    DCD    66586104
        0x0000f4f4:    000407f8    ....    DCD    264184
        0x0000f4f8:    02040404    ....    DCD    33817604
        0x0000f4fc:    01040604    ....    DCD    17040900
        0x0000f500:    03040504    ....    DCD    50595076
        0x0000f504:    00840704    ....    DCD    8652548
        0x0000f508:    02840484    ....    DCD    42206340
        0x0000f50c:    01840684    ....    DCD    25429636
        0x0000f510:    03840584    ....    DCD    58983812
        0x0000f514:    00440784    ..D.    DCD    4458372
        0x0000f518:    02440444    D.D.    DCD    38011972
        0x0000f51c:    01440644    D.D.    DCD    21235268
        0x0000f520:    03440544    D.D.    DCD    54789444
        0x0000f524:    00c40744    D...    DCD    12846916
        0x0000f528:    02c404c4    ....    DCD    46400708
        0x0000f52c:    01c406c4    ....    DCD    29624004
        0x0000f530:    03c405c4    ....    DCD    63178180
        0x0000f534:    002407c4    ..$.    DCD    2361284
        0x0000f538:    02240424    $.$.    DCD    35914788
        0x0000f53c:    01240624    $.$.    DCD    19138084
        0x0000f540:    03240524    $.$.    DCD    52692260
        0x0000f544:    00a40724    $...    DCD    10749732
        0x0000f548:    02a404a4    ....    DCD    44303524
        0x0000f54c:    01a406a4    ....    DCD    27526820
        0x0000f550:    03a405a4    ....    DCD    61080996
        0x0000f554:    006407a4    ..d.    DCD    6555556
        0x0000f558:    02640464    d.d.    DCD    40109156
        0x0000f55c:    01640664    d.d.    DCD    23332452
        0x0000f560:    03640564    d.d.    DCD    56886628
        0x0000f564:    00e40764    d...    DCD    14944100
        0x0000f568:    02e404e4    ....    DCD    48497892
        0x0000f56c:    01e406e4    ....    DCD    31721188
        0x0000f570:    03e405e4    ....    DCD    65275364
        0x0000f574:    001407e4    ....    DCD    1312740
        0x0000f578:    02140414    ....    DCD    34866196
        0x0000f57c:    01140614    ....    DCD    18089492
        0x0000f580:    03140514    ....    DCD    51643668
        0x0000f584:    00940714    ....    DCD    9701140
        0x0000f588:    02940494    ....    DCD    43254932
        0x0000f58c:    01940694    ....    DCD    26478228
        0x0000f590:    03940594    ....    DCD    60032404
        0x0000f594:    00540794    ..T.    DCD    5506964
        0x0000f598:    02540454    T.T.    DCD    39060564
        0x0000f59c:    01540654    T.T.    DCD    22283860
        0x0000f5a0:    03540554    T.T.    DCD    55838036
        0x0000f5a4:    00d40754    T...    DCD    13895508
        0x0000f5a8:    02d404d4    ....    DCD    47449300
        0x0000f5ac:    01d406d4    ....    DCD    30672596
        0x0000f5b0:    03d405d4    ....    DCD    64226772
        0x0000f5b4:    003407d4    ..4.    DCD    3409876
        0x0000f5b8:    02340434    4.4.    DCD    36963380
        0x0000f5bc:    01340634    4.4.    DCD    20186676
        0x0000f5c0:    03340534    4.4.    DCD    53740852
        0x0000f5c4:    00b40734    4...    DCD    11798324
        0x0000f5c8:    02b404b4    ....    DCD    45352116
        0x0000f5cc:    01b406b4    ....    DCD    28575412
        0x0000f5d0:    03b405b4    ....    DCD    62129588
        0x0000f5d4:    007407b4    ..t.    DCD    7604148
        0x0000f5d8:    02740474    t.t.    DCD    41157748
        0x0000f5dc:    01740674    t.t.    DCD    24381044
        0x0000f5e0:    03740574    t.t.    DCD    57935220
        0x0000f5e4:    00f40774    t...    DCD    15992692
        0x0000f5e8:    02f404f4    ....    DCD    49546484
        0x0000f5ec:    01f406f4    ....    DCD    32769780
        0x0000f5f0:    03f405f4    ....    DCD    66323956
        0x0000f5f4:    000c07f4    ....    DCD    788468
        0x0000f5f8:    020c040c    ....    DCD    34341900
        0x0000f5fc:    010c060c    ....    DCD    17565196
        0x0000f600:    030c050c    ....    DCD    51119372
        0x0000f604:    008c070c    ....    DCD    9176844
        0x0000f608:    028c048c    ....    DCD    42730636
        0x0000f60c:    018c068c    ....    DCD    25953932
        0x0000f610:    038c058c    ....    DCD    59508108
        0x0000f614:    004c078c    ..L.    DCD    4982668
        0x0000f618:    024c044c    L.L.    DCD    38536268
        0x0000f61c:    014c064c    L.L.    DCD    21759564
        0x0000f620:    034c054c    L.L.    DCD    55313740
        0x0000f624:    00cc074c    L...    DCD    13371212
        0x0000f628:    02cc04cc    ....    DCD    46925004
        0x0000f62c:    01cc06cc    ....    DCD    30148300
        0x0000f630:    03cc05cc    ....    DCD    63702476
        0x0000f634:    002c07cc    ..,.    DCD    2885580
        0x0000f638:    022c042c    ,.,.    DCD    36439084
        0x0000f63c:    012c062c    ,.,.    DCD    19662380
        0x0000f640:    032c052c    ,.,.    DCD    53216556
        0x0000f644:    00ac072c    ,...    DCD    11274028
        0x0000f648:    02ac04ac    ....    DCD    44827820
        0x0000f64c:    01ac06ac    ....    DCD    28051116
        0x0000f650:    03ac05ac    ....    DCD    61605292
        0x0000f654:    006c07ac    ..l.    DCD    7079852
        0x0000f658:    026c046c    l.l.    DCD    40633452
        0x0000f65c:    016c066c    l.l.    DCD    23856748
        0x0000f660:    036c056c    l.l.    DCD    57410924
        0x0000f664:    00ec076c    l...    DCD    15468396
        0x0000f668:    02ec04ec    ....    DCD    49022188
        0x0000f66c:    01ec06ec    ....    DCD    32245484
        0x0000f670:    03ec05ec    ....    DCD    65799660
        0x0000f674:    001c07ec    ....    DCD    1837036
        0x0000f678:    021c041c    ....    DCD    35390492
        0x0000f67c:    011c061c    ....    DCD    18613788
        0x0000f680:    031c051c    ....    DCD    52167964
        0x0000f684:    009c071c    ....    DCD    10225436
        0x0000f688:    029c049c    ....    DCD    43779228
        0x0000f68c:    019c069c    ....    DCD    27002524
        0x0000f690:    039c059c    ....    DCD    60556700
        0x0000f694:    005c079c    ..\.    DCD    6031260
        0x0000f698:    025c045c    \.\.    DCD    39584860
        0x0000f69c:    015c065c    \.\.    DCD    22808156
        0x0000f6a0:    035c055c    \.\.    DCD    56362332
        0x0000f6a4:    00dc075c    \...    DCD    14419804
        0x0000f6a8:    02dc04dc    ....    DCD    47973596
        0x0000f6ac:    01dc06dc    ....    DCD    31196892
        0x0000f6b0:    03dc05dc    ....    DCD    64751068
        0x0000f6b4:    003c07dc    ..<.    DCD    3934172
        0x0000f6b8:    023c043c    <.<.    DCD    37487676
        0x0000f6bc:    013c063c    <.<.    DCD    20710972
        0x0000f6c0:    033c053c    <.<.    DCD    54265148
        0x0000f6c4:    00bc073c    <...    DCD    12322620
        0x0000f6c8:    02bc04bc    ....    DCD    45876412
        0x0000f6cc:    01bc06bc    ....    DCD    29099708
        0x0000f6d0:    03bc05bc    ....    DCD    62653884
        0x0000f6d4:    007c07bc    ..|.    DCD    8128444
        0x0000f6d8:    027c047c    |.|.    DCD    41682044
        0x0000f6dc:    017c067c    |.|.    DCD    24905340
        0x0000f6e0:    037c057c    |.|.    DCD    58459516
        0x0000f6e4:    00fc077c    |...    DCD    16516988
        0x0000f6e8:    02fc04fc    ....    DCD    50070780
        0x0000f6ec:    01fc06fc    ....    DCD    33294076
        0x0000f6f0:    03fc05fc    ....    DCD    66848252
        0x0000f6f4:    000207fc    ....    DCD    133116
        0x0000f6f8:    02020402    ....    DCD    33686530
        0x0000f6fc:    01020602    ....    DCD    16909826
        0x0000f700:    03020502    ....    DCD    50464002
        0x0000f704:    00820702    ....    DCD    8521474
        0x0000f708:    02820482    ....    DCD    42075266
        0x0000f70c:    01820682    ....    DCD    25298562
        0x0000f710:    03820582    ....    DCD    58852738
        0x0000f714:    00420782    ..B.    DCD    4327298
        0x0000f718:    02420442    B.B.    DCD    37880898
        0x0000f71c:    01420642    B.B.    DCD    21104194
        0x0000f720:    03420542    B.B.    DCD    54658370
        0x0000f724:    00c20742    B...    DCD    12715842
        0x0000f728:    02c204c2    ....    DCD    46269634
        0x0000f72c:    01c206c2    ....    DCD    29492930
        0x0000f730:    03c205c2    ....    DCD    63047106
        0x0000f734:    002207c2    ..".    DCD    2230210
        0x0000f738:    02220422    ".".    DCD    35783714
        0x0000f73c:    01220622    ".".    DCD    19007010
        0x0000f740:    03220522    ".".    DCD    52561186
        0x0000f744:    00a20722    "...    DCD    10618658
        0x0000f748:    02a204a2    ....    DCD    44172450
        0x0000f74c:    01a206a2    ....    DCD    27395746
        0x0000f750:    03a205a2    ....    DCD    60949922
        0x0000f754:    006207a2    ..b.    DCD    6424482
        0x0000f758:    02620462    b.b.    DCD    39978082
        0x0000f75c:    01620662    b.b.    DCD    23201378
        0x0000f760:    03620562    b.b.    DCD    56755554
        0x0000f764:    00e20762    b...    DCD    14813026
        0x0000f768:    02e204e2    ....    DCD    48366818
        0x0000f76c:    01e206e2    ....    DCD    31590114
        0x0000f770:    03e205e2    ....    DCD    65144290
        0x0000f774:    001207e2    ....    DCD    1181666
        0x0000f778:    02120412    ....    DCD    34735122
        0x0000f77c:    01120612    ....    DCD    17958418
        0x0000f780:    03120512    ....    DCD    51512594
        0x0000f784:    00920712    ....    DCD    9570066
        0x0000f788:    02920492    ....    DCD    43123858
        0x0000f78c:    01920692    ....    DCD    26347154
        0x0000f790:    03920592    ....    DCD    59901330
        0x0000f794:    00520792    ..R.    DCD    5375890
        0x0000f798:    02520452    R.R.    DCD    38929490
        0x0000f79c:    01520652    R.R.    DCD    22152786
        0x0000f7a0:    03520552    R.R.    DCD    55706962
        0x0000f7a4:    00d20752    R...    DCD    13764434
        0x0000f7a8:    02d204d2    ....    DCD    47318226
        0x0000f7ac:    01d206d2    ....    DCD    30541522
        0x0000f7b0:    03d205d2    ....    DCD    64095698
        0x0000f7b4:    003207d2    ..2.    DCD    3278802
        0x0000f7b8:    02320432    2.2.    DCD    36832306
        0x0000f7bc:    01320632    2.2.    DCD    20055602
        0x0000f7c0:    03320532    2.2.    DCD    53609778
        0x0000f7c4:    00b20732    2...    DCD    11667250
        0x0000f7c8:    02b204b2    ....    DCD    45221042
        0x0000f7cc:    01b206b2    ....    DCD    28444338
        0x0000f7d0:    03b205b2    ....    DCD    61998514
        0x0000f7d4:    007207b2    ..r.    DCD    7473074
        0x0000f7d8:    02720472    r.r.    DCD    41026674
        0x0000f7dc:    01720672    r.r.    DCD    24249970
        0x0000f7e0:    03720572    r.r.    DCD    57804146
        0x0000f7e4:    00f20772    r...    DCD    15861618
        0x0000f7e8:    02f204f2    ....    DCD    49415410
        0x0000f7ec:    01f206f2    ....    DCD    32638706
        0x0000f7f0:    03f205f2    ....    DCD    66192882
        0x0000f7f4:    000a07f2    ....    DCD    657394
        0x0000f7f8:    020a040a    ....    DCD    34210826
        0x0000f7fc:    010a060a    ....    DCD    17434122
        0x0000f800:    030a050a    ....    DCD    50988298
        0x0000f804:    008a070a    ....    DCD    9045770
        0x0000f808:    028a048a    ....    DCD    42599562
        0x0000f80c:    018a068a    ....    DCD    25822858
        0x0000f810:    038a058a    ....    DCD    59377034
        0x0000f814:    004a078a    ..J.    DCD    4851594
        0x0000f818:    024a044a    J.J.    DCD    38405194
        0x0000f81c:    014a064a    J.J.    DCD    21628490
        0x0000f820:    034a054a    J.J.    DCD    55182666
        0x0000f824:    00ca074a    J...    DCD    13240138
        0x0000f828:    02ca04ca    ....    DCD    46793930
        0x0000f82c:    01ca06ca    ....    DCD    30017226
        0x0000f830:    03ca05ca    ....    DCD    63571402
        0x0000f834:    002a07ca    ..*.    DCD    2754506
        0x0000f838:    022a042a    *.*.    DCD    36308010
        0x0000f83c:    012a062a    *.*.    DCD    19531306
        0x0000f840:    032a052a    *.*.    DCD    53085482
        0x0000f844:    00aa072a    *...    DCD    11142954
        0x0000f848:    02aa04aa    ....    DCD    44696746
        0x0000f84c:    01aa06aa    ....    DCD    27920042
        0x0000f850:    03aa05aa    ....    DCD    61474218
        0x0000f854:    006a07aa    ..j.    DCD    6948778
        0x0000f858:    026a046a    j.j.    DCD    40502378
        0x0000f85c:    016a066a    j.j.    DCD    23725674
        0x0000f860:    036a056a    j.j.    DCD    57279850
        0x0000f864:    00ea076a    j...    DCD    15337322
        0x0000f868:    02ea04ea    ....    DCD    48891114
        0x0000f86c:    01ea06ea    ....    DCD    32114410
        0x0000f870:    03ea05ea    ....    DCD    65668586
        0x0000f874:    001a07ea    ....    DCD    1705962
        0x0000f878:    021a041a    ....    DCD    35259418
        0x0000f87c:    011a061a    ....    DCD    18482714
        0x0000f880:    031a051a    ....    DCD    52036890
        0x0000f884:    009a071a    ....    DCD    10094362
        0x0000f888:    029a049a    ....    DCD    43648154
        0x0000f88c:    019a069a    ....    DCD    26871450
        0x0000f890:    039a059a    ....    DCD    60425626
        0x0000f894:    005a079a    ..Z.    DCD    5900186
        0x0000f898:    025a045a    Z.Z.    DCD    39453786
        0x0000f89c:    015a065a    Z.Z.    DCD    22677082
        0x0000f8a0:    035a055a    Z.Z.    DCD    56231258
        0x0000f8a4:    00da075a    Z...    DCD    14288730
        0x0000f8a8:    02da04da    ....    DCD    47842522
        0x0000f8ac:    01da06da    ....    DCD    31065818
        0x0000f8b0:    03da05da    ....    DCD    64619994
        0x0000f8b4:    003a07da    ..:.    DCD    3803098
        0x0000f8b8:    023a043a    :.:.    DCD    37356602
        0x0000f8bc:    013a063a    :.:.    DCD    20579898
        0x0000f8c0:    033a053a    :.:.    DCD    54134074
        0x0000f8c4:    00ba073a    :...    DCD    12191546
        0x0000f8c8:    02ba04ba    ....    DCD    45745338
        0x0000f8cc:    01ba06ba    ....    DCD    28968634
        0x0000f8d0:    03ba05ba    ....    DCD    62522810
        0x0000f8d4:    007a07ba    ..z.    DCD    7997370
        0x0000f8d8:    027a047a    z.z.    DCD    41550970
        0x0000f8dc:    017a067a    z.z.    DCD    24774266
        0x0000f8e0:    037a057a    z.z.    DCD    58328442
        0x0000f8e4:    00fa077a    z...    DCD    16385914
        0x0000f8e8:    02fa04fa    ....    DCD    49939706
        0x0000f8ec:    01fa06fa    ....    DCD    33163002
        0x0000f8f0:    03fa05fa    ....    DCD    66717178
        0x0000f8f4:    000607fa    ....    DCD    395258
        0x0000f8f8:    02060406    ....    DCD    33948678
        0x0000f8fc:    01060606    ....    DCD    17171974
        0x0000f900:    03060506    ....    DCD    50726150
        0x0000f904:    00860706    ....    DCD    8783622
        0x0000f908:    02860486    ....    DCD    42337414
        0x0000f90c:    01860686    ....    DCD    25560710
        0x0000f910:    03860586    ....    DCD    59114886
        0x0000f914:    00460786    ..F.    DCD    4589446
        0x0000f918:    02460446    F.F.    DCD    38143046
        0x0000f91c:    01460646    F.F.    DCD    21366342
        0x0000f920:    03460546    F.F.    DCD    54920518
        0x0000f924:    00c60746    F...    DCD    12977990
        0x0000f928:    02c604c6    ....    DCD    46531782
        0x0000f92c:    01c606c6    ....    DCD    29755078
        0x0000f930:    03c605c6    ....    DCD    63309254
        0x0000f934:    002607c6    ..&.    DCD    2492358
        0x0000f938:    02260426    &.&.    DCD    36045862
        0x0000f93c:    01260626    &.&.    DCD    19269158
        0x0000f940:    03260526    &.&.    DCD    52823334
        0x0000f944:    00a60726    &...    DCD    10880806
        0x0000f948:    02a604a6    ....    DCD    44434598
        0x0000f94c:    01a606a6    ....    DCD    27657894
        0x0000f950:    03a605a6    ....    DCD    61212070
        0x0000f954:    006607a6    ..f.    DCD    6686630
        0x0000f958:    02660466    f.f.    DCD    40240230
        0x0000f95c:    01660666    f.f.    DCD    23463526
        0x0000f960:    03660566    f.f.    DCD    57017702
        0x0000f964:    00e60766    f...    DCD    15075174
        0x0000f968:    02e604e6    ....    DCD    48628966
        0x0000f96c:    01e606e6    ....    DCD    31852262
        0x0000f970:    03e605e6    ....    DCD    65406438
        0x0000f974:    001607e6    ....    DCD    1443814
        0x0000f978:    02160416    ....    DCD    34997270
        0x0000f97c:    01160616    ....    DCD    18220566
        0x0000f980:    03160516    ....    DCD    51774742
        0x0000f984:    00960716    ....    DCD    9832214
        0x0000f988:    02960496    ....    DCD    43386006
        0x0000f98c:    01960696    ....    DCD    26609302
        0x0000f990:    03960596    ....    DCD    60163478
        0x0000f994:    00560796    ..V.    DCD    5638038
        0x0000f998:    02560456    V.V.    DCD    39191638
        0x0000f99c:    01560656    V.V.    DCD    22414934
        0x0000f9a0:    03560556    V.V.    DCD    55969110
        0x0000f9a4:    00d60756    V...    DCD    14026582
        0x0000f9a8:    02d604d6    ....    DCD    47580374
        0x0000f9ac:    01d606d6    ....    DCD    30803670
        0x0000f9b0:    03d605d6    ....    DCD    64357846
        0x0000f9b4:    003607d6    ..6.    DCD    3540950
        0x0000f9b8:    02360436    6.6.    DCD    37094454
        0x0000f9bc:    01360636    6.6.    DCD    20317750
        0x0000f9c0:    03360536    6.6.    DCD    53871926
        0x0000f9c4:    00b60736    6...    DCD    11929398
        0x0000f9c8:    02b604b6    ....    DCD    45483190
        0x0000f9cc:    01b606b6    ....    DCD    28706486
        0x0000f9d0:    03b605b6    ....    DCD    62260662
        0x0000f9d4:    007607b6    ..v.    DCD    7735222
        0x0000f9d8:    02760476    v.v.    DCD    41288822
        0x0000f9dc:    01760676    v.v.    DCD    24512118
        0x0000f9e0:    03760576    v.v.    DCD    58066294
        0x0000f9e4:    00f60776    v...    DCD    16123766
        0x0000f9e8:    02f604f6    ....    DCD    49677558
        0x0000f9ec:    01f606f6    ....    DCD    32900854
        0x0000f9f0:    03f605f6    ....    DCD    66455030
        0x0000f9f4:    000e07f6    ....    DCD    919542
        0x0000f9f8:    020e040e    ....    DCD    34472974
        0x0000f9fc:    010e060e    ....    DCD    17696270
        0x0000fa00:    030e050e    ....    DCD    51250446
        0x0000fa04:    008e070e    ....    DCD    9307918
        0x0000fa08:    028e048e    ....    DCD    42861710
        0x0000fa0c:    018e068e    ....    DCD    26085006
        0x0000fa10:    038e058e    ....    DCD    59639182
        0x0000fa14:    004e078e    ..N.    DCD    5113742
        0x0000fa18:    024e044e    N.N.    DCD    38667342
        0x0000fa1c:    014e064e    N.N.    DCD    21890638
        0x0000fa20:    034e054e    N.N.    DCD    55444814
        0x0000fa24:    00ce074e    N...    DCD    13502286
        0x0000fa28:    02ce04ce    ....    DCD    47056078
        0x0000fa2c:    01ce06ce    ....    DCD    30279374
        0x0000fa30:    03ce05ce    ....    DCD    63833550
        0x0000fa34:    002e07ce    ....    DCD    3016654
        0x0000fa38:    022e042e    ....    DCD    36570158
        0x0000fa3c:    012e062e    ....    DCD    19793454
        0x0000fa40:    032e052e    ....    DCD    53347630
        0x0000fa44:    00ae072e    ....    DCD    11405102
        0x0000fa48:    02ae04ae    ....    DCD    44958894
        0x0000fa4c:    01ae06ae    ....    DCD    28182190
        0x0000fa50:    03ae05ae    ....    DCD    61736366
        0x0000fa54:    006e07ae    ..n.    DCD    7210926
        0x0000fa58:    026e046e    n.n.    DCD    40764526
        0x0000fa5c:    016e066e    n.n.    DCD    23987822
        0x0000fa60:    036e056e    n.n.    DCD    57541998
        0x0000fa64:    00ee076e    n...    DCD    15599470
        0x0000fa68:    02ee04ee    ....    DCD    49153262
        0x0000fa6c:    01ee06ee    ....    DCD    32376558
        0x0000fa70:    03ee05ee    ....    DCD    65930734
        0x0000fa74:    001e07ee    ....    DCD    1968110
        0x0000fa78:    021e041e    ....    DCD    35521566
        0x0000fa7c:    011e061e    ....    DCD    18744862
        0x0000fa80:    031e051e    ....    DCD    52299038
        0x0000fa84:    009e071e    ....    DCD    10356510
        0x0000fa88:    029e049e    ....    DCD    43910302
        0x0000fa8c:    019e069e    ....    DCD    27133598
        0x0000fa90:    039e059e    ....    DCD    60687774
        0x0000fa94:    005e079e    ..^.    DCD    6162334
        0x0000fa98:    025e045e    ^.^.    DCD    39715934
        0x0000fa9c:    015e065e    ^.^.    DCD    22939230
        0x0000faa0:    035e055e    ^.^.    DCD    56493406
        0x0000faa4:    00de075e    ^...    DCD    14550878
        0x0000faa8:    02de04de    ....    DCD    48104670
        0x0000faac:    01de06de    ....    DCD    31327966
        0x0000fab0:    03de05de    ....    DCD    64882142
        0x0000fab4:    003e07de    ..>.    DCD    4065246
        0x0000fab8:    023e043e    >.>.    DCD    37618750
        0x0000fabc:    013e063e    >.>.    DCD    20842046
        0x0000fac0:    033e053e    >.>.    DCD    54396222
        0x0000fac4:    00be073e    >...    DCD    12453694
        0x0000fac8:    02be04be    ....    DCD    46007486
        0x0000facc:    01be06be    ....    DCD    29230782
        0x0000fad0:    03be05be    ....    DCD    62784958
        0x0000fad4:    007e07be    ..~.    DCD    8259518
        0x0000fad8:    027e047e    ~.~.    DCD    41813118
        0x0000fadc:    017e067e    ~.~.    DCD    25036414
        0x0000fae0:    037e057e    ~.~.    DCD    58590590
        0x0000fae4:    00fe077e    ~...    DCD    16648062
        0x0000fae8:    02fe04fe    ....    DCD    50201854
        0x0000faec:    01fe06fe    ....    DCD    33425150
        0x0000faf0:    03fe05fe    ....    DCD    66979326
        0x0000faf4:    000107fe    ....    DCD    67582
    twiddleCoef_4096
        0x0000faf8:    3f800000    ...?    DCD    1065353216
        0x0000fafc:    00000000    ....    DCD    0
        0x0000fb00:    3f7fffec    ...?    DCD    1065353196
        0x0000fb04:    3ac90fd4    ...:    DCD    986255316
        0x0000fb08:    3f7fffb1    ...?    DCD    1065353137
        0x0000fb0c:    3b490fc7    ..I;    DCD    994643911
        0x0000fb10:    3f7fff4e    N..?    DCD    1065353038
        0x0000fb14:    3b96cbc1    ...;    DCD    999738305
        0x0000fb18:    3f7ffec4    ...?    DCD    1065352900
        0x0000fb1c:    3bc90f89    ...;    DCD    1003032457
        0x0000fb20:    3f7ffe13    ...?    DCD    1065352723
        0x0000fb24:    3bfb5330    0S.;    DCD    1006326576
        0x0000fb28:    3f7ffd39    9..?    DCD    1065352505
        0x0000fb2c:    3c16cb59    Y..<    DCD    1008126809
        0x0000fb30:    3f7ffc39    9..?    DCD    1065352249
        0x0000fb34:    3c2fed02    ../<    DCD    1009773826
        0x0000fb38:    3f7ffb11    ...?    DCD    1065351953
        0x0000fb3c:    3c490e90    ..I<    DCD    1011420816
        0x0000fb40:    3f7ff9c1    ...?    DCD    1065351617
        0x0000fb44:    3c623000    .0b<    DCD    1013067776
        0x0000fb48:    3f7ff84a    J..?    DCD    1065351242
        0x0000fb4c:    3c7b514b    KQ{<    DCD    1014714699
        0x0000fb50:    3f7ff6ac    ...?    DCD    1065350828
        0x0000fb54:    3c8a3938    89.<    DCD    1015691576
        0x0000fb58:    3f7ff4e6    ...?    DCD    1065350374
        0x0000fb5c:    3c96c9b6    ...<    DCD    1016514998
        0x0000fb60:    3f7ff2f8    ...?    DCD    1065349880
        0x0000fb64:    3ca35a1c    .Z.<    DCD    1017338396
        0x0000fb68:    3f7ff0e3    ...?    DCD    1065349347
        0x0000fb6c:    3cafea69    i..<    DCD    1018161769
        0x0000fb70:    3f7feea7    ...?    DCD    1065348775
        0x0000fb74:    3cbc7a9b    .z.<    DCD    1018985115
        0x0000fb78:    3f7fec43    C..?    DCD    1065348163
        0x0000fb7c:    3cc90ab0    ...<    DCD    1019808432
        0x0000fb80:    3f7fe9b8    ...?    DCD    1065347512
        0x0000fb84:    3cd59aa6    ...<    DCD    1020631718
        0x0000fb88:    3f7fe705    ...?    DCD    1065346821
        0x0000fb8c:    3ce22a7b    {*.<    DCD    1021454971
        0x0000fb90:    3f7fe42b    +..?    DCD    1065346091
        0x0000fb94:    3ceeba2d    -..<    DCD    1022278189
        0x0000fb98:    3f7fe129    )..?    DCD    1065345321
        0x0000fb9c:    3cfb49b9    .I.<    DCD    1023101369
        0x0000fba0:    3f7fde00    ...?    DCD    1065344512
        0x0000fba4:    3d03ec90    ...=    DCD    1023667344
        0x0000fba8:    3f7fdaaf    ...?    DCD    1065343663
        0x0000fbac:    3d0a342f    /4.=    DCD    1024078895
        0x0000fbb0:    3f7fd737    7..?    DCD    1065342775
        0x0000fbb4:    3d107bb8    .{.=    DCD    1024490424
        0x0000fbb8:    3f7fd398    ...?    DCD    1065341848
        0x0000fbbc:    3d16c32c    ,..=    DCD    1024901932
        0x0000fbc0:    3f7fcfd1    ...?    DCD    1065340881
        0x0000fbc4:    3d1d0a88    ...=    DCD    1025313416
        0x0000fbc8:    3f7fcbe2    ...?    DCD    1065339874
        0x0000fbcc:    3d2351cc    .Q#=    DCD    1025724876
        0x0000fbd0:    3f7fc7cc    ...?    DCD    1065338828
        0x0000fbd4:    3d2998f6    ..)=    DCD    1026136310
        0x0000fbd8:    3f7fc38f    ...?    DCD    1065337743
        0x0000fbdc:    3d2fe007    ../=    DCD    1026547719
        0x0000fbe0:    3f7fbf2a    *..?    DCD    1065336618
        0x0000fbe4:    3d3626fc    .&6=    DCD    1026959100
        0x0000fbe8:    3f7fba9e    ...?    DCD    1065335454
        0x0000fbec:    3d3c6dd5    .m<=    DCD    1027370453
        0x0000fbf0:    3f7fb5ea    ...?    DCD    1065334250
        0x0000fbf4:    3d42b491    ..B=    DCD    1027781777
        0x0000fbf8:    3f7fb10f    ...?    DCD    1065333007
        0x0000fbfc:    3d48fb2f    /.H=    DCD    1028193071
        0x0000fc00:    3f7fac0d    ...?    DCD    1065331725
        0x0000fc04:    3d4f41af    .AO=    DCD    1028604335
        0x0000fc08:    3f7fa6e3    ...?    DCD    1065330403
        0x0000fc0c:    3d55880e    ..U=    DCD    1029015566
        0x0000fc10:    3f7fa191    ...?    DCD    1065329041
        0x0000fc14:    3d5bce4c    L.[=    DCD    1029426764
        0x0000fc18:    3f7f9c18    ...?    DCD    1065327640
        0x0000fc1c:    3d621468    h.b=    DCD    1029837928
        0x0000fc20:    3f7f9678    x..?    DCD    1065326200
        0x0000fc24:    3d685a62    bZh=    DCD    1030249058
        0x0000fc28:    3f7f90b1    ...?    DCD    1065324721
        0x0000fc2c:    3d6ea038    8.n=    DCD    1030660152
        0x0000fc30:    3f7f8ac2    ...?    DCD    1065323202
        0x0000fc34:    3d74e5e9    ..t=    DCD    1031071209
        0x0000fc38:    3f7f84ab    ...?    DCD    1065321643
        0x0000fc3c:    3d7b2b74    t+{=    DCD    1031482228
        0x0000fc40:    3f7f7e6d    m~.?    DCD    1065320045
        0x0000fc44:    3d80b86c    l..=    DCD    1031845996
        0x0000fc48:    3f7f7808    .x.?    DCD    1065318408
        0x0000fc4c:    3d83db0a    ...=    DCD    1032051466
        0x0000fc50:    3f7f717b    {q.?    DCD    1065316731
        0x0000fc54:    3d86fd94    ...=    DCD    1032256916
        0x0000fc58:    3f7f6ac7    .j.?    DCD    1065315015
        0x0000fc5c:    3d8a200a    . .=    DCD    1032462346
        0x0000fc60:    3f7f63ec    .c.?    DCD    1065313260
        0x0000fc64:    3d8d426a    jB.=    DCD    1032667754
        0x0000fc68:    3f7f5ce9    .\.?    DCD    1065311465
        0x0000fc6c:    3d9064b4    .d.=    DCD    1032873140
        0x0000fc70:    3f7f55bf    .U.?    DCD    1065309631
        0x0000fc74:    3d9386e7    ...=    DCD    1033078503
        0x0000fc78:    3f7f4e6d    mN.?    DCD    1065307757
        0x0000fc7c:    3d96a905    ...=    DCD    1033283845
        0x0000fc80:    3f7f46f4    .F.?    DCD    1065305844
        0x0000fc84:    3d99cb0a    ...=    DCD    1033489162
        0x0000fc88:    3f7f3f54    T?.?    DCD    1065303892
        0x0000fc8c:    3d9cecf9    ...=    DCD    1033694457
        0x0000fc90:    3f7f378d    .7.?    DCD    1065301901
        0x0000fc94:    3da00ecf    ...=    DCD    1033899727
        0x0000fc98:    3f7f2f9d    ./.?    DCD    1065299869
        0x0000fc9c:    3da3308c    .0.=    DCD    1034104972
        0x0000fca0:    3f7f2787    .'.?    DCD    1065297799
        0x0000fca4:    3da65230    0R.=    DCD    1034310192
        0x0000fca8:    3f7f1f49    I..?    DCD    1065295689
        0x0000fcac:    3da973ba    .s.=    DCD    1034515386
        0x0000fcb0:    3f7f16e4    ...?    DCD    1065293540
        0x0000fcb4:    3dac952b    +..=    DCD    1034720555
        0x0000fcb8:    3f7f0e58    X..?    DCD    1065291352
        0x0000fcbc:    3dafb680    ...=    DCD    1034925696
        0x0000fcc0:    3f7f05a4    ...?    DCD    1065289124
        0x0000fcc4:    3db2d7bb    ...=    DCD    1035130811
        0x0000fcc8:    3f7efcc9    ..~?    DCD    1065286857
        0x0000fccc:    3db5f8da    ...=    DCD    1035335898
        0x0000fcd0:    3f7ef3c7    ..~?    DCD    1065284551
        0x0000fcd4:    3db919dd    ...=    DCD    1035540957
        0x0000fcd8:    3f7eea9d    ..~?    DCD    1065282205
        0x0000fcdc:    3dbc3ac3    .:.=    DCD    1035745987
        0x0000fce0:    3f7ee14c    L.~?    DCD    1065279820
        0x0000fce4:    3dbf5b8d    .[.=    DCD    1035950989
        0x0000fce8:    3f7ed7d4    ..~?    DCD    1065277396
        0x0000fcec:    3dc27c39    9|.=    DCD    1036155961
        0x0000fcf0:    3f7ece34    4.~?    DCD    1065274932
        0x0000fcf4:    3dc59cc6    ...=    DCD    1036360902
        0x0000fcf8:    3f7ec46d    m.~?    DCD    1065272429
        0x0000fcfc:    3dc8bd36    6..=    DCD    1036565814
        0x0000fd00:    3f7eba7f    ..~?    DCD    1065269887
        0x0000fd04:    3dcbdd86    ...=    DCD    1036770694
        0x0000fd08:    3f7eb069    i.~?    DCD    1065267305
        0x0000fd0c:    3dcefdb7    ...=    DCD    1036975543
        0x0000fd10:    3f7ea62d    -.~?    DCD    1065264685
        0x0000fd14:    3dd21dc8    ...=    DCD    1037180360
        0x0000fd18:    3f7e9bc9    ..~?    DCD    1065262025
        0x0000fd1c:    3dd53db9    .=.=    DCD    1037385145
        0x0000fd20:    3f7e913d    =.~?    DCD    1065259325
        0x0000fd24:    3dd85d89    .].=    DCD    1037589897
        0x0000fd28:    3f7e868b    ..~?    DCD    1065256587
        0x0000fd2c:    3ddb7d37    7}.=    DCD    1037794615
        0x0000fd30:    3f7e7bb1    .{~?    DCD    1065253809
        0x0000fd34:    3dde9cc4    ...=    DCD    1037999300
        0x0000fd38:    3f7e70b0    .p~?    DCD    1065250992
        0x0000fd3c:    3de1bc2e    ...=    DCD    1038203950
        0x0000fd40:    3f7e6588    .e~?    DCD    1065248136
        0x0000fd44:    3de4db76    v..=    DCD    1038408566
        0x0000fd48:    3f7e5a38    8Z~?    DCD    1065245240
        0x0000fd4c:    3de7fa9a    ...=    DCD    1038613146
        0x0000fd50:    3f7e4ec1    .N~?    DCD    1065242305
        0x0000fd54:    3deb199a    ...=    DCD    1038817690
        0x0000fd58:    3f7e4323    #C~?    DCD    1065239331
        0x0000fd5c:    3dee3876    v8.=    DCD    1039022198
        0x0000fd60:    3f7e375e    ^7~?    DCD    1065236318
        0x0000fd64:    3df1572e    .W.=    DCD    1039226670
        0x0000fd68:    3f7e2b72    r+~?    DCD    1065233266
        0x0000fd6c:    3df475c0    .u.=    DCD    1039431104
        0x0000fd70:    3f7e1f5e    ^.~?    DCD    1065230174
        0x0000fd74:    3df7942c    ,..=    DCD    1039635500
        0x0000fd78:    3f7e1324    $.~?    DCD    1065227044
        0x0000fd7c:    3dfab273    s..=    DCD    1039839859
        0x0000fd80:    3f7e06c2    ..~?    DCD    1065223874
        0x0000fd84:    3dfdd092    ...=    DCD    1040044178
        0x0000fd88:    3f7dfa38    8.}?    DCD    1065220664
        0x0000fd8c:    3e007745    Ew.>    DCD    1040217925
        0x0000fd90:    3f7ded88    ..}?    DCD    1065217416
        0x0000fd94:    3e02062e    ...>    DCD    1040320046
        0x0000fd98:    3f7de0b1    ..}?    DCD    1065214129
        0x0000fd9c:    3e039502    ...>    DCD    1040422146
        0x0000fda0:    3f7dd3b2    ..}?    DCD    1065210802
        0x0000fda4:    3e0523c2    .#.>    DCD    1040524226
        0x0000fda8:    3f7dc68c    ..}?    DCD    1065207436
        0x0000fdac:    3e06b26e    n..>    DCD    1040626286
        0x0000fdb0:    3f7db940    @.}?    DCD    1065204032
        0x0000fdb4:    3e084105    .A.>    DCD    1040728325
        0x0000fdb8:    3f7dabcc    ..}?    DCD    1065200588
        0x0000fdbc:    3e09cf86    ...>    DCD    1040830342
        0x0000fdc0:    3f7d9e30    0.}?    DCD    1065197104
        0x0000fdc4:    3e0b5df3    .].>    DCD    1040932339
        0x0000fdc8:    3f7d906e    n.}?    DCD    1065193582
        0x0000fdcc:    3e0cec4a    J..>    DCD    1041034314
        0x0000fdd0:    3f7d8285    ..}?    DCD    1065190021
        0x0000fdd4:    3e0e7a8b    .z.>    DCD    1041136267
        0x0000fdd8:    3f7d7474    tt}?    DCD    1065186420
        0x0000fddc:    3e1008b7    ...>    DCD    1041238199
        0x0000fde0:    3f7d663d    =f}?    DCD    1065182781
        0x0000fde4:    3e1196cc    ...>    DCD    1041340108
        0x0000fde8:    3f7d57de    .W}?    DCD    1065179102
        0x0000fdec:    3e1324ca    .$.>    DCD    1041441994
        0x0000fdf0:    3f7d4959    YI}?    DCD    1065175385
        0x0000fdf4:    3e14b2b2    ...>    DCD    1041543858
        0x0000fdf8:    3f7d3aac    .:}?    DCD    1065171628
        0x0000fdfc:    3e164083    .@.>    DCD    1041645699
        0x0000fe00:    3f7d2bd8    .+}?    DCD    1065167832
        0x0000fe04:    3e17ce3d    =..>    DCD    1041747517
        0x0000fe08:    3f7d1cdd    ..}?    DCD    1065163997
        0x0000fe0c:    3e195be0    .[.>    DCD    1041849312
        0x0000fe10:    3f7d0dbc    ..}?    DCD    1065160124
        0x0000fe14:    3e1ae96b    k..>    DCD    1041951083
        0x0000fe18:    3f7cfe73    s.|?    DCD    1065156211
        0x0000fe1c:    3e1c76de    .v.>    DCD    1042052830
        0x0000fe20:    3f7cef03    ..|?    DCD    1065152259
        0x0000fe24:    3e1e0438    8..>    DCD    1042154552
        0x0000fe28:    3f7cdf6c    l.|?    DCD    1065148268
        0x0000fe2c:    3e1f917b    {..>    DCD    1042256251
        0x0000fe30:    3f7ccfae    ..|?    DCD    1065144238
        0x0000fe34:    3e211ea5    ..!>    DCD    1042357925
        0x0000fe38:    3f7cbfc9    ..|?    DCD    1065140169
        0x0000fe3c:    3e22abb6    ..">    DCD    1042459574
        0x0000fe40:    3f7cafbd    ..|?    DCD    1065136061
        0x0000fe44:    3e2438ad    .8$>    DCD    1042561197
        0x0000fe48:    3f7c9f8a    ..|?    DCD    1065131914
        0x0000fe4c:    3e25c58c    ..%>    DCD    1042662796
        0x0000fe50:    3f7c8f31    1.|?    DCD    1065127729
        0x0000fe54:    3e275251    QR'>    DCD    1042764369
        0x0000fe58:    3f7c7eb0    .~|?    DCD    1065123504
        0x0000fe5c:    3e28defc    ..(>    DCD    1042865916
        0x0000fe60:    3f7c6e08    .n|?    DCD    1065119240
        0x0000fe64:    3e2a6b8d    .k*>    DCD    1042967437
        0x0000fe68:    3f7c5d3a    :]|?    DCD    1065114938
        0x0000fe6c:    3e2bf804    ..+>    DCD    1043068932
        0x0000fe70:    3f7c4c44    DL|?    DCD    1065110596
        0x0000fe74:    3e2d8461    a.->    DCD    1043170401
        0x0000fe78:    3f7c3b28    (;|?    DCD    1065106216
        0x0000fe7c:    3e2f10a2    ../>    DCD    1043271842
        0x0000fe80:    3f7c29e5    .)|?    DCD    1065101797
        0x0000fe84:    3e309cc9    ..0>    DCD    1043373257
        0x0000fe88:    3f7c187a    z.|?    DCD    1065097338
        0x0000fe8c:    3e3228d4    .(2>    DCD    1043474644
        0x0000fe90:    3f7c06e9    ..|?    DCD    1065092841
        0x0000fe94:    3e33b4c4    ..3>    DCD    1043576004
        0x0000fe98:    3f7bf531    1.{?    DCD    1065088305
        0x0000fe9c:    3e354098    .@5>    DCD    1043677336
        0x0000fea0:    3f7be353    S.{?    DCD    1065083731
        0x0000fea4:    3e36cc50    P.6>    DCD    1043778640
        0x0000fea8:    3f7bd14d    M.{?    DCD    1065079117
        0x0000feac:    3e3857ec    .W8>    DCD    1043879916
        0x0000feb0:    3f7bbf20     .{?    DCD    1065074464
        0x0000feb4:    3e39e36c    l.9>    DCD    1043981164
        0x0000feb8:    3f7baccd    ..{?    DCD    1065069773
        0x0000febc:    3e3b6ecf    .n;>    DCD    1044082383
        0x0000fec0:    3f7b9a53    S.{?    DCD    1065065043
        0x0000fec4:    3e3cfa15    ..<>    DCD    1044183573
        0x0000fec8:    3f7b87b2    ..{?    DCD    1065060274
        0x0000fecc:    3e3e853e    >.>>    DCD    1044284734
        0x0000fed0:    3f7b74ea    .t{?    DCD    1065055466
        0x0000fed4:    3e401049    I.@>    DCD    1044385865
        0x0000fed8:    3f7b61fc    .a{?    DCD    1065050620
        0x0000fedc:    3e419b37    7.A>    DCD    1044486967
        0x0000fee0:    3f7b4ee7    .N{?    DCD    1065045735
        0x0000fee4:    3e432607    .&C>    DCD    1044588039
        0x0000fee8:    3f7b3bab    .;{?    DCD    1065040811
        0x0000feec:    3e44b0b9    ..D>    DCD    1044689081
        0x0000fef0:    3f7b2848    H({?    DCD    1065035848
        0x0000fef4:    3e463b4d    M;F>    DCD    1044790093
        0x0000fef8:    3f7b14be    ..{?    DCD    1065030846
        0x0000fefc:    3e47c5c2    ..G>    DCD    1044891074
        0x0000ff00:    3f7b010e    ..{?    DCD    1065025806
        0x0000ff04:    3e495018    .PI>    DCD    1044992024
        0x0000ff08:    3f7aed37    7.z?    DCD    1065020727
        0x0000ff0c:    3e4ada4f    O.J>    DCD    1045092943
        0x0000ff10:    3f7ad93a    :.z?    DCD    1065015610
        0x0000ff14:    3e4c6467    gdL>    DCD    1045193831
        0x0000ff18:    3f7ac516    ..z?    DCD    1065010454
        0x0000ff1c:    3e4dee60    `.M>    DCD    1045294688
        0x0000ff20:    3f7ab0cb    ..z?    DCD    1065005259
        0x0000ff24:    3e4f7838    8xO>    DCD    1045395512
        0x0000ff28:    3f7a9c59    Y.z?    DCD    1065000025
        0x0000ff2c:    3e5101f1    ..Q>    DCD    1045496305
        0x0000ff30:    3f7a87c1    ..z?    DCD    1064994753
        0x0000ff34:    3e528b89    ..R>    DCD    1045597065
        0x0000ff38:    3f7a7302    .sz?    DCD    1064989442
        0x0000ff3c:    3e541501    ..T>    DCD    1045697793
        0x0000ff40:    3f7a5e1c    .^z?    DCD    1064984092
        0x0000ff44:    3e559e58    X.U>    DCD    1045798488
        0x0000ff48:    3f7a4910    .Iz?    DCD    1064978704
        0x0000ff4c:    3e57278f    .'W>    DCD    1045899151
        0x0000ff50:    3f7a33dd    .3z?    DCD    1064973277
        0x0000ff54:    3e58b0a4    ..X>    DCD    1045999780
        0x0000ff58:    3f7a1e84    ..z?    DCD    1064967812
        0x0000ff5c:    3e5a3997    .9Z>    DCD    1046100375
        0x0000ff60:    3f7a0904    ..z?    DCD    1064962308
        0x0000ff64:    3e5bc26a    j.[>    DCD    1046200938
        0x0000ff68:    3f79f35e    ^.y?    DCD    1064956766
        0x0000ff6c:    3e5d4b1a    .K]>    DCD    1046301466
        0x0000ff70:    3f79dd91    ..y?    DCD    1064951185
        0x0000ff74:    3e5ed3a8    ..^>    DCD    1046401960
        0x0000ff78:    3f79c79d    ..y?    DCD    1064945565
        0x0000ff7c:    3e605c13    .\`>    DCD    1046502419
        0x0000ff80:    3f79b183    ..y?    DCD    1064939907
        0x0000ff84:    3e61e45c    \.a>    DCD    1046602844
        0x0000ff88:    3f799b43    C.y?    DCD    1064934211
        0x0000ff8c:    3e636c83    .lc>    DCD    1046703235
        0x0000ff90:    3f7984dc    ..y?    DCD    1064928476
        0x0000ff94:    3e64f486    ..d>    DCD    1046803590
        0x0000ff98:    3f796e4e    Nny?    DCD    1064922702
        0x0000ff9c:    3e667c66    f|f>    DCD    1046903910
        0x0000ffa0:    3f79579a    .Wy?    DCD    1064916890
        0x0000ffa4:    3e680422    ".h>    DCD    1047004194
        0x0000ffa8:    3f7940c0    .@y?    DCD    1064911040
        0x0000ffac:    3e698bba    ..i>    DCD    1047104442
        0x0000ffb0:    3f7929bf    .)y?    DCD    1064905151
        0x0000ffb4:    3e6b132f    /.k>    DCD    1047204655
        0x0000ffb8:    3f791298    ..y?    DCD    1064899224
        0x0000ffbc:    3e6c9a7f    ..l>    DCD    1047304831
        0x0000ffc0:    3f78fb4a    J.x?    DCD    1064893258
        0x0000ffc4:    3e6e21ab    .!n>    DCD    1047404971
        0x0000ffc8:    3f78e3d6    ..x?    DCD    1064887254
        0x0000ffcc:    3e6fa8b2    ..o>    DCD    1047505074
        0x0000ffd0:    3f78cc3b    ;.x?    DCD    1064881211
        0x0000ffd4:    3e712f94    ./q>    DCD    1047605140
        0x0000ffd8:    3f78b47b    {.x?    DCD    1064875131
        0x0000ffdc:    3e72b651    Q.r>    DCD    1047705169
        0x0000ffe0:    3f789c93    ..x?    DCD    1064869011
        0x0000ffe4:    3e743ce8    .<t>    DCD    1047805160
        0x0000ffe8:    3f788486    ..x?    DCD    1064862854
        0x0000ffec:    3e75c35a    Z.u>    DCD    1047905114
        0x0000fff0:    3f786c52    Rlx?    DCD    1064856658
        0x0000fff4:    3e7749a6    .Iw>    DCD    1048005030
        0x0000fff8:    3f7853f8    .Sx?    DCD    1064850424
        0x0000fffc:    3e78cfcc    ..x>    DCD    1048104908
        0x00010000:    3f783b77    w;x?    DCD    1064844151
        0x00010004:    3e7a55cb    .Uz>    DCD    1048204747
        0x00010008:    3f7822d1    ."x?    DCD    1064837841
        0x0001000c:    3e7bdba4    ..{>    DCD    1048304548
        0x00010010:    3f780a04    ..x?    DCD    1064831492
        0x00010014:    3e7d6156    Va}>    DCD    1048404310
        0x00010018:    3f77f110    ..w?    DCD    1064825104
        0x0001001c:    3e7ee6e1    ..~>    DCD    1048504033
        0x00010020:    3f77d7f7    ..w?    DCD    1064818679
        0x00010024:    3e803622    "6.>    DCD    1048589858
        0x00010028:    3f77beb7    ..w?    DCD    1064812215
        0x0001002c:    3e80f8c0    ...>    DCD    1048639680
        0x00010030:    3f77a551    Q.w?    DCD    1064805713
        0x00010034:    3e81bb4a    J..>    DCD    1048689482
        0x00010038:    3f778bc5    ..w?    DCD    1064799173
        0x0001003c:    3e827dc0    .}.>    DCD    1048739264
        0x00010040:    3f777213    .rw?    DCD    1064792595
        0x00010044:    3e834022    "@.>    DCD    1048789026
        0x00010048:    3f77583a    :Xw?    DCD    1064785978
        0x0001004c:    3e840270    p..>    DCD    1048838768
        0x00010050:    3f773e3c    <>w?    DCD    1064779324
        0x00010054:    3e84c4aa    ...>    DCD    1048888490
        0x00010058:    3f772417    .$w?    DCD    1064772631
        0x0001005c:    3e8586ce    ...>    DCD    1048938190
        0x00010060:    3f7709cc    ..w?    DCD    1064765900
        0x00010064:    3e8648df    .H.>    DCD    1048987871
        0x00010068:    3f76ef5b    [.v?    DCD    1064759131
        0x0001006c:    3e870ada    ...>    DCD    1049037530
        0x00010070:    3f76d4c4    ..v?    DCD    1064752324
        0x00010074:    3e87ccc1    ...>    DCD    1049087169
        0x00010078:    3f76ba07    ..v?    DCD    1064745479
        0x0001007c:    3e888e93    ...>    DCD    1049136787
        0x00010080:    3f769f24    $.v?    DCD    1064738596
        0x00010084:    3e895050    PP.>    DCD    1049186384
        0x00010088:    3f76841b    ..v?    DCD    1064731675
        0x0001008c:    3e8a11f8    ...>    DCD    1049235960
        0x00010090:    3f7668ec    .hv?    DCD    1064724716
        0x00010094:    3e8ad38a    ...>    DCD    1049285514
        0x00010098:    3f764d97    .Mv?    DCD    1064717719
        0x0001009c:    3e8b9507    ...>    DCD    1049335047
        0x000100a0:    3f76321b    .2v?    DCD    1064710683
        0x000100a4:    3e8c566e    nV.>    DCD    1049384558
        0x000100a8:    3f76167a    z.v?    DCD    1064703610
        0x000100ac:    3e8d17c0    ...>    DCD    1049434048
        0x000100b0:    3f75fab3    ..u?    DCD    1064696499
        0x000100b4:    3e8dd8fc    ...>    DCD    1049483516
        0x000100b8:    3f75dec6    ..u?    DCD    1064689350
        0x000100bc:    3e8e9a22    "..>    DCD    1049532962
        0x000100c0:    3f75c2b3    ..u?    DCD    1064682163
        0x000100c4:    3e8f5b32    2[.>    DCD    1049582386
        0x000100c8:    3f75a67b    {.u?    DCD    1064674939
        0x000100cc:    3e901c2c    ,..>    DCD    1049631788
        0x000100d0:    3f758a1c    ..u?    DCD    1064667676
        0x000100d4:    3e90dd10    ...>    DCD    1049681168
        0x000100d8:    3f756d97    .mu?    DCD    1064660375
        0x000100dc:    3e919ddd    ...>    DCD    1049730525
        0x000100e0:    3f7550ed    .Pu?    DCD    1064653037
        0x000100e4:    3e925e94    .^.>    DCD    1049779860
        0x000100e8:    3f75341d    .4u?    DCD    1064645661
        0x000100ec:    3e931f35    5..>    DCD    1049829173
        0x000100f0:    3f751727    '.u?    DCD    1064638247
        0x000100f4:    3e93dfbf    ...>    DCD    1049878463
        0x000100f8:    3f74fa0b    ..t?    DCD    1064630795
        0x000100fc:    3e94a031    1..>    DCD    1049927729
        0x00010100:    3f74dcc9    ..t?    DCD    1064623305
        0x00010104:    3e95608d    .`.>    DCD    1049976973
        0x00010108:    3f74bf62    b.t?    DCD    1064615778
        0x0001010c:    3e9620d2    . .>    DCD    1050026194
        0x00010110:    3f74a1d5    ..t?    DCD    1064608213
        0x00010114:    3e96e100    ...>    DCD    1050075392
        0x00010118:    3f748422    ".t?    DCD    1064600610
        0x0001011c:    3e97a117    ...>    DCD    1050124567
        0x00010120:    3f746649    Ift?    DCD    1064592969
        0x00010124:    3e986116    .a.>    DCD    1050173718
        0x00010128:    3f74484b    KHt?    DCD    1064585291
        0x0001012c:    3e9920fe    . .>    DCD    1050222846
        0x00010130:    3f742a27    '*t?    DCD    1064577575
        0x00010134:    3e99e0ce    ...>    DCD    1050271950
        0x00010138:    3f740bdd    ..t?    DCD    1064569821
        0x0001013c:    3e9aa086    ...>    DCD    1050321030
        0x00010140:    3f73ed6e    n.s?    DCD    1064562030
        0x00010144:    3e9b6027    '`.>    DCD    1050370087
        0x00010148:    3f73ced9    ..s?    DCD    1064554201
        0x0001014c:    3e9c1faf    ...>    DCD    1050419119
        0x00010150:    3f73b01f    ..s?    DCD    1064546335
        0x00010154:    3e9cdf20     ..>    DCD    1050468128
        0x00010158:    3f73913f    ?.s?    DCD    1064538431
        0x0001015c:    3e9d9e78    x..>    DCD    1050517112
        0x00010160:    3f737239    9rs?    DCD    1064530489
        0x00010164:    3e9e5db8    .].>    DCD    1050566072
        0x00010168:    3f73530e    .Ss?    DCD    1064522510
        0x0001016c:    3e9f1cdf    ...>    DCD    1050615007
        0x00010170:    3f7333be    .3s?    DCD    1064514494
        0x00010174:    3e9fdbee    ...>    DCD    1050663918
        0x00010178:    3f731447    G.s?    DCD    1064506439
        0x0001017c:    3ea09ae5    ...>    DCD    1050712805
        0x00010180:    3f72f4ac    ..r?    DCD    1064498348
        0x00010184:    3ea159c2    .Y.>    DCD    1050761666
        0x00010188:    3f72d4eb    ..r?    DCD    1064490219
        0x0001018c:    3ea21887    ...>    DCD    1050810503
        0x00010190:    3f72b504    ..r?    DCD    1064482052
        0x00010194:    3ea2d733    3..>    DCD    1050859315
        0x00010198:    3f7294f8    ..r?    DCD    1064473848
        0x0001019c:    3ea395c5    ...>    DCD    1050908101
        0x000101a0:    3f7274c7    .tr?    DCD    1064465607
        0x000101a4:    3ea4543f    ?T.>    DCD    1050956863
        0x000101a8:    3f725470    pTr?    DCD    1064457328
        0x000101ac:    3ea5129f    ...>    DCD    1051005599
        0x000101b0:    3f7233f4    .3r?    DCD    1064449012
        0x000101b4:    3ea5d0e5    ...>    DCD    1051054309
        0x000101b8:    3f721352    R.r?    DCD    1064440658
        0x000101bc:    3ea68f12    ...>    DCD    1051102994
        0x000101c0:    3f71f28c    ..q?    DCD    1064432268
        0x000101c4:    3ea74d25    %M.>    DCD    1051151653
        0x000101c8:    3f71d19f    ..q?    DCD    1064423839
        0x000101cc:    3ea80b1f    ...>    DCD    1051200287
        0x000101d0:    3f71b08e    ..q?    DCD    1064415374
        0x000101d4:    3ea8c8fe    ...>    DCD    1051248894
        0x000101d8:    3f718f57    W.q?    DCD    1064406871
        0x000101dc:    3ea986c4    ...>    DCD    1051297476
        0x000101e0:    3f716dfb    .mq?    DCD    1064398331
        0x000101e4:    3eaa446f    oD.>    DCD    1051346031
        0x000101e8:    3f714c7a    zLq?    DCD    1064389754
        0x000101ec:    3eab0201    ...>    DCD    1051394561
        0x000101f0:    3f712ad4    .*q?    DCD    1064381140
        0x000101f4:    3eabbf77    w..>    DCD    1051443063
        0x000101f8:    3f710908    ..q?    DCD    1064372488
        0x000101fc:    3eac7cd4    .|.>    DCD    1051491540
        0x00010200:    3f70e717    ..p?    DCD    1064363799
        0x00010204:    3ead3a15    .:.>    DCD    1051539989
        0x00010208:    3f70c502    ..p?    DCD    1064355074
        0x0001020c:    3eadf73c    <..>    DCD    1051588412
        0x00010210:    3f70a2c6    ..p?    DCD    1064346310
        0x00010214:    3eaeb449    I..>    DCD    1051636809
        0x00010218:    3f708066    f.p?    DCD    1064337510
        0x0001021c:    3eaf713a    :q.>    DCD    1051685178
        0x00010220:    3f705de1    .]p?    DCD    1064328673
        0x00010224:    3eb02e10    ...>    DCD    1051733520
        0x00010228:    3f703b37    7;p?    DCD    1064319799
        0x0001022c:    3eb0eacb    ...>    DCD    1051781835
        0x00010230:    3f701867    g.p?    DCD    1064310887
        0x00010234:    3eb1a76b    k..>    DCD    1051830123
        0x00010238:    3f6ff573    s.o?    DCD    1064301939
        0x0001023c:    3eb263ef    .c.>    DCD    1051878383
        0x00010240:    3f6fd25a    Z.o?    DCD    1064292954
        0x00010244:    3eb32058    X .>    DCD    1051926616
        0x00010248:    3f6faf1b    ..o?    DCD    1064283931
        0x0001024c:    3eb3dca5    ...>    DCD    1051974821
        0x00010250:    3f6f8bb8    ..o?    DCD    1064274872
        0x00010254:    3eb498d6    ...>    DCD    1052022998
        0x00010258:    3f6f6830    0ho?    DCD    1064265776
        0x0001025c:    3eb554ec    .T.>    DCD    1052071148
        0x00010260:    3f6f4483    .Do?    DCD    1064256643
        0x00010264:    3eb610e6    ...>    DCD    1052119270
        0x00010268:    3f6f20b0    . o?    DCD    1064247472
        0x0001026c:    3eb6ccc3    ...>    DCD    1052167363
        0x00010270:    3f6efcba    ..n?    DCD    1064238266
        0x00010274:    3eb78884    ...>    DCD    1052215428
        0x00010278:    3f6ed89e    ..n?    DCD    1064229022
        0x0001027c:    3eb8442a    *D.>    DCD    1052263466
        0x00010280:    3f6eb45d    ].n?    DCD    1064219741
        0x00010284:    3eb8ffb2    ...>    DCD    1052311474
        0x00010288:    3f6e8ff8    ..n?    DCD    1064210424
        0x0001028c:    3eb9bb1e    ...>    DCD    1052359454
        0x00010290:    3f6e6b6d    mkn?    DCD    1064201069
        0x00010294:    3eba766e    nv.>    DCD    1052407406
        0x00010298:    3f6e46be    .Fn?    DCD    1064191678
        0x0001029c:    3ebb31a0    .1.>    DCD    1052455328
        0x000102a0:    3f6e21eb    .!n?    DCD    1064182251
        0x000102a4:    3ebbecb6    ...>    DCD    1052503222
        0x000102a8:    3f6dfcf2    ..m?    DCD    1064172786
        0x000102ac:    3ebca7af    ...>    DCD    1052551087
        0x000102b0:    3f6dd7d5    ..m?    DCD    1064163285
        0x000102b4:    3ebd628b    .b.>    DCD    1052598923
        0x000102b8:    3f6db293    ..m?    DCD    1064153747
        0x000102bc:    3ebe1d4a    J..>    DCD    1052646730
        0x000102c0:    3f6d8d2d    -.m?    DCD    1064144173
        0x000102c4:    3ebed7eb    ...>    DCD    1052694507
        0x000102c8:    3f6d67a1    .gm?    DCD    1064134561
        0x000102cc:    3ebf926f    o..>    DCD    1052742255
        0x000102d0:    3f6d41f2    .Am?    DCD    1064124914
        0x000102d4:    3ec04cd5    .L.>    DCD    1052789973
        0x000102d8:    3f6d1c1d    ..m?    DCD    1064115229
        0x000102dc:    3ec1071e    ...>    DCD    1052837662
        0x000102e0:    3f6cf624    $.l?    DCD    1064105508
        0x000102e4:    3ec1c148    H..>    DCD    1052885320
        0x000102e8:    3f6cd007    ..l?    DCD    1064095751
        0x000102ec:    3ec27b55    U{.>    DCD    1052932949
        0x000102f0:    3f6ca9c5    ..l?    DCD    1064085957
        0x000102f4:    3ec33544    D5.>    DCD    1052980548
        0x000102f8:    3f6c835e    ^.l?    DCD    1064076126
        0x000102fc:    3ec3ef15    ...>    DCD    1053028117
        0x00010300:    3f6c5cd4    .\l?    DCD    1064066260
        0x00010304:    3ec4a8c8    ...>    DCD    1053075656
        0x00010308:    3f6c3624    $6l?    DCD    1064056356
        0x0001030c:    3ec5625c    \b.>    DCD    1053123164
        0x00010310:    3f6c0f50    P.l?    DCD    1064046416
        0x00010314:    3ec61bd2    ...>    DCD    1053170642
        0x00010318:    3f6be858    X.k?    DCD    1064036440
        0x0001031c:    3ec6d529    )..>    DCD    1053218089
        0x00010320:    3f6bc13b    ;.k?    DCD    1064026427
        0x00010324:    3ec78e62    b..>    DCD    1053265506
        0x00010328:    3f6b99fb    ..k?    DCD    1064016379
        0x0001032c:    3ec8477c    |G.>    DCD    1053312892
        0x00010330:    3f6b7295    .rk?    DCD    1064006293
        0x00010334:    3ec90077    w..>    DCD    1053360247
        0x00010338:    3f6b4b0c    .Kk?    DCD    1063996172
        0x0001033c:    3ec9b953    S..>    DCD    1053407571
        0x00010340:    3f6b235e    ^#k?    DCD    1063986014
        0x00010344:    3eca7210    .r.>    DCD    1053454864
        0x00010348:    3f6afb8c    ..j?    DCD    1063975820
        0x0001034c:    3ecb2aae    .*.>    DCD    1053502126
        0x00010350:    3f6ad395    ..j?    DCD    1063965589
        0x00010354:    3ecbe32c    ,..>    DCD    1053549356
        0x00010358:    3f6aab7b    {.j?    DCD    1063955323
        0x0001035c:    3ecc9b8b    ...>    DCD    1053596555
        0x00010360:    3f6a833c    <.j?    DCD    1063945020
        0x00010364:    3ecd53ca    .S.>    DCD    1053643722
        0x00010368:    3f6a5ad9    .Zj?    DCD    1063934681
        0x0001036c:    3ece0bea    ...>    DCD    1053690858
        0x00010370:    3f6a3252    R2j?    DCD    1063924306
        0x00010374:    3ecec3ea    ...>    DCD    1053737962
        0x00010378:    3f6a09a7    ..j?    DCD    1063913895
        0x0001037c:    3ecf7bca    .{.>    DCD    1053785034
        0x00010380:    3f69e0d7    ..i?    DCD    1063903447
        0x00010384:    3ed0338a    .3.>    DCD    1053832074
        0x00010388:    3f69b7e4    ..i?    DCD    1063892964
        0x0001038c:    3ed0eb2a    *..>    DCD    1053879082
        0x00010390:    3f698ecc    ..i?    DCD    1063882444
        0x00010394:    3ed1a2aa    ...>    DCD    1053926058
        0x00010398:    3f696591    .ei?    DCD    1063871889
        0x0001039c:    3ed25a09    .Z.>    DCD    1053973001
        0x000103a0:    3f693c32    2<i?    DCD    1063861298
        0x000103a4:    3ed31148    H..>    DCD    1054019912
        0x000103a8:    3f6912ae    ..i?    DCD    1063850670
        0x000103ac:    3ed3c867    g..>    DCD    1054066791
        0x000103b0:    3f68e907    ..h?    DCD    1063840007
        0x000103b4:    3ed47f64    d..>    DCD    1054113636
        0x000103b8:    3f68bf3c    <.h?    DCD    1063829308
        0x000103bc:    3ed53641    A6.>    DCD    1054160449
        0x000103c0:    3f68954c    L.h?    DCD    1063818572
        0x000103c4:    3ed5ecfd    ...>    DCD    1054207229
        0x000103c8:    3f686b39    9kh?    DCD    1063807801
        0x000103cc:    3ed6a399    ...>    DCD    1054253977
        0x000103d0:    3f684103    .Ah?    DCD    1063796995
        0x000103d4:    3ed75a13    .Z.>    DCD    1054300691
        0x000103d8:    3f6816a8    ..h?    DCD    1063786152
        0x000103dc:    3ed8106b    k..>    DCD    1054347371
        0x000103e0:    3f67ec2a    *.g?    DCD    1063775274
        0x000103e4:    3ed8c6a3    ...>    DCD    1054394019
        0x000103e8:    3f67c187    ..g?    DCD    1063764359
        0x000103ec:    3ed97cb9    .|.>    DCD    1054440633
        0x000103f0:    3f6796c1    ..g?    DCD    1063753409
        0x000103f4:    3eda32ad    .2.>    DCD    1054487213
        0x000103f8:    3f676bd8    .kg?    DCD    1063742424
        0x000103fc:    3edae880    ...>    DCD    1054533760
        0x00010400:    3f6740ca    .@g?    DCD    1063731402
        0x00010404:    3edb9e31    1..>    DCD    1054580273
        0x00010408:    3f671599    ..g?    DCD    1063720345
        0x0001040c:    3edc53c1    .S.>    DCD    1054626753
        0x00010410:    3f66ea45    E.f?    DCD    1063709253
        0x00010414:    3edd092e    ...>    DCD    1054673198
        0x00010418:    3f66becc    ..f?    DCD    1063698124
        0x0001041c:    3eddbe79    y..>    DCD    1054719609
        0x00010420:    3f669330    0.f?    DCD    1063686960
        0x00010424:    3ede73a2    .s.>    DCD    1054765986
        0x00010428:    3f666771    qgf?    DCD    1063675761
        0x0001042c:    3edf28a9    .(.>    DCD    1054812329
        0x00010430:    3f663b8e    .;f?    DCD    1063664526
        0x00010434:    3edfdd8d    ...>    DCD    1054858637
        0x00010438:    3f660f88    ..f?    DCD    1063653256
        0x0001043c:    3ee0924f    O..>    DCD    1054904911
        0x00010440:    3f65e35e    ^.e?    DCD    1063641950
        0x00010444:    3ee146ee    .F.>    DCD    1054951150
        0x00010448:    3f65b710    ..e?    DCD    1063630608
        0x0001044c:    3ee1fb6a    j..>    DCD    1054997354
        0x00010450:    3f658aa0    ..e?    DCD    1063619232
        0x00010454:    3ee2afc4    ...>    DCD    1055043524
        0x00010458:    3f655e0b    .^e?    DCD    1063607819
        0x0001045c:    3ee363fa    .c.>    DCD    1055089658
        0x00010460:    3f653154    T1e?    DCD    1063596372
        0x00010464:    3ee4180e    ...>    DCD    1055135758
        0x00010468:    3f650479    y.e?    DCD    1063584889
        0x0001046c:    3ee4cbfe    ...>    DCD    1055181822
        0x00010470:    3f64d77b    {.d?    DCD    1063573371
        0x00010474:    3ee57fcb    ...>    DCD    1055227851
        0x00010478:    3f64aa59    Y.d?    DCD    1063561817
        0x0001047c:    3ee63375    u3.>    DCD    1055273845
        0x00010480:    3f647d14    .}d?    DCD    1063550228
        0x00010484:    3ee6e6fb    ...>    DCD    1055319803
        0x00010488:    3f644fac    .Od?    DCD    1063538604
        0x0001048c:    3ee79a5d    ]..>    DCD    1055365725
        0x00010490:    3f642221    !"d?    DCD    1063526945
        0x00010494:    3ee84d9c    .M.>    DCD    1055411612
        0x00010498:    3f63f473    s.c?    DCD    1063515251
        0x0001049c:    3ee900b7    ...>    DCD    1055457463
        0x000104a0:    3f63c6a1    ..c?    DCD    1063503521
        0x000104a4:    3ee9b3ae    ...>    DCD    1055503278
        0x000104a8:    3f6398ac    ..c?    DCD    1063491756
        0x000104ac:    3eea6681    .f.>    DCD    1055549057
        0x000104b0:    3f636a95    .jc?    DCD    1063479957
        0x000104b4:    3eeb1930    0..>    DCD    1055594800
        0x000104b8:    3f633c5a    Z<c?    DCD    1063468122
        0x000104bc:    3eebcbbb    ...>    DCD    1055640507
        0x000104c0:    3f630dfc    ..c?    DCD    1063456252
        0x000104c4:    3eec7e21    !~.>    DCD    1055686177
        0x000104c8:    3f62df7b    {.b?    DCD    1063444347
        0x000104cc:    3eed3063    c0.>    DCD    1055731811
        0x000104d0:    3f62b0d7    ..b?    DCD    1063432407
        0x000104d4:    3eede280    ...>    DCD    1055777408
        0x000104d8:    3f628210    ..b?    DCD    1063420432
        0x000104dc:    3eee9479    y..>    DCD    1055822969
        0x000104e0:    3f625326    &Sb?    DCD    1063408422
        0x000104e4:    3eef464c    LF.>    DCD    1055868492
        0x000104e8:    3f62241a    .$b?    DCD    1063396378
        0x000104ec:    3eeff7fb    ...>    DCD    1055913979
        0x000104f0:    3f61f4ea    ..a?    DCD    1063384298
        0x000104f4:    3ef0a985    ...>    DCD    1055959429
        0x000104f8:    3f61c598    ..a?    DCD    1063372184
        0x000104fc:    3ef15aea    .Z.>    DCD    1056004842
        0x00010500:    3f619622    ".a?    DCD    1063360034
        0x00010504:    3ef20c29    )..>    DCD    1056050217
        0x00010508:    3f61668a    .fa?    DCD    1063347850
        0x0001050c:    3ef2bd43    C..>    DCD    1056095555
        0x00010510:    3f6136d0    .6a?    DCD    1063335632
        0x00010514:    3ef36e38    8n.>    DCD    1056140856
        0x00010518:    3f6106f2    ..a?    DCD    1063323378
        0x0001051c:    3ef41f07    ...>    DCD    1056186119
        0x00010520:    3f60d6f2    ..`?    DCD    1063311090
        0x00010524:    3ef4cfb1    ...>    DCD    1056231345
        0x00010528:    3f60a6cf    ..`?    DCD    1063298767
        0x0001052c:    3ef58035    5..>    DCD    1056276533
        0x00010530:    3f607689    .v`?    DCD    1063286409
        0x00010534:    3ef63093    .0.>    DCD    1056321683
        0x00010538:    3f604621    !F`?    DCD    1063274017
        0x0001053c:    3ef6e0cb    ...>    DCD    1056366795
        0x00010540:    3f601596    ..`?    DCD    1063261590
        0x00010544:    3ef790dc    ...>    DCD    1056411868
        0x00010548:    3f5fe4e9    .._?    DCD    1063249129
        0x0001054c:    3ef840c8    .@.>    DCD    1056456904
        0x00010550:    3f5fb419    .._?    DCD    1063236633
        0x00010554:    3ef8f08e    ...>    DCD    1056501902
        0x00010558:    3f5f8327    '._?    DCD    1063224103
        0x0001055c:    3ef9a02d    -..>    DCD    1056546861
        0x00010560:    3f5f5212    .R_?    DCD    1063211538
        0x00010564:    3efa4fa5    .O.>    DCD    1056591781
        0x00010568:    3f5f20db    . _?    DCD    1063198939
        0x0001056c:    3efafef7    ...>    DCD    1056636663
        0x00010570:    3f5eef81    ..^?    DCD    1063186305
        0x00010574:    3efbae22    "..>    DCD    1056681506
        0x00010578:    3f5ebe05    ..^?    DCD    1063173637
        0x0001057c:    3efc5d27    '].>    DCD    1056726311
        0x00010580:    3f5e8c67    g.^?    DCD    1063160935
        0x00010584:    3efd0c04    ...>    DCD    1056771076
        0x00010588:    3f5e5aa6    .Z^?    DCD    1063148198
        0x0001058c:    3efdbabb    ...>    DCD    1056815803
        0x00010590:    3f5e28c3    .(^?    DCD    1063135427
        0x00010594:    3efe694a    Ji.>    DCD    1056860490
        0x00010598:    3f5df6be    ..]?    DCD    1063122622
        0x0001059c:    3eff17b2    ...>    DCD    1056905138
        0x000105a0:    3f5dc497    ..]?    DCD    1063109783
        0x000105a4:    3effc5f3    ...>    DCD    1056949747
        0x000105a8:    3f5d924d    M.]?    DCD    1063096909
        0x000105ac:    3f003a06    .:.?    DCD    1056979462
        0x000105b0:    3f5d5fe1    ._]?    DCD    1063084001
        0x000105b4:    3f0090ff    ...?    DCD    1057001727
        0x000105b8:    3f5d2d53    S-]?    DCD    1063071059
        0x000105bc:    3f00e7e4    ...?    DCD    1057023972
        0x000105c0:    3f5cfaa3    ..\?    DCD    1063058083
        0x000105c4:    3f013eb5    .>.?    DCD    1057046197
        0x000105c8:    3f5cc7d1    ..\?    DCD    1063045073
        0x000105cc:    3f019573    s..?    DCD    1057068403
        0x000105d0:    3f5c94dd    ..\?    DCD    1063032029
        0x000105d4:    3f01ec1c    ...?    DCD    1057090588
        0x000105d8:    3f5c61c7    .a\?    DCD    1063018951
        0x000105dc:    3f0242b1    .B.?    DCD    1057112753
        0x000105e0:    3f5c2e8e    ..\?    DCD    1063005838
        0x000105e4:    3f029932    2..?    DCD    1057134898
        0x000105e8:    3f5bfb34    4.[?    DCD    1062992692
        0x000105ec:    3f02ef9f    ...?    DCD    1057157023
        0x000105f0:    3f5bc7b8    ..[?    DCD    1062979512
        0x000105f4:    3f0345f8    .E.?    DCD    1057179128
        0x000105f8:    3f5b941a    ..[?    DCD    1062966298
        0x000105fc:    3f039c3d    =..?    DCD    1057201213
        0x00010600:    3f5b605a    Z`[?    DCD    1062953050
        0x00010604:    3f03f26d    m..?    DCD    1057223277
        0x00010608:    3f5b2c79    y,[?    DCD    1062939769
        0x0001060c:    3f044889    .H.?    DCD    1057245321
        0x00010610:    3f5af875    u.Z?    DCD    1062926453
        0x00010614:    3f049e91    ...?    DCD    1057267345
        0x00010618:    3f5ac450    P.Z?    DCD    1062913104
        0x0001061c:    3f04f484    ...?    DCD    1057289348
        0x00010620:    3f5a9009    ..Z?    DCD    1062899721
        0x00010624:    3f054a62    bJ.?    DCD    1057311330
        0x00010628:    3f5a5ba0    .[Z?    DCD    1062886304
        0x0001062c:    3f05a02c    ,..?    DCD    1057333292
        0x00010630:    3f5a2716    .'Z?    DCD    1062872854
        0x00010634:    3f05f5e2    ...?    DCD    1057355234
        0x00010638:    3f59f26a    j.Y?    DCD    1062859370
        0x0001063c:    3f064b82    .K.?    DCD    1057377154
        0x00010640:    3f59bd9c    ..Y?    DCD    1062845852
        0x00010644:    3f06a10e    ...?    DCD    1057399054
        0x00010648:    3f5988ad    ..Y?    DCD    1062832301
        0x0001064c:    3f06f686    ...?    DCD    1057420934
        0x00010650:    3f59539c    .SY?    DCD    1062818716
        0x00010654:    3f074be8    .K.?    DCD    1057442792
        0x00010658:    3f591e6a    j.Y?    DCD    1062805098
        0x0001065c:    3f07a136    6..?    DCD    1057464630
        0x00010660:    3f58e917    ..X?    DCD    1062791447
        0x00010664:    3f07f66f    o..?    DCD    1057486447
        0x00010668:    3f58b3a1    ..X?    DCD    1062777761
        0x0001066c:    3f084b92    .K.?    DCD    1057508242
        0x00010670:    3f587e0b    .~X?    DCD    1062764043
        0x00010674:    3f08a0a1    ...?    DCD    1057530017
        0x00010678:    3f584853    SHX?    DCD    1062750291
        0x0001067c:    3f08f59b    ...?    DCD    1057551771
        0x00010680:    3f581279    y.X?    DCD    1062736505
        0x00010684:    3f094a7f    .J.?    DCD    1057573503
        0x00010688:    3f57dc7f    ..W?    DCD    1062722687
        0x0001068c:    3f099f4e    N..?    DCD    1057595214
        0x00010690:    3f57a663    c.W?    DCD    1062708835
        0x00010694:    3f09f409    ...?    DCD    1057616905
        0x00010698:    3f577026    &pW?    DCD    1062694950
        0x0001069c:    3f0a48ad    .H.?    DCD    1057638573
        0x000106a0:    3f5739c7    .9W?    DCD    1062681031
        0x000106a4:    3f0a9d3d    =..?    DCD    1057660221
        0x000106a8:    3f570348    H.W?    DCD    1062667080
        0x000106ac:    3f0af1b7    ...?    DCD    1057681847
        0x000106b0:    3f56cca7    ..V?    DCD    1062653095
        0x000106b4:    3f0b461c    .F.?    DCD    1057703452
        0x000106b8:    3f5695e5    ..V?    DCD    1062639077
        0x000106bc:    3f0b9a6b    k..?    DCD    1057725035
        0x000106c0:    3f565f02    ._V?    DCD    1062625026
        0x000106c4:    3f0beea5    ...?    DCD    1057746597
        0x000106c8:    3f5627fe    .'V?    DCD    1062610942
        0x000106cc:    3f0c42c9    .B.?    DCD    1057768137
        0x000106d0:    3f55f0d9    ..U?    DCD    1062596825
        0x000106d4:    3f0c96d7    ...?    DCD    1057789655
        0x000106d8:    3f55b993    ..U?    DCD    1062582675
        0x000106dc:    3f0cead0    ...?    DCD    1057811152
        0x000106e0:    3f55822c    ,.U?    DCD    1062568492
        0x000106e4:    3f0d3eb3    .>.?    DCD    1057832627
        0x000106e8:    3f554aa4    .JU?    DCD    1062554276
        0x000106ec:    3f0d9281    ...?    DCD    1057854081
        0x000106f0:    3f5512fb    ..U?    DCD    1062540027
        0x000106f4:    3f0de638    8..?    DCD    1057875512
        0x000106f8:    3f54db31    1.T?    DCD    1062525745
        0x000106fc:    3f0e39da    .9.?    DCD    1057896922
        0x00010700:    3f54a347    G.T?    DCD    1062511431
        0x00010704:    3f0e8d65    e..?    DCD    1057918309
        0x00010708:    3f546b3b    ;kT?    DCD    1062497083
        0x0001070c:    3f0ee0db    ...?    DCD    1057939675
        0x00010710:    3f54330f    .3T?    DCD    1062482703
        0x00010714:    3f0f343b    ;4.?    DCD    1057961019
        0x00010718:    3f53fac3    ..S?    DCD    1062468291
        0x0001071c:    3f0f8784    ...?    DCD    1057982340
        0x00010720:    3f53c255    U.S?    DCD    1062453845
        0x00010724:    3f0fdab8    ...?    DCD    1058003640
        0x00010728:    3f5389c7    ..S?    DCD    1062439367
        0x0001072c:    3f102dd5    .-.?    DCD    1058024917
        0x00010730:    3f535118    .QS?    DCD    1062424856
        0x00010734:    3f1080dc    ...?    DCD    1058046172
        0x00010738:    3f531849    I.S?    DCD    1062410313
        0x0001073c:    3f10d3cd    ...?    DCD    1058067405
        0x00010740:    3f52df59    Y.R?    DCD    1062395737
        0x00010744:    3f1126a7    .&.?    DCD    1058088615
        0x00010748:    3f52a649    I.R?    DCD    1062381129
        0x0001074c:    3f11796b    ky.?    DCD    1058109803
        0x00010750:    3f526d18    .mR?    DCD    1062366488
        0x00010754:    3f11cc19    ...?    DCD    1058130969
        0x00010758:    3f5233c6    .3R?    DCD    1062351814
        0x0001075c:    3f121eb0    ...?    DCD    1058152112
        0x00010760:    3f51fa54    T.Q?    DCD    1062337108
        0x00010764:    3f127130    0q.?    DCD    1058173232
        0x00010768:    3f51c0c2    ..Q?    DCD    1062322370
        0x0001076c:    3f12c39a    ...?    DCD    1058194330
        0x00010770:    3f518710    ..Q?    DCD    1062307600
        0x00010774:    3f1315ee    ...?    DCD    1058215406
        0x00010778:    3f514d3d    =MQ?    DCD    1062292797
        0x0001077c:    3f13682a    *h.?    DCD    1058236458
        0x00010780:    3f51134a    J.Q?    DCD    1062277962
        0x00010784:    3f13ba50    P..?    DCD    1058257488
        0x00010788:    3f50d937    7.P?    DCD    1062263095
        0x0001078c:    3f140c5f    _..?    DCD    1058278495
        0x00010790:    3f509f03    ..P?    DCD    1062248195
        0x00010794:    3f145e58    X^.?    DCD    1058299480
        0x00010798:    3f5064af    .dP?    DCD    1062233263
        0x0001079c:    3f14b039    9..?    DCD    1058320441
        0x000107a0:    3f502a3b    ;*P?    DCD    1062218299
        0x000107a4:    3f150204    ...?    DCD    1058341380
        0x000107a8:    3f4fefa8    ..O?    DCD    1062203304
        0x000107ac:    3f1553b7    .S.?    DCD    1058362295
        0x000107b0:    3f4fb4f4    ..O?    DCD    1062188276
        0x000107b4:    3f15a554    T..?    DCD    1058383188
        0x000107b8:    3f4f7a1f    .zO?    DCD    1062173215
        0x000107bc:    3f15f6d9    ...?    DCD    1058404057
        0x000107c0:    3f4f3f2b    +?O?    DCD    1062158123
        0x000107c4:    3f164847    GH.?    DCD    1058424903
        0x000107c8:    3f4f0417    ..O?    DCD    1062142999
        0x000107cc:    3f16999f    ...?    DCD    1058445727
        0x000107d0:    3f4ec8e4    ..N?    DCD    1062127844
        0x000107d4:    3f16eadf    ...?    DCD    1058466527
        0x000107d8:    3f4e8d90    ..N?    DCD    1062112656
        0x000107dc:    3f173c07    .<.?    DCD    1058487303
        0x000107e0:    3f4e521c    .RN?    DCD    1062097436
        0x000107e4:    3f178d18    ...?    DCD    1058508056
        0x000107e8:    3f4e1689    ..N?    DCD    1062082185
        0x000107ec:    3f17de12    ...?    DCD    1058528786
        0x000107f0:    3f4ddad5    ..M?    DCD    1062066901
        0x000107f4:    3f182ef5    ...?    DCD    1058549493
        0x000107f8:    3f4d9f02    ..M?    DCD    1062051586
        0x000107fc:    3f187fc0    ...?    DCD    1058570176
        0x00010800:    3f4d6310    .cM?    DCD    1062036240
        0x00010804:    3f18d073    s..?    DCD    1058590835
        0x00010808:    3f4d26fd    .&M?    DCD    1062020861
        0x0001080c:    3f19210f    .!.?    DCD    1058611471
        0x00010810:    3f4ceacb    ..L?    DCD    1062005451
        0x00010814:    3f197194    .q.?    DCD    1058632084
        0x00010818:    3f4cae79    y.L?    DCD    1061990009
        0x0001081c:    3f19c200    ...?    DCD    1058652672
        0x00010820:    3f4c7208    .rL?    DCD    1061974536
        0x00010824:    3f1a1255    U..?    DCD    1058673237
        0x00010828:    3f4c3578    x5L?    DCD    1061959032
        0x0001082c:    3f1a6293    .b.?    DCD    1058693779
        0x00010830:    3f4bf8c7    ..K?    DCD    1061943495
        0x00010834:    3f1ab2b8    ...?    DCD    1058714296
        0x00010838:    3f4bbbf8    ..K?    DCD    1061927928
        0x0001083c:    3f1b02c6    ...?    DCD    1058734790
        0x00010840:    3f4b7f09    ..K?    DCD    1061912329
        0x00010844:    3f1b52bb    .R.?    DCD    1058755259
        0x00010848:    3f4b41fa    .AK?    DCD    1061896698
        0x0001084c:    3f1ba299    ...?    DCD    1058775705
        0x00010850:    3f4b04cc    ..K?    DCD    1061881036
        0x00010854:    3f1bf25f    _..?    DCD    1058796127
        0x00010858:    3f4ac77f    ..J?    DCD    1061865343
        0x0001085c:    3f1c420c    .B.?    DCD    1058816524
        0x00010860:    3f4a8a13    ..J?    DCD    1061849619
        0x00010864:    3f1c91a2    ...?    DCD    1058836898
        0x00010868:    3f4a4c87    .LJ?    DCD    1061833863
        0x0001086c:    3f1ce11f    ...?    DCD    1058857247
        0x00010870:    3f4a0edc    ..J?    DCD    1061818076
        0x00010874:    3f1d3084    .0.?    DCD    1058877572
        0x00010878:    3f49d112    ..I?    DCD    1061802258
        0x0001087c:    3f1d7fd1    ...?    DCD    1058897873
        0x00010880:    3f499329    ).I?    DCD    1061786409
        0x00010884:    3f1dcf06    ...?    DCD    1058918150
        0x00010888:    3f495521    !UI?    DCD    1061770529
        0x0001088c:    3f1e1e22    "..?    DCD    1058938402
        0x00010890:    3f4916fa    ..I?    DCD    1061754618
        0x00010894:    3f1e6d26    &m.?    DCD    1058958630
        0x00010898:    3f48d8b3    ..H?    DCD    1061738675
        0x0001089c:    3f1ebc12    ...?    DCD    1058978834
        0x000108a0:    3f489a4e    N.H?    DCD    1061722702
        0x000108a4:    3f1f0ae5    ...?    DCD    1058999013
        0x000108a8:    3f485bca    .[H?    DCD    1061706698
        0x000108ac:    3f1f599f    .Y.?    DCD    1059019167
        0x000108b0:    3f481d27    '.H?    DCD    1061690663
        0x000108b4:    3f1fa841    A..?    DCD    1059039297
        0x000108b8:    3f47de65    e.G?    DCD    1061674597
        0x000108bc:    3f1ff6cb    ...?    DCD    1059059403
        0x000108c0:    3f479f84    ..G?    DCD    1061658500
        0x000108c4:    3f20453b    ;E ?    DCD    1059079483
        0x000108c8:    3f476085    .`G?    DCD    1061642373
        0x000108cc:    3f209393    .. ?    DCD    1059099539
        0x000108d0:    3f472167    g!G?    DCD    1061626215
        0x000108d4:    3f20e1d2    .. ?    DCD    1059119570
        0x000108d8:    3f46e22a    *.F?    DCD    1061610026
        0x000108dc:    3f212ff9    ./!?    DCD    1059139577
        0x000108e0:    3f46a2ce    ..F?    DCD    1061593806
        0x000108e4:    3f217e06    .~!?    DCD    1059159558
        0x000108e8:    3f466354    TcF?    DCD    1061577556
        0x000108ec:    3f21cbfb    ..!?    DCD    1059179515
        0x000108f0:    3f4623bb    .#F?    DCD    1061561275
        0x000108f4:    3f2219d7    .."?    DCD    1059199447
        0x000108f8:    3f45e403    ..E?    DCD    1061544963
        0x000108fc:    3f226799    .g"?    DCD    1059219353
        0x00010900:    3f45a42d    -.E?    DCD    1061528621
        0x00010904:    3f22b543    C."?    DCD    1059239235
        0x00010908:    3f456439    9dE?    DCD    1061512249
        0x0001090c:    3f2302d3    ..#?    DCD    1059259091
        0x00010910:    3f452426    &$E?    DCD    1061495846
        0x00010914:    3f23504b    KP#?    DCD    1059278923
        0x00010918:    3f44e3f5    ..D?    DCD    1061479413
        0x0001091c:    3f239da9    ..#?    DCD    1059298729
        0x00010920:    3f44a3a5    ..D?    DCD    1061462949
        0x00010924:    3f23eaee    ..#?    DCD    1059318510
        0x00010928:    3f446337    7cD?    DCD    1061446455
        0x0001092c:    3f24381a    .8$?    DCD    1059338266
        0x00010930:    3f4422ab    ."D?    DCD    1061429931
        0x00010934:    3f24852c    ,.$?    DCD    1059357996
        0x00010938:    3f43e200    ..C?    DCD    1061413376
        0x0001093c:    3f24d225    %.$?    DCD    1059377701
        0x00010940:    3f43a138    8.C?    DCD    1061396792
        0x00010944:    3f251f04    ..%?    DCD    1059397380
        0x00010948:    3f436051    Q`C?    DCD    1061380177
        0x0001094c:    3f256bcb    .k%?    DCD    1059417035
        0x00010950:    3f431f4c    L.C?    DCD    1061363532
        0x00010954:    3f25b877    w.%?    DCD    1059436663
        0x00010958:    3f42de29    ).B?    DCD    1061346857
        0x0001095c:    3f26050a    ..&?    DCD    1059456266
        0x00010960:    3f429ce8    ..B?    DCD    1061330152
        0x00010964:    3f265184    .Q&?    DCD    1059475844
        0x00010968:    3f425b89    .[B?    DCD    1061313417
        0x0001096c:    3f269de3    ..&?    DCD    1059495395
        0x00010970:    3f421a0b    ..B?    DCD    1061296651
        0x00010974:    3f26ea2a    *.&?    DCD    1059514922
        0x00010978:    3f41d870    p.A?    DCD    1061279856
        0x0001097c:    3f273656    V6'?    DCD    1059534422
        0x00010980:    3f4196b7    ..A?    DCD    1061263031
        0x00010984:    3f278268    h.'?    DCD    1059553896
        0x00010988:    3f4154e1    .TA?    DCD    1061246177
        0x0001098c:    3f27ce61    a.'?    DCD    1059573345
        0x00010990:    3f4112ec    ..A?    DCD    1061229292
        0x00010994:    3f281a40    @.(?    DCD    1059592768
        0x00010998:    3f40d0da    ..@?    DCD    1061212378
        0x0001099c:    3f286605    .f(?    DCD    1059612165
        0x000109a0:    3f408ea9    ..@?    DCD    1061195433
        0x000109a4:    3f28b1b0    ..(?    DCD    1059631536
        0x000109a8:    3f404c5c    \L@?    DCD    1061178460
        0x000109ac:    3f28fd41    A.(?    DCD    1059650881
        0x000109b0:    3f4009f0    ..@?    DCD    1061161456
        0x000109b4:    3f2948b8    .H)?    DCD    1059670200
        0x000109b8:    3f3fc767    g.??    DCD    1061144423
        0x000109bc:    3f299415    ..)?    DCD    1059689493
        0x000109c0:    3f3f84c0    ..??    DCD    1061127360
        0x000109c4:    3f29df57    W.)?    DCD    1059708759
        0x000109c8:    3f3f41fc    .A??    DCD    1061110268
        0x000109cc:    3f2a2a80    .**?    DCD    1059728000
        0x000109d0:    3f3eff1b    ..>?    DCD    1061093147
        0x000109d4:    3f2a758e    .u*?    DCD    1059747214
        0x000109d8:    3f3ebc1b    ..>?    DCD    1061075995
        0x000109dc:    3f2ac082    ..*?    DCD    1059766402
        0x000109e0:    3f3e78ff    .x>?    DCD    1061058815
        0x000109e4:    3f2b0b5b    [.+?    DCD    1059785563
        0x000109e8:    3f3e35c5    .5>?    DCD    1061041605
        0x000109ec:    3f2b561b    .V+?    DCD    1059804699
        0x000109f0:    3f3df26e    n.=?    DCD    1061024366
        0x000109f4:    3f2ba0bf    ..+?    DCD    1059823807
        0x000109f8:    3f3daef9    ..=?    DCD    1061007097
        0x000109fc:    3f2beb4a    J.+?    DCD    1059842890
        0x00010a00:    3f3d6b67    gk=?    DCD    1060989799
        0x00010a04:    3f2c35b9    .5,?    DCD    1059861945
        0x00010a08:    3f3d27b8    .'=?    DCD    1060972472
        0x00010a0c:    3f2c800f    ..,?    DCD    1059880975
        0x00010a10:    3f3ce3ec    ..<?    DCD    1060955116
        0x00010a14:    3f2cca49    I.,?    DCD    1059899977
        0x00010a18:    3f3ca003    ..<?    DCD    1060937731
        0x00010a1c:    3f2d1469    i.-?    DCD    1059918953
        0x00010a20:    3f3c5bfc    .[<?    DCD    1060920316
        0x00010a24:    3f2d5e6f    o^-?    DCD    1059937903
        0x00010a28:    3f3c17d9    ..<?    DCD    1060902873
        0x00010a2c:    3f2da859    Y.-?    DCD    1059956825
        0x00010a30:    3f3bd398    ..;?    DCD    1060885400
        0x00010a34:    3f2df229    ).-?    DCD    1059975721
        0x00010a38:    3f3b8f3b    ;.;?    DCD    1060867899
        0x00010a3c:    3f2e3bde    .;.?    DCD    1059994590
        0x00010a40:    3f3b4ac1    .J;?    DCD    1060850369
        0x00010a44:    3f2e8578    x..?    DCD    1060013432
        0x00010a48:    3f3b0629    ).;?    DCD    1060832809
        0x00010a4c:    3f2ecef7    ...?    DCD    1060032247
        0x00010a50:    3f3ac175    u.:?    DCD    1060815221
        0x00010a54:    3f2f185b    [./?    DCD    1060051035
        0x00010a58:    3f3a7ca4    .|:?    DCD    1060797604
        0x00010a5c:    3f2f61a5    .a/?    DCD    1060069797
        0x00010a60:    3f3a37b7    .7:?    DCD    1060779959
        0x00010a64:    3f2faad3    ../?    DCD    1060088531
        0x00010a68:    3f39f2ac    ..9?    DCD    1060762284
        0x00010a6c:    3f2ff3e6    ../?    DCD    1060107238
        0x00010a70:    3f39ad85    ..9?    DCD    1060744581
        0x00010a74:    3f303cde    .<0?    DCD    1060125918
        0x00010a78:    3f396842    Bh9?    DCD    1060726850
        0x00010a7c:    3f3085bb    ..0?    DCD    1060144571
        0x00010a80:    3f3922e1    ."9?    DCD    1060709089
        0x00010a84:    3f30ce7c    |.0?    DCD    1060163196
        0x00010a88:    3f38dd65    e.8?    DCD    1060691301
        0x00010a8c:    3f311722    ".1?    DCD    1060181794
        0x00010a90:    3f3897cb    ..8?    DCD    1060673483
        0x00010a94:    3f315fad    ._1?    DCD    1060200365
        0x00010a98:    3f385216    .R8?    DCD    1060655638
        0x00010a9c:    3f31a81d    ..1?    DCD    1060218909
        0x00010aa0:    3f380c43    C.8?    DCD    1060637763
        0x00010aa4:    3f31f071    q.1?    DCD    1060237425
        0x00010aa8:    3f37c655    U.7?    DCD    1060619861
        0x00010aac:    3f3238aa    .82?    DCD    1060255914
        0x00010ab0:    3f37804a    J.7?    DCD    1060601930
        0x00010ab4:    3f3280c7    ..2?    DCD    1060274375
        0x00010ab8:    3f373a23    #:7?    DCD    1060583971
        0x00010abc:    3f32c8c9    ..2?    DCD    1060292809
        0x00010ac0:    3f36f3df    ..6?    DCD    1060565983
        0x00010ac4:    3f3310af    ..3?    DCD    1060311215
        0x00010ac8:    3f36ad7f    ..6?    DCD    1060547967
        0x00010acc:    3f33587a    zX3?    DCD    1060329594
        0x00010ad0:    3f366704    .g6?    DCD    1060529924
        0x00010ad4:    3f33a029    ).3?    DCD    1060347945
        0x00010ad8:    3f36206c    l 6?    DCD    1060511852
        0x00010adc:    3f33e7bc    ..3?    DCD    1060366268
        0x00010ae0:    3f35d9b8    ..5?    DCD    1060493752
        0x00010ae4:    3f342f34    4/4?    DCD    1060384564
        0x00010ae8:    3f3592e7    ..5?    DCD    1060475623
        0x00010aec:    3f34768f    .v4?    DCD    1060402831
        0x00010af0:    3f354bfb    .K5?    DCD    1060457467
        0x00010af4:    3f34bdcf    ..4?    DCD    1060421071
        0x00010af8:    3f3504f3    ..5?    DCD    1060439283
        0x00010afc:    3f3504f3    ..5?    DCD    1060439283
        0x00010b00:    3f34bdcf    ..4?    DCD    1060421071
        0x00010b04:    3f354bfb    .K5?    DCD    1060457467
        0x00010b08:    3f34768f    .v4?    DCD    1060402831
        0x00010b0c:    3f3592e7    ..5?    DCD    1060475623
        0x00010b10:    3f342f34    4/4?    DCD    1060384564
        0x00010b14:    3f35d9b8    ..5?    DCD    1060493752
        0x00010b18:    3f33e7bc    ..3?    DCD    1060366268
        0x00010b1c:    3f36206c    l 6?    DCD    1060511852
        0x00010b20:    3f33a029    ).3?    DCD    1060347945
        0x00010b24:    3f366704    .g6?    DCD    1060529924
        0x00010b28:    3f33587a    zX3?    DCD    1060329594
        0x00010b2c:    3f36ad7f    ..6?    DCD    1060547967
        0x00010b30:    3f3310af    ..3?    DCD    1060311215
        0x00010b34:    3f36f3df    ..6?    DCD    1060565983
        0x00010b38:    3f32c8c9    ..2?    DCD    1060292809
        0x00010b3c:    3f373a23    #:7?    DCD    1060583971
        0x00010b40:    3f3280c7    ..2?    DCD    1060274375
        0x00010b44:    3f37804a    J.7?    DCD    1060601930
        0x00010b48:    3f3238aa    .82?    DCD    1060255914
        0x00010b4c:    3f37c655    U.7?    DCD    1060619861
        0x00010b50:    3f31f071    q.1?    DCD    1060237425
        0x00010b54:    3f380c43    C.8?    DCD    1060637763
        0x00010b58:    3f31a81d    ..1?    DCD    1060218909
        0x00010b5c:    3f385216    .R8?    DCD    1060655638
        0x00010b60:    3f315fad    ._1?    DCD    1060200365
        0x00010b64:    3f3897cb    ..8?    DCD    1060673483
        0x00010b68:    3f311722    ".1?    DCD    1060181794
        0x00010b6c:    3f38dd65    e.8?    DCD    1060691301
        0x00010b70:    3f30ce7c    |.0?    DCD    1060163196
        0x00010b74:    3f3922e1    ."9?    DCD    1060709089
        0x00010b78:    3f3085bb    ..0?    DCD    1060144571
        0x00010b7c:    3f396842    Bh9?    DCD    1060726850
        0x00010b80:    3f303cde    .<0?    DCD    1060125918
        0x00010b84:    3f39ad85    ..9?    DCD    1060744581
        0x00010b88:    3f2ff3e6    ../?    DCD    1060107238
        0x00010b8c:    3f39f2ac    ..9?    DCD    1060762284
        0x00010b90:    3f2faad3    ../?    DCD    1060088531
        0x00010b94:    3f3a37b7    .7:?    DCD    1060779959
        0x00010b98:    3f2f61a5    .a/?    DCD    1060069797
        0x00010b9c:    3f3a7ca4    .|:?    DCD    1060797604
        0x00010ba0:    3f2f185b    [./?    DCD    1060051035
        0x00010ba4:    3f3ac175    u.:?    DCD    1060815221
        0x00010ba8:    3f2ecef7    ...?    DCD    1060032247
        0x00010bac:    3f3b0629    ).;?    DCD    1060832809
        0x00010bb0:    3f2e8578    x..?    DCD    1060013432
        0x00010bb4:    3f3b4ac1    .J;?    DCD    1060850369
        0x00010bb8:    3f2e3bde    .;.?    DCD    1059994590
        0x00010bbc:    3f3b8f3b    ;.;?    DCD    1060867899
        0x00010bc0:    3f2df229    ).-?    DCD    1059975721
        0x00010bc4:    3f3bd398    ..;?    DCD    1060885400
        0x00010bc8:    3f2da859    Y.-?    DCD    1059956825
        0x00010bcc:    3f3c17d9    ..<?    DCD    1060902873
        0x00010bd0:    3f2d5e6f    o^-?    DCD    1059937903
        0x00010bd4:    3f3c5bfc    .[<?    DCD    1060920316
        0x00010bd8:    3f2d1469    i.-?    DCD    1059918953
        0x00010bdc:    3f3ca003    ..<?    DCD    1060937731
        0x00010be0:    3f2cca49    I.,?    DCD    1059899977
        0x00010be4:    3f3ce3ec    ..<?    DCD    1060955116
        0x00010be8:    3f2c800f    ..,?    DCD    1059880975
        0x00010bec:    3f3d27b8    .'=?    DCD    1060972472
        0x00010bf0:    3f2c35b9    .5,?    DCD    1059861945
        0x00010bf4:    3f3d6b67    gk=?    DCD    1060989799
        0x00010bf8:    3f2beb4a    J.+?    DCD    1059842890
        0x00010bfc:    3f3daef9    ..=?    DCD    1061007097
        0x00010c00:    3f2ba0bf    ..+?    DCD    1059823807
        0x00010c04:    3f3df26e    n.=?    DCD    1061024366
        0x00010c08:    3f2b561b    .V+?    DCD    1059804699
        0x00010c0c:    3f3e35c5    .5>?    DCD    1061041605
        0x00010c10:    3f2b0b5b    [.+?    DCD    1059785563
        0x00010c14:    3f3e78ff    .x>?    DCD    1061058815
        0x00010c18:    3f2ac082    ..*?    DCD    1059766402
        0x00010c1c:    3f3ebc1b    ..>?    DCD    1061075995
        0x00010c20:    3f2a758e    .u*?    DCD    1059747214
        0x00010c24:    3f3eff1b    ..>?    DCD    1061093147
        0x00010c28:    3f2a2a80    .**?    DCD    1059728000
        0x00010c2c:    3f3f41fc    .A??    DCD    1061110268
        0x00010c30:    3f29df57    W.)?    DCD    1059708759
        0x00010c34:    3f3f84c0    ..??    DCD    1061127360
        0x00010c38:    3f299415    ..)?    DCD    1059689493
        0x00010c3c:    3f3fc767    g.??    DCD    1061144423
        0x00010c40:    3f2948b8    .H)?    DCD    1059670200
        0x00010c44:    3f4009f0    ..@?    DCD    1061161456
        0x00010c48:    3f28fd41    A.(?    DCD    1059650881
        0x00010c4c:    3f404c5c    \L@?    DCD    1061178460
        0x00010c50:    3f28b1b0    ..(?    DCD    1059631536
        0x00010c54:    3f408ea9    ..@?    DCD    1061195433
        0x00010c58:    3f286605    .f(?    DCD    1059612165
        0x00010c5c:    3f40d0da    ..@?    DCD    1061212378
        0x00010c60:    3f281a40    @.(?    DCD    1059592768
        0x00010c64:    3f4112ec    ..A?    DCD    1061229292
        0x00010c68:    3f27ce61    a.'?    DCD    1059573345
        0x00010c6c:    3f4154e1    .TA?    DCD    1061246177
        0x00010c70:    3f278268    h.'?    DCD    1059553896
        0x00010c74:    3f4196b7    ..A?    DCD    1061263031
        0x00010c78:    3f273656    V6'?    DCD    1059534422
        0x00010c7c:    3f41d870    p.A?    DCD    1061279856
        0x00010c80:    3f26ea2a    *.&?    DCD    1059514922
        0x00010c84:    3f421a0b    ..B?    DCD    1061296651
        0x00010c88:    3f269de3    ..&?    DCD    1059495395
        0x00010c8c:    3f425b89    .[B?    DCD    1061313417
        0x00010c90:    3f265184    .Q&?    DCD    1059475844
        0x00010c94:    3f429ce8    ..B?    DCD    1061330152
        0x00010c98:    3f26050a    ..&?    DCD    1059456266
        0x00010c9c:    3f42de29    ).B?    DCD    1061346857
        0x00010ca0:    3f25b877    w.%?    DCD    1059436663
        0x00010ca4:    3f431f4c    L.C?    DCD    1061363532
        0x00010ca8:    3f256bcb    .k%?    DCD    1059417035
        0x00010cac:    3f436051    Q`C?    DCD    1061380177
        0x00010cb0:    3f251f04    ..%?    DCD    1059397380
        0x00010cb4:    3f43a138    8.C?    DCD    1061396792
        0x00010cb8:    3f24d225    %.$?    DCD    1059377701
        0x00010cbc:    3f43e200    ..C?    DCD    1061413376
        0x00010cc0:    3f24852c    ,.$?    DCD    1059357996
        0x00010cc4:    3f4422ab    ."D?    DCD    1061429931
        0x00010cc8:    3f24381a    .8$?    DCD    1059338266
        0x00010ccc:    3f446337    7cD?    DCD    1061446455
        0x00010cd0:    3f23eaee    ..#?    DCD    1059318510
        0x00010cd4:    3f44a3a5    ..D?    DCD    1061462949
        0x00010cd8:    3f239da9    ..#?    DCD    1059298729
        0x00010cdc:    3f44e3f5    ..D?    DCD    1061479413
        0x00010ce0:    3f23504b    KP#?    DCD    1059278923
        0x00010ce4:    3f452426    &$E?    DCD    1061495846
        0x00010ce8:    3f2302d3    ..#?    DCD    1059259091
        0x00010cec:    3f456439    9dE?    DCD    1061512249
        0x00010cf0:    3f22b543    C."?    DCD    1059239235
        0x00010cf4:    3f45a42d    -.E?    DCD    1061528621
        0x00010cf8:    3f226799    .g"?    DCD    1059219353
        0x00010cfc:    3f45e403    ..E?    DCD    1061544963
        0x00010d00:    3f2219d7    .."?    DCD    1059199447
        0x00010d04:    3f4623bb    .#F?    DCD    1061561275
        0x00010d08:    3f21cbfb    ..!?    DCD    1059179515
        0x00010d0c:    3f466354    TcF?    DCD    1061577556
        0x00010d10:    3f217e06    .~!?    DCD    1059159558
        0x00010d14:    3f46a2ce    ..F?    DCD    1061593806
        0x00010d18:    3f212ff9    ./!?    DCD    1059139577
        0x00010d1c:    3f46e22a    *.F?    DCD    1061610026
        0x00010d20:    3f20e1d2    .. ?    DCD    1059119570
        0x00010d24:    3f472167    g!G?    DCD    1061626215
        0x00010d28:    3f209393    .. ?    DCD    1059099539
        0x00010d2c:    3f476085    .`G?    DCD    1061642373
        0x00010d30:    3f20453b    ;E ?    DCD    1059079483
        0x00010d34:    3f479f84    ..G?    DCD    1061658500
        0x00010d38:    3f1ff6cb    ...?    DCD    1059059403
        0x00010d3c:    3f47de65    e.G?    DCD    1061674597
        0x00010d40:    3f1fa841    A..?    DCD    1059039297
        0x00010d44:    3f481d27    '.H?    DCD    1061690663
        0x00010d48:    3f1f599f    .Y.?    DCD    1059019167
        0x00010d4c:    3f485bca    .[H?    DCD    1061706698
        0x00010d50:    3f1f0ae5    ...?    DCD    1058999013
        0x00010d54:    3f489a4e    N.H?    DCD    1061722702
        0x00010d58:    3f1ebc12    ...?    DCD    1058978834
        0x00010d5c:    3f48d8b3    ..H?    DCD    1061738675
        0x00010d60:    3f1e6d26    &m.?    DCD    1058958630
        0x00010d64:    3f4916fa    ..I?    DCD    1061754618
        0x00010d68:    3f1e1e22    "..?    DCD    1058938402
        0x00010d6c:    3f495521    !UI?    DCD    1061770529
        0x00010d70:    3f1dcf06    ...?    DCD    1058918150
        0x00010d74:    3f499329    ).I?    DCD    1061786409
        0x00010d78:    3f1d7fd1    ...?    DCD    1058897873
        0x00010d7c:    3f49d112    ..I?    DCD    1061802258
        0x00010d80:    3f1d3084    .0.?    DCD    1058877572
        0x00010d84:    3f4a0edc    ..J?    DCD    1061818076
        0x00010d88:    3f1ce11f    ...?    DCD    1058857247
        0x00010d8c:    3f4a4c87    .LJ?    DCD    1061833863
        0x00010d90:    3f1c91a2    ...?    DCD    1058836898
        0x00010d94:    3f4a8a13    ..J?    DCD    1061849619
        0x00010d98:    3f1c420c    .B.?    DCD    1058816524
        0x00010d9c:    3f4ac77f    ..J?    DCD    1061865343
        0x00010da0:    3f1bf25f    _..?    DCD    1058796127
        0x00010da4:    3f4b04cc    ..K?    DCD    1061881036
        0x00010da8:    3f1ba299    ...?    DCD    1058775705
        0x00010dac:    3f4b41fa    .AK?    DCD    1061896698
        0x00010db0:    3f1b52bb    .R.?    DCD    1058755259
        0x00010db4:    3f4b7f09    ..K?    DCD    1061912329
        0x00010db8:    3f1b02c6    ...?    DCD    1058734790
        0x00010dbc:    3f4bbbf8    ..K?    DCD    1061927928
        0x00010dc0:    3f1ab2b8    ...?    DCD    1058714296
        0x00010dc4:    3f4bf8c7    ..K?    DCD    1061943495
        0x00010dc8:    3f1a6293    .b.?    DCD    1058693779
        0x00010dcc:    3f4c3578    x5L?    DCD    1061959032
        0x00010dd0:    3f1a1255    U..?    DCD    1058673237
        0x00010dd4:    3f4c7208    .rL?    DCD    1061974536
        0x00010dd8:    3f19c200    ...?    DCD    1058652672
        0x00010ddc:    3f4cae79    y.L?    DCD    1061990009
        0x00010de0:    3f197194    .q.?    DCD    1058632084
        0x00010de4:    3f4ceacb    ..L?    DCD    1062005451
        0x00010de8:    3f19210f    .!.?    DCD    1058611471
        0x00010dec:    3f4d26fd    .&M?    DCD    1062020861
        0x00010df0:    3f18d073    s..?    DCD    1058590835
        0x00010df4:    3f4d6310    .cM?    DCD    1062036240
        0x00010df8:    3f187fc0    ...?    DCD    1058570176
        0x00010dfc:    3f4d9f02    ..M?    DCD    1062051586
        0x00010e00:    3f182ef5    ...?    DCD    1058549493
        0x00010e04:    3f4ddad5    ..M?    DCD    1062066901
        0x00010e08:    3f17de12    ...?    DCD    1058528786
        0x00010e0c:    3f4e1689    ..N?    DCD    1062082185
        0x00010e10:    3f178d18    ...?    DCD    1058508056
        0x00010e14:    3f4e521c    .RN?    DCD    1062097436
        0x00010e18:    3f173c07    .<.?    DCD    1058487303
        0x00010e1c:    3f4e8d90    ..N?    DCD    1062112656
        0x00010e20:    3f16eadf    ...?    DCD    1058466527
        0x00010e24:    3f4ec8e4    ..N?    DCD    1062127844
        0x00010e28:    3f16999f    ...?    DCD    1058445727
        0x00010e2c:    3f4f0417    ..O?    DCD    1062142999
        0x00010e30:    3f164847    GH.?    DCD    1058424903
        0x00010e34:    3f4f3f2b    +?O?    DCD    1062158123
        0x00010e38:    3f15f6d9    ...?    DCD    1058404057
        0x00010e3c:    3f4f7a1f    .zO?    DCD    1062173215
        0x00010e40:    3f15a554    T..?    DCD    1058383188
        0x00010e44:    3f4fb4f4    ..O?    DCD    1062188276
        0x00010e48:    3f1553b7    .S.?    DCD    1058362295
        0x00010e4c:    3f4fefa8    ..O?    DCD    1062203304
        0x00010e50:    3f150204    ...?    DCD    1058341380
        0x00010e54:    3f502a3b    ;*P?    DCD    1062218299
        0x00010e58:    3f14b039    9..?    DCD    1058320441
        0x00010e5c:    3f5064af    .dP?    DCD    1062233263
        0x00010e60:    3f145e58    X^.?    DCD    1058299480
        0x00010e64:    3f509f03    ..P?    DCD    1062248195
        0x00010e68:    3f140c5f    _..?    DCD    1058278495
        0x00010e6c:    3f50d937    7.P?    DCD    1062263095
        0x00010e70:    3f13ba50    P..?    DCD    1058257488
        0x00010e74:    3f51134a    J.Q?    DCD    1062277962
        0x00010e78:    3f13682a    *h.?    DCD    1058236458
        0x00010e7c:    3f514d3d    =MQ?    DCD    1062292797
        0x00010e80:    3f1315ee    ...?    DCD    1058215406
        0x00010e84:    3f518710    ..Q?    DCD    1062307600
        0x00010e88:    3f12c39a    ...?    DCD    1058194330
        0x00010e8c:    3f51c0c2    ..Q?    DCD    1062322370
        0x00010e90:    3f127130    0q.?    DCD    1058173232
        0x00010e94:    3f51fa54    T.Q?    DCD    1062337108
        0x00010e98:    3f121eb0    ...?    DCD    1058152112
        0x00010e9c:    3f5233c6    .3R?    DCD    1062351814
        0x00010ea0:    3f11cc19    ...?    DCD    1058130969
        0x00010ea4:    3f526d18    .mR?    DCD    1062366488
        0x00010ea8:    3f11796b    ky.?    DCD    1058109803
        0x00010eac:    3f52a649    I.R?    DCD    1062381129
        0x00010eb0:    3f1126a7    .&.?    DCD    1058088615
        0x00010eb4:    3f52df59    Y.R?    DCD    1062395737
        0x00010eb8:    3f10d3cd    ...?    DCD    1058067405
        0x00010ebc:    3f531849    I.S?    DCD    1062410313
        0x00010ec0:    3f1080dc    ...?    DCD    1058046172
        0x00010ec4:    3f535118    .QS?    DCD    1062424856
        0x00010ec8:    3f102dd5    .-.?    DCD    1058024917
        0x00010ecc:    3f5389c7    ..S?    DCD    1062439367
        0x00010ed0:    3f0fdab8    ...?    DCD    1058003640
        0x00010ed4:    3f53c255    U.S?    DCD    1062453845
        0x00010ed8:    3f0f8784    ...?    DCD    1057982340
        0x00010edc:    3f53fac3    ..S?    DCD    1062468291
        0x00010ee0:    3f0f343b    ;4.?    DCD    1057961019
        0x00010ee4:    3f54330f    .3T?    DCD    1062482703
        0x00010ee8:    3f0ee0db    ...?    DCD    1057939675
        0x00010eec:    3f546b3b    ;kT?    DCD    1062497083
        0x00010ef0:    3f0e8d65    e..?    DCD    1057918309
        0x00010ef4:    3f54a347    G.T?    DCD    1062511431
        0x00010ef8:    3f0e39da    .9.?    DCD    1057896922
        0x00010efc:    3f54db31    1.T?    DCD    1062525745
        0x00010f00:    3f0de638    8..?    DCD    1057875512
        0x00010f04:    3f5512fb    ..U?    DCD    1062540027
        0x00010f08:    3f0d9281    ...?    DCD    1057854081
        0x00010f0c:    3f554aa4    .JU?    DCD    1062554276
        0x00010f10:    3f0d3eb3    .>.?    DCD    1057832627
        0x00010f14:    3f55822c    ,.U?    DCD    1062568492
        0x00010f18:    3f0cead0    ...?    DCD    1057811152
        0x00010f1c:    3f55b993    ..U?    DCD    1062582675
        0x00010f20:    3f0c96d7    ...?    DCD    1057789655
        0x00010f24:    3f55f0d9    ..U?    DCD    1062596825
        0x00010f28:    3f0c42c9    .B.?    DCD    1057768137
        0x00010f2c:    3f5627fe    .'V?    DCD    1062610942
        0x00010f30:    3f0beea5    ...?    DCD    1057746597
        0x00010f34:    3f565f02    ._V?    DCD    1062625026
        0x00010f38:    3f0b9a6b    k..?    DCD    1057725035
        0x00010f3c:    3f5695e5    ..V?    DCD    1062639077
        0x00010f40:    3f0b461c    .F.?    DCD    1057703452
        0x00010f44:    3f56cca7    ..V?    DCD    1062653095
        0x00010f48:    3f0af1b7    ...?    DCD    1057681847
        0x00010f4c:    3f570348    H.W?    DCD    1062667080
        0x00010f50:    3f0a9d3d    =..?    DCD    1057660221
        0x00010f54:    3f5739c7    .9W?    DCD    1062681031
        0x00010f58:    3f0a48ad    .H.?    DCD    1057638573
        0x00010f5c:    3f577026    &pW?    DCD    1062694950
        0x00010f60:    3f09f409    ...?    DCD    1057616905
        0x00010f64:    3f57a663    c.W?    DCD    1062708835
        0x00010f68:    3f099f4e    N..?    DCD    1057595214
        0x00010f6c:    3f57dc7f    ..W?    DCD    1062722687
        0x00010f70:    3f094a7f    .J.?    DCD    1057573503
        0x00010f74:    3f581279    y.X?    DCD    1062736505
        0x00010f78:    3f08f59b    ...?    DCD    1057551771
        0x00010f7c:    3f584853    SHX?    DCD    1062750291
        0x00010f80:    3f08a0a1    ...?    DCD    1057530017
        0x00010f84:    3f587e0b    .~X?    DCD    1062764043
        0x00010f88:    3f084b92    .K.?    DCD    1057508242
        0x00010f8c:    3f58b3a1    ..X?    DCD    1062777761
        0x00010f90:    3f07f66f    o..?    DCD    1057486447
        0x00010f94:    3f58e917    ..X?    DCD    1062791447
        0x00010f98:    3f07a136    6..?    DCD    1057464630
        0x00010f9c:    3f591e6a    j.Y?    DCD    1062805098
        0x00010fa0:    3f074be8    .K.?    DCD    1057442792
        0x00010fa4:    3f59539c    .SY?    DCD    1062818716
        0x00010fa8:    3f06f686    ...?    DCD    1057420934
        0x00010fac:    3f5988ad    ..Y?    DCD    1062832301
        0x00010fb0:    3f06a10e    ...?    DCD    1057399054
        0x00010fb4:    3f59bd9c    ..Y?    DCD    1062845852
        0x00010fb8:    3f064b82    .K.?    DCD    1057377154
        0x00010fbc:    3f59f26a    j.Y?    DCD    1062859370
        0x00010fc0:    3f05f5e2    ...?    DCD    1057355234
        0x00010fc4:    3f5a2716    .'Z?    DCD    1062872854
        0x00010fc8:    3f05a02c    ,..?    DCD    1057333292
        0x00010fcc:    3f5a5ba0    .[Z?    DCD    1062886304
        0x00010fd0:    3f054a62    bJ.?    DCD    1057311330
        0x00010fd4:    3f5a9009    ..Z?    DCD    1062899721
        0x00010fd8:    3f04f484    ...?    DCD    1057289348
        0x00010fdc:    3f5ac450    P.Z?    DCD    1062913104
        0x00010fe0:    3f049e91    ...?    DCD    1057267345
        0x00010fe4:    3f5af875    u.Z?    DCD    1062926453
        0x00010fe8:    3f044889    .H.?    DCD    1057245321
        0x00010fec:    3f5b2c79    y,[?    DCD    1062939769
        0x00010ff0:    3f03f26d    m..?    DCD    1057223277
        0x00010ff4:    3f5b605a    Z`[?    DCD    1062953050
        0x00010ff8:    3f039c3d    =..?    DCD    1057201213
        0x00010ffc:    3f5b941a    ..[?    DCD    1062966298
        0x00011000:    3f0345f8    .E.?    DCD    1057179128
        0x00011004:    3f5bc7b8    ..[?    DCD    1062979512
        0x00011008:    3f02ef9f    ...?    DCD    1057157023
        0x0001100c:    3f5bfb34    4.[?    DCD    1062992692
        0x00011010:    3f029932    2..?    DCD    1057134898
        0x00011014:    3f5c2e8e    ..\?    DCD    1063005838
        0x00011018:    3f0242b1    .B.?    DCD    1057112753
        0x0001101c:    3f5c61c7    .a\?    DCD    1063018951
        0x00011020:    3f01ec1c    ...?    DCD    1057090588
        0x00011024:    3f5c94dd    ..\?    DCD    1063032029
        0x00011028:    3f019573    s..?    DCD    1057068403
        0x0001102c:    3f5cc7d1    ..\?    DCD    1063045073
        0x00011030:    3f013eb5    .>.?    DCD    1057046197
        0x00011034:    3f5cfaa3    ..\?    DCD    1063058083
        0x00011038:    3f00e7e4    ...?    DCD    1057023972
        0x0001103c:    3f5d2d53    S-]?    DCD    1063071059
        0x00011040:    3f0090ff    ...?    DCD    1057001727
        0x00011044:    3f5d5fe1    ._]?    DCD    1063084001
        0x00011048:    3f003a06    .:.?    DCD    1056979462
        0x0001104c:    3f5d924d    M.]?    DCD    1063096909
        0x00011050:    3effc5f3    ...>    DCD    1056949747
        0x00011054:    3f5dc497    ..]?    DCD    1063109783
        0x00011058:    3eff17b2    ...>    DCD    1056905138
        0x0001105c:    3f5df6be    ..]?    DCD    1063122622
        0x00011060:    3efe694a    Ji.>    DCD    1056860490
        0x00011064:    3f5e28c3    .(^?    DCD    1063135427
        0x00011068:    3efdbabb    ...>    DCD    1056815803
        0x0001106c:    3f5e5aa6    .Z^?    DCD    1063148198
        0x00011070:    3efd0c04    ...>    DCD    1056771076
        0x00011074:    3f5e8c67    g.^?    DCD    1063160935
        0x00011078:    3efc5d27    '].>    DCD    1056726311
        0x0001107c:    3f5ebe05    ..^?    DCD    1063173637
        0x00011080:    3efbae22    "..>    DCD    1056681506
        0x00011084:    3f5eef81    ..^?    DCD    1063186305
        0x00011088:    3efafef7    ...>    DCD    1056636663
        0x0001108c:    3f5f20db    . _?    DCD    1063198939
        0x00011090:    3efa4fa5    .O.>    DCD    1056591781
        0x00011094:    3f5f5212    .R_?    DCD    1063211538
        0x00011098:    3ef9a02d    -..>    DCD    1056546861
        0x0001109c:    3f5f8327    '._?    DCD    1063224103
        0x000110a0:    3ef8f08e    ...>    DCD    1056501902
        0x000110a4:    3f5fb419    .._?    DCD    1063236633
        0x000110a8:    3ef840c8    .@.>    DCD    1056456904
        0x000110ac:    3f5fe4e9    .._?    DCD    1063249129
        0x000110b0:    3ef790dc    ...>    DCD    1056411868
        0x000110b4:    3f601596    ..`?    DCD    1063261590
        0x000110b8:    3ef6e0cb    ...>    DCD    1056366795
        0x000110bc:    3f604621    !F`?    DCD    1063274017
        0x000110c0:    3ef63093    .0.>    DCD    1056321683
        0x000110c4:    3f607689    .v`?    DCD    1063286409
        0x000110c8:    3ef58035    5..>    DCD    1056276533
        0x000110cc:    3f60a6cf    ..`?    DCD    1063298767
        0x000110d0:    3ef4cfb1    ...>    DCD    1056231345
        0x000110d4:    3f60d6f2    ..`?    DCD    1063311090
        0x000110d8:    3ef41f07    ...>    DCD    1056186119
        0x000110dc:    3f6106f2    ..a?    DCD    1063323378
        0x000110e0:    3ef36e38    8n.>    DCD    1056140856
        0x000110e4:    3f6136d0    .6a?    DCD    1063335632
        0x000110e8:    3ef2bd43    C..>    DCD    1056095555
        0x000110ec:    3f61668a    .fa?    DCD    1063347850
        0x000110f0:    3ef20c29    )..>    DCD    1056050217
        0x000110f4:    3f619622    ".a?    DCD    1063360034
        0x000110f8:    3ef15aea    .Z.>    DCD    1056004842
        0x000110fc:    3f61c598    ..a?    DCD    1063372184
        0x00011100:    3ef0a985    ...>    DCD    1055959429
        0x00011104:    3f61f4ea    ..a?    DCD    1063384298
        0x00011108:    3eeff7fb    ...>    DCD    1055913979
        0x0001110c:    3f62241a    .$b?    DCD    1063396378
        0x00011110:    3eef464c    LF.>    DCD    1055868492
        0x00011114:    3f625326    &Sb?    DCD    1063408422
        0x00011118:    3eee9479    y..>    DCD    1055822969
        0x0001111c:    3f628210    ..b?    DCD    1063420432
        0x00011120:    3eede280    ...>    DCD    1055777408
        0x00011124:    3f62b0d7    ..b?    DCD    1063432407
        0x00011128:    3eed3063    c0.>    DCD    1055731811
        0x0001112c:    3f62df7b    {.b?    DCD    1063444347
        0x00011130:    3eec7e21    !~.>    DCD    1055686177
        0x00011134:    3f630dfc    ..c?    DCD    1063456252
        0x00011138:    3eebcbbb    ...>    DCD    1055640507
        0x0001113c:    3f633c5a    Z<c?    DCD    1063468122
        0x00011140:    3eeb1930    0..>    DCD    1055594800
        0x00011144:    3f636a95    .jc?    DCD    1063479957
        0x00011148:    3eea6681    .f.>    DCD    1055549057
        0x0001114c:    3f6398ac    ..c?    DCD    1063491756
        0x00011150:    3ee9b3ae    ...>    DCD    1055503278
        0x00011154:    3f63c6a1    ..c?    DCD    1063503521
        0x00011158:    3ee900b7    ...>    DCD    1055457463
        0x0001115c:    3f63f473    s.c?    DCD    1063515251
        0x00011160:    3ee84d9c    .M.>    DCD    1055411612
        0x00011164:    3f642221    !"d?    DCD    1063526945
        0x00011168:    3ee79a5d    ]..>    DCD    1055365725
        0x0001116c:    3f644fac    .Od?    DCD    1063538604
        0x00011170:    3ee6e6fb    ...>    DCD    1055319803
        0x00011174:    3f647d14    .}d?    DCD    1063550228
        0x00011178:    3ee63375    u3.>    DCD    1055273845
        0x0001117c:    3f64aa59    Y.d?    DCD    1063561817
        0x00011180:    3ee57fcb    ...>    DCD    1055227851
        0x00011184:    3f64d77b    {.d?    DCD    1063573371
        0x00011188:    3ee4cbfe    ...>    DCD    1055181822
        0x0001118c:    3f650479    y.e?    DCD    1063584889
        0x00011190:    3ee4180e    ...>    DCD    1055135758
        0x00011194:    3f653154    T1e?    DCD    1063596372
        0x00011198:    3ee363fa    .c.>    DCD    1055089658
        0x0001119c:    3f655e0b    .^e?    DCD    1063607819
        0x000111a0:    3ee2afc4    ...>    DCD    1055043524
        0x000111a4:    3f658aa0    ..e?    DCD    1063619232
        0x000111a8:    3ee1fb6a    j..>    DCD    1054997354
        0x000111ac:    3f65b710    ..e?    DCD    1063630608
        0x000111b0:    3ee146ee    .F.>    DCD    1054951150
        0x000111b4:    3f65e35e    ^.e?    DCD    1063641950
        0x000111b8:    3ee0924f    O..>    DCD    1054904911
        0x000111bc:    3f660f88    ..f?    DCD    1063653256
        0x000111c0:    3edfdd8d    ...>    DCD    1054858637
        0x000111c4:    3f663b8e    .;f?    DCD    1063664526
        0x000111c8:    3edf28a9    .(.>    DCD    1054812329
        0x000111cc:    3f666771    qgf?    DCD    1063675761
        0x000111d0:    3ede73a2    .s.>    DCD    1054765986
        0x000111d4:    3f669330    0.f?    DCD    1063686960
        0x000111d8:    3eddbe79    y..>    DCD    1054719609
        0x000111dc:    3f66becc    ..f?    DCD    1063698124
        0x000111e0:    3edd092e    ...>    DCD    1054673198
        0x000111e4:    3f66ea45    E.f?    DCD    1063709253
        0x000111e8:    3edc53c1    .S.>    DCD    1054626753
        0x000111ec:    3f671599    ..g?    DCD    1063720345
        0x000111f0:    3edb9e31    1..>    DCD    1054580273
        0x000111f4:    3f6740ca    .@g?    DCD    1063731402
        0x000111f8:    3edae880    ...>    DCD    1054533760
        0x000111fc:    3f676bd8    .kg?    DCD    1063742424
        0x00011200:    3eda32ad    .2.>    DCD    1054487213
        0x00011204:    3f6796c1    ..g?    DCD    1063753409
        0x00011208:    3ed97cb9    .|.>    DCD    1054440633
        0x0001120c:    3f67c187    ..g?    DCD    1063764359
        0x00011210:    3ed8c6a3    ...>    DCD    1054394019
        0x00011214:    3f67ec2a    *.g?    DCD    1063775274
        0x00011218:    3ed8106b    k..>    DCD    1054347371
        0x0001121c:    3f6816a8    ..h?    DCD    1063786152
        0x00011220:    3ed75a13    .Z.>    DCD    1054300691
        0x00011224:    3f684103    .Ah?    DCD    1063796995
        0x00011228:    3ed6a399    ...>    DCD    1054253977
        0x0001122c:    3f686b39    9kh?    DCD    1063807801
        0x00011230:    3ed5ecfd    ...>    DCD    1054207229
        0x00011234:    3f68954c    L.h?    DCD    1063818572
        0x00011238:    3ed53641    A6.>    DCD    1054160449
        0x0001123c:    3f68bf3c    <.h?    DCD    1063829308
        0x00011240:    3ed47f64    d..>    DCD    1054113636
        0x00011244:    3f68e907    ..h?    DCD    1063840007
        0x00011248:    3ed3c867    g..>    DCD    1054066791
        0x0001124c:    3f6912ae    ..i?    DCD    1063850670
        0x00011250:    3ed31148    H..>    DCD    1054019912
        0x00011254:    3f693c32    2<i?    DCD    1063861298
        0x00011258:    3ed25a09    .Z.>    DCD    1053973001
        0x0001125c:    3f696591    .ei?    DCD    1063871889
        0x00011260:    3ed1a2aa    ...>    DCD    1053926058
        0x00011264:    3f698ecc    ..i?    DCD    1063882444
        0x00011268:    3ed0eb2a    *..>    DCD    1053879082
        0x0001126c:    3f69b7e4    ..i?    DCD    1063892964
        0x00011270:    3ed0338a    .3.>    DCD    1053832074
        0x00011274:    3f69e0d7    ..i?    DCD    1063903447
        0x00011278:    3ecf7bca    .{.>    DCD    1053785034
        0x0001127c:    3f6a09a7    ..j?    DCD    1063913895
        0x00011280:    3ecec3ea    ...>    DCD    1053737962
        0x00011284:    3f6a3252    R2j?    DCD    1063924306
        0x00011288:    3ece0bea    ...>    DCD    1053690858
        0x0001128c:    3f6a5ad9    .Zj?    DCD    1063934681
        0x00011290:    3ecd53ca    .S.>    DCD    1053643722
        0x00011294:    3f6a833c    <.j?    DCD    1063945020
        0x00011298:    3ecc9b8b    ...>    DCD    1053596555
        0x0001129c:    3f6aab7b    {.j?    DCD    1063955323
        0x000112a0:    3ecbe32c    ,..>    DCD    1053549356
        0x000112a4:    3f6ad395    ..j?    DCD    1063965589
        0x000112a8:    3ecb2aae    .*.>    DCD    1053502126
        0x000112ac:    3f6afb8c    ..j?    DCD    1063975820
        0x000112b0:    3eca7210    .r.>    DCD    1053454864
        0x000112b4:    3f6b235e    ^#k?    DCD    1063986014
        0x000112b8:    3ec9b953    S..>    DCD    1053407571
        0x000112bc:    3f6b4b0c    .Kk?    DCD    1063996172
        0x000112c0:    3ec90077    w..>    DCD    1053360247
        0x000112c4:    3f6b7295    .rk?    DCD    1064006293
        0x000112c8:    3ec8477c    |G.>    DCD    1053312892
        0x000112cc:    3f6b99fb    ..k?    DCD    1064016379
        0x000112d0:    3ec78e62    b..>    DCD    1053265506
        0x000112d4:    3f6bc13b    ;.k?    DCD    1064026427
        0x000112d8:    3ec6d529    )..>    DCD    1053218089
        0x000112dc:    3f6be858    X.k?    DCD    1064036440
        0x000112e0:    3ec61bd2    ...>    DCD    1053170642
        0x000112e4:    3f6c0f50    P.l?    DCD    1064046416
        0x000112e8:    3ec5625c    \b.>    DCD    1053123164
        0x000112ec:    3f6c3624    $6l?    DCD    1064056356
        0x000112f0:    3ec4a8c8    ...>    DCD    1053075656
        0x000112f4:    3f6c5cd4    .\l?    DCD    1064066260
        0x000112f8:    3ec3ef15    ...>    DCD    1053028117
        0x000112fc:    3f6c835e    ^.l?    DCD    1064076126
        0x00011300:    3ec33544    D5.>    DCD    1052980548
        0x00011304:    3f6ca9c5    ..l?    DCD    1064085957
        0x00011308:    3ec27b55    U{.>    DCD    1052932949
        0x0001130c:    3f6cd007    ..l?    DCD    1064095751
        0x00011310:    3ec1c148    H..>    DCD    1052885320
        0x00011314:    3f6cf624    $.l?    DCD    1064105508
        0x00011318:    3ec1071e    ...>    DCD    1052837662
        0x0001131c:    3f6d1c1d    ..m?    DCD    1064115229
        0x00011320:    3ec04cd5    .L.>    DCD    1052789973
        0x00011324:    3f6d41f2    .Am?    DCD    1064124914
        0x00011328:    3ebf926f    o..>    DCD    1052742255
        0x0001132c:    3f6d67a1    .gm?    DCD    1064134561
        0x00011330:    3ebed7eb    ...>    DCD    1052694507
        0x00011334:    3f6d8d2d    -.m?    DCD    1064144173
        0x00011338:    3ebe1d4a    J..>    DCD    1052646730
        0x0001133c:    3f6db293    ..m?    DCD    1064153747
        0x00011340:    3ebd628b    .b.>    DCD    1052598923
        0x00011344:    3f6dd7d5    ..m?    DCD    1064163285
        0x00011348:    3ebca7af    ...>    DCD    1052551087
        0x0001134c:    3f6dfcf2    ..m?    DCD    1064172786
        0x00011350:    3ebbecb6    ...>    DCD    1052503222
        0x00011354:    3f6e21eb    .!n?    DCD    1064182251
        0x00011358:    3ebb31a0    .1.>    DCD    1052455328
        0x0001135c:    3f6e46be    .Fn?    DCD    1064191678
        0x00011360:    3eba766e    nv.>    DCD    1052407406
        0x00011364:    3f6e6b6d    mkn?    DCD    1064201069
        0x00011368:    3eb9bb1e    ...>    DCD    1052359454
        0x0001136c:    3f6e8ff8    ..n?    DCD    1064210424
        0x00011370:    3eb8ffb2    ...>    DCD    1052311474
        0x00011374:    3f6eb45d    ].n?    DCD    1064219741
        0x00011378:    3eb8442a    *D.>    DCD    1052263466
        0x0001137c:    3f6ed89e    ..n?    DCD    1064229022
        0x00011380:    3eb78884    ...>    DCD    1052215428
        0x00011384:    3f6efcba    ..n?    DCD    1064238266
        0x00011388:    3eb6ccc3    ...>    DCD    1052167363
        0x0001138c:    3f6f20b0    . o?    DCD    1064247472
        0x00011390:    3eb610e6    ...>    DCD    1052119270
        0x00011394:    3f6f4483    .Do?    DCD    1064256643
        0x00011398:    3eb554ec    .T.>    DCD    1052071148
        0x0001139c:    3f6f6830    0ho?    DCD    1064265776
        0x000113a0:    3eb498d6    ...>    DCD    1052022998
        0x000113a4:    3f6f8bb8    ..o?    DCD    1064274872
        0x000113a8:    3eb3dca5    ...>    DCD    1051974821
        0x000113ac:    3f6faf1b    ..o?    DCD    1064283931
        0x000113b0:    3eb32058    X .>    DCD    1051926616
        0x000113b4:    3f6fd25a    Z.o?    DCD    1064292954
        0x000113b8:    3eb263ef    .c.>    DCD    1051878383
        0x000113bc:    3f6ff573    s.o?    DCD    1064301939
        0x000113c0:    3eb1a76b    k..>    DCD    1051830123
        0x000113c4:    3f701867    g.p?    DCD    1064310887
        0x000113c8:    3eb0eacb    ...>    DCD    1051781835
        0x000113cc:    3f703b37    7;p?    DCD    1064319799
        0x000113d0:    3eb02e10    ...>    DCD    1051733520
        0x000113d4:    3f705de1    .]p?    DCD    1064328673
        0x000113d8:    3eaf713a    :q.>    DCD    1051685178
        0x000113dc:    3f708066    f.p?    DCD    1064337510
        0x000113e0:    3eaeb449    I..>    DCD    1051636809
        0x000113e4:    3f70a2c6    ..p?    DCD    1064346310
        0x000113e8:    3eadf73c    <..>    DCD    1051588412
        0x000113ec:    3f70c502    ..p?    DCD    1064355074
        0x000113f0:    3ead3a15    .:.>    DCD    1051539989
        0x000113f4:    3f70e717    ..p?    DCD    1064363799
        0x000113f8:    3eac7cd4    .|.>    DCD    1051491540
        0x000113fc:    3f710908    ..q?    DCD    1064372488
        0x00011400:    3eabbf77    w..>    DCD    1051443063
        0x00011404:    3f712ad4    .*q?    DCD    1064381140
        0x00011408:    3eab0201    ...>    DCD    1051394561
        0x0001140c:    3f714c7a    zLq?    DCD    1064389754
        0x00011410:    3eaa446f    oD.>    DCD    1051346031
        0x00011414:    3f716dfb    .mq?    DCD    1064398331
        0x00011418:    3ea986c4    ...>    DCD    1051297476
        0x0001141c:    3f718f57    W.q?    DCD    1064406871
        0x00011420:    3ea8c8fe    ...>    DCD    1051248894
        0x00011424:    3f71b08e    ..q?    DCD    1064415374
        0x00011428:    3ea80b1f    ...>    DCD    1051200287
        0x0001142c:    3f71d19f    ..q?    DCD    1064423839
        0x00011430:    3ea74d25    %M.>    DCD    1051151653
        0x00011434:    3f71f28c    ..q?    DCD    1064432268
        0x00011438:    3ea68f12    ...>    DCD    1051102994
        0x0001143c:    3f721352    R.r?    DCD    1064440658
        0x00011440:    3ea5d0e5    ...>    DCD    1051054309
        0x00011444:    3f7233f4    .3r?    DCD    1064449012
        0x00011448:    3ea5129f    ...>    DCD    1051005599
        0x0001144c:    3f725470    pTr?    DCD    1064457328
        0x00011450:    3ea4543f    ?T.>    DCD    1050956863
        0x00011454:    3f7274c7    .tr?    DCD    1064465607
        0x00011458:    3ea395c5    ...>    DCD    1050908101
        0x0001145c:    3f7294f8    ..r?    DCD    1064473848
        0x00011460:    3ea2d733    3..>    DCD    1050859315
        0x00011464:    3f72b504    ..r?    DCD    1064482052
        0x00011468:    3ea21887    ...>    DCD    1050810503
        0x0001146c:    3f72d4eb    ..r?    DCD    1064490219
        0x00011470:    3ea159c2    .Y.>    DCD    1050761666
        0x00011474:    3f72f4ac    ..r?    DCD    1064498348
        0x00011478:    3ea09ae5    ...>    DCD    1050712805
        0x0001147c:    3f731447    G.s?    DCD    1064506439
        0x00011480:    3e9fdbee    ...>    DCD    1050663918
        0x00011484:    3f7333be    .3s?    DCD    1064514494
        0x00011488:    3e9f1cdf    ...>    DCD    1050615007
        0x0001148c:    3f73530e    .Ss?    DCD    1064522510
        0x00011490:    3e9e5db8    .].>    DCD    1050566072
        0x00011494:    3f737239    9rs?    DCD    1064530489
        0x00011498:    3e9d9e78    x..>    DCD    1050517112
        0x0001149c:    3f73913f    ?.s?    DCD    1064538431
        0x000114a0:    3e9cdf20     ..>    DCD    1050468128
        0x000114a4:    3f73b01f    ..s?    DCD    1064546335
        0x000114a8:    3e9c1faf    ...>    DCD    1050419119
        0x000114ac:    3f73ced9    ..s?    DCD    1064554201
        0x000114b0:    3e9b6027    '`.>    DCD    1050370087
        0x000114b4:    3f73ed6e    n.s?    DCD    1064562030
        0x000114b8:    3e9aa086    ...>    DCD    1050321030
        0x000114bc:    3f740bdd    ..t?    DCD    1064569821
        0x000114c0:    3e99e0ce    ...>    DCD    1050271950
        0x000114c4:    3f742a27    '*t?    DCD    1064577575
        0x000114c8:    3e9920fe    . .>    DCD    1050222846
        0x000114cc:    3f74484b    KHt?    DCD    1064585291
        0x000114d0:    3e986116    .a.>    DCD    1050173718
        0x000114d4:    3f746649    Ift?    DCD    1064592969
        0x000114d8:    3e97a117    ...>    DCD    1050124567
        0x000114dc:    3f748422    ".t?    DCD    1064600610
        0x000114e0:    3e96e100    ...>    DCD    1050075392
        0x000114e4:    3f74a1d5    ..t?    DCD    1064608213
        0x000114e8:    3e9620d2    . .>    DCD    1050026194
        0x000114ec:    3f74bf62    b.t?    DCD    1064615778
        0x000114f0:    3e95608d    .`.>    DCD    1049976973
        0x000114f4:    3f74dcc9    ..t?    DCD    1064623305
        0x000114f8:    3e94a031    1..>    DCD    1049927729
        0x000114fc:    3f74fa0b    ..t?    DCD    1064630795
        0x00011500:    3e93dfbf    ...>    DCD    1049878463
        0x00011504:    3f751727    '.u?    DCD    1064638247
        0x00011508:    3e931f35    5..>    DCD    1049829173
        0x0001150c:    3f75341d    .4u?    DCD    1064645661
        0x00011510:    3e925e94    .^.>    DCD    1049779860
        0x00011514:    3f7550ed    .Pu?    DCD    1064653037
        0x00011518:    3e919ddd    ...>    DCD    1049730525
        0x0001151c:    3f756d97    .mu?    DCD    1064660375
        0x00011520:    3e90dd10    ...>    DCD    1049681168
        0x00011524:    3f758a1c    ..u?    DCD    1064667676
        0x00011528:    3e901c2c    ,..>    DCD    1049631788
        0x0001152c:    3f75a67b    {.u?    DCD    1064674939
        0x00011530:    3e8f5b32    2[.>    DCD    1049582386
        0x00011534:    3f75c2b3    ..u?    DCD    1064682163
        0x00011538:    3e8e9a22    "..>    DCD    1049532962
        0x0001153c:    3f75dec6    ..u?    DCD    1064689350
        0x00011540:    3e8dd8fc    ...>    DCD    1049483516
        0x00011544:    3f75fab3    ..u?    DCD    1064696499
        0x00011548:    3e8d17c0    ...>    DCD    1049434048
        0x0001154c:    3f76167a    z.v?    DCD    1064703610
        0x00011550:    3e8c566e    nV.>    DCD    1049384558
        0x00011554:    3f76321b    .2v?    DCD    1064710683
        0x00011558:    3e8b9507    ...>    DCD    1049335047
        0x0001155c:    3f764d97    .Mv?    DCD    1064717719
        0x00011560:    3e8ad38a    ...>    DCD    1049285514
        0x00011564:    3f7668ec    .hv?    DCD    1064724716
        0x00011568:    3e8a11f8    ...>    DCD    1049235960
        0x0001156c:    3f76841b    ..v?    DCD    1064731675
        0x00011570:    3e895050    PP.>    DCD    1049186384
        0x00011574:    3f769f24    $.v?    DCD    1064738596
        0x00011578:    3e888e93    ...>    DCD    1049136787
        0x0001157c:    3f76ba07    ..v?    DCD    1064745479
        0x00011580:    3e87ccc1    ...>    DCD    1049087169
        0x00011584:    3f76d4c4    ..v?    DCD    1064752324
        0x00011588:    3e870ada    ...>    DCD    1049037530
        0x0001158c:    3f76ef5b    [.v?    DCD    1064759131
        0x00011590:    3e8648df    .H.>    DCD    1048987871
        0x00011594:    3f7709cc    ..w?    DCD    1064765900
        0x00011598:    3e8586ce    ...>    DCD    1048938190
        0x0001159c:    3f772417    .$w?    DCD    1064772631
        0x000115a0:    3e84c4aa    ...>    DCD    1048888490
        0x000115a4:    3f773e3c    <>w?    DCD    1064779324
        0x000115a8:    3e840270    p..>    DCD    1048838768
        0x000115ac:    3f77583a    :Xw?    DCD    1064785978
        0x000115b0:    3e834022    "@.>    DCD    1048789026
        0x000115b4:    3f777213    .rw?    DCD    1064792595
        0x000115b8:    3e827dc0    .}.>    DCD    1048739264
        0x000115bc:    3f778bc5    ..w?    DCD    1064799173
        0x000115c0:    3e81bb4a    J..>    DCD    1048689482
        0x000115c4:    3f77a551    Q.w?    DCD    1064805713
        0x000115c8:    3e80f8c0    ...>    DCD    1048639680
        0x000115cc:    3f77beb7    ..w?    DCD    1064812215
        0x000115d0:    3e803622    "6.>    DCD    1048589858
        0x000115d4:    3f77d7f7    ..w?    DCD    1064818679
        0x000115d8:    3e7ee6e1    ..~>    DCD    1048504033
        0x000115dc:    3f77f110    ..w?    DCD    1064825104
        0x000115e0:    3e7d6156    Va}>    DCD    1048404310
        0x000115e4:    3f780a04    ..x?    DCD    1064831492
        0x000115e8:    3e7bdba4    ..{>    DCD    1048304548
        0x000115ec:    3f7822d1    ."x?    DCD    1064837841
        0x000115f0:    3e7a55cb    .Uz>    DCD    1048204747
        0x000115f4:    3f783b77    w;x?    DCD    1064844151
        0x000115f8:    3e78cfcc    ..x>    DCD    1048104908
        0x000115fc:    3f7853f8    .Sx?    DCD    1064850424
        0x00011600:    3e7749a6    .Iw>    DCD    1048005030
        0x00011604:    3f786c52    Rlx?    DCD    1064856658
        0x00011608:    3e75c35a    Z.u>    DCD    1047905114
        0x0001160c:    3f788486    ..x?    DCD    1064862854
        0x00011610:    3e743ce8    .<t>    DCD    1047805160
        0x00011614:    3f789c93    ..x?    DCD    1064869011
        0x00011618:    3e72b651    Q.r>    DCD    1047705169
        0x0001161c:    3f78b47b    {.x?    DCD    1064875131
        0x00011620:    3e712f94    ./q>    DCD    1047605140
        0x00011624:    3f78cc3b    ;.x?    DCD    1064881211
        0x00011628:    3e6fa8b2    ..o>    DCD    1047505074
        0x0001162c:    3f78e3d6    ..x?    DCD    1064887254
        0x00011630:    3e6e21ab    .!n>    DCD    1047404971
        0x00011634:    3f78fb4a    J.x?    DCD    1064893258
        0x00011638:    3e6c9a7f    ..l>    DCD    1047304831
        0x0001163c:    3f791298    ..y?    DCD    1064899224
        0x00011640:    3e6b132f    /.k>    DCD    1047204655
        0x00011644:    3f7929bf    .)y?    DCD    1064905151
        0x00011648:    3e698bba    ..i>    DCD    1047104442
        0x0001164c:    3f7940c0    .@y?    DCD    1064911040
        0x00011650:    3e680422    ".h>    DCD    1047004194
        0x00011654:    3f79579a    .Wy?    DCD    1064916890
        0x00011658:    3e667c66    f|f>    DCD    1046903910
        0x0001165c:    3f796e4e    Nny?    DCD    1064922702
        0x00011660:    3e64f486    ..d>    DCD    1046803590
        0x00011664:    3f7984dc    ..y?    DCD    1064928476
        0x00011668:    3e636c83    .lc>    DCD    1046703235
        0x0001166c:    3f799b43    C.y?    DCD    1064934211
        0x00011670:    3e61e45c    \.a>    DCD    1046602844
        0x00011674:    3f79b183    ..y?    DCD    1064939907
        0x00011678:    3e605c13    .\`>    DCD    1046502419
        0x0001167c:    3f79c79d    ..y?    DCD    1064945565
        0x00011680:    3e5ed3a8    ..^>    DCD    1046401960
        0x00011684:    3f79dd91    ..y?    DCD    1064951185
        0x00011688:    3e5d4b1a    .K]>    DCD    1046301466
        0x0001168c:    3f79f35e    ^.y?    DCD    1064956766
        0x00011690:    3e5bc26a    j.[>    DCD    1046200938
        0x00011694:    3f7a0904    ..z?    DCD    1064962308
        0x00011698:    3e5a3997    .9Z>    DCD    1046100375
        0x0001169c:    3f7a1e84    ..z?    DCD    1064967812
        0x000116a0:    3e58b0a4    ..X>    DCD    1045999780
        0x000116a4:    3f7a33dd    .3z?    DCD    1064973277
        0x000116a8:    3e57278f    .'W>    DCD    1045899151
        0x000116ac:    3f7a4910    .Iz?    DCD    1064978704
        0x000116b0:    3e559e58    X.U>    DCD    1045798488
        0x000116b4:    3f7a5e1c    .^z?    DCD    1064984092
        0x000116b8:    3e541501    ..T>    DCD    1045697793
        0x000116bc:    3f7a7302    .sz?    DCD    1064989442
        0x000116c0:    3e528b89    ..R>    DCD    1045597065
        0x000116c4:    3f7a87c1    ..z?    DCD    1064994753
        0x000116c8:    3e5101f1    ..Q>    DCD    1045496305
        0x000116cc:    3f7a9c59    Y.z?    DCD    1065000025
        0x000116d0:    3e4f7838    8xO>    DCD    1045395512
        0x000116d4:    3f7ab0cb    ..z?    DCD    1065005259
        0x000116d8:    3e4dee60    `.M>    DCD    1045294688
        0x000116dc:    3f7ac516    ..z?    DCD    1065010454
        0x000116e0:    3e4c6467    gdL>    DCD    1045193831
        0x000116e4:    3f7ad93a    :.z?    DCD    1065015610
        0x000116e8:    3e4ada4f    O.J>    DCD    1045092943
        0x000116ec:    3f7aed37    7.z?    DCD    1065020727
        0x000116f0:    3e495018    .PI>    DCD    1044992024
        0x000116f4:    3f7b010e    ..{?    DCD    1065025806
        0x000116f8:    3e47c5c2    ..G>    DCD    1044891074
        0x000116fc:    3f7b14be    ..{?    DCD    1065030846
        0x00011700:    3e463b4d    M;F>    DCD    1044790093
        0x00011704:    3f7b2848    H({?    DCD    1065035848
        0x00011708:    3e44b0b9    ..D>    DCD    1044689081
        0x0001170c:    3f7b3bab    .;{?    DCD    1065040811
        0x00011710:    3e432607    .&C>    DCD    1044588039
        0x00011714:    3f7b4ee7    .N{?    DCD    1065045735
        0x00011718:    3e419b37    7.A>    DCD    1044486967
        0x0001171c:    3f7b61fc    .a{?    DCD    1065050620
        0x00011720:    3e401049    I.@>    DCD    1044385865
        0x00011724:    3f7b74ea    .t{?    DCD    1065055466
        0x00011728:    3e3e853e    >.>>    DCD    1044284734
        0x0001172c:    3f7b87b2    ..{?    DCD    1065060274
        0x00011730:    3e3cfa15    ..<>    DCD    1044183573
        0x00011734:    3f7b9a53    S.{?    DCD    1065065043
        0x00011738:    3e3b6ecf    .n;>    DCD    1044082383
        0x0001173c:    3f7baccd    ..{?    DCD    1065069773
        0x00011740:    3e39e36c    l.9>    DCD    1043981164
        0x00011744:    3f7bbf20     .{?    DCD    1065074464
        0x00011748:    3e3857ec    .W8>    DCD    1043879916
        0x0001174c:    3f7bd14d    M.{?    DCD    1065079117
        0x00011750:    3e36cc50    P.6>    DCD    1043778640
        0x00011754:    3f7be353    S.{?    DCD    1065083731
        0x00011758:    3e354098    .@5>    DCD    1043677336
        0x0001175c:    3f7bf531    1.{?    DCD    1065088305
        0x00011760:    3e33b4c4    ..3>    DCD    1043576004
        0x00011764:    3f7c06e9    ..|?    DCD    1065092841
        0x00011768:    3e3228d4    .(2>    DCD    1043474644
        0x0001176c:    3f7c187a    z.|?    DCD    1065097338
        0x00011770:    3e309cc9    ..0>    DCD    1043373257
        0x00011774:    3f7c29e5    .)|?    DCD    1065101797
        0x00011778:    3e2f10a2    ../>    DCD    1043271842
        0x0001177c:    3f7c3b28    (;|?    DCD    1065106216
        0x00011780:    3e2d8461    a.->    DCD    1043170401
        0x00011784:    3f7c4c44    DL|?    DCD    1065110596
        0x00011788:    3e2bf804    ..+>    DCD    1043068932
        0x0001178c:    3f7c5d3a    :]|?    DCD    1065114938
        0x00011790:    3e2a6b8d    .k*>    DCD    1042967437
        0x00011794:    3f7c6e08    .n|?    DCD    1065119240
        0x00011798:    3e28defc    ..(>    DCD    1042865916
        0x0001179c:    3f7c7eb0    .~|?    DCD    1065123504
        0x000117a0:    3e275251    QR'>    DCD    1042764369
        0x000117a4:    3f7c8f31    1.|?    DCD    1065127729
        0x000117a8:    3e25c58c    ..%>    DCD    1042662796
        0x000117ac:    3f7c9f8a    ..|?    DCD    1065131914
        0x000117b0:    3e2438ad    .8$>    DCD    1042561197
        0x000117b4:    3f7cafbd    ..|?    DCD    1065136061
        0x000117b8:    3e22abb6    ..">    DCD    1042459574
        0x000117bc:    3f7cbfc9    ..|?    DCD    1065140169
        0x000117c0:    3e211ea5    ..!>    DCD    1042357925
        0x000117c4:    3f7ccfae    ..|?    DCD    1065144238
        0x000117c8:    3e1f917b    {..>    DCD    1042256251
        0x000117cc:    3f7cdf6c    l.|?    DCD    1065148268
        0x000117d0:    3e1e0438    8..>    DCD    1042154552
        0x000117d4:    3f7cef03    ..|?    DCD    1065152259
        0x000117d8:    3e1c76de    .v.>    DCD    1042052830
        0x000117dc:    3f7cfe73    s.|?    DCD    1065156211
        0x000117e0:    3e1ae96b    k..>    DCD    1041951083
        0x000117e4:    3f7d0dbc    ..}?    DCD    1065160124
        0x000117e8:    3e195be0    .[.>    DCD    1041849312
        0x000117ec:    3f7d1cdd    ..}?    DCD    1065163997
        0x000117f0:    3e17ce3d    =..>    DCD    1041747517
        0x000117f4:    3f7d2bd8    .+}?    DCD    1065167832
        0x000117f8:    3e164083    .@.>    DCD    1041645699
        0x000117fc:    3f7d3aac    .:}?    DCD    1065171628
        0x00011800:    3e14b2b2    ...>    DCD    1041543858
        0x00011804:    3f7d4959    YI}?    DCD    1065175385
        0x00011808:    3e1324ca    .$.>    DCD    1041441994
        0x0001180c:    3f7d57de    .W}?    DCD    1065179102
        0x00011810:    3e1196cc    ...>    DCD    1041340108
        0x00011814:    3f7d663d    =f}?    DCD    1065182781
        0x00011818:    3e1008b7    ...>    DCD    1041238199
        0x0001181c:    3f7d7474    tt}?    DCD    1065186420
        0x00011820:    3e0e7a8b    .z.>    DCD    1041136267
        0x00011824:    3f7d8285    ..}?    DCD    1065190021
        0x00011828:    3e0cec4a    J..>    DCD    1041034314
        0x0001182c:    3f7d906e    n.}?    DCD    1065193582
        0x00011830:    3e0b5df3    .].>    DCD    1040932339
        0x00011834:    3f7d9e30    0.}?    DCD    1065197104
        0x00011838:    3e09cf86    ...>    DCD    1040830342
        0x0001183c:    3f7dabcc    ..}?    DCD    1065200588
        0x00011840:    3e084105    .A.>    DCD    1040728325
        0x00011844:    3f7db940    @.}?    DCD    1065204032
        0x00011848:    3e06b26e    n..>    DCD    1040626286
        0x0001184c:    3f7dc68c    ..}?    DCD    1065207436
        0x00011850:    3e0523c2    .#.>    DCD    1040524226
        0x00011854:    3f7dd3b2    ..}?    DCD    1065210802
        0x00011858:    3e039502    ...>    DCD    1040422146
        0x0001185c:    3f7de0b1    ..}?    DCD    1065214129
        0x00011860:    3e02062e    ...>    DCD    1040320046
        0x00011864:    3f7ded88    ..}?    DCD    1065217416
        0x00011868:    3e007745    Ew.>    DCD    1040217925
        0x0001186c:    3f7dfa38    8.}?    DCD    1065220664
        0x00011870:    3dfdd092    ...=    DCD    1040044178
        0x00011874:    3f7e06c2    ..~?    DCD    1065223874
        0x00011878:    3dfab273    s..=    DCD    1039839859
        0x0001187c:    3f7e1324    $.~?    DCD    1065227044
        0x00011880:    3df7942c    ,..=    DCD    1039635500
        0x00011884:    3f7e1f5e    ^.~?    DCD    1065230174
        0x00011888:    3df475c0    .u.=    DCD    1039431104
        0x0001188c:    3f7e2b72    r+~?    DCD    1065233266
        0x00011890:    3df1572e    .W.=    DCD    1039226670
        0x00011894:    3f7e375e    ^7~?    DCD    1065236318
        0x00011898:    3dee3876    v8.=    DCD    1039022198
        0x0001189c:    3f7e4323    #C~?    DCD    1065239331
        0x000118a0:    3deb199a    ...=    DCD    1038817690
        0x000118a4:    3f7e4ec1    .N~?    DCD    1065242305
        0x000118a8:    3de7fa9a    ...=    DCD    1038613146
        0x000118ac:    3f7e5a38    8Z~?    DCD    1065245240
        0x000118b0:    3de4db76    v..=    DCD    1038408566
        0x000118b4:    3f7e6588    .e~?    DCD    1065248136
        0x000118b8:    3de1bc2e    ...=    DCD    1038203950
        0x000118bc:    3f7e70b0    .p~?    DCD    1065250992
        0x000118c0:    3dde9cc4    ...=    DCD    1037999300
        0x000118c4:    3f7e7bb1    .{~?    DCD    1065253809
        0x000118c8:    3ddb7d37    7}.=    DCD    1037794615
        0x000118cc:    3f7e868b    ..~?    DCD    1065256587
        0x000118d0:    3dd85d89    .].=    DCD    1037589897
        0x000118d4:    3f7e913d    =.~?    DCD    1065259325
        0x000118d8:    3dd53db9    .=.=    DCD    1037385145
        0x000118dc:    3f7e9bc9    ..~?    DCD    1065262025
        0x000118e0:    3dd21dc8    ...=    DCD    1037180360
        0x000118e4:    3f7ea62d    -.~?    DCD    1065264685
        0x000118e8:    3dcefdb7    ...=    DCD    1036975543
        0x000118ec:    3f7eb069    i.~?    DCD    1065267305
        0x000118f0:    3dcbdd86    ...=    DCD    1036770694
        0x000118f4:    3f7eba7f    ..~?    DCD    1065269887
        0x000118f8:    3dc8bd36    6..=    DCD    1036565814
        0x000118fc:    3f7ec46d    m.~?    DCD    1065272429
        0x00011900:    3dc59cc6    ...=    DCD    1036360902
        0x00011904:    3f7ece34    4.~?    DCD    1065274932
        0x00011908:    3dc27c39    9|.=    DCD    1036155961
        0x0001190c:    3f7ed7d4    ..~?    DCD    1065277396
        0x00011910:    3dbf5b8d    .[.=    DCD    1035950989
        0x00011914:    3f7ee14c    L.~?    DCD    1065279820
        0x00011918:    3dbc3ac3    .:.=    DCD    1035745987
        0x0001191c:    3f7eea9d    ..~?    DCD    1065282205
        0x00011920:    3db919dd    ...=    DCD    1035540957
        0x00011924:    3f7ef3c7    ..~?    DCD    1065284551
        0x00011928:    3db5f8da    ...=    DCD    1035335898
        0x0001192c:    3f7efcc9    ..~?    DCD    1065286857
        0x00011930:    3db2d7bb    ...=    DCD    1035130811
        0x00011934:    3f7f05a4    ...?    DCD    1065289124
        0x00011938:    3dafb680    ...=    DCD    1034925696
        0x0001193c:    3f7f0e58    X..?    DCD    1065291352
        0x00011940:    3dac952b    +..=    DCD    1034720555
        0x00011944:    3f7f16e4    ...?    DCD    1065293540
        0x00011948:    3da973ba    .s.=    DCD    1034515386
        0x0001194c:    3f7f1f49    I..?    DCD    1065295689
        0x00011950:    3da65230    0R.=    DCD    1034310192
        0x00011954:    3f7f2787    .'.?    DCD    1065297799
        0x00011958:    3da3308c    .0.=    DCD    1034104972
        0x0001195c:    3f7f2f9d    ./.?    DCD    1065299869
        0x00011960:    3da00ecf    ...=    DCD    1033899727
        0x00011964:    3f7f378d    .7.?    DCD    1065301901
        0x00011968:    3d9cecf9    ...=    DCD    1033694457
        0x0001196c:    3f7f3f54    T?.?    DCD    1065303892
        0x00011970:    3d99cb0a    ...=    DCD    1033489162
        0x00011974:    3f7f46f4    .F.?    DCD    1065305844
        0x00011978:    3d96a905    ...=    DCD    1033283845
        0x0001197c:    3f7f4e6d    mN.?    DCD    1065307757
        0x00011980:    3d9386e7    ...=    DCD    1033078503
        0x00011984:    3f7f55bf    .U.?    DCD    1065309631
        0x00011988:    3d9064b4    .d.=    DCD    1032873140
        0x0001198c:    3f7f5ce9    .\.?    DCD    1065311465
        0x00011990:    3d8d426a    jB.=    DCD    1032667754
        0x00011994:    3f7f63ec    .c.?    DCD    1065313260
        0x00011998:    3d8a200a    . .=    DCD    1032462346
        0x0001199c:    3f7f6ac7    .j.?    DCD    1065315015
        0x000119a0:    3d86fd94    ...=    DCD    1032256916
        0x000119a4:    3f7f717b    {q.?    DCD    1065316731
        0x000119a8:    3d83db0a    ...=    DCD    1032051466
        0x000119ac:    3f7f7808    .x.?    DCD    1065318408
        0x000119b0:    3d80b86c    l..=    DCD    1031845996
        0x000119b4:    3f7f7e6d    m~.?    DCD    1065320045
        0x000119b8:    3d7b2b74    t+{=    DCD    1031482228
        0x000119bc:    3f7f84ab    ...?    DCD    1065321643
        0x000119c0:    3d74e5e9    ..t=    DCD    1031071209
        0x000119c4:    3f7f8ac2    ...?    DCD    1065323202
        0x000119c8:    3d6ea038    8.n=    DCD    1030660152
        0x000119cc:    3f7f90b1    ...?    DCD    1065324721
        0x000119d0:    3d685a62    bZh=    DCD    1030249058
        0x000119d4:    3f7f9678    x..?    DCD    1065326200
        0x000119d8:    3d621468    h.b=    DCD    1029837928
        0x000119dc:    3f7f9c18    ...?    DCD    1065327640
        0x000119e0:    3d5bce4c    L.[=    DCD    1029426764
        0x000119e4:    3f7fa191    ...?    DCD    1065329041
        0x000119e8:    3d55880e    ..U=    DCD    1029015566
        0x000119ec:    3f7fa6e3    ...?    DCD    1065330403
        0x000119f0:    3d4f41af    .AO=    DCD    1028604335
        0x000119f4:    3f7fac0d    ...?    DCD    1065331725
        0x000119f8:    3d48fb2f    /.H=    DCD    1028193071
        0x000119fc:    3f7fb10f    ...?    DCD    1065333007
        0x00011a00:    3d42b491    ..B=    DCD    1027781777
        0x00011a04:    3f7fb5ea    ...?    DCD    1065334250
        0x00011a08:    3d3c6dd5    .m<=    DCD    1027370453
        0x00011a0c:    3f7fba9e    ...?    DCD    1065335454
        0x00011a10:    3d3626fc    .&6=    DCD    1026959100
        0x00011a14:    3f7fbf2a    *..?    DCD    1065336618
        0x00011a18:    3d2fe007    ../=    DCD    1026547719
        0x00011a1c:    3f7fc38f    ...?    DCD    1065337743
        0x00011a20:    3d2998f6    ..)=    DCD    1026136310
        0x00011a24:    3f7fc7cc    ...?    DCD    1065338828
        0x00011a28:    3d2351cc    .Q#=    DCD    1025724876
        0x00011a2c:    3f7fcbe2    ...?    DCD    1065339874
        0x00011a30:    3d1d0a88    ...=    DCD    1025313416
        0x00011a34:    3f7fcfd1    ...?    DCD    1065340881
        0x00011a38:    3d16c32c    ,..=    DCD    1024901932
        0x00011a3c:    3f7fd398    ...?    DCD    1065341848
        0x00011a40:    3d107bb8    .{.=    DCD    1024490424
        0x00011a44:    3f7fd737    7..?    DCD    1065342775
        0x00011a48:    3d0a342f    /4.=    DCD    1024078895
        0x00011a4c:    3f7fdaaf    ...?    DCD    1065343663
        0x00011a50:    3d03ec90    ...=    DCD    1023667344
        0x00011a54:    3f7fde00    ...?    DCD    1065344512
        0x00011a58:    3cfb49b9    .I.<    DCD    1023101369
        0x00011a5c:    3f7fe129    )..?    DCD    1065345321
        0x00011a60:    3ceeba2d    -..<    DCD    1022278189
        0x00011a64:    3f7fe42b    +..?    DCD    1065346091
        0x00011a68:    3ce22a7b    {*.<    DCD    1021454971
        0x00011a6c:    3f7fe705    ...?    DCD    1065346821
        0x00011a70:    3cd59aa6    ...<    DCD    1020631718
        0x00011a74:    3f7fe9b8    ...?    DCD    1065347512
        0x00011a78:    3cc90ab0    ...<    DCD    1019808432
        0x00011a7c:    3f7fec43    C..?    DCD    1065348163
        0x00011a80:    3cbc7a9b    .z.<    DCD    1018985115
        0x00011a84:    3f7feea7    ...?    DCD    1065348775
        0x00011a88:    3cafea69    i..<    DCD    1018161769
        0x00011a8c:    3f7ff0e3    ...?    DCD    1065349347
        0x00011a90:    3ca35a1c    .Z.<    DCD    1017338396
        0x00011a94:    3f7ff2f8    ...?    DCD    1065349880
        0x00011a98:    3c96c9b6    ...<    DCD    1016514998
        0x00011a9c:    3f7ff4e6    ...?    DCD    1065350374
        0x00011aa0:    3c8a3938    89.<    DCD    1015691576
        0x00011aa4:    3f7ff6ac    ...?    DCD    1065350828
        0x00011aa8:    3c7b514b    KQ{<    DCD    1014714699
        0x00011aac:    3f7ff84a    J..?    DCD    1065351242
        0x00011ab0:    3c623000    .0b<    DCD    1013067776
        0x00011ab4:    3f7ff9c1    ...?    DCD    1065351617
        0x00011ab8:    3c490e90    ..I<    DCD    1011420816
        0x00011abc:    3f7ffb11    ...?    DCD    1065351953
        0x00011ac0:    3c2fed02    ../<    DCD    1009773826
        0x00011ac4:    3f7ffc39    9..?    DCD    1065352249
        0x00011ac8:    3c16cb59    Y..<    DCD    1008126809
        0x00011acc:    3f7ffd39    9..?    DCD    1065352505
        0x00011ad0:    3bfb5330    0S.;    DCD    1006326576
        0x00011ad4:    3f7ffe13    ...?    DCD    1065352723
        0x00011ad8:    3bc90f89    ...;    DCD    1003032457
        0x00011adc:    3f7ffec4    ...?    DCD    1065352900
        0x00011ae0:    3b96cbc1    ...;    DCD    999738305
        0x00011ae4:    3f7fff4e    N..?    DCD    1065353038
        0x00011ae8:    3b490fc7    ..I;    DCD    994643911
        0x00011aec:    3f7fffb1    ...?    DCD    1065353137
        0x00011af0:    3ac90fd4    ...:    DCD    986255316
        0x00011af4:    3f7fffec    ...?    DCD    1065353196
        0x00011af8:    00000000    ....    DCD    0
        0x00011afc:    3f800000    ...?    DCD    1065353216
        0x00011b00:    bac90fd4    ....    DCD    3133738964
        0x00011b04:    3f7fffec    ...?    DCD    1065353196
        0x00011b08:    bb490fc7    ..I.    DCD    3142127559
        0x00011b0c:    3f7fffb1    ...?    DCD    1065353137
        0x00011b10:    bb96cbc1    ....    DCD    3147221953
        0x00011b14:    3f7fff4e    N..?    DCD    1065353038
        0x00011b18:    bbc90f89    ....    DCD    3150516105
        0x00011b1c:    3f7ffec4    ...?    DCD    1065352900
        0x00011b20:    bbfb5330    0S..    DCD    3153810224
        0x00011b24:    3f7ffe13    ...?    DCD    1065352723
        0x00011b28:    bc16cb59    Y...    DCD    3155610457
        0x00011b2c:    3f7ffd39    9..?    DCD    1065352505
        0x00011b30:    bc2fed02    ../.    DCD    3157257474
        0x00011b34:    3f7ffc39    9..?    DCD    1065352249
        0x00011b38:    bc490e90    ..I.    DCD    3158904464
        0x00011b3c:    3f7ffb11    ...?    DCD    1065351953
        0x00011b40:    bc623000    .0b.    DCD    3160551424
        0x00011b44:    3f7ff9c1    ...?    DCD    1065351617
        0x00011b48:    bc7b514b    KQ{.    DCD    3162198347
        0x00011b4c:    3f7ff84a    J..?    DCD    1065351242
        0x00011b50:    bc8a3938    89..    DCD    3163175224
        0x00011b54:    3f7ff6ac    ...?    DCD    1065350828
        0x00011b58:    bc96c9b6    ....    DCD    3163998646
        0x00011b5c:    3f7ff4e6    ...?    DCD    1065350374
        0x00011b60:    bca35a1c    .Z..    DCD    3164822044
        0x00011b64:    3f7ff2f8    ...?    DCD    1065349880
        0x00011b68:    bcafea69    i...    DCD    3165645417
        0x00011b6c:    3f7ff0e3    ...?    DCD    1065349347
        0x00011b70:    bcbc7a9b    .z..    DCD    3166468763
        0x00011b74:    3f7feea7    ...?    DCD    1065348775
        0x00011b78:    bcc90ab0    ....    DCD    3167292080
        0x00011b7c:    3f7fec43    C..?    DCD    1065348163
        0x00011b80:    bcd59aa6    ....    DCD    3168115366
        0x00011b84:    3f7fe9b8    ...?    DCD    1065347512
        0x00011b88:    bce22a7b    {*..    DCD    3168938619
        0x00011b8c:    3f7fe705    ...?    DCD    1065346821
        0x00011b90:    bceeba2d    -...    DCD    3169761837
        0x00011b94:    3f7fe42b    +..?    DCD    1065346091
        0x00011b98:    bcfb49b9    .I..    DCD    3170585017
        0x00011b9c:    3f7fe129    )..?    DCD    1065345321
        0x00011ba0:    bd03ec90    ....    DCD    3171150992
        0x00011ba4:    3f7fde00    ...?    DCD    1065344512
        0x00011ba8:    bd0a342f    /4..    DCD    3171562543
        0x00011bac:    3f7fdaaf    ...?    DCD    1065343663
        0x00011bb0:    bd107bb8    .{..    DCD    3171974072
        0x00011bb4:    3f7fd737    7..?    DCD    1065342775
        0x00011bb8:    bd16c32c    ,...    DCD    3172385580
        0x00011bbc:    3f7fd398    ...?    DCD    1065341848
        0x00011bc0:    bd1d0a88    ....    DCD    3172797064
        0x00011bc4:    3f7fcfd1    ...?    DCD    1065340881
        0x00011bc8:    bd2351cc    .Q#.    DCD    3173208524
        0x00011bcc:    3f7fcbe2    ...?    DCD    1065339874
        0x00011bd0:    bd2998f6    ..).    DCD    3173619958
        0x00011bd4:    3f7fc7cc    ...?    DCD    1065338828
        0x00011bd8:    bd2fe007    ../.    DCD    3174031367
        0x00011bdc:    3f7fc38f    ...?    DCD    1065337743
        0x00011be0:    bd3626fc    .&6.    DCD    3174442748
        0x00011be4:    3f7fbf2a    *..?    DCD    1065336618
        0x00011be8:    bd3c6dd5    .m<.    DCD    3174854101
        0x00011bec:    3f7fba9e    ...?    DCD    1065335454
        0x00011bf0:    bd42b491    ..B.    DCD    3175265425
        0x00011bf4:    3f7fb5ea    ...?    DCD    1065334250
        0x00011bf8:    bd48fb2f    /.H.    DCD    3175676719
        0x00011bfc:    3f7fb10f    ...?    DCD    1065333007
        0x00011c00:    bd4f41af    .AO.    DCD    3176087983
        0x00011c04:    3f7fac0d    ...?    DCD    1065331725
        0x00011c08:    bd55880e    ..U.    DCD    3176499214
        0x00011c0c:    3f7fa6e3    ...?    DCD    1065330403
        0x00011c10:    bd5bce4c    L.[.    DCD    3176910412
        0x00011c14:    3f7fa191    ...?    DCD    1065329041
        0x00011c18:    bd621468    h.b.    DCD    3177321576
        0x00011c1c:    3f7f9c18    ...?    DCD    1065327640
        0x00011c20:    bd685a62    bZh.    DCD    3177732706
        0x00011c24:    3f7f9678    x..?    DCD    1065326200
        0x00011c28:    bd6ea038    8.n.    DCD    3178143800
        0x00011c2c:    3f7f90b1    ...?    DCD    1065324721
        0x00011c30:    bd74e5e9    ..t.    DCD    3178554857
        0x00011c34:    3f7f8ac2    ...?    DCD    1065323202
        0x00011c38:    bd7b2b74    t+{.    DCD    3178965876
        0x00011c3c:    3f7f84ab    ...?    DCD    1065321643
        0x00011c40:    bd80b86c    l...    DCD    3179329644
        0x00011c44:    3f7f7e6d    m~.?    DCD    1065320045
        0x00011c48:    bd83db0a    ....    DCD    3179535114
        0x00011c4c:    3f7f7808    .x.?    DCD    1065318408
        0x00011c50:    bd86fd94    ....    DCD    3179740564
        0x00011c54:    3f7f717b    {q.?    DCD    1065316731
        0x00011c58:    bd8a200a    . ..    DCD    3179945994
        0x00011c5c:    3f7f6ac7    .j.?    DCD    1065315015
        0x00011c60:    bd8d426a    jB..    DCD    3180151402
        0x00011c64:    3f7f63ec    .c.?    DCD    1065313260
        0x00011c68:    bd9064b4    .d..    DCD    3180356788
        0x00011c6c:    3f7f5ce9    .\.?    DCD    1065311465
        0x00011c70:    bd9386e7    ....    DCD    3180562151
        0x00011c74:    3f7f55bf    .U.?    DCD    1065309631
        0x00011c78:    bd96a905    ....    DCD    3180767493
        0x00011c7c:    3f7f4e6d    mN.?    DCD    1065307757
        0x00011c80:    bd99cb0a    ....    DCD    3180972810
        0x00011c84:    3f7f46f4    .F.?    DCD    1065305844
        0x00011c88:    bd9cecf9    ....    DCD    3181178105
        0x00011c8c:    3f7f3f54    T?.?    DCD    1065303892
        0x00011c90:    bda00ecf    ....    DCD    3181383375
        0x00011c94:    3f7f378d    .7.?    DCD    1065301901
        0x00011c98:    bda3308c    .0..    DCD    3181588620
        0x00011c9c:    3f7f2f9d    ./.?    DCD    1065299869
        0x00011ca0:    bda65230    0R..    DCD    3181793840
        0x00011ca4:    3f7f2787    .'.?    DCD    1065297799
        0x00011ca8:    bda973ba    .s..    DCD    3181999034
        0x00011cac:    3f7f1f49    I..?    DCD    1065295689
        0x00011cb0:    bdac952b    +...    DCD    3182204203
        0x00011cb4:    3f7f16e4    ...?    DCD    1065293540
        0x00011cb8:    bdafb680    ....    DCD    3182409344
        0x00011cbc:    3f7f0e58    X..?    DCD    1065291352
        0x00011cc0:    bdb2d7bb    ....    DCD    3182614459
        0x00011cc4:    3f7f05a4    ...?    DCD    1065289124
        0x00011cc8:    bdb5f8da    ....    DCD    3182819546
        0x00011ccc:    3f7efcc9    ..~?    DCD    1065286857
        0x00011cd0:    bdb919dd    ....    DCD    3183024605
        0x00011cd4:    3f7ef3c7    ..~?    DCD    1065284551
        0x00011cd8:    bdbc3ac3    .:..    DCD    3183229635
        0x00011cdc:    3f7eea9d    ..~?    DCD    1065282205
        0x00011ce0:    bdbf5b8d    .[..    DCD    3183434637
        0x00011ce4:    3f7ee14c    L.~?    DCD    1065279820
        0x00011ce8:    bdc27c39    9|..    DCD    3183639609
        0x00011cec:    3f7ed7d4    ..~?    DCD    1065277396
        0x00011cf0:    bdc59cc6    ....    DCD    3183844550
        0x00011cf4:    3f7ece34    4.~?    DCD    1065274932
        0x00011cf8:    bdc8bd36    6...    DCD    3184049462
        0x00011cfc:    3f7ec46d    m.~?    DCD    1065272429
        0x00011d00:    bdcbdd86    ....    DCD    3184254342
        0x00011d04:    3f7eba7f    ..~?    DCD    1065269887
        0x00011d08:    bdcefdb7    ....    DCD    3184459191
        0x00011d0c:    3f7eb069    i.~?    DCD    1065267305
        0x00011d10:    bdd21dc8    ....    DCD    3184664008
        0x00011d14:    3f7ea62d    -.~?    DCD    1065264685
        0x00011d18:    bdd53db9    .=..    DCD    3184868793
        0x00011d1c:    3f7e9bc9    ..~?    DCD    1065262025
        0x00011d20:    bdd85d89    .]..    DCD    3185073545
        0x00011d24:    3f7e913d    =.~?    DCD    1065259325
        0x00011d28:    bddb7d37    7}..    DCD    3185278263
        0x00011d2c:    3f7e868b    ..~?    DCD    1065256587
        0x00011d30:    bdde9cc4    ....    DCD    3185482948
        0x00011d34:    3f7e7bb1    .{~?    DCD    1065253809
        0x00011d38:    bde1bc2e    ....    DCD    3185687598
        0x00011d3c:    3f7e70b0    .p~?    DCD    1065250992
        0x00011d40:    bde4db76    v...    DCD    3185892214
        0x00011d44:    3f7e6588    .e~?    DCD    1065248136
        0x00011d48:    bde7fa9a    ....    DCD    3186096794
        0x00011d4c:    3f7e5a38    8Z~?    DCD    1065245240
        0x00011d50:    bdeb199a    ....    DCD    3186301338
        0x00011d54:    3f7e4ec1    .N~?    DCD    1065242305
        0x00011d58:    bdee3876    v8..    DCD    3186505846
        0x00011d5c:    3f7e4323    #C~?    DCD    1065239331
        0x00011d60:    bdf1572e    .W..    DCD    3186710318
        0x00011d64:    3f7e375e    ^7~?    DCD    1065236318
        0x00011d68:    bdf475c0    .u..    DCD    3186914752
        0x00011d6c:    3f7e2b72    r+~?    DCD    1065233266
        0x00011d70:    bdf7942c    ,...    DCD    3187119148
        0x00011d74:    3f7e1f5e    ^.~?    DCD    1065230174
        0x00011d78:    bdfab273    s...    DCD    3187323507
        0x00011d7c:    3f7e1324    $.~?    DCD    1065227044
        0x00011d80:    bdfdd092    ....    DCD    3187527826
        0x00011d84:    3f7e06c2    ..~?    DCD    1065223874
        0x00011d88:    be007745    Ew..    DCD    3187701573
        0x00011d8c:    3f7dfa38    8.}?    DCD    1065220664
        0x00011d90:    be02062e    ....    DCD    3187803694
        0x00011d94:    3f7ded88    ..}?    DCD    1065217416
        0x00011d98:    be039502    ....    DCD    3187905794
        0x00011d9c:    3f7de0b1    ..}?    DCD    1065214129
        0x00011da0:    be0523c2    .#..    DCD    3188007874
        0x00011da4:    3f7dd3b2    ..}?    DCD    1065210802
        0x00011da8:    be06b26e    n...    DCD    3188109934
        0x00011dac:    3f7dc68c    ..}?    DCD    1065207436
        0x00011db0:    be084105    .A..    DCD    3188211973
        0x00011db4:    3f7db940    @.}?    DCD    1065204032
        0x00011db8:    be09cf86    ....    DCD    3188313990
        0x00011dbc:    3f7dabcc    ..}?    DCD    1065200588
        0x00011dc0:    be0b5df3    .]..    DCD    3188415987
        0x00011dc4:    3f7d9e30    0.}?    DCD    1065197104
        0x00011dc8:    be0cec4a    J...    DCD    3188517962
        0x00011dcc:    3f7d906e    n.}?    DCD    1065193582
        0x00011dd0:    be0e7a8b    .z..    DCD    3188619915
        0x00011dd4:    3f7d8285    ..}?    DCD    1065190021
        0x00011dd8:    be1008b7    ....    DCD    3188721847
        0x00011ddc:    3f7d7474    tt}?    DCD    1065186420
        0x00011de0:    be1196cc    ....    DCD    3188823756
        0x00011de4:    3f7d663d    =f}?    DCD    1065182781
        0x00011de8:    be1324ca    .$..    DCD    3188925642
        0x00011dec:    3f7d57de    .W}?    DCD    1065179102
        0x00011df0:    be14b2b2    ....    DCD    3189027506
        0x00011df4:    3f7d4959    YI}?    DCD    1065175385
        0x00011df8:    be164083    .@..    DCD    3189129347
        0x00011dfc:    3f7d3aac    .:}?    DCD    1065171628
        0x00011e00:    be17ce3d    =...    DCD    3189231165
        0x00011e04:    3f7d2bd8    .+}?    DCD    1065167832
        0x00011e08:    be195be0    .[..    DCD    3189332960
        0x00011e0c:    3f7d1cdd    ..}?    DCD    1065163997
        0x00011e10:    be1ae96b    k...    DCD    3189434731
        0x00011e14:    3f7d0dbc    ..}?    DCD    1065160124
        0x00011e18:    be1c76de    .v..    DCD    3189536478
        0x00011e1c:    3f7cfe73    s.|?    DCD    1065156211
        0x00011e20:    be1e0438    8...    DCD    3189638200
        0x00011e24:    3f7cef03    ..|?    DCD    1065152259
        0x00011e28:    be1f917b    {...    DCD    3189739899
        0x00011e2c:    3f7cdf6c    l.|?    DCD    1065148268
        0x00011e30:    be211ea5    ..!.    DCD    3189841573
        0x00011e34:    3f7ccfae    ..|?    DCD    1065144238
        0x00011e38:    be22abb6    ..".    DCD    3189943222
        0x00011e3c:    3f7cbfc9    ..|?    DCD    1065140169
        0x00011e40:    be2438ad    .8$.    DCD    3190044845
        0x00011e44:    3f7cafbd    ..|?    DCD    1065136061
        0x00011e48:    be25c58c    ..%.    DCD    3190146444
        0x00011e4c:    3f7c9f8a    ..|?    DCD    1065131914
        0x00011e50:    be275251    QR'.    DCD    3190248017
        0x00011e54:    3f7c8f31    1.|?    DCD    1065127729
        0x00011e58:    be28defc    ..(.    DCD    3190349564
        0x00011e5c:    3f7c7eb0    .~|?    DCD    1065123504
        0x00011e60:    be2a6b8d    .k*.    DCD    3190451085
        0x00011e64:    3f7c6e08    .n|?    DCD    1065119240
        0x00011e68:    be2bf804    ..+.    DCD    3190552580
        0x00011e6c:    3f7c5d3a    :]|?    DCD    1065114938
        0x00011e70:    be2d8461    a.-.    DCD    3190654049
        0x00011e74:    3f7c4c44    DL|?    DCD    1065110596
        0x00011e78:    be2f10a2    ../.    DCD    3190755490
        0x00011e7c:    3f7c3b28    (;|?    DCD    1065106216
        0x00011e80:    be309cc9    ..0.    DCD    3190856905
        0x00011e84:    3f7c29e5    .)|?    DCD    1065101797
        0x00011e88:    be3228d4    .(2.    DCD    3190958292
        0x00011e8c:    3f7c187a    z.|?    DCD    1065097338
        0x00011e90:    be33b4c4    ..3.    DCD    3191059652
        0x00011e94:    3f7c06e9    ..|?    DCD    1065092841
        0x00011e98:    be354098    .@5.    DCD    3191160984
        0x00011e9c:    3f7bf531    1.{?    DCD    1065088305
        0x00011ea0:    be36cc50    P.6.    DCD    3191262288
        0x00011ea4:    3f7be353    S.{?    DCD    1065083731
        0x00011ea8:    be3857ec    .W8.    DCD    3191363564
        0x00011eac:    3f7bd14d    M.{?    DCD    1065079117
        0x00011eb0:    be39e36c    l.9.    DCD    3191464812
        0x00011eb4:    3f7bbf20     .{?    DCD    1065074464
        0x00011eb8:    be3b6ecf    .n;.    DCD    3191566031
        0x00011ebc:    3f7baccd    ..{?    DCD    1065069773
        0x00011ec0:    be3cfa15    ..<.    DCD    3191667221
        0x00011ec4:    3f7b9a53    S.{?    DCD    1065065043
        0x00011ec8:    be3e853e    >.>.    DCD    3191768382
        0x00011ecc:    3f7b87b2    ..{?    DCD    1065060274
        0x00011ed0:    be401049    I.@.    DCD    3191869513
        0x00011ed4:    3f7b74ea    .t{?    DCD    1065055466
        0x00011ed8:    be419b37    7.A.    DCD    3191970615
        0x00011edc:    3f7b61fc    .a{?    DCD    1065050620
        0x00011ee0:    be432607    .&C.    DCD    3192071687
        0x00011ee4:    3f7b4ee7    .N{?    DCD    1065045735
        0x00011ee8:    be44b0b9    ..D.    DCD    3192172729
        0x00011eec:    3f7b3bab    .;{?    DCD    1065040811
        0x00011ef0:    be463b4d    M;F.    DCD    3192273741
        0x00011ef4:    3f7b2848    H({?    DCD    1065035848
        0x00011ef8:    be47c5c2    ..G.    DCD    3192374722
        0x00011efc:    3f7b14be    ..{?    DCD    1065030846
        0x00011f00:    be495018    .PI.    DCD    3192475672
        0x00011f04:    3f7b010e    ..{?    DCD    1065025806
        0x00011f08:    be4ada4f    O.J.    DCD    3192576591
        0x00011f0c:    3f7aed37    7.z?    DCD    1065020727
        0x00011f10:    be4c6467    gdL.    DCD    3192677479
        0x00011f14:    3f7ad93a    :.z?    DCD    1065015610
        0x00011f18:    be4dee60    `.M.    DCD    3192778336
        0x00011f1c:    3f7ac516    ..z?    DCD    1065010454
        0x00011f20:    be4f7838    8xO.    DCD    3192879160
        0x00011f24:    3f7ab0cb    ..z?    DCD    1065005259
        0x00011f28:    be5101f1    ..Q.    DCD    3192979953
        0x00011f2c:    3f7a9c59    Y.z?    DCD    1065000025
        0x00011f30:    be528b89    ..R.    DCD    3193080713
        0x00011f34:    3f7a87c1    ..z?    DCD    1064994753
        0x00011f38:    be541501    ..T.    DCD    3193181441
        0x00011f3c:    3f7a7302    .sz?    DCD    1064989442
        0x00011f40:    be559e58    X.U.    DCD    3193282136
        0x00011f44:    3f7a5e1c    .^z?    DCD    1064984092
        0x00011f48:    be57278f    .'W.    DCD    3193382799
        0x00011f4c:    3f7a4910    .Iz?    DCD    1064978704
        0x00011f50:    be58b0a4    ..X.    DCD    3193483428
        0x00011f54:    3f7a33dd    .3z?    DCD    1064973277
        0x00011f58:    be5a3997    .9Z.    DCD    3193584023
        0x00011f5c:    3f7a1e84    ..z?    DCD    1064967812
        0x00011f60:    be5bc26a    j.[.    DCD    3193684586
        0x00011f64:    3f7a0904    ..z?    DCD    1064962308
        0x00011f68:    be5d4b1a    .K].    DCD    3193785114
        0x00011f6c:    3f79f35e    ^.y?    DCD    1064956766
        0x00011f70:    be5ed3a8    ..^.    DCD    3193885608
        0x00011f74:    3f79dd91    ..y?    DCD    1064951185
        0x00011f78:    be605c13    .\`.    DCD    3193986067
        0x00011f7c:    3f79c79d    ..y?    DCD    1064945565
        0x00011f80:    be61e45c    \.a.    DCD    3194086492
        0x00011f84:    3f79b183    ..y?    DCD    1064939907
        0x00011f88:    be636c83    .lc.    DCD    3194186883
        0x00011f8c:    3f799b43    C.y?    DCD    1064934211
        0x00011f90:    be64f486    ..d.    DCD    3194287238
        0x00011f94:    3f7984dc    ..y?    DCD    1064928476
        0x00011f98:    be667c66    f|f.    DCD    3194387558
        0x00011f9c:    3f796e4e    Nny?    DCD    1064922702
        0x00011fa0:    be680422    ".h.    DCD    3194487842
        0x00011fa4:    3f79579a    .Wy?    DCD    1064916890
        0x00011fa8:    be698bba    ..i.    DCD    3194588090
        0x00011fac:    3f7940c0    .@y?    DCD    1064911040
        0x00011fb0:    be6b132f    /.k.    DCD    3194688303
        0x00011fb4:    3f7929bf    .)y?    DCD    1064905151
        0x00011fb8:    be6c9a7f    ..l.    DCD    3194788479
        0x00011fbc:    3f791298    ..y?    DCD    1064899224
        0x00011fc0:    be6e21ab    .!n.    DCD    3194888619
        0x00011fc4:    3f78fb4a    J.x?    DCD    1064893258
        0x00011fc8:    be6fa8b2    ..o.    DCD    3194988722
        0x00011fcc:    3f78e3d6    ..x?    DCD    1064887254
        0x00011fd0:    be712f94    ./q.    DCD    3195088788
        0x00011fd4:    3f78cc3b    ;.x?    DCD    1064881211
        0x00011fd8:    be72b651    Q.r.    DCD    3195188817
        0x00011fdc:    3f78b47b    {.x?    DCD    1064875131
        0x00011fe0:    be743ce8    .<t.    DCD    3195288808
        0x00011fe4:    3f789c93    ..x?    DCD    1064869011
        0x00011fe8:    be75c35a    Z.u.    DCD    3195388762
        0x00011fec:    3f788486    ..x?    DCD    1064862854
        0x00011ff0:    be7749a6    .Iw.    DCD    3195488678
        0x00011ff4:    3f786c52    Rlx?    DCD    1064856658
        0x00011ff8:    be78cfcc    ..x.    DCD    3195588556
        0x00011ffc:    3f7853f8    .Sx?    DCD    1064850424
        0x00012000:    be7a55cb    .Uz.    DCD    3195688395
        0x00012004:    3f783b77    w;x?    DCD    1064844151
        0x00012008:    be7bdba4    ..{.    DCD    3195788196
        0x0001200c:    3f7822d1    ."x?    DCD    1064837841
        0x00012010:    be7d6156    Va}.    DCD    3195887958
        0x00012014:    3f780a04    ..x?    DCD    1064831492
        0x00012018:    be7ee6e1    ..~.    DCD    3195987681
        0x0001201c:    3f77f110    ..w?    DCD    1064825104
        0x00012020:    be803622    "6..    DCD    3196073506
        0x00012024:    3f77d7f7    ..w?    DCD    1064818679
        0x00012028:    be80f8c0    ....    DCD    3196123328
        0x0001202c:    3f77beb7    ..w?    DCD    1064812215
        0x00012030:    be81bb4a    J...    DCD    3196173130
        0x00012034:    3f77a551    Q.w?    DCD    1064805713
        0x00012038:    be827dc0    .}..    DCD    3196222912
        0x0001203c:    3f778bc5    ..w?    DCD    1064799173
        0x00012040:    be834022    "@..    DCD    3196272674
        0x00012044:    3f777213    .rw?    DCD    1064792595
        0x00012048:    be840270    p...    DCD    3196322416
        0x0001204c:    3f77583a    :Xw?    DCD    1064785978
        0x00012050:    be84c4aa    ....    DCD    3196372138
        0x00012054:    3f773e3c    <>w?    DCD    1064779324
        0x00012058:    be8586ce    ....    DCD    3196421838
        0x0001205c:    3f772417    .$w?    DCD    1064772631
        0x00012060:    be8648df    .H..    DCD    3196471519
        0x00012064:    3f7709cc    ..w?    DCD    1064765900
        0x00012068:    be870ada    ....    DCD    3196521178
        0x0001206c:    3f76ef5b    [.v?    DCD    1064759131
        0x00012070:    be87ccc1    ....    DCD    3196570817
        0x00012074:    3f76d4c4    ..v?    DCD    1064752324
        0x00012078:    be888e93    ....    DCD    3196620435
        0x0001207c:    3f76ba07    ..v?    DCD    1064745479
        0x00012080:    be895050    PP..    DCD    3196670032
        0x00012084:    3f769f24    $.v?    DCD    1064738596
        0x00012088:    be8a11f8    ....    DCD    3196719608
        0x0001208c:    3f76841b    ..v?    DCD    1064731675
        0x00012090:    be8ad38a    ....    DCD    3196769162
        0x00012094:    3f7668ec    .hv?    DCD    1064724716
        0x00012098:    be8b9507    ....    DCD    3196818695
        0x0001209c:    3f764d97    .Mv?    DCD    1064717719
        0x000120a0:    be8c566e    nV..    DCD    3196868206
        0x000120a4:    3f76321b    .2v?    DCD    1064710683
        0x000120a8:    be8d17c0    ....    DCD    3196917696
        0x000120ac:    3f76167a    z.v?    DCD    1064703610
        0x000120b0:    be8dd8fc    ....    DCD    3196967164
        0x000120b4:    3f75fab3    ..u?    DCD    1064696499
        0x000120b8:    be8e9a22    "...    DCD    3197016610
        0x000120bc:    3f75dec6    ..u?    DCD    1064689350
        0x000120c0:    be8f5b32    2[..    DCD    3197066034
        0x000120c4:    3f75c2b3    ..u?    DCD    1064682163
        0x000120c8:    be901c2c    ,...    DCD    3197115436
        0x000120cc:    3f75a67b    {.u?    DCD    1064674939
        0x000120d0:    be90dd10    ....    DCD    3197164816
        0x000120d4:    3f758a1c    ..u?    DCD    1064667676
        0x000120d8:    be919ddd    ....    DCD    3197214173
        0x000120dc:    3f756d97    .mu?    DCD    1064660375
        0x000120e0:    be925e94    .^..    DCD    3197263508
        0x000120e4:    3f7550ed    .Pu?    DCD    1064653037
        0x000120e8:    be931f35    5...    DCD    3197312821
        0x000120ec:    3f75341d    .4u?    DCD    1064645661
        0x000120f0:    be93dfbf    ....    DCD    3197362111
        0x000120f4:    3f751727    '.u?    DCD    1064638247
        0x000120f8:    be94a031    1...    DCD    3197411377
        0x000120fc:    3f74fa0b    ..t?    DCD    1064630795
        0x00012100:    be95608d    .`..    DCD    3197460621
        0x00012104:    3f74dcc9    ..t?    DCD    1064623305
        0x00012108:    be9620d2    . ..    DCD    3197509842
        0x0001210c:    3f74bf62    b.t?    DCD    1064615778
        0x00012110:    be96e100    ....    DCD    3197559040
        0x00012114:    3f74a1d5    ..t?    DCD    1064608213
        0x00012118:    be97a117    ....    DCD    3197608215
        0x0001211c:    3f748422    ".t?    DCD    1064600610
        0x00012120:    be986116    .a..    DCD    3197657366
        0x00012124:    3f746649    Ift?    DCD    1064592969
        0x00012128:    be9920fe    . ..    DCD    3197706494
        0x0001212c:    3f74484b    KHt?    DCD    1064585291
        0x00012130:    be99e0ce    ....    DCD    3197755598
        0x00012134:    3f742a27    '*t?    DCD    1064577575
        0x00012138:    be9aa086    ....    DCD    3197804678
        0x0001213c:    3f740bdd    ..t?    DCD    1064569821
        0x00012140:    be9b6027    '`..    DCD    3197853735
        0x00012144:    3f73ed6e    n.s?    DCD    1064562030
        0x00012148:    be9c1faf    ....    DCD    3197902767
        0x0001214c:    3f73ced9    ..s?    DCD    1064554201
        0x00012150:    be9cdf20     ...    DCD    3197951776
        0x00012154:    3f73b01f    ..s?    DCD    1064546335
        0x00012158:    be9d9e78    x...    DCD    3198000760
        0x0001215c:    3f73913f    ?.s?    DCD    1064538431
        0x00012160:    be9e5db8    .]..    DCD    3198049720
        0x00012164:    3f737239    9rs?    DCD    1064530489
        0x00012168:    be9f1cdf    ....    DCD    3198098655
        0x0001216c:    3f73530e    .Ss?    DCD    1064522510
        0x00012170:    be9fdbee    ....    DCD    3198147566
        0x00012174:    3f7333be    .3s?    DCD    1064514494
        0x00012178:    bea09ae5    ....    DCD    3198196453
        0x0001217c:    3f731447    G.s?    DCD    1064506439
        0x00012180:    bea159c2    .Y..    DCD    3198245314
        0x00012184:    3f72f4ac    ..r?    DCD    1064498348
        0x00012188:    bea21887    ....    DCD    3198294151
        0x0001218c:    3f72d4eb    ..r?    DCD    1064490219
        0x00012190:    bea2d733    3...    DCD    3198342963
        0x00012194:    3f72b504    ..r?    DCD    1064482052
        0x00012198:    bea395c5    ....    DCD    3198391749
        0x0001219c:    3f7294f8    ..r?    DCD    1064473848
        0x000121a0:    bea4543f    ?T..    DCD    3198440511
        0x000121a4:    3f7274c7    .tr?    DCD    1064465607
        0x000121a8:    bea5129f    ....    DCD    3198489247
        0x000121ac:    3f725470    pTr?    DCD    1064457328
        0x000121b0:    bea5d0e5    ....    DCD    3198537957
        0x000121b4:    3f7233f4    .3r?    DCD    1064449012
        0x000121b8:    bea68f12    ....    DCD    3198586642
        0x000121bc:    3f721352    R.r?    DCD    1064440658
        0x000121c0:    bea74d25    %M..    DCD    3198635301
        0x000121c4:    3f71f28c    ..q?    DCD    1064432268
        0x000121c8:    bea80b1f    ....    DCD    3198683935
        0x000121cc:    3f71d19f    ..q?    DCD    1064423839
        0x000121d0:    bea8c8fe    ....    DCD    3198732542
        0x000121d4:    3f71b08e    ..q?    DCD    1064415374
        0x000121d8:    bea986c4    ....    DCD    3198781124
        0x000121dc:    3f718f57    W.q?    DCD    1064406871
        0x000121e0:    beaa446f    oD..    DCD    3198829679
        0x000121e4:    3f716dfb    .mq?    DCD    1064398331
        0x000121e8:    beab0201    ....    DCD    3198878209
        0x000121ec:    3f714c7a    zLq?    DCD    1064389754
        0x000121f0:    beabbf77    w...    DCD    3198926711
        0x000121f4:    3f712ad4    .*q?    DCD    1064381140
        0x000121f8:    beac7cd4    .|..    DCD    3198975188
        0x000121fc:    3f710908    ..q?    DCD    1064372488
        0x00012200:    bead3a15    .:..    DCD    3199023637
        0x00012204:    3f70e717    ..p?    DCD    1064363799
        0x00012208:    beadf73c    <...    DCD    3199072060
        0x0001220c:    3f70c502    ..p?    DCD    1064355074
        0x00012210:    beaeb449    I...    DCD    3199120457
        0x00012214:    3f70a2c6    ..p?    DCD    1064346310
        0x00012218:    beaf713a    :q..    DCD    3199168826
        0x0001221c:    3f708066    f.p?    DCD    1064337510
        0x00012220:    beb02e10    ....    DCD    3199217168
        0x00012224:    3f705de1    .]p?    DCD    1064328673
        0x00012228:    beb0eacb    ....    DCD    3199265483
        0x0001222c:    3f703b37    7;p?    DCD    1064319799
        0x00012230:    beb1a76b    k...    DCD    3199313771
        0x00012234:    3f701867    g.p?    DCD    1064310887
        0x00012238:    beb263ef    .c..    DCD    3199362031
        0x0001223c:    3f6ff573    s.o?    DCD    1064301939
        0x00012240:    beb32058    X ..    DCD    3199410264
        0x00012244:    3f6fd25a    Z.o?    DCD    1064292954
        0x00012248:    beb3dca5    ....    DCD    3199458469
        0x0001224c:    3f6faf1b    ..o?    DCD    1064283931
        0x00012250:    beb498d6    ....    DCD    3199506646
        0x00012254:    3f6f8bb8    ..o?    DCD    1064274872
        0x00012258:    beb554ec    .T..    DCD    3199554796
        0x0001225c:    3f6f6830    0ho?    DCD    1064265776
        0x00012260:    beb610e6    ....    DCD    3199602918
        0x00012264:    3f6f4483    .Do?    DCD    1064256643
        0x00012268:    beb6ccc3    ....    DCD    3199651011
        0x0001226c:    3f6f20b0    . o?    DCD    1064247472
        0x00012270:    beb78884    ....    DCD    3199699076
        0x00012274:    3f6efcba    ..n?    DCD    1064238266
        0x00012278:    beb8442a    *D..    DCD    3199747114
        0x0001227c:    3f6ed89e    ..n?    DCD    1064229022
        0x00012280:    beb8ffb2    ....    DCD    3199795122
        0x00012284:    3f6eb45d    ].n?    DCD    1064219741
        0x00012288:    beb9bb1e    ....    DCD    3199843102
        0x0001228c:    3f6e8ff8    ..n?    DCD    1064210424
        0x00012290:    beba766e    nv..    DCD    3199891054
        0x00012294:    3f6e6b6d    mkn?    DCD    1064201069
        0x00012298:    bebb31a0    .1..    DCD    3199938976
        0x0001229c:    3f6e46be    .Fn?    DCD    1064191678
        0x000122a0:    bebbecb6    ....    DCD    3199986870
        0x000122a4:    3f6e21eb    .!n?    DCD    1064182251
        0x000122a8:    bebca7af    ....    DCD    3200034735
        0x000122ac:    3f6dfcf2    ..m?    DCD    1064172786
        0x000122b0:    bebd628b    .b..    DCD    3200082571
        0x000122b4:    3f6dd7d5    ..m?    DCD    1064163285
        0x000122b8:    bebe1d4a    J...    DCD    3200130378
        0x000122bc:    3f6db293    ..m?    DCD    1064153747
        0x000122c0:    bebed7eb    ....    DCD    3200178155
        0x000122c4:    3f6d8d2d    -.m?    DCD    1064144173
        0x000122c8:    bebf926f    o...    DCD    3200225903
        0x000122cc:    3f6d67a1    .gm?    DCD    1064134561
        0x000122d0:    bec04cd5    .L..    DCD    3200273621
        0x000122d4:    3f6d41f2    .Am?    DCD    1064124914
        0x000122d8:    bec1071e    ....    DCD    3200321310
        0x000122dc:    3f6d1c1d    ..m?    DCD    1064115229
        0x000122e0:    bec1c148    H...    DCD    3200368968
        0x000122e4:    3f6cf624    $.l?    DCD    1064105508
        0x000122e8:    bec27b55    U{..    DCD    3200416597
        0x000122ec:    3f6cd007    ..l?    DCD    1064095751
        0x000122f0:    bec33544    D5..    DCD    3200464196
        0x000122f4:    3f6ca9c5    ..l?    DCD    1064085957
        0x000122f8:    bec3ef15    ....    DCD    3200511765
        0x000122fc:    3f6c835e    ^.l?    DCD    1064076126
        0x00012300:    bec4a8c8    ....    DCD    3200559304
        0x00012304:    3f6c5cd4    .\l?    DCD    1064066260
        0x00012308:    bec5625c    \b..    DCD    3200606812
        0x0001230c:    3f6c3624    $6l?    DCD    1064056356
        0x00012310:    bec61bd2    ....    DCD    3200654290
        0x00012314:    3f6c0f50    P.l?    DCD    1064046416
        0x00012318:    bec6d529    )...    DCD    3200701737
        0x0001231c:    3f6be858    X.k?    DCD    1064036440
        0x00012320:    bec78e62    b...    DCD    3200749154
        0x00012324:    3f6bc13b    ;.k?    DCD    1064026427
        0x00012328:    bec8477c    |G..    DCD    3200796540
        0x0001232c:    3f6b99fb    ..k?    DCD    1064016379
        0x00012330:    bec90077    w...    DCD    3200843895
        0x00012334:    3f6b7295    .rk?    DCD    1064006293
        0x00012338:    bec9b953    S...    DCD    3200891219
        0x0001233c:    3f6b4b0c    .Kk?    DCD    1063996172
        0x00012340:    beca7210    .r..    DCD    3200938512
        0x00012344:    3f6b235e    ^#k?    DCD    1063986014
        0x00012348:    becb2aae    .*..    DCD    3200985774
        0x0001234c:    3f6afb8c    ..j?    DCD    1063975820
        0x00012350:    becbe32c    ,...    DCD    3201033004
        0x00012354:    3f6ad395    ..j?    DCD    1063965589
        0x00012358:    becc9b8b    ....    DCD    3201080203
        0x0001235c:    3f6aab7b    {.j?    DCD    1063955323
        0x00012360:    becd53ca    .S..    DCD    3201127370
        0x00012364:    3f6a833c    <.j?    DCD    1063945020
        0x00012368:    bece0bea    ....    DCD    3201174506
        0x0001236c:    3f6a5ad9    .Zj?    DCD    1063934681
        0x00012370:    becec3ea    ....    DCD    3201221610
        0x00012374:    3f6a3252    R2j?    DCD    1063924306
        0x00012378:    becf7bca    .{..    DCD    3201268682
        0x0001237c:    3f6a09a7    ..j?    DCD    1063913895
        0x00012380:    bed0338a    .3..    DCD    3201315722
        0x00012384:    3f69e0d7    ..i?    DCD    1063903447
        0x00012388:    bed0eb2a    *...    DCD    3201362730
        0x0001238c:    3f69b7e4    ..i?    DCD    1063892964
        0x00012390:    bed1a2aa    ....    DCD    3201409706
        0x00012394:    3f698ecc    ..i?    DCD    1063882444
        0x00012398:    bed25a09    .Z..    DCD    3201456649
        0x0001239c:    3f696591    .ei?    DCD    1063871889
        0x000123a0:    bed31148    H...    DCD    3201503560
        0x000123a4:    3f693c32    2<i?    DCD    1063861298
        0x000123a8:    bed3c867    g...    DCD    3201550439
        0x000123ac:    3f6912ae    ..i?    DCD    1063850670
        0x000123b0:    bed47f64    d...    DCD    3201597284
        0x000123b4:    3f68e907    ..h?    DCD    1063840007
        0x000123b8:    bed53641    A6..    DCD    3201644097
        0x000123bc:    3f68bf3c    <.h?    DCD    1063829308
        0x000123c0:    bed5ecfd    ....    DCD    3201690877
        0x000123c4:    3f68954c    L.h?    DCD    1063818572
        0x000123c8:    bed6a399    ....    DCD    3201737625
        0x000123cc:    3f686b39    9kh?    DCD    1063807801
        0x000123d0:    bed75a13    .Z..    DCD    3201784339
        0x000123d4:    3f684103    .Ah?    DCD    1063796995
        0x000123d8:    bed8106b    k...    DCD    3201831019
        0x000123dc:    3f6816a8    ..h?    DCD    1063786152
        0x000123e0:    bed8c6a3    ....    DCD    3201877667
        0x000123e4:    3f67ec2a    *.g?    DCD    1063775274
        0x000123e8:    bed97cb9    .|..    DCD    3201924281
        0x000123ec:    3f67c187    ..g?    DCD    1063764359
        0x000123f0:    beda32ad    .2..    DCD    3201970861
        0x000123f4:    3f6796c1    ..g?    DCD    1063753409
        0x000123f8:    bedae880    ....    DCD    3202017408
        0x000123fc:    3f676bd8    .kg?    DCD    1063742424
        0x00012400:    bedb9e31    1...    DCD    3202063921
        0x00012404:    3f6740ca    .@g?    DCD    1063731402
        0x00012408:    bedc53c1    .S..    DCD    3202110401
        0x0001240c:    3f671599    ..g?    DCD    1063720345
        0x00012410:    bedd092e    ....    DCD    3202156846
        0x00012414:    3f66ea45    E.f?    DCD    1063709253
        0x00012418:    beddbe79    y...    DCD    3202203257
        0x0001241c:    3f66becc    ..f?    DCD    1063698124
        0x00012420:    bede73a2    .s..    DCD    3202249634
        0x00012424:    3f669330    0.f?    DCD    1063686960
        0x00012428:    bedf28a9    .(..    DCD    3202295977
        0x0001242c:    3f666771    qgf?    DCD    1063675761
        0x00012430:    bedfdd8d    ....    DCD    3202342285
        0x00012434:    3f663b8e    .;f?    DCD    1063664526
        0x00012438:    bee0924f    O...    DCD    3202388559
        0x0001243c:    3f660f88    ..f?    DCD    1063653256
        0x00012440:    bee146ee    .F..    DCD    3202434798
        0x00012444:    3f65e35e    ^.e?    DCD    1063641950
        0x00012448:    bee1fb6a    j...    DCD    3202481002
        0x0001244c:    3f65b710    ..e?    DCD    1063630608
        0x00012450:    bee2afc4    ....    DCD    3202527172
        0x00012454:    3f658aa0    ..e?    DCD    1063619232
        0x00012458:    bee363fa    .c..    DCD    3202573306
        0x0001245c:    3f655e0b    .^e?    DCD    1063607819
        0x00012460:    bee4180e    ....    DCD    3202619406
        0x00012464:    3f653154    T1e?    DCD    1063596372
        0x00012468:    bee4cbfe    ....    DCD    3202665470
        0x0001246c:    3f650479    y.e?    DCD    1063584889
        0x00012470:    bee57fcb    ....    DCD    3202711499
        0x00012474:    3f64d77b    {.d?    DCD    1063573371
        0x00012478:    bee63375    u3..    DCD    3202757493
        0x0001247c:    3f64aa59    Y.d?    DCD    1063561817
        0x00012480:    bee6e6fb    ....    DCD    3202803451
        0x00012484:    3f647d14    .}d?    DCD    1063550228
        0x00012488:    bee79a5d    ]...    DCD    3202849373
        0x0001248c:    3f644fac    .Od?    DCD    1063538604
        0x00012490:    bee84d9c    .M..    DCD    3202895260
        0x00012494:    3f642221    !"d?    DCD    1063526945
        0x00012498:    bee900b7    ....    DCD    3202941111
        0x0001249c:    3f63f473    s.c?    DCD    1063515251
        0x000124a0:    bee9b3ae    ....    DCD    3202986926
        0x000124a4:    3f63c6a1    ..c?    DCD    1063503521
        0x000124a8:    beea6681    .f..    DCD    3203032705
        0x000124ac:    3f6398ac    ..c?    DCD    1063491756
        0x000124b0:    beeb1930    0...    DCD    3203078448
        0x000124b4:    3f636a95    .jc?    DCD    1063479957
        0x000124b8:    beebcbbb    ....    DCD    3203124155
        0x000124bc:    3f633c5a    Z<c?    DCD    1063468122
        0x000124c0:    beec7e21    !~..    DCD    3203169825
        0x000124c4:    3f630dfc    ..c?    DCD    1063456252
        0x000124c8:    beed3063    c0..    DCD    3203215459
        0x000124cc:    3f62df7b    {.b?    DCD    1063444347
        0x000124d0:    beede280    ....    DCD    3203261056
        0x000124d4:    3f62b0d7    ..b?    DCD    1063432407
        0x000124d8:    beee9479    y...    DCD    3203306617
        0x000124dc:    3f628210    ..b?    DCD    1063420432
        0x000124e0:    beef464c    LF..    DCD    3203352140
        0x000124e4:    3f625326    &Sb?    DCD    1063408422
        0x000124e8:    beeff7fb    ....    DCD    3203397627
        0x000124ec:    3f62241a    .$b?    DCD    1063396378
        0x000124f0:    bef0a985    ....    DCD    3203443077
        0x000124f4:    3f61f4ea    ..a?    DCD    1063384298
        0x000124f8:    bef15aea    .Z..    DCD    3203488490
        0x000124fc:    3f61c598    ..a?    DCD    1063372184
        0x00012500:    bef20c29    )...    DCD    3203533865
        0x00012504:    3f619622    ".a?    DCD    1063360034
        0x00012508:    bef2bd43    C...    DCD    3203579203
        0x0001250c:    3f61668a    .fa?    DCD    1063347850
        0x00012510:    bef36e38    8n..    DCD    3203624504
        0x00012514:    3f6136d0    .6a?    DCD    1063335632
        0x00012518:    bef41f07    ....    DCD    3203669767
        0x0001251c:    3f6106f2    ..a?    DCD    1063323378
        0x00012520:    bef4cfb1    ....    DCD    3203714993
        0x00012524:    3f60d6f2    ..`?    DCD    1063311090
        0x00012528:    bef58035    5...    DCD    3203760181
        0x0001252c:    3f60a6cf    ..`?    DCD    1063298767
        0x00012530:    bef63093    .0..    DCD    3203805331
        0x00012534:    3f607689    .v`?    DCD    1063286409
        0x00012538:    bef6e0cb    ....    DCD    3203850443
        0x0001253c:    3f604621    !F`?    DCD    1063274017
        0x00012540:    bef790dc    ....    DCD    3203895516
        0x00012544:    3f601596    ..`?    DCD    1063261590
        0x00012548:    bef840c8    .@..    DCD    3203940552
        0x0001254c:    3f5fe4e9    .._?    DCD    1063249129
        0x00012550:    bef8f08e    ....    DCD    3203985550
        0x00012554:    3f5fb419    .._?    DCD    1063236633
        0x00012558:    bef9a02d    -...    DCD    3204030509
        0x0001255c:    3f5f8327    '._?    DCD    1063224103
        0x00012560:    befa4fa5    .O..    DCD    3204075429
        0x00012564:    3f5f5212    .R_?    DCD    1063211538
        0x00012568:    befafef7    ....    DCD    3204120311
        0x0001256c:    3f5f20db    . _?    DCD    1063198939
        0x00012570:    befbae22    "...    DCD    3204165154
        0x00012574:    3f5eef81    ..^?    DCD    1063186305
        0x00012578:    befc5d27    ']..    DCD    3204209959
        0x0001257c:    3f5ebe05    ..^?    DCD    1063173637
        0x00012580:    befd0c04    ....    DCD    3204254724
        0x00012584:    3f5e8c67    g.^?    DCD    1063160935
        0x00012588:    befdbabb    ....    DCD    3204299451
        0x0001258c:    3f5e5aa6    .Z^?    DCD    1063148198
        0x00012590:    befe694a    Ji..    DCD    3204344138
        0x00012594:    3f5e28c3    .(^?    DCD    1063135427
        0x00012598:    beff17b2    ....    DCD    3204388786
        0x0001259c:    3f5df6be    ..]?    DCD    1063122622
        0x000125a0:    beffc5f3    ....    DCD    3204433395
        0x000125a4:    3f5dc497    ..]?    DCD    1063109783
        0x000125a8:    bf003a06    .:..    DCD    3204463110
        0x000125ac:    3f5d924d    M.]?    DCD    1063096909
        0x000125b0:    bf0090ff    ....    DCD    3204485375
        0x000125b4:    3f5d5fe1    ._]?    DCD    1063084001
        0x000125b8:    bf00e7e4    ....    DCD    3204507620
        0x000125bc:    3f5d2d53    S-]?    DCD    1063071059
        0x000125c0:    bf013eb5    .>..    DCD    3204529845
        0x000125c4:    3f5cfaa3    ..\?    DCD    1063058083
        0x000125c8:    bf019573    s...    DCD    3204552051
        0x000125cc:    3f5cc7d1    ..\?    DCD    1063045073
        0x000125d0:    bf01ec1c    ....    DCD    3204574236
        0x000125d4:    3f5c94dd    ..\?    DCD    1063032029
        0x000125d8:    bf0242b1    .B..    DCD    3204596401
        0x000125dc:    3f5c61c7    .a\?    DCD    1063018951
        0x000125e0:    bf029932    2...    DCD    3204618546
        0x000125e4:    3f5c2e8e    ..\?    DCD    1063005838
        0x000125e8:    bf02ef9f    ....    DCD    3204640671
        0x000125ec:    3f5bfb34    4.[?    DCD    1062992692
        0x000125f0:    bf0345f8    .E..    DCD    3204662776
        0x000125f4:    3f5bc7b8    ..[?    DCD    1062979512
        0x000125f8:    bf039c3d    =...    DCD    3204684861
        0x000125fc:    3f5b941a    ..[?    DCD    1062966298
        0x00012600:    bf03f26d    m...    DCD    3204706925
        0x00012604:    3f5b605a    Z`[?    DCD    1062953050
        0x00012608:    bf044889    .H..    DCD    3204728969
        0x0001260c:    3f5b2c79    y,[?    DCD    1062939769
        0x00012610:    bf049e91    ....    DCD    3204750993
        0x00012614:    3f5af875    u.Z?    DCD    1062926453
        0x00012618:    bf04f484    ....    DCD    3204772996
        0x0001261c:    3f5ac450    P.Z?    DCD    1062913104
        0x00012620:    bf054a62    bJ..    DCD    3204794978
        0x00012624:    3f5a9009    ..Z?    DCD    1062899721
        0x00012628:    bf05a02c    ,...    DCD    3204816940
        0x0001262c:    3f5a5ba0    .[Z?    DCD    1062886304
        0x00012630:    bf05f5e2    ....    DCD    3204838882
        0x00012634:    3f5a2716    .'Z?    DCD    1062872854
        0x00012638:    bf064b82    .K..    DCD    3204860802
        0x0001263c:    3f59f26a    j.Y?    DCD    1062859370
        0x00012640:    bf06a10e    ....    DCD    3204882702
        0x00012644:    3f59bd9c    ..Y?    DCD    1062845852
        0x00012648:    bf06f686    ....    DCD    3204904582
        0x0001264c:    3f5988ad    ..Y?    DCD    1062832301
        0x00012650:    bf074be8    .K..    DCD    3204926440
        0x00012654:    3f59539c    .SY?    DCD    1062818716
        0x00012658:    bf07a136    6...    DCD    3204948278
        0x0001265c:    3f591e6a    j.Y?    DCD    1062805098
        0x00012660:    bf07f66f    o...    DCD    3204970095
        0x00012664:    3f58e917    ..X?    DCD    1062791447
        0x00012668:    bf084b92    .K..    DCD    3204991890
        0x0001266c:    3f58b3a1    ..X?    DCD    1062777761
        0x00012670:    bf08a0a1    ....    DCD    3205013665
        0x00012674:    3f587e0b    .~X?    DCD    1062764043
        0x00012678:    bf08f59b    ....    DCD    3205035419
        0x0001267c:    3f584853    SHX?    DCD    1062750291
        0x00012680:    bf094a7f    .J..    DCD    3205057151
        0x00012684:    3f581279    y.X?    DCD    1062736505
        0x00012688:    bf099f4e    N...    DCD    3205078862
        0x0001268c:    3f57dc7f    ..W?    DCD    1062722687
        0x00012690:    bf09f409    ....    DCD    3205100553
        0x00012694:    3f57a663    c.W?    DCD    1062708835
        0x00012698:    bf0a48ad    .H..    DCD    3205122221
        0x0001269c:    3f577026    &pW?    DCD    1062694950
        0x000126a0:    bf0a9d3d    =...    DCD    3205143869
        0x000126a4:    3f5739c7    .9W?    DCD    1062681031
        0x000126a8:    bf0af1b7    ....    DCD    3205165495
        0x000126ac:    3f570348    H.W?    DCD    1062667080
        0x000126b0:    bf0b461c    .F..    DCD    3205187100
        0x000126b4:    3f56cca7    ..V?    DCD    1062653095
        0x000126b8:    bf0b9a6b    k...    DCD    3205208683
        0x000126bc:    3f5695e5    ..V?    DCD    1062639077
        0x000126c0:    bf0beea5    ....    DCD    3205230245
        0x000126c4:    3f565f02    ._V?    DCD    1062625026
        0x000126c8:    bf0c42c9    .B..    DCD    3205251785
        0x000126cc:    3f5627fe    .'V?    DCD    1062610942
        0x000126d0:    bf0c96d7    ....    DCD    3205273303
        0x000126d4:    3f55f0d9    ..U?    DCD    1062596825
        0x000126d8:    bf0cead0    ....    DCD    3205294800
        0x000126dc:    3f55b993    ..U?    DCD    1062582675
        0x000126e0:    bf0d3eb3    .>..    DCD    3205316275
        0x000126e4:    3f55822c    ,.U?    DCD    1062568492
        0x000126e8:    bf0d9281    ....    DCD    3205337729
        0x000126ec:    3f554aa4    .JU?    DCD    1062554276
        0x000126f0:    bf0de638    8...    DCD    3205359160
        0x000126f4:    3f5512fb    ..U?    DCD    1062540027
        0x000126f8:    bf0e39da    .9..    DCD    3205380570
        0x000126fc:    3f54db31    1.T?    DCD    1062525745
        0x00012700:    bf0e8d65    e...    DCD    3205401957
        0x00012704:    3f54a347    G.T?    DCD    1062511431
        0x00012708:    bf0ee0db    ....    DCD    3205423323
        0x0001270c:    3f546b3b    ;kT?    DCD    1062497083
        0x00012710:    bf0f343b    ;4..    DCD    3205444667
        0x00012714:    3f54330f    .3T?    DCD    1062482703
        0x00012718:    bf0f8784    ....    DCD    3205465988
        0x0001271c:    3f53fac3    ..S?    DCD    1062468291
        0x00012720:    bf0fdab8    ....    DCD    3205487288
        0x00012724:    3f53c255    U.S?    DCD    1062453845
        0x00012728:    bf102dd5    .-..    DCD    3205508565
        0x0001272c:    3f5389c7    ..S?    DCD    1062439367
        0x00012730:    bf1080dc    ....    DCD    3205529820
        0x00012734:    3f535118    .QS?    DCD    1062424856
        0x00012738:    bf10d3cd    ....    DCD    3205551053
        0x0001273c:    3f531849    I.S?    DCD    1062410313
        0x00012740:    bf1126a7    .&..    DCD    3205572263
        0x00012744:    3f52df59    Y.R?    DCD    1062395737
        0x00012748:    bf11796b    ky..    DCD    3205593451
        0x0001274c:    3f52a649    I.R?    DCD    1062381129
        0x00012750:    bf11cc19    ....    DCD    3205614617
        0x00012754:    3f526d18    .mR?    DCD    1062366488
        0x00012758:    bf121eb0    ....    DCD    3205635760
        0x0001275c:    3f5233c6    .3R?    DCD    1062351814
        0x00012760:    bf127130    0q..    DCD    3205656880
        0x00012764:    3f51fa54    T.Q?    DCD    1062337108
        0x00012768:    bf12c39a    ....    DCD    3205677978
        0x0001276c:    3f51c0c2    ..Q?    DCD    1062322370
        0x00012770:    bf1315ee    ....    DCD    3205699054
        0x00012774:    3f518710    ..Q?    DCD    1062307600
        0x00012778:    bf13682a    *h..    DCD    3205720106
        0x0001277c:    3f514d3d    =MQ?    DCD    1062292797
        0x00012780:    bf13ba50    P...    DCD    3205741136
        0x00012784:    3f51134a    J.Q?    DCD    1062277962
        0x00012788:    bf140c5f    _...    DCD    3205762143
        0x0001278c:    3f50d937    7.P?    DCD    1062263095
        0x00012790:    bf145e58    X^..    DCD    3205783128
        0x00012794:    3f509f03    ..P?    DCD    1062248195
        0x00012798:    bf14b039    9...    DCD    3205804089
        0x0001279c:    3f5064af    .dP?    DCD    1062233263
        0x000127a0:    bf150204    ....    DCD    3205825028
        0x000127a4:    3f502a3b    ;*P?    DCD    1062218299
        0x000127a8:    bf1553b7    .S..    DCD    3205845943
        0x000127ac:    3f4fefa8    ..O?    DCD    1062203304
        0x000127b0:    bf15a554    T...    DCD    3205866836
        0x000127b4:    3f4fb4f4    ..O?    DCD    1062188276
        0x000127b8:    bf15f6d9    ....    DCD    3205887705
        0x000127bc:    3f4f7a1f    .zO?    DCD    1062173215
        0x000127c0:    bf164847    GH..    DCD    3205908551
        0x000127c4:    3f4f3f2b    +?O?    DCD    1062158123
        0x000127c8:    bf16999f    ....    DCD    3205929375
        0x000127cc:    3f4f0417    ..O?    DCD    1062142999
        0x000127d0:    bf16eadf    ....    DCD    3205950175
        0x000127d4:    3f4ec8e4    ..N?    DCD    1062127844
        0x000127d8:    bf173c07    .<..    DCD    3205970951
        0x000127dc:    3f4e8d90    ..N?    DCD    1062112656
        0x000127e0:    bf178d18    ....    DCD    3205991704
        0x000127e4:    3f4e521c    .RN?    DCD    1062097436
        0x000127e8:    bf17de12    ....    DCD    3206012434
        0x000127ec:    3f4e1689    ..N?    DCD    1062082185
        0x000127f0:    bf182ef5    ....    DCD    3206033141
        0x000127f4:    3f4ddad5    ..M?    DCD    1062066901
        0x000127f8:    bf187fc0    ....    DCD    3206053824
        0x000127fc:    3f4d9f02    ..M?    DCD    1062051586
        0x00012800:    bf18d073    s...    DCD    3206074483
        0x00012804:    3f4d6310    .cM?    DCD    1062036240
        0x00012808:    bf19210f    .!..    DCD    3206095119
        0x0001280c:    3f4d26fd    .&M?    DCD    1062020861
        0x00012810:    bf197194    .q..    DCD    3206115732
        0x00012814:    3f4ceacb    ..L?    DCD    1062005451
        0x00012818:    bf19c200    ....    DCD    3206136320
        0x0001281c:    3f4cae79    y.L?    DCD    1061990009
        0x00012820:    bf1a1255    U...    DCD    3206156885
        0x00012824:    3f4c7208    .rL?    DCD    1061974536
        0x00012828:    bf1a6293    .b..    DCD    3206177427
        0x0001282c:    3f4c3578    x5L?    DCD    1061959032
        0x00012830:    bf1ab2b8    ....    DCD    3206197944
        0x00012834:    3f4bf8c7    ..K?    DCD    1061943495
        0x00012838:    bf1b02c6    ....    DCD    3206218438
        0x0001283c:    3f4bbbf8    ..K?    DCD    1061927928
        0x00012840:    bf1b52bb    .R..    DCD    3206238907
        0x00012844:    3f4b7f09    ..K?    DCD    1061912329
        0x00012848:    bf1ba299    ....    DCD    3206259353
        0x0001284c:    3f4b41fa    .AK?    DCD    1061896698
        0x00012850:    bf1bf25f    _...    DCD    3206279775
        0x00012854:    3f4b04cc    ..K?    DCD    1061881036
        0x00012858:    bf1c420c    .B..    DCD    3206300172
        0x0001285c:    3f4ac77f    ..J?    DCD    1061865343
        0x00012860:    bf1c91a2    ....    DCD    3206320546
        0x00012864:    3f4a8a13    ..J?    DCD    1061849619
        0x00012868:    bf1ce11f    ....    DCD    3206340895
        0x0001286c:    3f4a4c87    .LJ?    DCD    1061833863
        0x00012870:    bf1d3084    .0..    DCD    3206361220
        0x00012874:    3f4a0edc    ..J?    DCD    1061818076
        0x00012878:    bf1d7fd1    ....    DCD    3206381521
        0x0001287c:    3f49d112    ..I?    DCD    1061802258
        0x00012880:    bf1dcf06    ....    DCD    3206401798
        0x00012884:    3f499329    ).I?    DCD    1061786409
        0x00012888:    bf1e1e22    "...    DCD    3206422050
        0x0001288c:    3f495521    !UI?    DCD    1061770529
        0x00012890:    bf1e6d26    &m..    DCD    3206442278
        0x00012894:    3f4916fa    ..I?    DCD    1061754618
        0x00012898:    bf1ebc12    ....    DCD    3206462482
        0x0001289c:    3f48d8b3    ..H?    DCD    1061738675
        0x000128a0:    bf1f0ae5    ....    DCD    3206482661
        0x000128a4:    3f489a4e    N.H?    DCD    1061722702
        0x000128a8:    bf1f599f    .Y..    DCD    3206502815
        0x000128ac:    3f485bca    .[H?    DCD    1061706698
        0x000128b0:    bf1fa841    A...    DCD    3206522945
        0x000128b4:    3f481d27    '.H?    DCD    1061690663
        0x000128b8:    bf1ff6cb    ....    DCD    3206543051
        0x000128bc:    3f47de65    e.G?    DCD    1061674597
        0x000128c0:    bf20453b    ;E .    DCD    3206563131
        0x000128c4:    3f479f84    ..G?    DCD    1061658500
        0x000128c8:    bf209393    .. .    DCD    3206583187
        0x000128cc:    3f476085    .`G?    DCD    1061642373
        0x000128d0:    bf20e1d2    .. .    DCD    3206603218
        0x000128d4:    3f472167    g!G?    DCD    1061626215
        0x000128d8:    bf212ff9    ./!.    DCD    3206623225
        0x000128dc:    3f46e22a    *.F?    DCD    1061610026
        0x000128e0:    bf217e06    .~!.    DCD    3206643206
        0x000128e4:    3f46a2ce    ..F?    DCD    1061593806
        0x000128e8:    bf21cbfb    ..!.    DCD    3206663163
        0x000128ec:    3f466354    TcF?    DCD    1061577556
        0x000128f0:    bf2219d7    ..".    DCD    3206683095
        0x000128f4:    3f4623bb    .#F?    DCD    1061561275
        0x000128f8:    bf226799    .g".    DCD    3206703001
        0x000128fc:    3f45e403    ..E?    DCD    1061544963
        0x00012900:    bf22b543    C.".    DCD    3206722883
        0x00012904:    3f45a42d    -.E?    DCD    1061528621
        0x00012908:    bf2302d3    ..#.    DCD    3206742739
        0x0001290c:    3f456439    9dE?    DCD    1061512249
        0x00012910:    bf23504b    KP#.    DCD    3206762571
        0x00012914:    3f452426    &$E?    DCD    1061495846
        0x00012918:    bf239da9    ..#.    DCD    3206782377
        0x0001291c:    3f44e3f5    ..D?    DCD    1061479413
        0x00012920:    bf23eaee    ..#.    DCD    3206802158
        0x00012924:    3f44a3a5    ..D?    DCD    1061462949
        0x00012928:    bf24381a    .8$.    DCD    3206821914
        0x0001292c:    3f446337    7cD?    DCD    1061446455
        0x00012930:    bf24852c    ,.$.    DCD    3206841644
        0x00012934:    3f4422ab    ."D?    DCD    1061429931
        0x00012938:    bf24d225    %.$.    DCD    3206861349
        0x0001293c:    3f43e200    ..C?    DCD    1061413376
        0x00012940:    bf251f04    ..%.    DCD    3206881028
        0x00012944:    3f43a138    8.C?    DCD    1061396792
        0x00012948:    bf256bcb    .k%.    DCD    3206900683
        0x0001294c:    3f436051    Q`C?    DCD    1061380177
        0x00012950:    bf25b877    w.%.    DCD    3206920311
        0x00012954:    3f431f4c    L.C?    DCD    1061363532
        0x00012958:    bf26050a    ..&.    DCD    3206939914
        0x0001295c:    3f42de29    ).B?    DCD    1061346857
        0x00012960:    bf265184    .Q&.    DCD    3206959492
        0x00012964:    3f429ce8    ..B?    DCD    1061330152
        0x00012968:    bf269de3    ..&.    DCD    3206979043
        0x0001296c:    3f425b89    .[B?    DCD    1061313417
        0x00012970:    bf26ea2a    *.&.    DCD    3206998570
        0x00012974:    3f421a0b    ..B?    DCD    1061296651
        0x00012978:    bf273656    V6'.    DCD    3207018070
        0x0001297c:    3f41d870    p.A?    DCD    1061279856
        0x00012980:    bf278268    h.'.    DCD    3207037544
        0x00012984:    3f4196b7    ..A?    DCD    1061263031
        0x00012988:    bf27ce61    a.'.    DCD    3207056993
        0x0001298c:    3f4154e1    .TA?    DCD    1061246177
        0x00012990:    bf281a40    @.(.    DCD    3207076416
        0x00012994:    3f4112ec    ..A?    DCD    1061229292
        0x00012998:    bf286605    .f(.    DCD    3207095813
        0x0001299c:    3f40d0da    ..@?    DCD    1061212378
        0x000129a0:    bf28b1b0    ..(.    DCD    3207115184
        0x000129a4:    3f408ea9    ..@?    DCD    1061195433
        0x000129a8:    bf28fd41    A.(.    DCD    3207134529
        0x000129ac:    3f404c5c    \L@?    DCD    1061178460
        0x000129b0:    bf2948b8    .H).    DCD    3207153848
        0x000129b4:    3f4009f0    ..@?    DCD    1061161456
        0x000129b8:    bf299415    ..).    DCD    3207173141
        0x000129bc:    3f3fc767    g.??    DCD    1061144423
        0x000129c0:    bf29df57    W.).    DCD    3207192407
        0x000129c4:    3f3f84c0    ..??    DCD    1061127360
        0x000129c8:    bf2a2a80    .**.    DCD    3207211648
        0x000129cc:    3f3f41fc    .A??    DCD    1061110268
        0x000129d0:    bf2a758e    .u*.    DCD    3207230862
        0x000129d4:    3f3eff1b    ..>?    DCD    1061093147
        0x000129d8:    bf2ac082    ..*.    DCD    3207250050
        0x000129dc:    3f3ebc1b    ..>?    DCD    1061075995
        0x000129e0:    bf2b0b5b    [.+.    DCD    3207269211
        0x000129e4:    3f3e78ff    .x>?    DCD    1061058815
        0x000129e8:    bf2b561b    .V+.    DCD    3207288347
        0x000129ec:    3f3e35c5    .5>?    DCD    1061041605
        0x000129f0:    bf2ba0bf    ..+.    DCD    3207307455
        0x000129f4:    3f3df26e    n.=?    DCD    1061024366
        0x000129f8:    bf2beb4a    J.+.    DCD    3207326538
        0x000129fc:    3f3daef9    ..=?    DCD    1061007097
        0x00012a00:    bf2c35b9    .5,.    DCD    3207345593
        0x00012a04:    3f3d6b67    gk=?    DCD    1060989799
        0x00012a08:    bf2c800f    ..,.    DCD    3207364623
        0x00012a0c:    3f3d27b8    .'=?    DCD    1060972472
        0x00012a10:    bf2cca49    I.,.    DCD    3207383625
        0x00012a14:    3f3ce3ec    ..<?    DCD    1060955116
        0x00012a18:    bf2d1469    i.-.    DCD    3207402601
        0x00012a1c:    3f3ca003    ..<?    DCD    1060937731
        0x00012a20:    bf2d5e6f    o^-.    DCD    3207421551
        0x00012a24:    3f3c5bfc    .[<?    DCD    1060920316
        0x00012a28:    bf2da859    Y.-.    DCD    3207440473
        0x00012a2c:    3f3c17d9    ..<?    DCD    1060902873
        0x00012a30:    bf2df229    ).-.    DCD    3207459369
        0x00012a34:    3f3bd398    ..;?    DCD    1060885400
        0x00012a38:    bf2e3bde    .;..    DCD    3207478238
        0x00012a3c:    3f3b8f3b    ;.;?    DCD    1060867899
        0x00012a40:    bf2e8578    x...    DCD    3207497080
        0x00012a44:    3f3b4ac1    .J;?    DCD    1060850369
        0x00012a48:    bf2ecef7    ....    DCD    3207515895
        0x00012a4c:    3f3b0629    ).;?    DCD    1060832809
        0x00012a50:    bf2f185b    [./.    DCD    3207534683
        0x00012a54:    3f3ac175    u.:?    DCD    1060815221
        0x00012a58:    bf2f61a5    .a/.    DCD    3207553445
        0x00012a5c:    3f3a7ca4    .|:?    DCD    1060797604
        0x00012a60:    bf2faad3    ../.    DCD    3207572179
        0x00012a64:    3f3a37b7    .7:?    DCD    1060779959
        0x00012a68:    bf2ff3e6    ../.    DCD    3207590886
        0x00012a6c:    3f39f2ac    ..9?    DCD    1060762284
        0x00012a70:    bf303cde    .<0.    DCD    3207609566
        0x00012a74:    3f39ad85    ..9?    DCD    1060744581
        0x00012a78:    bf3085bb    ..0.    DCD    3207628219
        0x00012a7c:    3f396842    Bh9?    DCD    1060726850
        0x00012a80:    bf30ce7c    |.0.    DCD    3207646844
        0x00012a84:    3f3922e1    ."9?    DCD    1060709089
        0x00012a88:    bf311722    ".1.    DCD    3207665442
        0x00012a8c:    3f38dd65    e.8?    DCD    1060691301
        0x00012a90:    bf315fad    ._1.    DCD    3207684013
        0x00012a94:    3f3897cb    ..8?    DCD    1060673483
        0x00012a98:    bf31a81d    ..1.    DCD    3207702557
        0x00012a9c:    3f385216    .R8?    DCD    1060655638
        0x00012aa0:    bf31f071    q.1.    DCD    3207721073
        0x00012aa4:    3f380c43    C.8?    DCD    1060637763
        0x00012aa8:    bf3238aa    .82.    DCD    3207739562
        0x00012aac:    3f37c655    U.7?    DCD    1060619861
        0x00012ab0:    bf3280c7    ..2.    DCD    3207758023
        0x00012ab4:    3f37804a    J.7?    DCD    1060601930
        0x00012ab8:    bf32c8c9    ..2.    DCD    3207776457
        0x00012abc:    3f373a23    #:7?    DCD    1060583971
        0x00012ac0:    bf3310af    ..3.    DCD    3207794863
        0x00012ac4:    3f36f3df    ..6?    DCD    1060565983
        0x00012ac8:    bf33587a    zX3.    DCD    3207813242
        0x00012acc:    3f36ad7f    ..6?    DCD    1060547967
        0x00012ad0:    bf33a029    ).3.    DCD    3207831593
        0x00012ad4:    3f366704    .g6?    DCD    1060529924
        0x00012ad8:    bf33e7bc    ..3.    DCD    3207849916
        0x00012adc:    3f36206c    l 6?    DCD    1060511852
        0x00012ae0:    bf342f34    4/4.    DCD    3207868212
        0x00012ae4:    3f35d9b8    ..5?    DCD    1060493752
        0x00012ae8:    bf34768f    .v4.    DCD    3207886479
        0x00012aec:    3f3592e7    ..5?    DCD    1060475623
        0x00012af0:    bf34bdcf    ..4.    DCD    3207904719
        0x00012af4:    3f354bfb    .K5?    DCD    1060457467
        0x00012af8:    bf3504f3    ..5.    DCD    3207922931
        0x00012afc:    3f3504f3    ..5?    DCD    1060439283
        0x00012b00:    bf354bfb    .K5.    DCD    3207941115
        0x00012b04:    3f34bdcf    ..4?    DCD    1060421071
        0x00012b08:    bf3592e7    ..5.    DCD    3207959271
        0x00012b0c:    3f34768f    .v4?    DCD    1060402831
        0x00012b10:    bf35d9b8    ..5.    DCD    3207977400
        0x00012b14:    3f342f34    4/4?    DCD    1060384564
        0x00012b18:    bf36206c    l 6.    DCD    3207995500
        0x00012b1c:    3f33e7bc    ..3?    DCD    1060366268
        0x00012b20:    bf366704    .g6.    DCD    3208013572
        0x00012b24:    3f33a029    ).3?    DCD    1060347945
        0x00012b28:    bf36ad7f    ..6.    DCD    3208031615
        0x00012b2c:    3f33587a    zX3?    DCD    1060329594
        0x00012b30:    bf36f3df    ..6.    DCD    3208049631
        0x00012b34:    3f3310af    ..3?    DCD    1060311215
        0x00012b38:    bf373a23    #:7.    DCD    3208067619
        0x00012b3c:    3f32c8c9    ..2?    DCD    1060292809
        0x00012b40:    bf37804a    J.7.    DCD    3208085578
        0x00012b44:    3f3280c7    ..2?    DCD    1060274375
        0x00012b48:    bf37c655    U.7.    DCD    3208103509
        0x00012b4c:    3f3238aa    .82?    DCD    1060255914
        0x00012b50:    bf380c43    C.8.    DCD    3208121411
        0x00012b54:    3f31f071    q.1?    DCD    1060237425
        0x00012b58:    bf385216    .R8.    DCD    3208139286
        0x00012b5c:    3f31a81d    ..1?    DCD    1060218909
        0x00012b60:    bf3897cb    ..8.    DCD    3208157131
        0x00012b64:    3f315fad    ._1?    DCD    1060200365
        0x00012b68:    bf38dd65    e.8.    DCD    3208174949
        0x00012b6c:    3f311722    ".1?    DCD    1060181794
        0x00012b70:    bf3922e1    ."9.    DCD    3208192737
        0x00012b74:    3f30ce7c    |.0?    DCD    1060163196
        0x00012b78:    bf396842    Bh9.    DCD    3208210498
        0x00012b7c:    3f3085bb    ..0?    DCD    1060144571
        0x00012b80:    bf39ad85    ..9.    DCD    3208228229
        0x00012b84:    3f303cde    .<0?    DCD    1060125918
        0x00012b88:    bf39f2ac    ..9.    DCD    3208245932
        0x00012b8c:    3f2ff3e6    ../?    DCD    1060107238
        0x00012b90:    bf3a37b7    .7:.    DCD    3208263607
        0x00012b94:    3f2faad3    ../?    DCD    1060088531
        0x00012b98:    bf3a7ca4    .|:.    DCD    3208281252
        0x00012b9c:    3f2f61a5    .a/?    DCD    1060069797
        0x00012ba0:    bf3ac175    u.:.    DCD    3208298869
        0x00012ba4:    3f2f185b    [./?    DCD    1060051035
        0x00012ba8:    bf3b0629    ).;.    DCD    3208316457
        0x00012bac:    3f2ecef7    ...?    DCD    1060032247
        0x00012bb0:    bf3b4ac1    .J;.    DCD    3208334017
        0x00012bb4:    3f2e8578    x..?    DCD    1060013432
        0x00012bb8:    bf3b8f3b    ;.;.    DCD    3208351547
        0x00012bbc:    3f2e3bde    .;.?    DCD    1059994590
        0x00012bc0:    bf3bd398    ..;.    DCD    3208369048
        0x00012bc4:    3f2df229    ).-?    DCD    1059975721
        0x00012bc8:    bf3c17d9    ..<.    DCD    3208386521
        0x00012bcc:    3f2da859    Y.-?    DCD    1059956825
        0x00012bd0:    bf3c5bfc    .[<.    DCD    3208403964
        0x00012bd4:    3f2d5e6f    o^-?    DCD    1059937903
        0x00012bd8:    bf3ca003    ..<.    DCD    3208421379
        0x00012bdc:    3f2d1469    i.-?    DCD    1059918953
        0x00012be0:    bf3ce3ec    ..<.    DCD    3208438764
        0x00012be4:    3f2cca49    I.,?    DCD    1059899977
        0x00012be8:    bf3d27b8    .'=.    DCD    3208456120
        0x00012bec:    3f2c800f    ..,?    DCD    1059880975
        0x00012bf0:    bf3d6b67    gk=.    DCD    3208473447
        0x00012bf4:    3f2c35b9    .5,?    DCD    1059861945
        0x00012bf8:    bf3daef9    ..=.    DCD    3208490745
        0x00012bfc:    3f2beb4a    J.+?    DCD    1059842890
        0x00012c00:    bf3df26e    n.=.    DCD    3208508014
        0x00012c04:    3f2ba0bf    ..+?    DCD    1059823807
        0x00012c08:    bf3e35c5    .5>.    DCD    3208525253
        0x00012c0c:    3f2b561b    .V+?    DCD    1059804699
        0x00012c10:    bf3e78ff    .x>.    DCD    3208542463
        0x00012c14:    3f2b0b5b    [.+?    DCD    1059785563
        0x00012c18:    bf3ebc1b    ..>.    DCD    3208559643
        0x00012c1c:    3f2ac082    ..*?    DCD    1059766402
        0x00012c20:    bf3eff1b    ..>.    DCD    3208576795
        0x00012c24:    3f2a758e    .u*?    DCD    1059747214
        0x00012c28:    bf3f41fc    .A?.    DCD    3208593916
        0x00012c2c:    3f2a2a80    .**?    DCD    1059728000
        0x00012c30:    bf3f84c0    ..?.    DCD    3208611008
        0x00012c34:    3f29df57    W.)?    DCD    1059708759
        0x00012c38:    bf3fc767    g.?.    DCD    3208628071
        0x00012c3c:    3f299415    ..)?    DCD    1059689493
        0x00012c40:    bf4009f0    ..@.    DCD    3208645104
        0x00012c44:    3f2948b8    .H)?    DCD    1059670200
        0x00012c48:    bf404c5c    \L@.    DCD    3208662108
        0x00012c4c:    3f28fd41    A.(?    DCD    1059650881
        0x00012c50:    bf408ea9    ..@.    DCD    3208679081
        0x00012c54:    3f28b1b0    ..(?    DCD    1059631536
        0x00012c58:    bf40d0da    ..@.    DCD    3208696026
        0x00012c5c:    3f286605    .f(?    DCD    1059612165
        0x00012c60:    bf4112ec    ..A.    DCD    3208712940
        0x00012c64:    3f281a40    @.(?    DCD    1059592768
        0x00012c68:    bf4154e1    .TA.    DCD    3208729825
        0x00012c6c:    3f27ce61    a.'?    DCD    1059573345
        0x00012c70:    bf4196b7    ..A.    DCD    3208746679
        0x00012c74:    3f278268    h.'?    DCD    1059553896
        0x00012c78:    bf41d870    p.A.    DCD    3208763504
        0x00012c7c:    3f273656    V6'?    DCD    1059534422
        0x00012c80:    bf421a0b    ..B.    DCD    3208780299
        0x00012c84:    3f26ea2a    *.&?    DCD    1059514922
        0x00012c88:    bf425b89    .[B.    DCD    3208797065
        0x00012c8c:    3f269de3    ..&?    DCD    1059495395
        0x00012c90:    bf429ce8    ..B.    DCD    3208813800
        0x00012c94:    3f265184    .Q&?    DCD    1059475844
        0x00012c98:    bf42de29    ).B.    DCD    3208830505
        0x00012c9c:    3f26050a    ..&?    DCD    1059456266
        0x00012ca0:    bf431f4c    L.C.    DCD    3208847180
        0x00012ca4:    3f25b877    w.%?    DCD    1059436663
        0x00012ca8:    bf436051    Q`C.    DCD    3208863825
        0x00012cac:    3f256bcb    .k%?    DCD    1059417035
        0x00012cb0:    bf43a138    8.C.    DCD    3208880440
        0x00012cb4:    3f251f04    ..%?    DCD    1059397380
        0x00012cb8:    bf43e200    ..C.    DCD    3208897024
        0x00012cbc:    3f24d225    %.$?    DCD    1059377701
        0x00012cc0:    bf4422ab    ."D.    DCD    3208913579
        0x00012cc4:    3f24852c    ,.$?    DCD    1059357996
        0x00012cc8:    bf446337    7cD.    DCD    3208930103
        0x00012ccc:    3f24381a    .8$?    DCD    1059338266
        0x00012cd0:    bf44a3a5    ..D.    DCD    3208946597
        0x00012cd4:    3f23eaee    ..#?    DCD    1059318510
        0x00012cd8:    bf44e3f5    ..D.    DCD    3208963061
        0x00012cdc:    3f239da9    ..#?    DCD    1059298729
        0x00012ce0:    bf452426    &$E.    DCD    3208979494
        0x00012ce4:    3f23504b    KP#?    DCD    1059278923
        0x00012ce8:    bf456439    9dE.    DCD    3208995897
        0x00012cec:    3f2302d3    ..#?    DCD    1059259091
        0x00012cf0:    bf45a42d    -.E.    DCD    3209012269
        0x00012cf4:    3f22b543    C."?    DCD    1059239235
        0x00012cf8:    bf45e403    ..E.    DCD    3209028611
        0x00012cfc:    3f226799    .g"?    DCD    1059219353
        0x00012d00:    bf4623bb    .#F.    DCD    3209044923
        0x00012d04:    3f2219d7    .."?    DCD    1059199447
        0x00012d08:    bf466354    TcF.    DCD    3209061204
        0x00012d0c:    3f21cbfb    ..!?    DCD    1059179515
        0x00012d10:    bf46a2ce    ..F.    DCD    3209077454
        0x00012d14:    3f217e06    .~!?    DCD    1059159558
        0x00012d18:    bf46e22a    *.F.    DCD    3209093674
        0x00012d1c:    3f212ff9    ./!?    DCD    1059139577
        0x00012d20:    bf472167    g!G.    DCD    3209109863
        0x00012d24:    3f20e1d2    .. ?    DCD    1059119570
        0x00012d28:    bf476085    .`G.    DCD    3209126021
        0x00012d2c:    3f209393    .. ?    DCD    1059099539
        0x00012d30:    bf479f84    ..G.    DCD    3209142148
        0x00012d34:    3f20453b    ;E ?    DCD    1059079483
        0x00012d38:    bf47de65    e.G.    DCD    3209158245
        0x00012d3c:    3f1ff6cb    ...?    DCD    1059059403
        0x00012d40:    bf481d27    '.H.    DCD    3209174311
        0x00012d44:    3f1fa841    A..?    DCD    1059039297
        0x00012d48:    bf485bca    .[H.    DCD    3209190346
        0x00012d4c:    3f1f599f    .Y.?    DCD    1059019167
        0x00012d50:    bf489a4e    N.H.    DCD    3209206350
        0x00012d54:    3f1f0ae5    ...?    DCD    1058999013
        0x00012d58:    bf48d8b3    ..H.    DCD    3209222323
        0x00012d5c:    3f1ebc12    ...?    DCD    1058978834
        0x00012d60:    bf4916fa    ..I.    DCD    3209238266
        0x00012d64:    3f1e6d26    &m.?    DCD    1058958630
        0x00012d68:    bf495521    !UI.    DCD    3209254177
        0x00012d6c:    3f1e1e22    "..?    DCD    1058938402
        0x00012d70:    bf499329    ).I.    DCD    3209270057
        0x00012d74:    3f1dcf06    ...?    DCD    1058918150
        0x00012d78:    bf49d112    ..I.    DCD    3209285906
        0x00012d7c:    3f1d7fd1    ...?    DCD    1058897873
        0x00012d80:    bf4a0edc    ..J.    DCD    3209301724
        0x00012d84:    3f1d3084    .0.?    DCD    1058877572
        0x00012d88:    bf4a4c87    .LJ.    DCD    3209317511
        0x00012d8c:    3f1ce11f    ...?    DCD    1058857247
        0x00012d90:    bf4a8a13    ..J.    DCD    3209333267
        0x00012d94:    3f1c91a2    ...?    DCD    1058836898
        0x00012d98:    bf4ac77f    ..J.    DCD    3209348991
        0x00012d9c:    3f1c420c    .B.?    DCD    1058816524
        0x00012da0:    bf4b04cc    ..K.    DCD    3209364684
        0x00012da4:    3f1bf25f    _..?    DCD    1058796127
        0x00012da8:    bf4b41fa    .AK.    DCD    3209380346
        0x00012dac:    3f1ba299    ...?    DCD    1058775705
        0x00012db0:    bf4b7f09    ..K.    DCD    3209395977
        0x00012db4:    3f1b52bb    .R.?    DCD    1058755259
        0x00012db8:    bf4bbbf8    ..K.    DCD    3209411576
        0x00012dbc:    3f1b02c6    ...?    DCD    1058734790
        0x00012dc0:    bf4bf8c7    ..K.    DCD    3209427143
        0x00012dc4:    3f1ab2b8    ...?    DCD    1058714296
        0x00012dc8:    bf4c3578    x5L.    DCD    3209442680
        0x00012dcc:    3f1a6293    .b.?    DCD    1058693779
        0x00012dd0:    bf4c7208    .rL.    DCD    3209458184
        0x00012dd4:    3f1a1255    U..?    DCD    1058673237
        0x00012dd8:    bf4cae79    y.L.    DCD    3209473657
        0x00012ddc:    3f19c200    ...?    DCD    1058652672
        0x00012de0:    bf4ceacb    ..L.    DCD    3209489099
        0x00012de4:    3f197194    .q.?    DCD    1058632084
        0x00012de8:    bf4d26fd    .&M.    DCD    3209504509
        0x00012dec:    3f19210f    .!.?    DCD    1058611471
        0x00012df0:    bf4d6310    .cM.    DCD    3209519888
        0x00012df4:    3f18d073    s..?    DCD    1058590835
        0x00012df8:    bf4d9f02    ..M.    DCD    3209535234
        0x00012dfc:    3f187fc0    ...?    DCD    1058570176
        0x00012e00:    bf4ddad5    ..M.    DCD    3209550549
        0x00012e04:    3f182ef5    ...?    DCD    1058549493
        0x00012e08:    bf4e1689    ..N.    DCD    3209565833
        0x00012e0c:    3f17de12    ...?    DCD    1058528786
        0x00012e10:    bf4e521c    .RN.    DCD    3209581084
        0x00012e14:    3f178d18    ...?    DCD    1058508056
        0x00012e18:    bf4e8d90    ..N.    DCD    3209596304
        0x00012e1c:    3f173c07    .<.?    DCD    1058487303
        0x00012e20:    bf4ec8e4    ..N.    DCD    3209611492
        0x00012e24:    3f16eadf    ...?    DCD    1058466527
        0x00012e28:    bf4f0417    ..O.    DCD    3209626647
        0x00012e2c:    3f16999f    ...?    DCD    1058445727
        0x00012e30:    bf4f3f2b    +?O.    DCD    3209641771
        0x00012e34:    3f164847    GH.?    DCD    1058424903
        0x00012e38:    bf4f7a1f    .zO.    DCD    3209656863
        0x00012e3c:    3f15f6d9    ...?    DCD    1058404057
        0x00012e40:    bf4fb4f4    ..O.    DCD    3209671924
        0x00012e44:    3f15a554    T..?    DCD    1058383188
        0x00012e48:    bf4fefa8    ..O.    DCD    3209686952
        0x00012e4c:    3f1553b7    .S.?    DCD    1058362295
        0x00012e50:    bf502a3b    ;*P.    DCD    3209701947
        0x00012e54:    3f150204    ...?    DCD    1058341380
        0x00012e58:    bf5064af    .dP.    DCD    3209716911
        0x00012e5c:    3f14b039    9..?    DCD    1058320441
        0x00012e60:    bf509f03    ..P.    DCD    3209731843
        0x00012e64:    3f145e58    X^.?    DCD    1058299480
        0x00012e68:    bf50d937    7.P.    DCD    3209746743
        0x00012e6c:    3f140c5f    _..?    DCD    1058278495
        0x00012e70:    bf51134a    J.Q.    DCD    3209761610
        0x00012e74:    3f13ba50    P..?    DCD    1058257488
        0x00012e78:    bf514d3d    =MQ.    DCD    3209776445
        0x00012e7c:    3f13682a    *h.?    DCD    1058236458
        0x00012e80:    bf518710    ..Q.    DCD    3209791248
        0x00012e84:    3f1315ee    ...?    DCD    1058215406
        0x00012e88:    bf51c0c2    ..Q.    DCD    3209806018
        0x00012e8c:    3f12c39a    ...?    DCD    1058194330
        0x00012e90:    bf51fa54    T.Q.    DCD    3209820756
        0x00012e94:    3f127130    0q.?    DCD    1058173232
        0x00012e98:    bf5233c6    .3R.    DCD    3209835462
        0x00012e9c:    3f121eb0    ...?    DCD    1058152112
        0x00012ea0:    bf526d18    .mR.    DCD    3209850136
        0x00012ea4:    3f11cc19    ...?    DCD    1058130969
        0x00012ea8:    bf52a649    I.R.    DCD    3209864777
        0x00012eac:    3f11796b    ky.?    DCD    1058109803
        0x00012eb0:    bf52df59    Y.R.    DCD    3209879385
        0x00012eb4:    3f1126a7    .&.?    DCD    1058088615
        0x00012eb8:    bf531849    I.S.    DCD    3209893961
        0x00012ebc:    3f10d3cd    ...?    DCD    1058067405
        0x00012ec0:    bf535118    .QS.    DCD    3209908504
        0x00012ec4:    3f1080dc    ...?    DCD    1058046172
        0x00012ec8:    bf5389c7    ..S.    DCD    3209923015
        0x00012ecc:    3f102dd5    .-.?    DCD    1058024917
        0x00012ed0:    bf53c255    U.S.    DCD    3209937493
        0x00012ed4:    3f0fdab8    ...?    DCD    1058003640
        0x00012ed8:    bf53fac3    ..S.    DCD    3209951939
        0x00012edc:    3f0f8784    ...?    DCD    1057982340
        0x00012ee0:    bf54330f    .3T.    DCD    3209966351
        0x00012ee4:    3f0f343b    ;4.?    DCD    1057961019
        0x00012ee8:    bf546b3b    ;kT.    DCD    3209980731
        0x00012eec:    3f0ee0db    ...?    DCD    1057939675
        0x00012ef0:    bf54a347    G.T.    DCD    3209995079
        0x00012ef4:    3f0e8d65    e..?    DCD    1057918309
        0x00012ef8:    bf54db31    1.T.    DCD    3210009393
        0x00012efc:    3f0e39da    .9.?    DCD    1057896922
        0x00012f00:    bf5512fb    ..U.    DCD    3210023675
        0x00012f04:    3f0de638    8..?    DCD    1057875512
        0x00012f08:    bf554aa4    .JU.    DCD    3210037924
        0x00012f0c:    3f0d9281    ...?    DCD    1057854081
        0x00012f10:    bf55822c    ,.U.    DCD    3210052140
        0x00012f14:    3f0d3eb3    .>.?    DCD    1057832627
        0x00012f18:    bf55b993    ..U.    DCD    3210066323
        0x00012f1c:    3f0cead0    ...?    DCD    1057811152
        0x00012f20:    bf55f0d9    ..U.    DCD    3210080473
        0x00012f24:    3f0c96d7    ...?    DCD    1057789655
        0x00012f28:    bf5627fe    .'V.    DCD    3210094590
        0x00012f2c:    3f0c42c9    .B.?    DCD    1057768137
        0x00012f30:    bf565f02    ._V.    DCD    3210108674
        0x00012f34:    3f0beea5    ...?    DCD    1057746597
        0x00012f38:    bf5695e5    ..V.    DCD    3210122725
        0x00012f3c:    3f0b9a6b    k..?    DCD    1057725035
        0x00012f40:    bf56cca7    ..V.    DCD    3210136743
        0x00012f44:    3f0b461c    .F.?    DCD    1057703452
        0x00012f48:    bf570348    H.W.    DCD    3210150728
        0x00012f4c:    3f0af1b7    ...?    DCD    1057681847
        0x00012f50:    bf5739c7    .9W.    DCD    3210164679
        0x00012f54:    3f0a9d3d    =..?    DCD    1057660221
        0x00012f58:    bf577026    &pW.    DCD    3210178598
        0x00012f5c:    3f0a48ad    .H.?    DCD    1057638573
        0x00012f60:    bf57a663    c.W.    DCD    3210192483
        0x00012f64:    3f09f409    ...?    DCD    1057616905
        0x00012f68:    bf57dc7f    ..W.    DCD    3210206335
        0x00012f6c:    3f099f4e    N..?    DCD    1057595214
        0x00012f70:    bf581279    y.X.    DCD    3210220153
        0x00012f74:    3f094a7f    .J.?    DCD    1057573503
        0x00012f78:    bf584853    SHX.    DCD    3210233939
        0x00012f7c:    3f08f59b    ...?    DCD    1057551771
        0x00012f80:    bf587e0b    .~X.    DCD    3210247691
        0x00012f84:    3f08a0a1    ...?    DCD    1057530017
        0x00012f88:    bf58b3a1    ..X.    DCD    3210261409
        0x00012f8c:    3f084b92    .K.?    DCD    1057508242
        0x00012f90:    bf58e917    ..X.    DCD    3210275095
        0x00012f94:    3f07f66f    o..?    DCD    1057486447
        0x00012f98:    bf591e6a    j.Y.    DCD    3210288746
        0x00012f9c:    3f07a136    6..?    DCD    1057464630
        0x00012fa0:    bf59539c    .SY.    DCD    3210302364
        0x00012fa4:    3f074be8    .K.?    DCD    1057442792
        0x00012fa8:    bf5988ad    ..Y.    DCD    3210315949
        0x00012fac:    3f06f686    ...?    DCD    1057420934
        0x00012fb0:    bf59bd9c    ..Y.    DCD    3210329500
        0x00012fb4:    3f06a10e    ...?    DCD    1057399054
        0x00012fb8:    bf59f26a    j.Y.    DCD    3210343018
        0x00012fbc:    3f064b82    .K.?    DCD    1057377154
        0x00012fc0:    bf5a2716    .'Z.    DCD    3210356502
        0x00012fc4:    3f05f5e2    ...?    DCD    1057355234
        0x00012fc8:    bf5a5ba0    .[Z.    DCD    3210369952
        0x00012fcc:    3f05a02c    ,..?    DCD    1057333292
        0x00012fd0:    bf5a9009    ..Z.    DCD    3210383369
        0x00012fd4:    3f054a62    bJ.?    DCD    1057311330
        0x00012fd8:    bf5ac450    P.Z.    DCD    3210396752
        0x00012fdc:    3f04f484    ...?    DCD    1057289348
        0x00012fe0:    bf5af875    u.Z.    DCD    3210410101
        0x00012fe4:    3f049e91    ...?    DCD    1057267345
        0x00012fe8:    bf5b2c79    y,[.    DCD    3210423417
        0x00012fec:    3f044889    .H.?    DCD    1057245321
        0x00012ff0:    bf5b605a    Z`[.    DCD    3210436698
        0x00012ff4:    3f03f26d    m..?    DCD    1057223277
        0x00012ff8:    bf5b941a    ..[.    DCD    3210449946
        0x00012ffc:    3f039c3d    =..?    DCD    1057201213
        0x00013000:    bf5bc7b8    ..[.    DCD    3210463160
        0x00013004:    3f0345f8    .E.?    DCD    1057179128
        0x00013008:    bf5bfb34    4.[.    DCD    3210476340
        0x0001300c:    3f02ef9f    ...?    DCD    1057157023
        0x00013010:    bf5c2e8e    ..\.    DCD    3210489486
        0x00013014:    3f029932    2..?    DCD    1057134898
        0x00013018:    bf5c61c7    .a\.    DCD    3210502599
        0x0001301c:    3f0242b1    .B.?    DCD    1057112753
        0x00013020:    bf5c94dd    ..\.    DCD    3210515677
        0x00013024:    3f01ec1c    ...?    DCD    1057090588
        0x00013028:    bf5cc7d1    ..\.    DCD    3210528721
        0x0001302c:    3f019573    s..?    DCD    1057068403
        0x00013030:    bf5cfaa3    ..\.    DCD    3210541731
        0x00013034:    3f013eb5    .>.?    DCD    1057046197
        0x00013038:    bf5d2d53    S-].    DCD    3210554707
        0x0001303c:    3f00e7e4    ...?    DCD    1057023972
        0x00013040:    bf5d5fe1    ._].    DCD    3210567649
        0x00013044:    3f0090ff    ...?    DCD    1057001727
        0x00013048:    bf5d924d    M.].    DCD    3210580557
        0x0001304c:    3f003a06    .:.?    DCD    1056979462
        0x00013050:    bf5dc497    ..].    DCD    3210593431
        0x00013054:    3effc5f3    ...>    DCD    1056949747
        0x00013058:    bf5df6be    ..].    DCD    3210606270
        0x0001305c:    3eff17b2    ...>    DCD    1056905138
        0x00013060:    bf5e28c3    .(^.    DCD    3210619075
        0x00013064:    3efe694a    Ji.>    DCD    1056860490
        0x00013068:    bf5e5aa6    .Z^.    DCD    3210631846
        0x0001306c:    3efdbabb    ...>    DCD    1056815803
        0x00013070:    bf5e8c67    g.^.    DCD    3210644583
        0x00013074:    3efd0c04    ...>    DCD    1056771076
        0x00013078:    bf5ebe05    ..^.    DCD    3210657285
        0x0001307c:    3efc5d27    '].>    DCD    1056726311
        0x00013080:    bf5eef81    ..^.    DCD    3210669953
        0x00013084:    3efbae22    "..>    DCD    1056681506
        0x00013088:    bf5f20db    . _.    DCD    3210682587
        0x0001308c:    3efafef7    ...>    DCD    1056636663
        0x00013090:    bf5f5212    .R_.    DCD    3210695186
        0x00013094:    3efa4fa5    .O.>    DCD    1056591781
        0x00013098:    bf5f8327    '._.    DCD    3210707751
        0x0001309c:    3ef9a02d    -..>    DCD    1056546861
        0x000130a0:    bf5fb419    .._.    DCD    3210720281
        0x000130a4:    3ef8f08e    ...>    DCD    1056501902
        0x000130a8:    bf5fe4e9    .._.    DCD    3210732777
        0x000130ac:    3ef840c8    .@.>    DCD    1056456904
        0x000130b0:    bf601596    ..`.    DCD    3210745238
        0x000130b4:    3ef790dc    ...>    DCD    1056411868
        0x000130b8:    bf604621    !F`.    DCD    3210757665
        0x000130bc:    3ef6e0cb    ...>    DCD    1056366795
        0x000130c0:    bf607689    .v`.    DCD    3210770057
        0x000130c4:    3ef63093    .0.>    DCD    1056321683
        0x000130c8:    bf60a6cf    ..`.    DCD    3210782415
        0x000130cc:    3ef58035    5..>    DCD    1056276533
        0x000130d0:    bf60d6f2    ..`.    DCD    3210794738
        0x000130d4:    3ef4cfb1    ...>    DCD    1056231345
        0x000130d8:    bf6106f2    ..a.    DCD    3210807026
        0x000130dc:    3ef41f07    ...>    DCD    1056186119
        0x000130e0:    bf6136d0    .6a.    DCD    3210819280
        0x000130e4:    3ef36e38    8n.>    DCD    1056140856
        0x000130e8:    bf61668a    .fa.    DCD    3210831498
        0x000130ec:    3ef2bd43    C..>    DCD    1056095555
        0x000130f0:    bf619622    ".a.    DCD    3210843682
        0x000130f4:    3ef20c29    )..>    DCD    1056050217
        0x000130f8:    bf61c598    ..a.    DCD    3210855832
        0x000130fc:    3ef15aea    .Z.>    DCD    1056004842
        0x00013100:    bf61f4ea    ..a.    DCD    3210867946
        0x00013104:    3ef0a985    ...>    DCD    1055959429
        0x00013108:    bf62241a    .$b.    DCD    3210880026
        0x0001310c:    3eeff7fb    ...>    DCD    1055913979
        0x00013110:    bf625326    &Sb.    DCD    3210892070
        0x00013114:    3eef464c    LF.>    DCD    1055868492
        0x00013118:    bf628210    ..b.    DCD    3210904080
        0x0001311c:    3eee9479    y..>    DCD    1055822969
        0x00013120:    bf62b0d7    ..b.    DCD    3210916055
        0x00013124:    3eede280    ...>    DCD    1055777408
        0x00013128:    bf62df7b    {.b.    DCD    3210927995
        0x0001312c:    3eed3063    c0.>    DCD    1055731811
        0x00013130:    bf630dfc    ..c.    DCD    3210939900
        0x00013134:    3eec7e21    !~.>    DCD    1055686177
        0x00013138:    bf633c5a    Z<c.    DCD    3210951770
        0x0001313c:    3eebcbbb    ...>    DCD    1055640507
        0x00013140:    bf636a95    .jc.    DCD    3210963605
        0x00013144:    3eeb1930    0..>    DCD    1055594800
        0x00013148:    bf6398ac    ..c.    DCD    3210975404
        0x0001314c:    3eea6681    .f.>    DCD    1055549057
        0x00013150:    bf63c6a1    ..c.    DCD    3210987169
        0x00013154:    3ee9b3ae    ...>    DCD    1055503278
        0x00013158:    bf63f473    s.c.    DCD    3210998899
        0x0001315c:    3ee900b7    ...>    DCD    1055457463
        0x00013160:    bf642221    !"d.    DCD    3211010593
        0x00013164:    3ee84d9c    .M.>    DCD    1055411612
        0x00013168:    bf644fac    .Od.    DCD    3211022252
        0x0001316c:    3ee79a5d    ]..>    DCD    1055365725
        0x00013170:    bf647d14    .}d.    DCD    3211033876
        0x00013174:    3ee6e6fb    ...>    DCD    1055319803
        0x00013178:    bf64aa59    Y.d.    DCD    3211045465
        0x0001317c:    3ee63375    u3.>    DCD    1055273845
        0x00013180:    bf64d77b    {.d.    DCD    3211057019
        0x00013184:    3ee57fcb    ...>    DCD    1055227851
        0x00013188:    bf650479    y.e.    DCD    3211068537
        0x0001318c:    3ee4cbfe    ...>    DCD    1055181822
        0x00013190:    bf653154    T1e.    DCD    3211080020
        0x00013194:    3ee4180e    ...>    DCD    1055135758
        0x00013198:    bf655e0b    .^e.    DCD    3211091467
        0x0001319c:    3ee363fa    .c.>    DCD    1055089658
        0x000131a0:    bf658aa0    ..e.    DCD    3211102880
        0x000131a4:    3ee2afc4    ...>    DCD    1055043524
        0x000131a8:    bf65b710    ..e.    DCD    3211114256
        0x000131ac:    3ee1fb6a    j..>    DCD    1054997354
        0x000131b0:    bf65e35e    ^.e.    DCD    3211125598
        0x000131b4:    3ee146ee    .F.>    DCD    1054951150
        0x000131b8:    bf660f88    ..f.    DCD    3211136904
        0x000131bc:    3ee0924f    O..>    DCD    1054904911
        0x000131c0:    bf663b8e    .;f.    DCD    3211148174
        0x000131c4:    3edfdd8d    ...>    DCD    1054858637
        0x000131c8:    bf666771    qgf.    DCD    3211159409
        0x000131cc:    3edf28a9    .(.>    DCD    1054812329
        0x000131d0:    bf669330    0.f.    DCD    3211170608
        0x000131d4:    3ede73a2    .s.>    DCD    1054765986
        0x000131d8:    bf66becc    ..f.    DCD    3211181772
        0x000131dc:    3eddbe79    y..>    DCD    1054719609
        0x000131e0:    bf66ea45    E.f.    DCD    3211192901
        0x000131e4:    3edd092e    ...>    DCD    1054673198
        0x000131e8:    bf671599    ..g.    DCD    3211203993
        0x000131ec:    3edc53c1    .S.>    DCD    1054626753
        0x000131f0:    bf6740ca    .@g.    DCD    3211215050
        0x000131f4:    3edb9e31    1..>    DCD    1054580273
        0x000131f8:    bf676bd8    .kg.    DCD    3211226072
        0x000131fc:    3edae880    ...>    DCD    1054533760
        0x00013200:    bf6796c1    ..g.    DCD    3211237057
        0x00013204:    3eda32ad    .2.>    DCD    1054487213
        0x00013208:    bf67c187    ..g.    DCD    3211248007
        0x0001320c:    3ed97cb9    .|.>    DCD    1054440633
        0x00013210:    bf67ec2a    *.g.    DCD    3211258922
        0x00013214:    3ed8c6a3    ...>    DCD    1054394019
        0x00013218:    bf6816a8    ..h.    DCD    3211269800
        0x0001321c:    3ed8106b    k..>    DCD    1054347371
        0x00013220:    bf684103    .Ah.    DCD    3211280643
        0x00013224:    3ed75a13    .Z.>    DCD    1054300691
        0x00013228:    bf686b39    9kh.    DCD    3211291449
        0x0001322c:    3ed6a399    ...>    DCD    1054253977
        0x00013230:    bf68954c    L.h.    DCD    3211302220
        0x00013234:    3ed5ecfd    ...>    DCD    1054207229
        0x00013238:    bf68bf3c    <.h.    DCD    3211312956
        0x0001323c:    3ed53641    A6.>    DCD    1054160449
        0x00013240:    bf68e907    ..h.    DCD    3211323655
        0x00013244:    3ed47f64    d..>    DCD    1054113636
        0x00013248:    bf6912ae    ..i.    DCD    3211334318
        0x0001324c:    3ed3c867    g..>    DCD    1054066791
        0x00013250:    bf693c32    2<i.    DCD    3211344946
        0x00013254:    3ed31148    H..>    DCD    1054019912
        0x00013258:    bf696591    .ei.    DCD    3211355537
        0x0001325c:    3ed25a09    .Z.>    DCD    1053973001
        0x00013260:    bf698ecc    ..i.    DCD    3211366092
        0x00013264:    3ed1a2aa    ...>    DCD    1053926058
        0x00013268:    bf69b7e4    ..i.    DCD    3211376612
        0x0001326c:    3ed0eb2a    *..>    DCD    1053879082
        0x00013270:    bf69e0d7    ..i.    DCD    3211387095
        0x00013274:    3ed0338a    .3.>    DCD    1053832074
        0x00013278:    bf6a09a7    ..j.    DCD    3211397543
        0x0001327c:    3ecf7bca    .{.>    DCD    1053785034
        0x00013280:    bf6a3252    R2j.    DCD    3211407954
        0x00013284:    3ecec3ea    ...>    DCD    1053737962
        0x00013288:    bf6a5ad9    .Zj.    DCD    3211418329
        0x0001328c:    3ece0bea    ...>    DCD    1053690858
        0x00013290:    bf6a833c    <.j.    DCD    3211428668
        0x00013294:    3ecd53ca    .S.>    DCD    1053643722
        0x00013298:    bf6aab7b    {.j.    DCD    3211438971
        0x0001329c:    3ecc9b8b    ...>    DCD    1053596555
        0x000132a0:    bf6ad395    ..j.    DCD    3211449237
        0x000132a4:    3ecbe32c    ,..>    DCD    1053549356
        0x000132a8:    bf6afb8c    ..j.    DCD    3211459468
        0x000132ac:    3ecb2aae    .*.>    DCD    1053502126
        0x000132b0:    bf6b235e    ^#k.    DCD    3211469662
        0x000132b4:    3eca7210    .r.>    DCD    1053454864
        0x000132b8:    bf6b4b0c    .Kk.    DCD    3211479820
        0x000132bc:    3ec9b953    S..>    DCD    1053407571
        0x000132c0:    bf6b7295    .rk.    DCD    3211489941
        0x000132c4:    3ec90077    w..>    DCD    1053360247
        0x000132c8:    bf6b99fb    ..k.    DCD    3211500027
        0x000132cc:    3ec8477c    |G.>    DCD    1053312892
        0x000132d0:    bf6bc13b    ;.k.    DCD    3211510075
        0x000132d4:    3ec78e62    b..>    DCD    1053265506
        0x000132d8:    bf6be858    X.k.    DCD    3211520088
        0x000132dc:    3ec6d529    )..>    DCD    1053218089
        0x000132e0:    bf6c0f50    P.l.    DCD    3211530064
        0x000132e4:    3ec61bd2    ...>    DCD    1053170642
        0x000132e8:    bf6c3624    $6l.    DCD    3211540004
        0x000132ec:    3ec5625c    \b.>    DCD    1053123164
        0x000132f0:    bf6c5cd4    .\l.    DCD    3211549908
        0x000132f4:    3ec4a8c8    ...>    DCD    1053075656
        0x000132f8:    bf6c835e    ^.l.    DCD    3211559774
        0x000132fc:    3ec3ef15    ...>    DCD    1053028117
        0x00013300:    bf6ca9c5    ..l.    DCD    3211569605
        0x00013304:    3ec33544    D5.>    DCD    1052980548
        0x00013308:    bf6cd007    ..l.    DCD    3211579399
        0x0001330c:    3ec27b55    U{.>    DCD    1052932949
        0x00013310:    bf6cf624    $.l.    DCD    3211589156
        0x00013314:    3ec1c148    H..>    DCD    1052885320
        0x00013318:    bf6d1c1d    ..m.    DCD    3211598877
        0x0001331c:    3ec1071e    ...>    DCD    1052837662
        0x00013320:    bf6d41f2    .Am.    DCD    3211608562
        0x00013324:    3ec04cd5    .L.>    DCD    1052789973
        0x00013328:    bf6d67a1    .gm.    DCD    3211618209
        0x0001332c:    3ebf926f    o..>    DCD    1052742255
        0x00013330:    bf6d8d2d    -.m.    DCD    3211627821
        0x00013334:    3ebed7eb    ...>    DCD    1052694507
        0x00013338:    bf6db293    ..m.    DCD    3211637395
        0x0001333c:    3ebe1d4a    J..>    DCD    1052646730
        0x00013340:    bf6dd7d5    ..m.    DCD    3211646933
        0x00013344:    3ebd628b    .b.>    DCD    1052598923
        0x00013348:    bf6dfcf2    ..m.    DCD    3211656434
        0x0001334c:    3ebca7af    ...>    DCD    1052551087
        0x00013350:    bf6e21eb    .!n.    DCD    3211665899
        0x00013354:    3ebbecb6    ...>    DCD    1052503222
        0x00013358:    bf6e46be    .Fn.    DCD    3211675326
        0x0001335c:    3ebb31a0    .1.>    DCD    1052455328
        0x00013360:    bf6e6b6d    mkn.    DCD    3211684717
        0x00013364:    3eba766e    nv.>    DCD    1052407406
        0x00013368:    bf6e8ff8    ..n.    DCD    3211694072
        0x0001336c:    3eb9bb1e    ...>    DCD    1052359454
        0x00013370:    bf6eb45d    ].n.    DCD    3211703389
        0x00013374:    3eb8ffb2    ...>    DCD    1052311474
        0x00013378:    bf6ed89e    ..n.    DCD    3211712670
        0x0001337c:    3eb8442a    *D.>    DCD    1052263466
        0x00013380:    bf6efcba    ..n.    DCD    3211721914
        0x00013384:    3eb78884    ...>    DCD    1052215428
        0x00013388:    bf6f20b0    . o.    DCD    3211731120
        0x0001338c:    3eb6ccc3    ...>    DCD    1052167363
        0x00013390:    bf6f4483    .Do.    DCD    3211740291
        0x00013394:    3eb610e6    ...>    DCD    1052119270
        0x00013398:    bf6f6830    0ho.    DCD    3211749424
        0x0001339c:    3eb554ec    .T.>    DCD    1052071148
        0x000133a0:    bf6f8bb8    ..o.    DCD    3211758520
        0x000133a4:    3eb498d6    ...>    DCD    1052022998
        0x000133a8:    bf6faf1b    ..o.    DCD    3211767579
        0x000133ac:    3eb3dca5    ...>    DCD    1051974821
        0x000133b0:    bf6fd25a    Z.o.    DCD    3211776602
        0x000133b4:    3eb32058    X .>    DCD    1051926616
        0x000133b8:    bf6ff573    s.o.    DCD    3211785587
        0x000133bc:    3eb263ef    .c.>    DCD    1051878383
        0x000133c0:    bf701867    g.p.    DCD    3211794535
        0x000133c4:    3eb1a76b    k..>    DCD    1051830123
        0x000133c8:    bf703b37    7;p.    DCD    3211803447
        0x000133cc:    3eb0eacb    ...>    DCD    1051781835
        0x000133d0:    bf705de1    .]p.    DCD    3211812321
        0x000133d4:    3eb02e10    ...>    DCD    1051733520
        0x000133d8:    bf708066    f.p.    DCD    3211821158
        0x000133dc:    3eaf713a    :q.>    DCD    1051685178
        0x000133e0:    bf70a2c6    ..p.    DCD    3211829958
        0x000133e4:    3eaeb449    I..>    DCD    1051636809
        0x000133e8:    bf70c502    ..p.    DCD    3211838722
        0x000133ec:    3eadf73c    <..>    DCD    1051588412
        0x000133f0:    bf70e717    ..p.    DCD    3211847447
        0x000133f4:    3ead3a15    .:.>    DCD    1051539989
        0x000133f8:    bf710908    ..q.    DCD    3211856136
        0x000133fc:    3eac7cd4    .|.>    DCD    1051491540
        0x00013400:    bf712ad4    .*q.    DCD    3211864788
        0x00013404:    3eabbf77    w..>    DCD    1051443063
        0x00013408:    bf714c7a    zLq.    DCD    3211873402
        0x0001340c:    3eab0201    ...>    DCD    1051394561
        0x00013410:    bf716dfb    .mq.    DCD    3211881979
        0x00013414:    3eaa446f    oD.>    DCD    1051346031
        0x00013418:    bf718f57    W.q.    DCD    3211890519
        0x0001341c:    3ea986c4    ...>    DCD    1051297476
        0x00013420:    bf71b08e    ..q.    DCD    3211899022
        0x00013424:    3ea8c8fe    ...>    DCD    1051248894
        0x00013428:    bf71d19f    ..q.    DCD    3211907487
        0x0001342c:    3ea80b1f    ...>    DCD    1051200287
        0x00013430:    bf71f28c    ..q.    DCD    3211915916
        0x00013434:    3ea74d25    %M.>    DCD    1051151653
        0x00013438:    bf721352    R.r.    DCD    3211924306
        0x0001343c:    3ea68f12    ...>    DCD    1051102994
        0x00013440:    bf7233f4    .3r.    DCD    3211932660
        0x00013444:    3ea5d0e5    ...>    DCD    1051054309
        0x00013448:    bf725470    pTr.    DCD    3211940976
        0x0001344c:    3ea5129f    ...>    DCD    1051005599
        0x00013450:    bf7274c7    .tr.    DCD    3211949255
        0x00013454:    3ea4543f    ?T.>    DCD    1050956863
        0x00013458:    bf7294f8    ..r.    DCD    3211957496
        0x0001345c:    3ea395c5    ...>    DCD    1050908101
        0x00013460:    bf72b504    ..r.    DCD    3211965700
        0x00013464:    3ea2d733    3..>    DCD    1050859315
        0x00013468:    bf72d4eb    ..r.    DCD    3211973867
        0x0001346c:    3ea21887    ...>    DCD    1050810503
        0x00013470:    bf72f4ac    ..r.    DCD    3211981996
        0x00013474:    3ea159c2    .Y.>    DCD    1050761666
        0x00013478:    bf731447    G.s.    DCD    3211990087
        0x0001347c:    3ea09ae5    ...>    DCD    1050712805
        0x00013480:    bf7333be    .3s.    DCD    3211998142
        0x00013484:    3e9fdbee    ...>    DCD    1050663918
        0x00013488:    bf73530e    .Ss.    DCD    3212006158
        0x0001348c:    3e9f1cdf    ...>    DCD    1050615007
        0x00013490:    bf737239    9rs.    DCD    3212014137
        0x00013494:    3e9e5db8    .].>    DCD    1050566072
        0x00013498:    bf73913f    ?.s.    DCD    3212022079
        0x0001349c:    3e9d9e78    x..>    DCD    1050517112
        0x000134a0:    bf73b01f    ..s.    DCD    3212029983
        0x000134a4:    3e9cdf20     ..>    DCD    1050468128
        0x000134a8:    bf73ced9    ..s.    DCD    3212037849
        0x000134ac:    3e9c1faf    ...>    DCD    1050419119
        0x000134b0:    bf73ed6e    n.s.    DCD    3212045678
        0x000134b4:    3e9b6027    '`.>    DCD    1050370087
        0x000134b8:    bf740bdd    ..t.    DCD    3212053469
        0x000134bc:    3e9aa086    ...>    DCD    1050321030
        0x000134c0:    bf742a27    '*t.    DCD    3212061223
        0x000134c4:    3e99e0ce    ...>    DCD    1050271950
        0x000134c8:    bf74484b    KHt.    DCD    3212068939
        0x000134cc:    3e9920fe    . .>    DCD    1050222846
        0x000134d0:    bf746649    Ift.    DCD    3212076617
        0x000134d4:    3e986116    .a.>    DCD    1050173718
        0x000134d8:    bf748422    ".t.    DCD    3212084258
        0x000134dc:    3e97a117    ...>    DCD    1050124567
        0x000134e0:    bf74a1d5    ..t.    DCD    3212091861
        0x000134e4:    3e96e100    ...>    DCD    1050075392
        0x000134e8:    bf74bf62    b.t.    DCD    3212099426
        0x000134ec:    3e9620d2    . .>    DCD    1050026194
        0x000134f0:    bf74dcc9    ..t.    DCD    3212106953
        0x000134f4:    3e95608d    .`.>    DCD    1049976973
        0x000134f8:    bf74fa0b    ..t.    DCD    3212114443
        0x000134fc:    3e94a031    1..>    DCD    1049927729
        0x00013500:    bf751727    '.u.    DCD    3212121895
        0x00013504:    3e93dfbf    ...>    DCD    1049878463
        0x00013508:    bf75341d    .4u.    DCD    3212129309
        0x0001350c:    3e931f35    5..>    DCD    1049829173
        0x00013510:    bf7550ed    .Pu.    DCD    3212136685
        0x00013514:    3e925e94    .^.>    DCD    1049779860
        0x00013518:    bf756d97    .mu.    DCD    3212144023
        0x0001351c:    3e919ddd    ...>    DCD    1049730525
        0x00013520:    bf758a1c    ..u.    DCD    3212151324
        0x00013524:    3e90dd10    ...>    DCD    1049681168
        0x00013528:    bf75a67b    {.u.    DCD    3212158587
        0x0001352c:    3e901c2c    ,..>    DCD    1049631788
        0x00013530:    bf75c2b3    ..u.    DCD    3212165811
        0x00013534:    3e8f5b32    2[.>    DCD    1049582386
        0x00013538:    bf75dec6    ..u.    DCD    3212172998
        0x0001353c:    3e8e9a22    "..>    DCD    1049532962
        0x00013540:    bf75fab3    ..u.    DCD    3212180147
        0x00013544:    3e8dd8fc    ...>    DCD    1049483516
        0x00013548:    bf76167a    z.v.    DCD    3212187258
        0x0001354c:    3e8d17c0    ...>    DCD    1049434048
        0x00013550:    bf76321b    .2v.    DCD    3212194331
        0x00013554:    3e8c566e    nV.>    DCD    1049384558
        0x00013558:    bf764d97    .Mv.    DCD    3212201367
        0x0001355c:    3e8b9507    ...>    DCD    1049335047
        0x00013560:    bf7668ec    .hv.    DCD    3212208364
        0x00013564:    3e8ad38a    ...>    DCD    1049285514
        0x00013568:    bf76841b    ..v.    DCD    3212215323
        0x0001356c:    3e8a11f8    ...>    DCD    1049235960
        0x00013570:    bf769f24    $.v.    DCD    3212222244
        0x00013574:    3e895050    PP.>    DCD    1049186384
        0x00013578:    bf76ba07    ..v.    DCD    3212229127
        0x0001357c:    3e888e93    ...>    DCD    1049136787
        0x00013580:    bf76d4c4    ..v.    DCD    3212235972
        0x00013584:    3e87ccc1    ...>    DCD    1049087169
        0x00013588:    bf76ef5b    [.v.    DCD    3212242779
        0x0001358c:    3e870ada    ...>    DCD    1049037530
        0x00013590:    bf7709cc    ..w.    DCD    3212249548
        0x00013594:    3e8648df    .H.>    DCD    1048987871
        0x00013598:    bf772417    .$w.    DCD    3212256279
        0x0001359c:    3e8586ce    ...>    DCD    1048938190
        0x000135a0:    bf773e3c    <>w.    DCD    3212262972
        0x000135a4:    3e84c4aa    ...>    DCD    1048888490
        0x000135a8:    bf77583a    :Xw.    DCD    3212269626
        0x000135ac:    3e840270    p..>    DCD    1048838768
        0x000135b0:    bf777213    .rw.    DCD    3212276243
        0x000135b4:    3e834022    "@.>    DCD    1048789026
        0x000135b8:    bf778bc5    ..w.    DCD    3212282821
        0x000135bc:    3e827dc0    .}.>    DCD    1048739264
        0x000135c0:    bf77a551    Q.w.    DCD    3212289361
        0x000135c4:    3e81bb4a    J..>    DCD    1048689482
        0x000135c8:    bf77beb7    ..w.    DCD    3212295863
        0x000135cc:    3e80f8c0    ...>    DCD    1048639680
        0x000135d0:    bf77d7f7    ..w.    DCD    3212302327
        0x000135d4:    3e803622    "6.>    DCD    1048589858
        0x000135d8:    bf77f110    ..w.    DCD    3212308752
        0x000135dc:    3e7ee6e1    ..~>    DCD    1048504033
        0x000135e0:    bf780a04    ..x.    DCD    3212315140
        0x000135e4:    3e7d6156    Va}>    DCD    1048404310
        0x000135e8:    bf7822d1    ."x.    DCD    3212321489
        0x000135ec:    3e7bdba4    ..{>    DCD    1048304548
        0x000135f0:    bf783b77    w;x.    DCD    3212327799
        0x000135f4:    3e7a55cb    .Uz>    DCD    1048204747
        0x000135f8:    bf7853f8    .Sx.    DCD    3212334072
        0x000135fc:    3e78cfcc    ..x>    DCD    1048104908
        0x00013600:    bf786c52    Rlx.    DCD    3212340306
        0x00013604:    3e7749a6    .Iw>    DCD    1048005030
        0x00013608:    bf788486    ..x.    DCD    3212346502
        0x0001360c:    3e75c35a    Z.u>    DCD    1047905114
        0x00013610:    bf789c93    ..x.    DCD    3212352659
        0x00013614:    3e743ce8    .<t>    DCD    1047805160
        0x00013618:    bf78b47b    {.x.    DCD    3212358779
        0x0001361c:    3e72b651    Q.r>    DCD    1047705169
        0x00013620:    bf78cc3b    ;.x.    DCD    3212364859
        0x00013624:    3e712f94    ./q>    DCD    1047605140
        0x00013628:    bf78e3d6    ..x.    DCD    3212370902
        0x0001362c:    3e6fa8b2    ..o>    DCD    1047505074
        0x00013630:    bf78fb4a    J.x.    DCD    3212376906
        0x00013634:    3e6e21ab    .!n>    DCD    1047404971
        0x00013638:    bf791298    ..y.    DCD    3212382872
        0x0001363c:    3e6c9a7f    ..l>    DCD    1047304831
        0x00013640:    bf7929bf    .)y.    DCD    3212388799
        0x00013644:    3e6b132f    /.k>    DCD    1047204655
        0x00013648:    bf7940c0    .@y.    DCD    3212394688
        0x0001364c:    3e698bba    ..i>    DCD    1047104442
        0x00013650:    bf79579a    .Wy.    DCD    3212400538
        0x00013654:    3e680422    ".h>    DCD    1047004194
        0x00013658:    bf796e4e    Nny.    DCD    3212406350
        0x0001365c:    3e667c66    f|f>    DCD    1046903910
        0x00013660:    bf7984dc    ..y.    DCD    3212412124
        0x00013664:    3e64f486    ..d>    DCD    1046803590
        0x00013668:    bf799b43    C.y.    DCD    3212417859
        0x0001366c:    3e636c83    .lc>    DCD    1046703235
        0x00013670:    bf79b183    ..y.    DCD    3212423555
        0x00013674:    3e61e45c    \.a>    DCD    1046602844
        0x00013678:    bf79c79d    ..y.    DCD    3212429213
        0x0001367c:    3e605c13    .\`>    DCD    1046502419
        0x00013680:    bf79dd91    ..y.    DCD    3212434833
        0x00013684:    3e5ed3a8    ..^>    DCD    1046401960
        0x00013688:    bf79f35e    ^.y.    DCD    3212440414
        0x0001368c:    3e5d4b1a    .K]>    DCD    1046301466
        0x00013690:    bf7a0904    ..z.    DCD    3212445956
        0x00013694:    3e5bc26a    j.[>    DCD    1046200938
        0x00013698:    bf7a1e84    ..z.    DCD    3212451460
        0x0001369c:    3e5a3997    .9Z>    DCD    1046100375
        0x000136a0:    bf7a33dd    .3z.    DCD    3212456925
        0x000136a4:    3e58b0a4    ..X>    DCD    1045999780
        0x000136a8:    bf7a4910    .Iz.    DCD    3212462352
        0x000136ac:    3e57278f    .'W>    DCD    1045899151
        0x000136b0:    bf7a5e1c    .^z.    DCD    3212467740
        0x000136b4:    3e559e58    X.U>    DCD    1045798488
        0x000136b8:    bf7a7302    .sz.    DCD    3212473090
        0x000136bc:    3e541501    ..T>    DCD    1045697793
        0x000136c0:    bf7a87c1    ..z.    DCD    3212478401
        0x000136c4:    3e528b89    ..R>    DCD    1045597065
        0x000136c8:    bf7a9c59    Y.z.    DCD    3212483673
        0x000136cc:    3e5101f1    ..Q>    DCD    1045496305
        0x000136d0:    bf7ab0cb    ..z.    DCD    3212488907
        0x000136d4:    3e4f7838    8xO>    DCD    1045395512
        0x000136d8:    bf7ac516    ..z.    DCD    3212494102
        0x000136dc:    3e4dee60    `.M>    DCD    1045294688
        0x000136e0:    bf7ad93a    :.z.    DCD    3212499258
        0x000136e4:    3e4c6467    gdL>    DCD    1045193831
        0x000136e8:    bf7aed37    7.z.    DCD    3212504375
        0x000136ec:    3e4ada4f    O.J>    DCD    1045092943
        0x000136f0:    bf7b010e    ..{.    DCD    3212509454
        0x000136f4:    3e495018    .PI>    DCD    1044992024
        0x000136f8:    bf7b14be    ..{.    DCD    3212514494
        0x000136fc:    3e47c5c2    ..G>    DCD    1044891074
        0x00013700:    bf7b2848    H({.    DCD    3212519496
        0x00013704:    3e463b4d    M;F>    DCD    1044790093
        0x00013708:    bf7b3bab    .;{.    DCD    3212524459
        0x0001370c:    3e44b0b9    ..D>    DCD    1044689081
        0x00013710:    bf7b4ee7    .N{.    DCD    3212529383
        0x00013714:    3e432607    .&C>    DCD    1044588039
        0x00013718:    bf7b61fc    .a{.    DCD    3212534268
        0x0001371c:    3e419b37    7.A>    DCD    1044486967
        0x00013720:    bf7b74ea    .t{.    DCD    3212539114
        0x00013724:    3e401049    I.@>    DCD    1044385865
        0x00013728:    bf7b87b2    ..{.    DCD    3212543922
        0x0001372c:    3e3e853e    >.>>    DCD    1044284734
        0x00013730:    bf7b9a53    S.{.    DCD    3212548691
        0x00013734:    3e3cfa15    ..<>    DCD    1044183573
        0x00013738:    bf7baccd    ..{.    DCD    3212553421
        0x0001373c:    3e3b6ecf    .n;>    DCD    1044082383
        0x00013740:    bf7bbf20     .{.    DCD    3212558112
        0x00013744:    3e39e36c    l.9>    DCD    1043981164
        0x00013748:    bf7bd14d    M.{.    DCD    3212562765
        0x0001374c:    3e3857ec    .W8>    DCD    1043879916
        0x00013750:    bf7be353    S.{.    DCD    3212567379
        0x00013754:    3e36cc50    P.6>    DCD    1043778640
        0x00013758:    bf7bf531    1.{.    DCD    3212571953
        0x0001375c:    3e354098    .@5>    DCD    1043677336
        0x00013760:    bf7c06e9    ..|.    DCD    3212576489
        0x00013764:    3e33b4c4    ..3>    DCD    1043576004
        0x00013768:    bf7c187a    z.|.    DCD    3212580986
        0x0001376c:    3e3228d4    .(2>    DCD    1043474644
        0x00013770:    bf7c29e5    .)|.    DCD    3212585445
        0x00013774:    3e309cc9    ..0>    DCD    1043373257
        0x00013778:    bf7c3b28    (;|.    DCD    3212589864
        0x0001377c:    3e2f10a2    ../>    DCD    1043271842
        0x00013780:    bf7c4c44    DL|.    DCD    3212594244
        0x00013784:    3e2d8461    a.->    DCD    1043170401
        0x00013788:    bf7c5d3a    :]|.    DCD    3212598586
        0x0001378c:    3e2bf804    ..+>    DCD    1043068932
        0x00013790:    bf7c6e08    .n|.    DCD    3212602888
        0x00013794:    3e2a6b8d    .k*>    DCD    1042967437
        0x00013798:    bf7c7eb0    .~|.    DCD    3212607152
        0x0001379c:    3e28defc    ..(>    DCD    1042865916
        0x000137a0:    bf7c8f31    1.|.    DCD    3212611377
        0x000137a4:    3e275251    QR'>    DCD    1042764369
        0x000137a8:    bf7c9f8a    ..|.    DCD    3212615562
        0x000137ac:    3e25c58c    ..%>    DCD    1042662796
        0x000137b0:    bf7cafbd    ..|.    DCD    3212619709
        0x000137b4:    3e2438ad    .8$>    DCD    1042561197
        0x000137b8:    bf7cbfc9    ..|.    DCD    3212623817
        0x000137bc:    3e22abb6    ..">    DCD    1042459574
        0x000137c0:    bf7ccfae    ..|.    DCD    3212627886
        0x000137c4:    3e211ea5    ..!>    DCD    1042357925
        0x000137c8:    bf7cdf6c    l.|.    DCD    3212631916
        0x000137cc:    3e1f917b    {..>    DCD    1042256251
        0x000137d0:    bf7cef03    ..|.    DCD    3212635907
        0x000137d4:    3e1e0438    8..>    DCD    1042154552
        0x000137d8:    bf7cfe73    s.|.    DCD    3212639859
        0x000137dc:    3e1c76de    .v.>    DCD    1042052830
        0x000137e0:    bf7d0dbc    ..}.    DCD    3212643772
        0x000137e4:    3e1ae96b    k..>    DCD    1041951083
        0x000137e8:    bf7d1cdd    ..}.    DCD    3212647645
        0x000137ec:    3e195be0    .[.>    DCD    1041849312
        0x000137f0:    bf7d2bd8    .+}.    DCD    3212651480
        0x000137f4:    3e17ce3d    =..>    DCD    1041747517
        0x000137f8:    bf7d3aac    .:}.    DCD    3212655276
        0x000137fc:    3e164083    .@.>    DCD    1041645699
        0x00013800:    bf7d4959    YI}.    DCD    3212659033
        0x00013804:    3e14b2b2    ...>    DCD    1041543858
        0x00013808:    bf7d57de    .W}.    DCD    3212662750
        0x0001380c:    3e1324ca    .$.>    DCD    1041441994
        0x00013810:    bf7d663d    =f}.    DCD    3212666429
        0x00013814:    3e1196cc    ...>    DCD    1041340108
        0x00013818:    bf7d7474    tt}.    DCD    3212670068
        0x0001381c:    3e1008b7    ...>    DCD    1041238199
        0x00013820:    bf7d8285    ..}.    DCD    3212673669
        0x00013824:    3e0e7a8b    .z.>    DCD    1041136267
        0x00013828:    bf7d906e    n.}.    DCD    3212677230
        0x0001382c:    3e0cec4a    J..>    DCD    1041034314
        0x00013830:    bf7d9e30    0.}.    DCD    3212680752
        0x00013834:    3e0b5df3    .].>    DCD    1040932339
        0x00013838:    bf7dabcc    ..}.    DCD    3212684236
        0x0001383c:    3e09cf86    ...>    DCD    1040830342
        0x00013840:    bf7db940    @.}.    DCD    3212687680
        0x00013844:    3e084105    .A.>    DCD    1040728325
        0x00013848:    bf7dc68c    ..}.    DCD    3212691084
        0x0001384c:    3e06b26e    n..>    DCD    1040626286
        0x00013850:    bf7dd3b2    ..}.    DCD    3212694450
        0x00013854:    3e0523c2    .#.>    DCD    1040524226
        0x00013858:    bf7de0b1    ..}.    DCD    3212697777
        0x0001385c:    3e039502    ...>    DCD    1040422146
        0x00013860:    bf7ded88    ..}.    DCD    3212701064
        0x00013864:    3e02062e    ...>    DCD    1040320046
        0x00013868:    bf7dfa38    8.}.    DCD    3212704312
        0x0001386c:    3e007745    Ew.>    DCD    1040217925
        0x00013870:    bf7e06c2    ..~.    DCD    3212707522
        0x00013874:    3dfdd092    ...=    DCD    1040044178
        0x00013878:    bf7e1324    $.~.    DCD    3212710692
        0x0001387c:    3dfab273    s..=    DCD    1039839859
        0x00013880:    bf7e1f5e    ^.~.    DCD    3212713822
        0x00013884:    3df7942c    ,..=    DCD    1039635500
        0x00013888:    bf7e2b72    r+~.    DCD    3212716914
        0x0001388c:    3df475c0    .u.=    DCD    1039431104
        0x00013890:    bf7e375e    ^7~.    DCD    3212719966
        0x00013894:    3df1572e    .W.=    DCD    1039226670
        0x00013898:    bf7e4323    #C~.    DCD    3212722979
        0x0001389c:    3dee3876    v8.=    DCD    1039022198
        0x000138a0:    bf7e4ec1    .N~.    DCD    3212725953
        0x000138a4:    3deb199a    ...=    DCD    1038817690
        0x000138a8:    bf7e5a38    8Z~.    DCD    3212728888
        0x000138ac:    3de7fa9a    ...=    DCD    1038613146
        0x000138b0:    bf7e6588    .e~.    DCD    3212731784
        0x000138b4:    3de4db76    v..=    DCD    1038408566
        0x000138b8:    bf7e70b0    .p~.    DCD    3212734640
        0x000138bc:    3de1bc2e    ...=    DCD    1038203950
        0x000138c0:    bf7e7bb1    .{~.    DCD    3212737457
        0x000138c4:    3dde9cc4    ...=    DCD    1037999300
        0x000138c8:    bf7e868b    ..~.    DCD    3212740235
        0x000138cc:    3ddb7d37    7}.=    DCD    1037794615
        0x000138d0:    bf7e913d    =.~.    DCD    3212742973
        0x000138d4:    3dd85d89    .].=    DCD    1037589897
        0x000138d8:    bf7e9bc9    ..~.    DCD    3212745673
        0x000138dc:    3dd53db9    .=.=    DCD    1037385145
        0x000138e0:    bf7ea62d    -.~.    DCD    3212748333
        0x000138e4:    3dd21dc8    ...=    DCD    1037180360
        0x000138e8:    bf7eb069    i.~.    DCD    3212750953
        0x000138ec:    3dcefdb7    ...=    DCD    1036975543
        0x000138f0:    bf7eba7f    ..~.    DCD    3212753535
        0x000138f4:    3dcbdd86    ...=    DCD    1036770694
        0x000138f8:    bf7ec46d    m.~.    DCD    3212756077
        0x000138fc:    3dc8bd36    6..=    DCD    1036565814
        0x00013900:    bf7ece34    4.~.    DCD    3212758580
        0x00013904:    3dc59cc6    ...=    DCD    1036360902
        0x00013908:    bf7ed7d4    ..~.    DCD    3212761044
        0x0001390c:    3dc27c39    9|.=    DCD    1036155961
        0x00013910:    bf7ee14c    L.~.    DCD    3212763468
        0x00013914:    3dbf5b8d    .[.=    DCD    1035950989
        0x00013918:    bf7eea9d    ..~.    DCD    3212765853
        0x0001391c:    3dbc3ac3    .:.=    DCD    1035745987
        0x00013920:    bf7ef3c7    ..~.    DCD    3212768199
        0x00013924:    3db919dd    ...=    DCD    1035540957
        0x00013928:    bf7efcc9    ..~.    DCD    3212770505
        0x0001392c:    3db5f8da    ...=    DCD    1035335898
        0x00013930:    bf7f05a4    ....    DCD    3212772772
        0x00013934:    3db2d7bb    ...=    DCD    1035130811
        0x00013938:    bf7f0e58    X...    DCD    3212775000
        0x0001393c:    3dafb680    ...=    DCD    1034925696
        0x00013940:    bf7f16e4    ....    DCD    3212777188
        0x00013944:    3dac952b    +..=    DCD    1034720555
        0x00013948:    bf7f1f49    I...    DCD    3212779337
        0x0001394c:    3da973ba    .s.=    DCD    1034515386
        0x00013950:    bf7f2787    .'..    DCD    3212781447
        0x00013954:    3da65230    0R.=    DCD    1034310192
        0x00013958:    bf7f2f9d    ./..    DCD    3212783517
        0x0001395c:    3da3308c    .0.=    DCD    1034104972
        0x00013960:    bf7f378d    .7..    DCD    3212785549
        0x00013964:    3da00ecf    ...=    DCD    1033899727
        0x00013968:    bf7f3f54    T?..    DCD    3212787540
        0x0001396c:    3d9cecf9    ...=    DCD    1033694457
        0x00013970:    bf7f46f4    .F..    DCD    3212789492
        0x00013974:    3d99cb0a    ...=    DCD    1033489162
        0x00013978:    bf7f4e6d    mN..    DCD    3212791405
        0x0001397c:    3d96a905    ...=    DCD    1033283845
        0x00013980:    bf7f55bf    .U..    DCD    3212793279
        0x00013984:    3d9386e7    ...=    DCD    1033078503
        0x00013988:    bf7f5ce9    .\..    DCD    3212795113
        0x0001398c:    3d9064b4    .d.=    DCD    1032873140
        0x00013990:    bf7f63ec    .c..    DCD    3212796908
        0x00013994:    3d8d426a    jB.=    DCD    1032667754
        0x00013998:    bf7f6ac7    .j..    DCD    3212798663
        0x0001399c:    3d8a200a    . .=    DCD    1032462346
        0x000139a0:    bf7f717b    {q..    DCD    3212800379
        0x000139a4:    3d86fd94    ...=    DCD    1032256916
        0x000139a8:    bf7f7808    .x..    DCD    3212802056
        0x000139ac:    3d83db0a    ...=    DCD    1032051466
        0x000139b0:    bf7f7e6d    m~..    DCD    3212803693
        0x000139b4:    3d80b86c    l..=    DCD    1031845996
        0x000139b8:    bf7f84ab    ....    DCD    3212805291
        0x000139bc:    3d7b2b74    t+{=    DCD    1031482228
        0x000139c0:    bf7f8ac2    ....    DCD    3212806850
        0x000139c4:    3d74e5e9    ..t=    DCD    1031071209
        0x000139c8:    bf7f90b1    ....    DCD    3212808369
        0x000139cc:    3d6ea038    8.n=    DCD    1030660152
        0x000139d0:    bf7f9678    x...    DCD    3212809848
        0x000139d4:    3d685a62    bZh=    DCD    1030249058
        0x000139d8:    bf7f9c18    ....    DCD    3212811288
        0x000139dc:    3d621468    h.b=    DCD    1029837928
        0x000139e0:    bf7fa191    ....    DCD    3212812689
        0x000139e4:    3d5bce4c    L.[=    DCD    1029426764
        0x000139e8:    bf7fa6e3    ....    DCD    3212814051
        0x000139ec:    3d55880e    ..U=    DCD    1029015566
        0x000139f0:    bf7fac0d    ....    DCD    3212815373
        0x000139f4:    3d4f41af    .AO=    DCD    1028604335
        0x000139f8:    bf7fb10f    ....    DCD    3212816655
        0x000139fc:    3d48fb2f    /.H=    DCD    1028193071
        0x00013a00:    bf7fb5ea    ....    DCD    3212817898
        0x00013a04:    3d42b491    ..B=    DCD    1027781777
        0x00013a08:    bf7fba9e    ....    DCD    3212819102
        0x00013a0c:    3d3c6dd5    .m<=    DCD    1027370453
        0x00013a10:    bf7fbf2a    *...    DCD    3212820266
        0x00013a14:    3d3626fc    .&6=    DCD    1026959100
        0x00013a18:    bf7fc38f    ....    DCD    3212821391
        0x00013a1c:    3d2fe007    ../=    DCD    1026547719
        0x00013a20:    bf7fc7cc    ....    DCD    3212822476
        0x00013a24:    3d2998f6    ..)=    DCD    1026136310
        0x00013a28:    bf7fcbe2    ....    DCD    3212823522
        0x00013a2c:    3d2351cc    .Q#=    DCD    1025724876
        0x00013a30:    bf7fcfd1    ....    DCD    3212824529
        0x00013a34:    3d1d0a88    ...=    DCD    1025313416
        0x00013a38:    bf7fd398    ....    DCD    3212825496
        0x00013a3c:    3d16c32c    ,..=    DCD    1024901932
        0x00013a40:    bf7fd737    7...    DCD    3212826423
        0x00013a44:    3d107bb8    .{.=    DCD    1024490424
        0x00013a48:    bf7fdaaf    ....    DCD    3212827311
        0x00013a4c:    3d0a342f    /4.=    DCD    1024078895
        0x00013a50:    bf7fde00    ....    DCD    3212828160
        0x00013a54:    3d03ec90    ...=    DCD    1023667344
        0x00013a58:    bf7fe129    )...    DCD    3212828969
        0x00013a5c:    3cfb49b9    .I.<    DCD    1023101369
        0x00013a60:    bf7fe42b    +...    DCD    3212829739
        0x00013a64:    3ceeba2d    -..<    DCD    1022278189
        0x00013a68:    bf7fe705    ....    DCD    3212830469
        0x00013a6c:    3ce22a7b    {*.<    DCD    1021454971
        0x00013a70:    bf7fe9b8    ....    DCD    3212831160
        0x00013a74:    3cd59aa6    ...<    DCD    1020631718
        0x00013a78:    bf7fec43    C...    DCD    3212831811
        0x00013a7c:    3cc90ab0    ...<    DCD    1019808432
        0x00013a80:    bf7feea7    ....    DCD    3212832423
        0x00013a84:    3cbc7a9b    .z.<    DCD    1018985115
        0x00013a88:    bf7ff0e3    ....    DCD    3212832995
        0x00013a8c:    3cafea69    i..<    DCD    1018161769
        0x00013a90:    bf7ff2f8    ....    DCD    3212833528
        0x00013a94:    3ca35a1c    .Z.<    DCD    1017338396
        0x00013a98:    bf7ff4e6    ....    DCD    3212834022
        0x00013a9c:    3c96c9b6    ...<    DCD    1016514998
        0x00013aa0:    bf7ff6ac    ....    DCD    3212834476
        0x00013aa4:    3c8a3938    89.<    DCD    1015691576
        0x00013aa8:    bf7ff84a    J...    DCD    3212834890
        0x00013aac:    3c7b514b    KQ{<    DCD    1014714699
        0x00013ab0:    bf7ff9c1    ....    DCD    3212835265
        0x00013ab4:    3c623000    .0b<    DCD    1013067776
        0x00013ab8:    bf7ffb11    ....    DCD    3212835601
        0x00013abc:    3c490e90    ..I<    DCD    1011420816
        0x00013ac0:    bf7ffc39    9...    DCD    3212835897
        0x00013ac4:    3c2fed02    ../<    DCD    1009773826
        0x00013ac8:    bf7ffd39    9...    DCD    3212836153
        0x00013acc:    3c16cb59    Y..<    DCD    1008126809
        0x00013ad0:    bf7ffe13    ....    DCD    3212836371
        0x00013ad4:    3bfb5330    0S.;    DCD    1006326576
        0x00013ad8:    bf7ffec4    ....    DCD    3212836548
        0x00013adc:    3bc90f89    ...;    DCD    1003032457
        0x00013ae0:    bf7fff4e    N...    DCD    3212836686
        0x00013ae4:    3b96cbc1    ...;    DCD    999738305
        0x00013ae8:    bf7fffb1    ....    DCD    3212836785
        0x00013aec:    3b490fc7    ..I;    DCD    994643911
        0x00013af0:    bf7fffec    ....    DCD    3212836844
        0x00013af4:    3ac90fd4    ...:    DCD    986255316
        0x00013af8:    bf800000    ....    DCD    3212836864
        0x00013afc:    00000000    ....    DCD    0
        0x00013b00:    bf7fffec    ....    DCD    3212836844
        0x00013b04:    bac90fd4    ....    DCD    3133738964
        0x00013b08:    bf7fffb1    ....    DCD    3212836785
        0x00013b0c:    bb490fc7    ..I.    DCD    3142127559
        0x00013b10:    bf7fff4e    N...    DCD    3212836686
        0x00013b14:    bb96cbc1    ....    DCD    3147221953
        0x00013b18:    bf7ffec4    ....    DCD    3212836548
        0x00013b1c:    bbc90f89    ....    DCD    3150516105
        0x00013b20:    bf7ffe13    ....    DCD    3212836371
        0x00013b24:    bbfb5330    0S..    DCD    3153810224
        0x00013b28:    bf7ffd39    9...    DCD    3212836153
        0x00013b2c:    bc16cb59    Y...    DCD    3155610457
        0x00013b30:    bf7ffc39    9...    DCD    3212835897
        0x00013b34:    bc2fed02    ../.    DCD    3157257474
        0x00013b38:    bf7ffb11    ....    DCD    3212835601
        0x00013b3c:    bc490e90    ..I.    DCD    3158904464
        0x00013b40:    bf7ff9c1    ....    DCD    3212835265
        0x00013b44:    bc623000    .0b.    DCD    3160551424
        0x00013b48:    bf7ff84a    J...    DCD    3212834890
        0x00013b4c:    bc7b514b    KQ{.    DCD    3162198347
        0x00013b50:    bf7ff6ac    ....    DCD    3212834476
        0x00013b54:    bc8a3938    89..    DCD    3163175224
        0x00013b58:    bf7ff4e6    ....    DCD    3212834022
        0x00013b5c:    bc96c9b6    ....    DCD    3163998646
        0x00013b60:    bf7ff2f8    ....    DCD    3212833528
        0x00013b64:    bca35a1c    .Z..    DCD    3164822044
        0x00013b68:    bf7ff0e3    ....    DCD    3212832995
        0x00013b6c:    bcafea69    i...    DCD    3165645417
        0x00013b70:    bf7feea7    ....    DCD    3212832423
        0x00013b74:    bcbc7a9b    .z..    DCD    3166468763
        0x00013b78:    bf7fec43    C...    DCD    3212831811
        0x00013b7c:    bcc90ab0    ....    DCD    3167292080
        0x00013b80:    bf7fe9b8    ....    DCD    3212831160
        0x00013b84:    bcd59aa6    ....    DCD    3168115366
        0x00013b88:    bf7fe705    ....    DCD    3212830469
        0x00013b8c:    bce22a7b    {*..    DCD    3168938619
        0x00013b90:    bf7fe42b    +...    DCD    3212829739
        0x00013b94:    bceeba2d    -...    DCD    3169761837
        0x00013b98:    bf7fe129    )...    DCD    3212828969
        0x00013b9c:    bcfb49b9    .I..    DCD    3170585017
        0x00013ba0:    bf7fde00    ....    DCD    3212828160
        0x00013ba4:    bd03ec90    ....    DCD    3171150992
        0x00013ba8:    bf7fdaaf    ....    DCD    3212827311
        0x00013bac:    bd0a342f    /4..    DCD    3171562543
        0x00013bb0:    bf7fd737    7...    DCD    3212826423
        0x00013bb4:    bd107bb8    .{..    DCD    3171974072
        0x00013bb8:    bf7fd398    ....    DCD    3212825496
        0x00013bbc:    bd16c32c    ,...    DCD    3172385580
        0x00013bc0:    bf7fcfd1    ....    DCD    3212824529
        0x00013bc4:    bd1d0a88    ....    DCD    3172797064
        0x00013bc8:    bf7fcbe2    ....    DCD    3212823522
        0x00013bcc:    bd2351cc    .Q#.    DCD    3173208524
        0x00013bd0:    bf7fc7cc    ....    DCD    3212822476
        0x00013bd4:    bd2998f6    ..).    DCD    3173619958
        0x00013bd8:    bf7fc38f    ....    DCD    3212821391
        0x00013bdc:    bd2fe007    ../.    DCD    3174031367
        0x00013be0:    bf7fbf2a    *...    DCD    3212820266
        0x00013be4:    bd3626fc    .&6.    DCD    3174442748
        0x00013be8:    bf7fba9e    ....    DCD    3212819102
        0x00013bec:    bd3c6dd5    .m<.    DCD    3174854101
        0x00013bf0:    bf7fb5ea    ....    DCD    3212817898
        0x00013bf4:    bd42b491    ..B.    DCD    3175265425
        0x00013bf8:    bf7fb10f    ....    DCD    3212816655
        0x00013bfc:    bd48fb2f    /.H.    DCD    3175676719
        0x00013c00:    bf7fac0d    ....    DCD    3212815373
        0x00013c04:    bd4f41af    .AO.    DCD    3176087983
        0x00013c08:    bf7fa6e3    ....    DCD    3212814051
        0x00013c0c:    bd55880e    ..U.    DCD    3176499214
        0x00013c10:    bf7fa191    ....    DCD    3212812689
        0x00013c14:    bd5bce4c    L.[.    DCD    3176910412
        0x00013c18:    bf7f9c18    ....    DCD    3212811288
        0x00013c1c:    bd621468    h.b.    DCD    3177321576
        0x00013c20:    bf7f9678    x...    DCD    3212809848
        0x00013c24:    bd685a62    bZh.    DCD    3177732706
        0x00013c28:    bf7f90b1    ....    DCD    3212808369
        0x00013c2c:    bd6ea038    8.n.    DCD    3178143800
        0x00013c30:    bf7f8ac2    ....    DCD    3212806850
        0x00013c34:    bd74e5e9    ..t.    DCD    3178554857
        0x00013c38:    bf7f84ab    ....    DCD    3212805291
        0x00013c3c:    bd7b2b74    t+{.    DCD    3178965876
        0x00013c40:    bf7f7e6d    m~..    DCD    3212803693
        0x00013c44:    bd80b86c    l...    DCD    3179329644
        0x00013c48:    bf7f7808    .x..    DCD    3212802056
        0x00013c4c:    bd83db0a    ....    DCD    3179535114
        0x00013c50:    bf7f717b    {q..    DCD    3212800379
        0x00013c54:    bd86fd94    ....    DCD    3179740564
        0x00013c58:    bf7f6ac7    .j..    DCD    3212798663
        0x00013c5c:    bd8a200a    . ..    DCD    3179945994
        0x00013c60:    bf7f63ec    .c..    DCD    3212796908
        0x00013c64:    bd8d426a    jB..    DCD    3180151402
        0x00013c68:    bf7f5ce9    .\..    DCD    3212795113
        0x00013c6c:    bd9064b4    .d..    DCD    3180356788
        0x00013c70:    bf7f55bf    .U..    DCD    3212793279
        0x00013c74:    bd9386e7    ....    DCD    3180562151
        0x00013c78:    bf7f4e6d    mN..    DCD    3212791405
        0x00013c7c:    bd96a905    ....    DCD    3180767493
        0x00013c80:    bf7f46f4    .F..    DCD    3212789492
        0x00013c84:    bd99cb0a    ....    DCD    3180972810
        0x00013c88:    bf7f3f54    T?..    DCD    3212787540
        0x00013c8c:    bd9cecf9    ....    DCD    3181178105
        0x00013c90:    bf7f378d    .7..    DCD    3212785549
        0x00013c94:    bda00ecf    ....    DCD    3181383375
        0x00013c98:    bf7f2f9d    ./..    DCD    3212783517
        0x00013c9c:    bda3308c    .0..    DCD    3181588620
        0x00013ca0:    bf7f2787    .'..    DCD    3212781447
        0x00013ca4:    bda65230    0R..    DCD    3181793840
        0x00013ca8:    bf7f1f49    I...    DCD    3212779337
        0x00013cac:    bda973ba    .s..    DCD    3181999034
        0x00013cb0:    bf7f16e4    ....    DCD    3212777188
        0x00013cb4:    bdac952b    +...    DCD    3182204203
        0x00013cb8:    bf7f0e58    X...    DCD    3212775000
        0x00013cbc:    bdafb680    ....    DCD    3182409344
        0x00013cc0:    bf7f05a4    ....    DCD    3212772772
        0x00013cc4:    bdb2d7bb    ....    DCD    3182614459
        0x00013cc8:    bf7efcc9    ..~.    DCD    3212770505
        0x00013ccc:    bdb5f8da    ....    DCD    3182819546
        0x00013cd0:    bf7ef3c7    ..~.    DCD    3212768199
        0x00013cd4:    bdb919dd    ....    DCD    3183024605
        0x00013cd8:    bf7eea9d    ..~.    DCD    3212765853
        0x00013cdc:    bdbc3ac3    .:..    DCD    3183229635
        0x00013ce0:    bf7ee14c    L.~.    DCD    3212763468
        0x00013ce4:    bdbf5b8d    .[..    DCD    3183434637
        0x00013ce8:    bf7ed7d4    ..~.    DCD    3212761044
        0x00013cec:    bdc27c39    9|..    DCD    3183639609
        0x00013cf0:    bf7ece34    4.~.    DCD    3212758580
        0x00013cf4:    bdc59cc6    ....    DCD    3183844550
        0x00013cf8:    bf7ec46d    m.~.    DCD    3212756077
        0x00013cfc:    bdc8bd36    6...    DCD    3184049462
        0x00013d00:    bf7eba7f    ..~.    DCD    3212753535
        0x00013d04:    bdcbdd86    ....    DCD    3184254342
        0x00013d08:    bf7eb069    i.~.    DCD    3212750953
        0x00013d0c:    bdcefdb7    ....    DCD    3184459191
        0x00013d10:    bf7ea62d    -.~.    DCD    3212748333
        0x00013d14:    bdd21dc8    ....    DCD    3184664008
        0x00013d18:    bf7e9bc9    ..~.    DCD    3212745673
        0x00013d1c:    bdd53db9    .=..    DCD    3184868793
        0x00013d20:    bf7e913d    =.~.    DCD    3212742973
        0x00013d24:    bdd85d89    .]..    DCD    3185073545
        0x00013d28:    bf7e868b    ..~.    DCD    3212740235
        0x00013d2c:    bddb7d37    7}..    DCD    3185278263
        0x00013d30:    bf7e7bb1    .{~.    DCD    3212737457
        0x00013d34:    bdde9cc4    ....    DCD    3185482948
        0x00013d38:    bf7e70b0    .p~.    DCD    3212734640
        0x00013d3c:    bde1bc2e    ....    DCD    3185687598
        0x00013d40:    bf7e6588    .e~.    DCD    3212731784
        0x00013d44:    bde4db76    v...    DCD    3185892214
        0x00013d48:    bf7e5a38    8Z~.    DCD    3212728888
        0x00013d4c:    bde7fa9a    ....    DCD    3186096794
        0x00013d50:    bf7e4ec1    .N~.    DCD    3212725953
        0x00013d54:    bdeb199a    ....    DCD    3186301338
        0x00013d58:    bf7e4323    #C~.    DCD    3212722979
        0x00013d5c:    bdee3876    v8..    DCD    3186505846
        0x00013d60:    bf7e375e    ^7~.    DCD    3212719966
        0x00013d64:    bdf1572e    .W..    DCD    3186710318
        0x00013d68:    bf7e2b72    r+~.    DCD    3212716914
        0x00013d6c:    bdf475c0    .u..    DCD    3186914752
        0x00013d70:    bf7e1f5e    ^.~.    DCD    3212713822
        0x00013d74:    bdf7942c    ,...    DCD    3187119148
        0x00013d78:    bf7e1324    $.~.    DCD    3212710692
        0x00013d7c:    bdfab273    s...    DCD    3187323507
        0x00013d80:    bf7e06c2    ..~.    DCD    3212707522
        0x00013d84:    bdfdd092    ....    DCD    3187527826
        0x00013d88:    bf7dfa38    8.}.    DCD    3212704312
        0x00013d8c:    be007745    Ew..    DCD    3187701573
        0x00013d90:    bf7ded88    ..}.    DCD    3212701064
        0x00013d94:    be02062e    ....    DCD    3187803694
        0x00013d98:    bf7de0b1    ..}.    DCD    3212697777
        0x00013d9c:    be039502    ....    DCD    3187905794
        0x00013da0:    bf7dd3b2    ..}.    DCD    3212694450
        0x00013da4:    be0523c2    .#..    DCD    3188007874
        0x00013da8:    bf7dc68c    ..}.    DCD    3212691084
        0x00013dac:    be06b26e    n...    DCD    3188109934
        0x00013db0:    bf7db940    @.}.    DCD    3212687680
        0x00013db4:    be084105    .A..    DCD    3188211973
        0x00013db8:    bf7dabcc    ..}.    DCD    3212684236
        0x00013dbc:    be09cf86    ....    DCD    3188313990
        0x00013dc0:    bf7d9e30    0.}.    DCD    3212680752
        0x00013dc4:    be0b5df3    .]..    DCD    3188415987
        0x00013dc8:    bf7d906e    n.}.    DCD    3212677230
        0x00013dcc:    be0cec4a    J...    DCD    3188517962
        0x00013dd0:    bf7d8285    ..}.    DCD    3212673669
        0x00013dd4:    be0e7a8b    .z..    DCD    3188619915
        0x00013dd8:    bf7d7474    tt}.    DCD    3212670068
        0x00013ddc:    be1008b7    ....    DCD    3188721847
        0x00013de0:    bf7d663d    =f}.    DCD    3212666429
        0x00013de4:    be1196cc    ....    DCD    3188823756
        0x00013de8:    bf7d57de    .W}.    DCD    3212662750
        0x00013dec:    be1324ca    .$..    DCD    3188925642
        0x00013df0:    bf7d4959    YI}.    DCD    3212659033
        0x00013df4:    be14b2b2    ....    DCD    3189027506
        0x00013df8:    bf7d3aac    .:}.    DCD    3212655276
        0x00013dfc:    be164083    .@..    DCD    3189129347
        0x00013e00:    bf7d2bd8    .+}.    DCD    3212651480
        0x00013e04:    be17ce3d    =...    DCD    3189231165
        0x00013e08:    bf7d1cdd    ..}.    DCD    3212647645
        0x00013e0c:    be195be0    .[..    DCD    3189332960
        0x00013e10:    bf7d0dbc    ..}.    DCD    3212643772
        0x00013e14:    be1ae96b    k...    DCD    3189434731
        0x00013e18:    bf7cfe73    s.|.    DCD    3212639859
        0x00013e1c:    be1c76de    .v..    DCD    3189536478
        0x00013e20:    bf7cef03    ..|.    DCD    3212635907
        0x00013e24:    be1e0438    8...    DCD    3189638200
        0x00013e28:    bf7cdf6c    l.|.    DCD    3212631916
        0x00013e2c:    be1f917b    {...    DCD    3189739899
        0x00013e30:    bf7ccfae    ..|.    DCD    3212627886
        0x00013e34:    be211ea5    ..!.    DCD    3189841573
        0x00013e38:    bf7cbfc9    ..|.    DCD    3212623817
        0x00013e3c:    be22abb6    ..".    DCD    3189943222
        0x00013e40:    bf7cafbd    ..|.    DCD    3212619709
        0x00013e44:    be2438ad    .8$.    DCD    3190044845
        0x00013e48:    bf7c9f8a    ..|.    DCD    3212615562
        0x00013e4c:    be25c58c    ..%.    DCD    3190146444
        0x00013e50:    bf7c8f31    1.|.    DCD    3212611377
        0x00013e54:    be275251    QR'.    DCD    3190248017
        0x00013e58:    bf7c7eb0    .~|.    DCD    3212607152
        0x00013e5c:    be28defc    ..(.    DCD    3190349564
        0x00013e60:    bf7c6e08    .n|.    DCD    3212602888
        0x00013e64:    be2a6b8d    .k*.    DCD    3190451085
        0x00013e68:    bf7c5d3a    :]|.    DCD    3212598586
        0x00013e6c:    be2bf804    ..+.    DCD    3190552580
        0x00013e70:    bf7c4c44    DL|.    DCD    3212594244
        0x00013e74:    be2d8461    a.-.    DCD    3190654049
        0x00013e78:    bf7c3b28    (;|.    DCD    3212589864
        0x00013e7c:    be2f10a2    ../.    DCD    3190755490
        0x00013e80:    bf7c29e5    .)|.    DCD    3212585445
        0x00013e84:    be309cc9    ..0.    DCD    3190856905
        0x00013e88:    bf7c187a    z.|.    DCD    3212580986
        0x00013e8c:    be3228d4    .(2.    DCD    3190958292
        0x00013e90:    bf7c06e9    ..|.    DCD    3212576489
        0x00013e94:    be33b4c4    ..3.    DCD    3191059652
        0x00013e98:    bf7bf531    1.{.    DCD    3212571953
        0x00013e9c:    be354098    .@5.    DCD    3191160984
        0x00013ea0:    bf7be353    S.{.    DCD    3212567379
        0x00013ea4:    be36cc50    P.6.    DCD    3191262288
        0x00013ea8:    bf7bd14d    M.{.    DCD    3212562765
        0x00013eac:    be3857ec    .W8.    DCD    3191363564
        0x00013eb0:    bf7bbf20     .{.    DCD    3212558112
        0x00013eb4:    be39e36c    l.9.    DCD    3191464812
        0x00013eb8:    bf7baccd    ..{.    DCD    3212553421
        0x00013ebc:    be3b6ecf    .n;.    DCD    3191566031
        0x00013ec0:    bf7b9a53    S.{.    DCD    3212548691
        0x00013ec4:    be3cfa15    ..<.    DCD    3191667221
        0x00013ec8:    bf7b87b2    ..{.    DCD    3212543922
        0x00013ecc:    be3e853e    >.>.    DCD    3191768382
        0x00013ed0:    bf7b74ea    .t{.    DCD    3212539114
        0x00013ed4:    be401049    I.@.    DCD    3191869513
        0x00013ed8:    bf7b61fc    .a{.    DCD    3212534268
        0x00013edc:    be419b37    7.A.    DCD    3191970615
        0x00013ee0:    bf7b4ee7    .N{.    DCD    3212529383
        0x00013ee4:    be432607    .&C.    DCD    3192071687
        0x00013ee8:    bf7b3bab    .;{.    DCD    3212524459
        0x00013eec:    be44b0b9    ..D.    DCD    3192172729
        0x00013ef0:    bf7b2848    H({.    DCD    3212519496
        0x00013ef4:    be463b4d    M;F.    DCD    3192273741
        0x00013ef8:    bf7b14be    ..{.    DCD    3212514494
        0x00013efc:    be47c5c2    ..G.    DCD    3192374722
        0x00013f00:    bf7b010e    ..{.    DCD    3212509454
        0x00013f04:    be495018    .PI.    DCD    3192475672
        0x00013f08:    bf7aed37    7.z.    DCD    3212504375
        0x00013f0c:    be4ada4f    O.J.    DCD    3192576591
        0x00013f10:    bf7ad93a    :.z.    DCD    3212499258
        0x00013f14:    be4c6467    gdL.    DCD    3192677479
        0x00013f18:    bf7ac516    ..z.    DCD    3212494102
        0x00013f1c:    be4dee60    `.M.    DCD    3192778336
        0x00013f20:    bf7ab0cb    ..z.    DCD    3212488907
        0x00013f24:    be4f7838    8xO.    DCD    3192879160
        0x00013f28:    bf7a9c59    Y.z.    DCD    3212483673
        0x00013f2c:    be5101f1    ..Q.    DCD    3192979953
        0x00013f30:    bf7a87c1    ..z.    DCD    3212478401
        0x00013f34:    be528b89    ..R.    DCD    3193080713
        0x00013f38:    bf7a7302    .sz.    DCD    3212473090
        0x00013f3c:    be541501    ..T.    DCD    3193181441
        0x00013f40:    bf7a5e1c    .^z.    DCD    3212467740
        0x00013f44:    be559e58    X.U.    DCD    3193282136
        0x00013f48:    bf7a4910    .Iz.    DCD    3212462352
        0x00013f4c:    be57278f    .'W.    DCD    3193382799
        0x00013f50:    bf7a33dd    .3z.    DCD    3212456925
        0x00013f54:    be58b0a4    ..X.    DCD    3193483428
        0x00013f58:    bf7a1e84    ..z.    DCD    3212451460
        0x00013f5c:    be5a3997    .9Z.    DCD    3193584023
        0x00013f60:    bf7a0904    ..z.    DCD    3212445956
        0x00013f64:    be5bc26a    j.[.    DCD    3193684586
        0x00013f68:    bf79f35e    ^.y.    DCD    3212440414
        0x00013f6c:    be5d4b1a    .K].    DCD    3193785114
        0x00013f70:    bf79dd91    ..y.    DCD    3212434833
        0x00013f74:    be5ed3a8    ..^.    DCD    3193885608
        0x00013f78:    bf79c79d    ..y.    DCD    3212429213
        0x00013f7c:    be605c13    .\`.    DCD    3193986067
        0x00013f80:    bf79b183    ..y.    DCD    3212423555
        0x00013f84:    be61e45c    \.a.    DCD    3194086492
        0x00013f88:    bf799b43    C.y.    DCD    3212417859
        0x00013f8c:    be636c83    .lc.    DCD    3194186883
        0x00013f90:    bf7984dc    ..y.    DCD    3212412124
        0x00013f94:    be64f486    ..d.    DCD    3194287238
        0x00013f98:    bf796e4e    Nny.    DCD    3212406350
        0x00013f9c:    be667c66    f|f.    DCD    3194387558
        0x00013fa0:    bf79579a    .Wy.    DCD    3212400538
        0x00013fa4:    be680422    ".h.    DCD    3194487842
        0x00013fa8:    bf7940c0    .@y.    DCD    3212394688
        0x00013fac:    be698bba    ..i.    DCD    3194588090
        0x00013fb0:    bf7929bf    .)y.    DCD    3212388799
        0x00013fb4:    be6b132f    /.k.    DCD    3194688303
        0x00013fb8:    bf791298    ..y.    DCD    3212382872
        0x00013fbc:    be6c9a7f    ..l.    DCD    3194788479
        0x00013fc0:    bf78fb4a    J.x.    DCD    3212376906
        0x00013fc4:    be6e21ab    .!n.    DCD    3194888619
        0x00013fc8:    bf78e3d6    ..x.    DCD    3212370902
        0x00013fcc:    be6fa8b2    ..o.    DCD    3194988722
        0x00013fd0:    bf78cc3b    ;.x.    DCD    3212364859
        0x00013fd4:    be712f94    ./q.    DCD    3195088788
        0x00013fd8:    bf78b47b    {.x.    DCD    3212358779
        0x00013fdc:    be72b651    Q.r.    DCD    3195188817
        0x00013fe0:    bf789c93    ..x.    DCD    3212352659
        0x00013fe4:    be743ce8    .<t.    DCD    3195288808
        0x00013fe8:    bf788486    ..x.    DCD    3212346502
        0x00013fec:    be75c35a    Z.u.    DCD    3195388762
        0x00013ff0:    bf786c52    Rlx.    DCD    3212340306
        0x00013ff4:    be7749a6    .Iw.    DCD    3195488678
        0x00013ff8:    bf7853f8    .Sx.    DCD    3212334072
        0x00013ffc:    be78cfcc    ..x.    DCD    3195588556
        0x00014000:    bf783b77    w;x.    DCD    3212327799
        0x00014004:    be7a55cb    .Uz.    DCD    3195688395
        0x00014008:    bf7822d1    ."x.    DCD    3212321489
        0x0001400c:    be7bdba4    ..{.    DCD    3195788196
        0x00014010:    bf780a04    ..x.    DCD    3212315140
        0x00014014:    be7d6156    Va}.    DCD    3195887958
        0x00014018:    bf77f110    ..w.    DCD    3212308752
        0x0001401c:    be7ee6e1    ..~.    DCD    3195987681
        0x00014020:    bf77d7f7    ..w.    DCD    3212302327
        0x00014024:    be803622    "6..    DCD    3196073506
        0x00014028:    bf77beb7    ..w.    DCD    3212295863
        0x0001402c:    be80f8c0    ....    DCD    3196123328
        0x00014030:    bf77a551    Q.w.    DCD    3212289361
        0x00014034:    be81bb4a    J...    DCD    3196173130
        0x00014038:    bf778bc5    ..w.    DCD    3212282821
        0x0001403c:    be827dc0    .}..    DCD    3196222912
        0x00014040:    bf777213    .rw.    DCD    3212276243
        0x00014044:    be834022    "@..    DCD    3196272674
        0x00014048:    bf77583a    :Xw.    DCD    3212269626
        0x0001404c:    be840270    p...    DCD    3196322416
        0x00014050:    bf773e3c    <>w.    DCD    3212262972
        0x00014054:    be84c4aa    ....    DCD    3196372138
        0x00014058:    bf772417    .$w.    DCD    3212256279
        0x0001405c:    be8586ce    ....    DCD    3196421838
        0x00014060:    bf7709cc    ..w.    DCD    3212249548
        0x00014064:    be8648df    .H..    DCD    3196471519
        0x00014068:    bf76ef5b    [.v.    DCD    3212242779
        0x0001406c:    be870ada    ....    DCD    3196521178
        0x00014070:    bf76d4c4    ..v.    DCD    3212235972
        0x00014074:    be87ccc1    ....    DCD    3196570817
        0x00014078:    bf76ba07    ..v.    DCD    3212229127
        0x0001407c:    be888e93    ....    DCD    3196620435
        0x00014080:    bf769f24    $.v.    DCD    3212222244
        0x00014084:    be895050    PP..    DCD    3196670032
        0x00014088:    bf76841b    ..v.    DCD    3212215323
        0x0001408c:    be8a11f8    ....    DCD    3196719608
        0x00014090:    bf7668ec    .hv.    DCD    3212208364
        0x00014094:    be8ad38a    ....    DCD    3196769162
        0x00014098:    bf764d97    .Mv.    DCD    3212201367
        0x0001409c:    be8b9507    ....    DCD    3196818695
        0x000140a0:    bf76321b    .2v.    DCD    3212194331
        0x000140a4:    be8c566e    nV..    DCD    3196868206
        0x000140a8:    bf76167a    z.v.    DCD    3212187258
        0x000140ac:    be8d17c0    ....    DCD    3196917696
        0x000140b0:    bf75fab3    ..u.    DCD    3212180147
        0x000140b4:    be8dd8fc    ....    DCD    3196967164
        0x000140b8:    bf75dec6    ..u.    DCD    3212172998
        0x000140bc:    be8e9a22    "...    DCD    3197016610
        0x000140c0:    bf75c2b3    ..u.    DCD    3212165811
        0x000140c4:    be8f5b32    2[..    DCD    3197066034
        0x000140c8:    bf75a67b    {.u.    DCD    3212158587
        0x000140cc:    be901c2c    ,...    DCD    3197115436
        0x000140d0:    bf758a1c    ..u.    DCD    3212151324
        0x000140d4:    be90dd10    ....    DCD    3197164816
        0x000140d8:    bf756d97    .mu.    DCD    3212144023
        0x000140dc:    be919ddd    ....    DCD    3197214173
        0x000140e0:    bf7550ed    .Pu.    DCD    3212136685
        0x000140e4:    be925e94    .^..    DCD    3197263508
        0x000140e8:    bf75341d    .4u.    DCD    3212129309
        0x000140ec:    be931f35    5...    DCD    3197312821
        0x000140f0:    bf751727    '.u.    DCD    3212121895
        0x000140f4:    be93dfbf    ....    DCD    3197362111
        0x000140f8:    bf74fa0b    ..t.    DCD    3212114443
        0x000140fc:    be94a031    1...    DCD    3197411377
        0x00014100:    bf74dcc9    ..t.    DCD    3212106953
        0x00014104:    be95608d    .`..    DCD    3197460621
        0x00014108:    bf74bf62    b.t.    DCD    3212099426
        0x0001410c:    be9620d2    . ..    DCD    3197509842
        0x00014110:    bf74a1d5    ..t.    DCD    3212091861
        0x00014114:    be96e100    ....    DCD    3197559040
        0x00014118:    bf748422    ".t.    DCD    3212084258
        0x0001411c:    be97a117    ....    DCD    3197608215
        0x00014120:    bf746649    Ift.    DCD    3212076617
        0x00014124:    be986116    .a..    DCD    3197657366
        0x00014128:    bf74484b    KHt.    DCD    3212068939
        0x0001412c:    be9920fe    . ..    DCD    3197706494
        0x00014130:    bf742a27    '*t.    DCD    3212061223
        0x00014134:    be99e0ce    ....    DCD    3197755598
        0x00014138:    bf740bdd    ..t.    DCD    3212053469
        0x0001413c:    be9aa086    ....    DCD    3197804678
        0x00014140:    bf73ed6e    n.s.    DCD    3212045678
        0x00014144:    be9b6027    '`..    DCD    3197853735
        0x00014148:    bf73ced9    ..s.    DCD    3212037849
        0x0001414c:    be9c1faf    ....    DCD    3197902767
        0x00014150:    bf73b01f    ..s.    DCD    3212029983
        0x00014154:    be9cdf20     ...    DCD    3197951776
        0x00014158:    bf73913f    ?.s.    DCD    3212022079
        0x0001415c:    be9d9e78    x...    DCD    3198000760
        0x00014160:    bf737239    9rs.    DCD    3212014137
        0x00014164:    be9e5db8    .]..    DCD    3198049720
        0x00014168:    bf73530e    .Ss.    DCD    3212006158
        0x0001416c:    be9f1cdf    ....    DCD    3198098655
        0x00014170:    bf7333be    .3s.    DCD    3211998142
        0x00014174:    be9fdbee    ....    DCD    3198147566
        0x00014178:    bf731447    G.s.    DCD    3211990087
        0x0001417c:    bea09ae5    ....    DCD    3198196453
        0x00014180:    bf72f4ac    ..r.    DCD    3211981996
        0x00014184:    bea159c2    .Y..    DCD    3198245314
        0x00014188:    bf72d4eb    ..r.    DCD    3211973867
        0x0001418c:    bea21887    ....    DCD    3198294151
        0x00014190:    bf72b504    ..r.    DCD    3211965700
        0x00014194:    bea2d733    3...    DCD    3198342963
        0x00014198:    bf7294f8    ..r.    DCD    3211957496
        0x0001419c:    bea395c5    ....    DCD    3198391749
        0x000141a0:    bf7274c7    .tr.    DCD    3211949255
        0x000141a4:    bea4543f    ?T..    DCD    3198440511
        0x000141a8:    bf725470    pTr.    DCD    3211940976
        0x000141ac:    bea5129f    ....    DCD    3198489247
        0x000141b0:    bf7233f4    .3r.    DCD    3211932660
        0x000141b4:    bea5d0e5    ....    DCD    3198537957
        0x000141b8:    bf721352    R.r.    DCD    3211924306
        0x000141bc:    bea68f12    ....    DCD    3198586642
        0x000141c0:    bf71f28c    ..q.    DCD    3211915916
        0x000141c4:    bea74d25    %M..    DCD    3198635301
        0x000141c8:    bf71d19f    ..q.    DCD    3211907487
        0x000141cc:    bea80b1f    ....    DCD    3198683935
        0x000141d0:    bf71b08e    ..q.    DCD    3211899022
        0x000141d4:    bea8c8fe    ....    DCD    3198732542
        0x000141d8:    bf718f57    W.q.    DCD    3211890519
        0x000141dc:    bea986c4    ....    DCD    3198781124
        0x000141e0:    bf716dfb    .mq.    DCD    3211881979
        0x000141e4:    beaa446f    oD..    DCD    3198829679
        0x000141e8:    bf714c7a    zLq.    DCD    3211873402
        0x000141ec:    beab0201    ....    DCD    3198878209
        0x000141f0:    bf712ad4    .*q.    DCD    3211864788
        0x000141f4:    beabbf77    w...    DCD    3198926711
        0x000141f8:    bf710908    ..q.    DCD    3211856136
        0x000141fc:    beac7cd4    .|..    DCD    3198975188
        0x00014200:    bf70e717    ..p.    DCD    3211847447
        0x00014204:    bead3a15    .:..    DCD    3199023637
        0x00014208:    bf70c502    ..p.    DCD    3211838722
        0x0001420c:    beadf73c    <...    DCD    3199072060
        0x00014210:    bf70a2c6    ..p.    DCD    3211829958
        0x00014214:    beaeb449    I...    DCD    3199120457
        0x00014218:    bf708066    f.p.    DCD    3211821158
        0x0001421c:    beaf713a    :q..    DCD    3199168826
        0x00014220:    bf705de1    .]p.    DCD    3211812321
        0x00014224:    beb02e10    ....    DCD    3199217168
        0x00014228:    bf703b37    7;p.    DCD    3211803447
        0x0001422c:    beb0eacb    ....    DCD    3199265483
        0x00014230:    bf701867    g.p.    DCD    3211794535
        0x00014234:    beb1a76b    k...    DCD    3199313771
        0x00014238:    bf6ff573    s.o.    DCD    3211785587
        0x0001423c:    beb263ef    .c..    DCD    3199362031
        0x00014240:    bf6fd25a    Z.o.    DCD    3211776602
        0x00014244:    beb32058    X ..    DCD    3199410264
        0x00014248:    bf6faf1b    ..o.    DCD    3211767579
        0x0001424c:    beb3dca5    ....    DCD    3199458469
        0x00014250:    bf6f8bb8    ..o.    DCD    3211758520
        0x00014254:    beb498d6    ....    DCD    3199506646
        0x00014258:    bf6f6830    0ho.    DCD    3211749424
        0x0001425c:    beb554ec    .T..    DCD    3199554796
        0x00014260:    bf6f4483    .Do.    DCD    3211740291
        0x00014264:    beb610e6    ....    DCD    3199602918
        0x00014268:    bf6f20b0    . o.    DCD    3211731120
        0x0001426c:    beb6ccc3    ....    DCD    3199651011
        0x00014270:    bf6efcba    ..n.    DCD    3211721914
        0x00014274:    beb78884    ....    DCD    3199699076
        0x00014278:    bf6ed89e    ..n.    DCD    3211712670
        0x0001427c:    beb8442a    *D..    DCD    3199747114
        0x00014280:    bf6eb45d    ].n.    DCD    3211703389
        0x00014284:    beb8ffb2    ....    DCD    3199795122
        0x00014288:    bf6e8ff8    ..n.    DCD    3211694072
        0x0001428c:    beb9bb1e    ....    DCD    3199843102
        0x00014290:    bf6e6b6d    mkn.    DCD    3211684717
        0x00014294:    beba766e    nv..    DCD    3199891054
        0x00014298:    bf6e46be    .Fn.    DCD    3211675326
        0x0001429c:    bebb31a0    .1..    DCD    3199938976
        0x000142a0:    bf6e21eb    .!n.    DCD    3211665899
        0x000142a4:    bebbecb6    ....    DCD    3199986870
        0x000142a8:    bf6dfcf2    ..m.    DCD    3211656434
        0x000142ac:    bebca7af    ....    DCD    3200034735
        0x000142b0:    bf6dd7d5    ..m.    DCD    3211646933
        0x000142b4:    bebd628b    .b..    DCD    3200082571
        0x000142b8:    bf6db293    ..m.    DCD    3211637395
        0x000142bc:    bebe1d4a    J...    DCD    3200130378
        0x000142c0:    bf6d8d2d    -.m.    DCD    3211627821
        0x000142c4:    bebed7eb    ....    DCD    3200178155
        0x000142c8:    bf6d67a1    .gm.    DCD    3211618209
        0x000142cc:    bebf926f    o...    DCD    3200225903
        0x000142d0:    bf6d41f2    .Am.    DCD    3211608562
        0x000142d4:    bec04cd5    .L..    DCD    3200273621
        0x000142d8:    bf6d1c1d    ..m.    DCD    3211598877
        0x000142dc:    bec1071e    ....    DCD    3200321310
        0x000142e0:    bf6cf624    $.l.    DCD    3211589156
        0x000142e4:    bec1c148    H...    DCD    3200368968
        0x000142e8:    bf6cd007    ..l.    DCD    3211579399
        0x000142ec:    bec27b55    U{..    DCD    3200416597
        0x000142f0:    bf6ca9c5    ..l.    DCD    3211569605
        0x000142f4:    bec33544    D5..    DCD    3200464196
        0x000142f8:    bf6c835e    ^.l.    DCD    3211559774
        0x000142fc:    bec3ef15    ....    DCD    3200511765
        0x00014300:    bf6c5cd4    .\l.    DCD    3211549908
        0x00014304:    bec4a8c8    ....    DCD    3200559304
        0x00014308:    bf6c3624    $6l.    DCD    3211540004
        0x0001430c:    bec5625c    \b..    DCD    3200606812
        0x00014310:    bf6c0f50    P.l.    DCD    3211530064
        0x00014314:    bec61bd2    ....    DCD    3200654290
        0x00014318:    bf6be858    X.k.    DCD    3211520088
        0x0001431c:    bec6d529    )...    DCD    3200701737
        0x00014320:    bf6bc13b    ;.k.    DCD    3211510075
        0x00014324:    bec78e62    b...    DCD    3200749154
        0x00014328:    bf6b99fb    ..k.    DCD    3211500027
        0x0001432c:    bec8477c    |G..    DCD    3200796540
        0x00014330:    bf6b7295    .rk.    DCD    3211489941
        0x00014334:    bec90077    w...    DCD    3200843895
        0x00014338:    bf6b4b0c    .Kk.    DCD    3211479820
        0x0001433c:    bec9b953    S...    DCD    3200891219
        0x00014340:    bf6b235e    ^#k.    DCD    3211469662
        0x00014344:    beca7210    .r..    DCD    3200938512
        0x00014348:    bf6afb8c    ..j.    DCD    3211459468
        0x0001434c:    becb2aae    .*..    DCD    3200985774
        0x00014350:    bf6ad395    ..j.    DCD    3211449237
        0x00014354:    becbe32c    ,...    DCD    3201033004
        0x00014358:    bf6aab7b    {.j.    DCD    3211438971
        0x0001435c:    becc9b8b    ....    DCD    3201080203
        0x00014360:    bf6a833c    <.j.    DCD    3211428668
        0x00014364:    becd53ca    .S..    DCD    3201127370
        0x00014368:    bf6a5ad9    .Zj.    DCD    3211418329
        0x0001436c:    bece0bea    ....    DCD    3201174506
        0x00014370:    bf6a3252    R2j.    DCD    3211407954
        0x00014374:    becec3ea    ....    DCD    3201221610
        0x00014378:    bf6a09a7    ..j.    DCD    3211397543
        0x0001437c:    becf7bca    .{..    DCD    3201268682
        0x00014380:    bf69e0d7    ..i.    DCD    3211387095
        0x00014384:    bed0338a    .3..    DCD    3201315722
        0x00014388:    bf69b7e4    ..i.    DCD    3211376612
        0x0001438c:    bed0eb2a    *...    DCD    3201362730
        0x00014390:    bf698ecc    ..i.    DCD    3211366092
        0x00014394:    bed1a2aa    ....    DCD    3201409706
        0x00014398:    bf696591    .ei.    DCD    3211355537
        0x0001439c:    bed25a09    .Z..    DCD    3201456649
        0x000143a0:    bf693c32    2<i.    DCD    3211344946
        0x000143a4:    bed31148    H...    DCD    3201503560
        0x000143a8:    bf6912ae    ..i.    DCD    3211334318
        0x000143ac:    bed3c867    g...    DCD    3201550439
        0x000143b0:    bf68e907    ..h.    DCD    3211323655
        0x000143b4:    bed47f64    d...    DCD    3201597284
        0x000143b8:    bf68bf3c    <.h.    DCD    3211312956
        0x000143bc:    bed53641    A6..    DCD    3201644097
        0x000143c0:    bf68954c    L.h.    DCD    3211302220
        0x000143c4:    bed5ecfd    ....    DCD    3201690877
        0x000143c8:    bf686b39    9kh.    DCD    3211291449
        0x000143cc:    bed6a399    ....    DCD    3201737625
        0x000143d0:    bf684103    .Ah.    DCD    3211280643
        0x000143d4:    bed75a13    .Z..    DCD    3201784339
        0x000143d8:    bf6816a8    ..h.    DCD    3211269800
        0x000143dc:    bed8106b    k...    DCD    3201831019
        0x000143e0:    bf67ec2a    *.g.    DCD    3211258922
        0x000143e4:    bed8c6a3    ....    DCD    3201877667
        0x000143e8:    bf67c187    ..g.    DCD    3211248007
        0x000143ec:    bed97cb9    .|..    DCD    3201924281
        0x000143f0:    bf6796c1    ..g.    DCD    3211237057
        0x000143f4:    beda32ad    .2..    DCD    3201970861
        0x000143f8:    bf676bd8    .kg.    DCD    3211226072
        0x000143fc:    bedae880    ....    DCD    3202017408
        0x00014400:    bf6740ca    .@g.    DCD    3211215050
        0x00014404:    bedb9e31    1...    DCD    3202063921
        0x00014408:    bf671599    ..g.    DCD    3211203993
        0x0001440c:    bedc53c1    .S..    DCD    3202110401
        0x00014410:    bf66ea45    E.f.    DCD    3211192901
        0x00014414:    bedd092e    ....    DCD    3202156846
        0x00014418:    bf66becc    ..f.    DCD    3211181772
        0x0001441c:    beddbe79    y...    DCD    3202203257
        0x00014420:    bf669330    0.f.    DCD    3211170608
        0x00014424:    bede73a2    .s..    DCD    3202249634
        0x00014428:    bf666771    qgf.    DCD    3211159409
        0x0001442c:    bedf28a9    .(..    DCD    3202295977
        0x00014430:    bf663b8e    .;f.    DCD    3211148174
        0x00014434:    bedfdd8d    ....    DCD    3202342285
        0x00014438:    bf660f88    ..f.    DCD    3211136904
        0x0001443c:    bee0924f    O...    DCD    3202388559
        0x00014440:    bf65e35e    ^.e.    DCD    3211125598
        0x00014444:    bee146ee    .F..    DCD    3202434798
        0x00014448:    bf65b710    ..e.    DCD    3211114256
        0x0001444c:    bee1fb6a    j...    DCD    3202481002
        0x00014450:    bf658aa0    ..e.    DCD    3211102880
        0x00014454:    bee2afc4    ....    DCD    3202527172
        0x00014458:    bf655e0b    .^e.    DCD    3211091467
        0x0001445c:    bee363fa    .c..    DCD    3202573306
        0x00014460:    bf653154    T1e.    DCD    3211080020
        0x00014464:    bee4180e    ....    DCD    3202619406
        0x00014468:    bf650479    y.e.    DCD    3211068537
        0x0001446c:    bee4cbfe    ....    DCD    3202665470
        0x00014470:    bf64d77b    {.d.    DCD    3211057019
        0x00014474:    bee57fcb    ....    DCD    3202711499
        0x00014478:    bf64aa59    Y.d.    DCD    3211045465
        0x0001447c:    bee63375    u3..    DCD    3202757493
        0x00014480:    bf647d14    .}d.    DCD    3211033876
        0x00014484:    bee6e6fb    ....    DCD    3202803451
        0x00014488:    bf644fac    .Od.    DCD    3211022252
        0x0001448c:    bee79a5d    ]...    DCD    3202849373
        0x00014490:    bf642221    !"d.    DCD    3211010593
        0x00014494:    bee84d9c    .M..    DCD    3202895260
        0x00014498:    bf63f473    s.c.    DCD    3210998899
        0x0001449c:    bee900b7    ....    DCD    3202941111
        0x000144a0:    bf63c6a1    ..c.    DCD    3210987169
        0x000144a4:    bee9b3ae    ....    DCD    3202986926
        0x000144a8:    bf6398ac    ..c.    DCD    3210975404
        0x000144ac:    beea6681    .f..    DCD    3203032705
        0x000144b0:    bf636a95    .jc.    DCD    3210963605
        0x000144b4:    beeb1930    0...    DCD    3203078448
        0x000144b8:    bf633c5a    Z<c.    DCD    3210951770
        0x000144bc:    beebcbbb    ....    DCD    3203124155
        0x000144c0:    bf630dfc    ..c.    DCD    3210939900
        0x000144c4:    beec7e21    !~..    DCD    3203169825
        0x000144c8:    bf62df7b    {.b.    DCD    3210927995
        0x000144cc:    beed3063    c0..    DCD    3203215459
        0x000144d0:    bf62b0d7    ..b.    DCD    3210916055
        0x000144d4:    beede280    ....    DCD    3203261056
        0x000144d8:    bf628210    ..b.    DCD    3210904080
        0x000144dc:    beee9479    y...    DCD    3203306617
        0x000144e0:    bf625326    &Sb.    DCD    3210892070
        0x000144e4:    beef464c    LF..    DCD    3203352140
        0x000144e8:    bf62241a    .$b.    DCD    3210880026
        0x000144ec:    beeff7fb    ....    DCD    3203397627
        0x000144f0:    bf61f4ea    ..a.    DCD    3210867946
        0x000144f4:    bef0a985    ....    DCD    3203443077
        0x000144f8:    bf61c598    ..a.    DCD    3210855832
        0x000144fc:    bef15aea    .Z..    DCD    3203488490
        0x00014500:    bf619622    ".a.    DCD    3210843682
        0x00014504:    bef20c29    )...    DCD    3203533865
        0x00014508:    bf61668a    .fa.    DCD    3210831498
        0x0001450c:    bef2bd43    C...    DCD    3203579203
        0x00014510:    bf6136d0    .6a.    DCD    3210819280
        0x00014514:    bef36e38    8n..    DCD    3203624504
        0x00014518:    bf6106f2    ..a.    DCD    3210807026
        0x0001451c:    bef41f07    ....    DCD    3203669767
        0x00014520:    bf60d6f2    ..`.    DCD    3210794738
        0x00014524:    bef4cfb1    ....    DCD    3203714993
        0x00014528:    bf60a6cf    ..`.    DCD    3210782415
        0x0001452c:    bef58035    5...    DCD    3203760181
        0x00014530:    bf607689    .v`.    DCD    3210770057
        0x00014534:    bef63093    .0..    DCD    3203805331
        0x00014538:    bf604621    !F`.    DCD    3210757665
        0x0001453c:    bef6e0cb    ....    DCD    3203850443
        0x00014540:    bf601596    ..`.    DCD    3210745238
        0x00014544:    bef790dc    ....    DCD    3203895516
        0x00014548:    bf5fe4e9    .._.    DCD    3210732777
        0x0001454c:    bef840c8    .@..    DCD    3203940552
        0x00014550:    bf5fb419    .._.    DCD    3210720281
        0x00014554:    bef8f08e    ....    DCD    3203985550
        0x00014558:    bf5f8327    '._.    DCD    3210707751
        0x0001455c:    bef9a02d    -...    DCD    3204030509
        0x00014560:    bf5f5212    .R_.    DCD    3210695186
        0x00014564:    befa4fa5    .O..    DCD    3204075429
        0x00014568:    bf5f20db    . _.    DCD    3210682587
        0x0001456c:    befafef7    ....    DCD    3204120311
        0x00014570:    bf5eef81    ..^.    DCD    3210669953
        0x00014574:    befbae22    "...    DCD    3204165154
        0x00014578:    bf5ebe05    ..^.    DCD    3210657285
        0x0001457c:    befc5d27    ']..    DCD    3204209959
        0x00014580:    bf5e8c67    g.^.    DCD    3210644583
        0x00014584:    befd0c04    ....    DCD    3204254724
        0x00014588:    bf5e5aa6    .Z^.    DCD    3210631846
        0x0001458c:    befdbabb    ....    DCD    3204299451
        0x00014590:    bf5e28c3    .(^.    DCD    3210619075
        0x00014594:    befe694a    Ji..    DCD    3204344138
        0x00014598:    bf5df6be    ..].    DCD    3210606270
        0x0001459c:    beff17b2    ....    DCD    3204388786
        0x000145a0:    bf5dc497    ..].    DCD    3210593431
        0x000145a4:    beffc5f3    ....    DCD    3204433395
        0x000145a8:    bf5d924d    M.].    DCD    3210580557
        0x000145ac:    bf003a06    .:..    DCD    3204463110
        0x000145b0:    bf5d5fe1    ._].    DCD    3210567649
        0x000145b4:    bf0090ff    ....    DCD    3204485375
        0x000145b8:    bf5d2d53    S-].    DCD    3210554707
        0x000145bc:    bf00e7e4    ....    DCD    3204507620
        0x000145c0:    bf5cfaa3    ..\.    DCD    3210541731
        0x000145c4:    bf013eb5    .>..    DCD    3204529845
        0x000145c8:    bf5cc7d1    ..\.    DCD    3210528721
        0x000145cc:    bf019573    s...    DCD    3204552051
        0x000145d0:    bf5c94dd    ..\.    DCD    3210515677
        0x000145d4:    bf01ec1c    ....    DCD    3204574236
        0x000145d8:    bf5c61c7    .a\.    DCD    3210502599
        0x000145dc:    bf0242b1    .B..    DCD    3204596401
        0x000145e0:    bf5c2e8e    ..\.    DCD    3210489486
        0x000145e4:    bf029932    2...    DCD    3204618546
        0x000145e8:    bf5bfb34    4.[.    DCD    3210476340
        0x000145ec:    bf02ef9f    ....    DCD    3204640671
        0x000145f0:    bf5bc7b8    ..[.    DCD    3210463160
        0x000145f4:    bf0345f8    .E..    DCD    3204662776
        0x000145f8:    bf5b941a    ..[.    DCD    3210449946
        0x000145fc:    bf039c3d    =...    DCD    3204684861
        0x00014600:    bf5b605a    Z`[.    DCD    3210436698
        0x00014604:    bf03f26d    m...    DCD    3204706925
        0x00014608:    bf5b2c79    y,[.    DCD    3210423417
        0x0001460c:    bf044889    .H..    DCD    3204728969
        0x00014610:    bf5af875    u.Z.    DCD    3210410101
        0x00014614:    bf049e91    ....    DCD    3204750993
        0x00014618:    bf5ac450    P.Z.    DCD    3210396752
        0x0001461c:    bf04f484    ....    DCD    3204772996
        0x00014620:    bf5a9009    ..Z.    DCD    3210383369
        0x00014624:    bf054a62    bJ..    DCD    3204794978
        0x00014628:    bf5a5ba0    .[Z.    DCD    3210369952
        0x0001462c:    bf05a02c    ,...    DCD    3204816940
        0x00014630:    bf5a2716    .'Z.    DCD    3210356502
        0x00014634:    bf05f5e2    ....    DCD    3204838882
        0x00014638:    bf59f26a    j.Y.    DCD    3210343018
        0x0001463c:    bf064b82    .K..    DCD    3204860802
        0x00014640:    bf59bd9c    ..Y.    DCD    3210329500
        0x00014644:    bf06a10e    ....    DCD    3204882702
        0x00014648:    bf5988ad    ..Y.    DCD    3210315949
        0x0001464c:    bf06f686    ....    DCD    3204904582
        0x00014650:    bf59539c    .SY.    DCD    3210302364
        0x00014654:    bf074be8    .K..    DCD    3204926440
        0x00014658:    bf591e6a    j.Y.    DCD    3210288746
        0x0001465c:    bf07a136    6...    DCD    3204948278
        0x00014660:    bf58e917    ..X.    DCD    3210275095
        0x00014664:    bf07f66f    o...    DCD    3204970095
        0x00014668:    bf58b3a1    ..X.    DCD    3210261409
        0x0001466c:    bf084b92    .K..    DCD    3204991890
        0x00014670:    bf587e0b    .~X.    DCD    3210247691
        0x00014674:    bf08a0a1    ....    DCD    3205013665
        0x00014678:    bf584853    SHX.    DCD    3210233939
        0x0001467c:    bf08f59b    ....    DCD    3205035419
        0x00014680:    bf581279    y.X.    DCD    3210220153
        0x00014684:    bf094a7f    .J..    DCD    3205057151
        0x00014688:    bf57dc7f    ..W.    DCD    3210206335
        0x0001468c:    bf099f4e    N...    DCD    3205078862
        0x00014690:    bf57a663    c.W.    DCD    3210192483
        0x00014694:    bf09f409    ....    DCD    3205100553
        0x00014698:    bf577026    &pW.    DCD    3210178598
        0x0001469c:    bf0a48ad    .H..    DCD    3205122221
        0x000146a0:    bf5739c7    .9W.    DCD    3210164679
        0x000146a4:    bf0a9d3d    =...    DCD    3205143869
        0x000146a8:    bf570348    H.W.    DCD    3210150728
        0x000146ac:    bf0af1b7    ....    DCD    3205165495
        0x000146b0:    bf56cca7    ..V.    DCD    3210136743
        0x000146b4:    bf0b461c    .F..    DCD    3205187100
        0x000146b8:    bf5695e5    ..V.    DCD    3210122725
        0x000146bc:    bf0b9a6b    k...    DCD    3205208683
        0x000146c0:    bf565f02    ._V.    DCD    3210108674
        0x000146c4:    bf0beea5    ....    DCD    3205230245
        0x000146c8:    bf5627fe    .'V.    DCD    3210094590
        0x000146cc:    bf0c42c9    .B..    DCD    3205251785
        0x000146d0:    bf55f0d9    ..U.    DCD    3210080473
        0x000146d4:    bf0c96d7    ....    DCD    3205273303
        0x000146d8:    bf55b993    ..U.    DCD    3210066323
        0x000146dc:    bf0cead0    ....    DCD    3205294800
        0x000146e0:    bf55822c    ,.U.    DCD    3210052140
        0x000146e4:    bf0d3eb3    .>..    DCD    3205316275
        0x000146e8:    bf554aa4    .JU.    DCD    3210037924
        0x000146ec:    bf0d9281    ....    DCD    3205337729
        0x000146f0:    bf5512fb    ..U.    DCD    3210023675
        0x000146f4:    bf0de638    8...    DCD    3205359160
        0x000146f8:    bf54db31    1.T.    DCD    3210009393
        0x000146fc:    bf0e39da    .9..    DCD    3205380570
        0x00014700:    bf54a347    G.T.    DCD    3209995079
        0x00014704:    bf0e8d65    e...    DCD    3205401957
        0x00014708:    bf546b3b    ;kT.    DCD    3209980731
        0x0001470c:    bf0ee0db    ....    DCD    3205423323
        0x00014710:    bf54330f    .3T.    DCD    3209966351
        0x00014714:    bf0f343b    ;4..    DCD    3205444667
        0x00014718:    bf53fac3    ..S.    DCD    3209951939
        0x0001471c:    bf0f8784    ....    DCD    3205465988
        0x00014720:    bf53c255    U.S.    DCD    3209937493
        0x00014724:    bf0fdab8    ....    DCD    3205487288
        0x00014728:    bf5389c7    ..S.    DCD    3209923015
        0x0001472c:    bf102dd5    .-..    DCD    3205508565
        0x00014730:    bf535118    .QS.    DCD    3209908504
        0x00014734:    bf1080dc    ....    DCD    3205529820
        0x00014738:    bf531849    I.S.    DCD    3209893961
        0x0001473c:    bf10d3cd    ....    DCD    3205551053
        0x00014740:    bf52df59    Y.R.    DCD    3209879385
        0x00014744:    bf1126a7    .&..    DCD    3205572263
        0x00014748:    bf52a649    I.R.    DCD    3209864777
        0x0001474c:    bf11796b    ky..    DCD    3205593451
        0x00014750:    bf526d18    .mR.    DCD    3209850136
        0x00014754:    bf11cc19    ....    DCD    3205614617
        0x00014758:    bf5233c6    .3R.    DCD    3209835462
        0x0001475c:    bf121eb0    ....    DCD    3205635760
        0x00014760:    bf51fa54    T.Q.    DCD    3209820756
        0x00014764:    bf127130    0q..    DCD    3205656880
        0x00014768:    bf51c0c2    ..Q.    DCD    3209806018
        0x0001476c:    bf12c39a    ....    DCD    3205677978
        0x00014770:    bf518710    ..Q.    DCD    3209791248
        0x00014774:    bf1315ee    ....    DCD    3205699054
        0x00014778:    bf514d3d    =MQ.    DCD    3209776445
        0x0001477c:    bf13682a    *h..    DCD    3205720106
        0x00014780:    bf51134a    J.Q.    DCD    3209761610
        0x00014784:    bf13ba50    P...    DCD    3205741136
        0x00014788:    bf50d937    7.P.    DCD    3209746743
        0x0001478c:    bf140c5f    _...    DCD    3205762143
        0x00014790:    bf509f03    ..P.    DCD    3209731843
        0x00014794:    bf145e58    X^..    DCD    3205783128
        0x00014798:    bf5064af    .dP.    DCD    3209716911
        0x0001479c:    bf14b039    9...    DCD    3205804089
        0x000147a0:    bf502a3b    ;*P.    DCD    3209701947
        0x000147a4:    bf150204    ....    DCD    3205825028
        0x000147a8:    bf4fefa8    ..O.    DCD    3209686952
        0x000147ac:    bf1553b7    .S..    DCD    3205845943
        0x000147b0:    bf4fb4f4    ..O.    DCD    3209671924
        0x000147b4:    bf15a554    T...    DCD    3205866836
        0x000147b8:    bf4f7a1f    .zO.    DCD    3209656863
        0x000147bc:    bf15f6d9    ....    DCD    3205887705
        0x000147c0:    bf4f3f2b    +?O.    DCD    3209641771
        0x000147c4:    bf164847    GH..    DCD    3205908551
        0x000147c8:    bf4f0417    ..O.    DCD    3209626647
        0x000147cc:    bf16999f    ....    DCD    3205929375
        0x000147d0:    bf4ec8e4    ..N.    DCD    3209611492
        0x000147d4:    bf16eadf    ....    DCD    3205950175
        0x000147d8:    bf4e8d90    ..N.    DCD    3209596304
        0x000147dc:    bf173c07    .<..    DCD    3205970951
        0x000147e0:    bf4e521c    .RN.    DCD    3209581084
        0x000147e4:    bf178d18    ....    DCD    3205991704
        0x000147e8:    bf4e1689    ..N.    DCD    3209565833
        0x000147ec:    bf17de12    ....    DCD    3206012434
        0x000147f0:    bf4ddad5    ..M.    DCD    3209550549
        0x000147f4:    bf182ef5    ....    DCD    3206033141
        0x000147f8:    bf4d9f02    ..M.    DCD    3209535234
        0x000147fc:    bf187fc0    ....    DCD    3206053824
        0x00014800:    bf4d6310    .cM.    DCD    3209519888
        0x00014804:    bf18d073    s...    DCD    3206074483
        0x00014808:    bf4d26fd    .&M.    DCD    3209504509
        0x0001480c:    bf19210f    .!..    DCD    3206095119
        0x00014810:    bf4ceacb    ..L.    DCD    3209489099
        0x00014814:    bf197194    .q..    DCD    3206115732
        0x00014818:    bf4cae79    y.L.    DCD    3209473657
        0x0001481c:    bf19c200    ....    DCD    3206136320
        0x00014820:    bf4c7208    .rL.    DCD    3209458184
        0x00014824:    bf1a1255    U...    DCD    3206156885
        0x00014828:    bf4c3578    x5L.    DCD    3209442680
        0x0001482c:    bf1a6293    .b..    DCD    3206177427
        0x00014830:    bf4bf8c7    ..K.    DCD    3209427143
        0x00014834:    bf1ab2b8    ....    DCD    3206197944
        0x00014838:    bf4bbbf8    ..K.    DCD    3209411576
        0x0001483c:    bf1b02c6    ....    DCD    3206218438
        0x00014840:    bf4b7f09    ..K.    DCD    3209395977
        0x00014844:    bf1b52bb    .R..    DCD    3206238907
        0x00014848:    bf4b41fa    .AK.    DCD    3209380346
        0x0001484c:    bf1ba299    ....    DCD    3206259353
        0x00014850:    bf4b04cc    ..K.    DCD    3209364684
        0x00014854:    bf1bf25f    _...    DCD    3206279775
        0x00014858:    bf4ac77f    ..J.    DCD    3209348991
        0x0001485c:    bf1c420c    .B..    DCD    3206300172
        0x00014860:    bf4a8a13    ..J.    DCD    3209333267
        0x00014864:    bf1c91a2    ....    DCD    3206320546
        0x00014868:    bf4a4c87    .LJ.    DCD    3209317511
        0x0001486c:    bf1ce11f    ....    DCD    3206340895
        0x00014870:    bf4a0edc    ..J.    DCD    3209301724
        0x00014874:    bf1d3084    .0..    DCD    3206361220
        0x00014878:    bf49d112    ..I.    DCD    3209285906
        0x0001487c:    bf1d7fd1    ....    DCD    3206381521
        0x00014880:    bf499329    ).I.    DCD    3209270057
        0x00014884:    bf1dcf06    ....    DCD    3206401798
        0x00014888:    bf495521    !UI.    DCD    3209254177
        0x0001488c:    bf1e1e22    "...    DCD    3206422050
        0x00014890:    bf4916fa    ..I.    DCD    3209238266
        0x00014894:    bf1e6d26    &m..    DCD    3206442278
        0x00014898:    bf48d8b3    ..H.    DCD    3209222323
        0x0001489c:    bf1ebc12    ....    DCD    3206462482
        0x000148a0:    bf489a4e    N.H.    DCD    3209206350
        0x000148a4:    bf1f0ae5    ....    DCD    3206482661
        0x000148a8:    bf485bca    .[H.    DCD    3209190346
        0x000148ac:    bf1f599f    .Y..    DCD    3206502815
        0x000148b0:    bf481d27    '.H.    DCD    3209174311
        0x000148b4:    bf1fa841    A...    DCD    3206522945
        0x000148b8:    bf47de65    e.G.    DCD    3209158245
        0x000148bc:    bf1ff6cb    ....    DCD    3206543051
        0x000148c0:    bf479f84    ..G.    DCD    3209142148
        0x000148c4:    bf20453b    ;E .    DCD    3206563131
        0x000148c8:    bf476085    .`G.    DCD    3209126021
        0x000148cc:    bf209393    .. .    DCD    3206583187
        0x000148d0:    bf472167    g!G.    DCD    3209109863
        0x000148d4:    bf20e1d2    .. .    DCD    3206603218
        0x000148d8:    bf46e22a    *.F.    DCD    3209093674
        0x000148dc:    bf212ff9    ./!.    DCD    3206623225
        0x000148e0:    bf46a2ce    ..F.    DCD    3209077454
        0x000148e4:    bf217e06    .~!.    DCD    3206643206
        0x000148e8:    bf466354    TcF.    DCD    3209061204
        0x000148ec:    bf21cbfb    ..!.    DCD    3206663163
        0x000148f0:    bf4623bb    .#F.    DCD    3209044923
        0x000148f4:    bf2219d7    ..".    DCD    3206683095
        0x000148f8:    bf45e403    ..E.    DCD    3209028611
        0x000148fc:    bf226799    .g".    DCD    3206703001
        0x00014900:    bf45a42d    -.E.    DCD    3209012269
        0x00014904:    bf22b543    C.".    DCD    3206722883
        0x00014908:    bf456439    9dE.    DCD    3208995897
        0x0001490c:    bf2302d3    ..#.    DCD    3206742739
        0x00014910:    bf452426    &$E.    DCD    3208979494
        0x00014914:    bf23504b    KP#.    DCD    3206762571
        0x00014918:    bf44e3f5    ..D.    DCD    3208963061
        0x0001491c:    bf239da9    ..#.    DCD    3206782377
        0x00014920:    bf44a3a5    ..D.    DCD    3208946597
        0x00014924:    bf23eaee    ..#.    DCD    3206802158
        0x00014928:    bf446337    7cD.    DCD    3208930103
        0x0001492c:    bf24381a    .8$.    DCD    3206821914
        0x00014930:    bf4422ab    ."D.    DCD    3208913579
        0x00014934:    bf24852c    ,.$.    DCD    3206841644
        0x00014938:    bf43e200    ..C.    DCD    3208897024
        0x0001493c:    bf24d225    %.$.    DCD    3206861349
        0x00014940:    bf43a138    8.C.    DCD    3208880440
        0x00014944:    bf251f04    ..%.    DCD    3206881028
        0x00014948:    bf436051    Q`C.    DCD    3208863825
        0x0001494c:    bf256bcb    .k%.    DCD    3206900683
        0x00014950:    bf431f4c    L.C.    DCD    3208847180
        0x00014954:    bf25b877    w.%.    DCD    3206920311
        0x00014958:    bf42de29    ).B.    DCD    3208830505
        0x0001495c:    bf26050a    ..&.    DCD    3206939914
        0x00014960:    bf429ce8    ..B.    DCD    3208813800
        0x00014964:    bf265184    .Q&.    DCD    3206959492
        0x00014968:    bf425b89    .[B.    DCD    3208797065
        0x0001496c:    bf269de3    ..&.    DCD    3206979043
        0x00014970:    bf421a0b    ..B.    DCD    3208780299
        0x00014974:    bf26ea2a    *.&.    DCD    3206998570
        0x00014978:    bf41d870    p.A.    DCD    3208763504
        0x0001497c:    bf273656    V6'.    DCD    3207018070
        0x00014980:    bf4196b7    ..A.    DCD    3208746679
        0x00014984:    bf278268    h.'.    DCD    3207037544
        0x00014988:    bf4154e1    .TA.    DCD    3208729825
        0x0001498c:    bf27ce61    a.'.    DCD    3207056993
        0x00014990:    bf4112ec    ..A.    DCD    3208712940
        0x00014994:    bf281a40    @.(.    DCD    3207076416
        0x00014998:    bf40d0da    ..@.    DCD    3208696026
        0x0001499c:    bf286605    .f(.    DCD    3207095813
        0x000149a0:    bf408ea9    ..@.    DCD    3208679081
        0x000149a4:    bf28b1b0    ..(.    DCD    3207115184
        0x000149a8:    bf404c5c    \L@.    DCD    3208662108
        0x000149ac:    bf28fd41    A.(.    DCD    3207134529
        0x000149b0:    bf4009f0    ..@.    DCD    3208645104
        0x000149b4:    bf2948b8    .H).    DCD    3207153848
        0x000149b8:    bf3fc767    g.?.    DCD    3208628071
        0x000149bc:    bf299415    ..).    DCD    3207173141
        0x000149c0:    bf3f84c0    ..?.    DCD    3208611008
        0x000149c4:    bf29df57    W.).    DCD    3207192407
        0x000149c8:    bf3f41fc    .A?.    DCD    3208593916
        0x000149cc:    bf2a2a80    .**.    DCD    3207211648
        0x000149d0:    bf3eff1b    ..>.    DCD    3208576795
        0x000149d4:    bf2a758e    .u*.    DCD    3207230862
        0x000149d8:    bf3ebc1b    ..>.    DCD    3208559643
        0x000149dc:    bf2ac082    ..*.    DCD    3207250050
        0x000149e0:    bf3e78ff    .x>.    DCD    3208542463
        0x000149e4:    bf2b0b5b    [.+.    DCD    3207269211
        0x000149e8:    bf3e35c5    .5>.    DCD    3208525253
        0x000149ec:    bf2b561b    .V+.    DCD    3207288347
        0x000149f0:    bf3df26e    n.=.    DCD    3208508014
        0x000149f4:    bf2ba0bf    ..+.    DCD    3207307455
        0x000149f8:    bf3daef9    ..=.    DCD    3208490745
        0x000149fc:    bf2beb4a    J.+.    DCD    3207326538
        0x00014a00:    bf3d6b67    gk=.    DCD    3208473447
        0x00014a04:    bf2c35b9    .5,.    DCD    3207345593
        0x00014a08:    bf3d27b8    .'=.    DCD    3208456120
        0x00014a0c:    bf2c800f    ..,.    DCD    3207364623
        0x00014a10:    bf3ce3ec    ..<.    DCD    3208438764
        0x00014a14:    bf2cca49    I.,.    DCD    3207383625
        0x00014a18:    bf3ca003    ..<.    DCD    3208421379
        0x00014a1c:    bf2d1469    i.-.    DCD    3207402601
        0x00014a20:    bf3c5bfc    .[<.    DCD    3208403964
        0x00014a24:    bf2d5e6f    o^-.    DCD    3207421551
        0x00014a28:    bf3c17d9    ..<.    DCD    3208386521
        0x00014a2c:    bf2da859    Y.-.    DCD    3207440473
        0x00014a30:    bf3bd398    ..;.    DCD    3208369048
        0x00014a34:    bf2df229    ).-.    DCD    3207459369
        0x00014a38:    bf3b8f3b    ;.;.    DCD    3208351547
        0x00014a3c:    bf2e3bde    .;..    DCD    3207478238
        0x00014a40:    bf3b4ac1    .J;.    DCD    3208334017
        0x00014a44:    bf2e8578    x...    DCD    3207497080
        0x00014a48:    bf3b0629    ).;.    DCD    3208316457
        0x00014a4c:    bf2ecef7    ....    DCD    3207515895
        0x00014a50:    bf3ac175    u.:.    DCD    3208298869
        0x00014a54:    bf2f185b    [./.    DCD    3207534683
        0x00014a58:    bf3a7ca4    .|:.    DCD    3208281252
        0x00014a5c:    bf2f61a5    .a/.    DCD    3207553445
        0x00014a60:    bf3a37b7    .7:.    DCD    3208263607
        0x00014a64:    bf2faad3    ../.    DCD    3207572179
        0x00014a68:    bf39f2ac    ..9.    DCD    3208245932
        0x00014a6c:    bf2ff3e6    ../.    DCD    3207590886
        0x00014a70:    bf39ad85    ..9.    DCD    3208228229
        0x00014a74:    bf303cde    .<0.    DCD    3207609566
        0x00014a78:    bf396842    Bh9.    DCD    3208210498
        0x00014a7c:    bf3085bb    ..0.    DCD    3207628219
        0x00014a80:    bf3922e1    ."9.    DCD    3208192737
        0x00014a84:    bf30ce7c    |.0.    DCD    3207646844
        0x00014a88:    bf38dd65    e.8.    DCD    3208174949
        0x00014a8c:    bf311722    ".1.    DCD    3207665442
        0x00014a90:    bf3897cb    ..8.    DCD    3208157131
        0x00014a94:    bf315fad    ._1.    DCD    3207684013
        0x00014a98:    bf385216    .R8.    DCD    3208139286
        0x00014a9c:    bf31a81d    ..1.    DCD    3207702557
        0x00014aa0:    bf380c43    C.8.    DCD    3208121411
        0x00014aa4:    bf31f071    q.1.    DCD    3207721073
        0x00014aa8:    bf37c655    U.7.    DCD    3208103509
        0x00014aac:    bf3238aa    .82.    DCD    3207739562
        0x00014ab0:    bf37804a    J.7.    DCD    3208085578
        0x00014ab4:    bf3280c7    ..2.    DCD    3207758023
        0x00014ab8:    bf373a23    #:7.    DCD    3208067619
        0x00014abc:    bf32c8c9    ..2.    DCD    3207776457
        0x00014ac0:    bf36f3df    ..6.    DCD    3208049631
        0x00014ac4:    bf3310af    ..3.    DCD    3207794863
        0x00014ac8:    bf36ad7f    ..6.    DCD    3208031615
        0x00014acc:    bf33587a    zX3.    DCD    3207813242
        0x00014ad0:    bf366704    .g6.    DCD    3208013572
        0x00014ad4:    bf33a029    ).3.    DCD    3207831593
        0x00014ad8:    bf36206c    l 6.    DCD    3207995500
        0x00014adc:    bf33e7bc    ..3.    DCD    3207849916
        0x00014ae0:    bf35d9b8    ..5.    DCD    3207977400
        0x00014ae4:    bf342f34    4/4.    DCD    3207868212
        0x00014ae8:    bf3592e7    ..5.    DCD    3207959271
        0x00014aec:    bf34768f    .v4.    DCD    3207886479
        0x00014af0:    bf354bfb    .K5.    DCD    3207941115
        0x00014af4:    bf34bdcf    ..4.    DCD    3207904719
        0x00014af8:    bf3504f3    ..5.    DCD    3207922931
        0x00014afc:    bf3504f3    ..5.    DCD    3207922931
        0x00014b00:    bf34bdcf    ..4.    DCD    3207904719
        0x00014b04:    bf354bfb    .K5.    DCD    3207941115
        0x00014b08:    bf34768f    .v4.    DCD    3207886479
        0x00014b0c:    bf3592e7    ..5.    DCD    3207959271
        0x00014b10:    bf342f34    4/4.    DCD    3207868212
        0x00014b14:    bf35d9b8    ..5.    DCD    3207977400
        0x00014b18:    bf33e7bc    ..3.    DCD    3207849916
        0x00014b1c:    bf36206c    l 6.    DCD    3207995500
        0x00014b20:    bf33a029    ).3.    DCD    3207831593
        0x00014b24:    bf366704    .g6.    DCD    3208013572
        0x00014b28:    bf33587a    zX3.    DCD    3207813242
        0x00014b2c:    bf36ad7f    ..6.    DCD    3208031615
        0x00014b30:    bf3310af    ..3.    DCD    3207794863
        0x00014b34:    bf36f3df    ..6.    DCD    3208049631
        0x00014b38:    bf32c8c9    ..2.    DCD    3207776457
        0x00014b3c:    bf373a23    #:7.    DCD    3208067619
        0x00014b40:    bf3280c7    ..2.    DCD    3207758023
        0x00014b44:    bf37804a    J.7.    DCD    3208085578
        0x00014b48:    bf3238aa    .82.    DCD    3207739562
        0x00014b4c:    bf37c655    U.7.    DCD    3208103509
        0x00014b50:    bf31f071    q.1.    DCD    3207721073
        0x00014b54:    bf380c43    C.8.    DCD    3208121411
        0x00014b58:    bf31a81d    ..1.    DCD    3207702557
        0x00014b5c:    bf385216    .R8.    DCD    3208139286
        0x00014b60:    bf315fad    ._1.    DCD    3207684013
        0x00014b64:    bf3897cb    ..8.    DCD    3208157131
        0x00014b68:    bf311722    ".1.    DCD    3207665442
        0x00014b6c:    bf38dd65    e.8.    DCD    3208174949
        0x00014b70:    bf30ce7c    |.0.    DCD    3207646844
        0x00014b74:    bf3922e1    ."9.    DCD    3208192737
        0x00014b78:    bf3085bb    ..0.    DCD    3207628219
        0x00014b7c:    bf396842    Bh9.    DCD    3208210498
        0x00014b80:    bf303cde    .<0.    DCD    3207609566
        0x00014b84:    bf39ad85    ..9.    DCD    3208228229
        0x00014b88:    bf2ff3e6    ../.    DCD    3207590886
        0x00014b8c:    bf39f2ac    ..9.    DCD    3208245932
        0x00014b90:    bf2faad3    ../.    DCD    3207572179
        0x00014b94:    bf3a37b7    .7:.    DCD    3208263607
        0x00014b98:    bf2f61a5    .a/.    DCD    3207553445
        0x00014b9c:    bf3a7ca4    .|:.    DCD    3208281252
        0x00014ba0:    bf2f185b    [./.    DCD    3207534683
        0x00014ba4:    bf3ac175    u.:.    DCD    3208298869
        0x00014ba8:    bf2ecef7    ....    DCD    3207515895
        0x00014bac:    bf3b0629    ).;.    DCD    3208316457
        0x00014bb0:    bf2e8578    x...    DCD    3207497080
        0x00014bb4:    bf3b4ac1    .J;.    DCD    3208334017
        0x00014bb8:    bf2e3bde    .;..    DCD    3207478238
        0x00014bbc:    bf3b8f3b    ;.;.    DCD    3208351547
        0x00014bc0:    bf2df229    ).-.    DCD    3207459369
        0x00014bc4:    bf3bd398    ..;.    DCD    3208369048
        0x00014bc8:    bf2da859    Y.-.    DCD    3207440473
        0x00014bcc:    bf3c17d9    ..<.    DCD    3208386521
        0x00014bd0:    bf2d5e6f    o^-.    DCD    3207421551
        0x00014bd4:    bf3c5bfc    .[<.    DCD    3208403964
        0x00014bd8:    bf2d1469    i.-.    DCD    3207402601
        0x00014bdc:    bf3ca003    ..<.    DCD    3208421379
        0x00014be0:    bf2cca49    I.,.    DCD    3207383625
        0x00014be4:    bf3ce3ec    ..<.    DCD    3208438764
        0x00014be8:    bf2c800f    ..,.    DCD    3207364623
        0x00014bec:    bf3d27b8    .'=.    DCD    3208456120
        0x00014bf0:    bf2c35b9    .5,.    DCD    3207345593
        0x00014bf4:    bf3d6b67    gk=.    DCD    3208473447
        0x00014bf8:    bf2beb4a    J.+.    DCD    3207326538
        0x00014bfc:    bf3daef9    ..=.    DCD    3208490745
        0x00014c00:    bf2ba0bf    ..+.    DCD    3207307455
        0x00014c04:    bf3df26e    n.=.    DCD    3208508014
        0x00014c08:    bf2b561b    .V+.    DCD    3207288347
        0x00014c0c:    bf3e35c5    .5>.    DCD    3208525253
        0x00014c10:    bf2b0b5b    [.+.    DCD    3207269211
        0x00014c14:    bf3e78ff    .x>.    DCD    3208542463
        0x00014c18:    bf2ac082    ..*.    DCD    3207250050
        0x00014c1c:    bf3ebc1b    ..>.    DCD    3208559643
        0x00014c20:    bf2a758e    .u*.    DCD    3207230862
        0x00014c24:    bf3eff1b    ..>.    DCD    3208576795
        0x00014c28:    bf2a2a80    .**.    DCD    3207211648
        0x00014c2c:    bf3f41fc    .A?.    DCD    3208593916
        0x00014c30:    bf29df57    W.).    DCD    3207192407
        0x00014c34:    bf3f84c0    ..?.    DCD    3208611008
        0x00014c38:    bf299415    ..).    DCD    3207173141
        0x00014c3c:    bf3fc767    g.?.    DCD    3208628071
        0x00014c40:    bf2948b8    .H).    DCD    3207153848
        0x00014c44:    bf4009f0    ..@.    DCD    3208645104
        0x00014c48:    bf28fd41    A.(.    DCD    3207134529
        0x00014c4c:    bf404c5c    \L@.    DCD    3208662108
        0x00014c50:    bf28b1b0    ..(.    DCD    3207115184
        0x00014c54:    bf408ea9    ..@.    DCD    3208679081
        0x00014c58:    bf286605    .f(.    DCD    3207095813
        0x00014c5c:    bf40d0da    ..@.    DCD    3208696026
        0x00014c60:    bf281a40    @.(.    DCD    3207076416
        0x00014c64:    bf4112ec    ..A.    DCD    3208712940
        0x00014c68:    bf27ce61    a.'.    DCD    3207056993
        0x00014c6c:    bf4154e1    .TA.    DCD    3208729825
        0x00014c70:    bf278268    h.'.    DCD    3207037544
        0x00014c74:    bf4196b7    ..A.    DCD    3208746679
        0x00014c78:    bf273656    V6'.    DCD    3207018070
        0x00014c7c:    bf41d870    p.A.    DCD    3208763504
        0x00014c80:    bf26ea2a    *.&.    DCD    3206998570
        0x00014c84:    bf421a0b    ..B.    DCD    3208780299
        0x00014c88:    bf269de3    ..&.    DCD    3206979043
        0x00014c8c:    bf425b89    .[B.    DCD    3208797065
        0x00014c90:    bf265184    .Q&.    DCD    3206959492
        0x00014c94:    bf429ce8    ..B.    DCD    3208813800
        0x00014c98:    bf26050a    ..&.    DCD    3206939914
        0x00014c9c:    bf42de29    ).B.    DCD    3208830505
        0x00014ca0:    bf25b877    w.%.    DCD    3206920311
        0x00014ca4:    bf431f4c    L.C.    DCD    3208847180
        0x00014ca8:    bf256bcb    .k%.    DCD    3206900683
        0x00014cac:    bf436051    Q`C.    DCD    3208863825
        0x00014cb0:    bf251f04    ..%.    DCD    3206881028
        0x00014cb4:    bf43a138    8.C.    DCD    3208880440
        0x00014cb8:    bf24d225    %.$.    DCD    3206861349
        0x00014cbc:    bf43e200    ..C.    DCD    3208897024
        0x00014cc0:    bf24852c    ,.$.    DCD    3206841644
        0x00014cc4:    bf4422ab    ."D.    DCD    3208913579
        0x00014cc8:    bf24381a    .8$.    DCD    3206821914
        0x00014ccc:    bf446337    7cD.    DCD    3208930103
        0x00014cd0:    bf23eaee    ..#.    DCD    3206802158
        0x00014cd4:    bf44a3a5    ..D.    DCD    3208946597
        0x00014cd8:    bf239da9    ..#.    DCD    3206782377
        0x00014cdc:    bf44e3f5    ..D.    DCD    3208963061
        0x00014ce0:    bf23504b    KP#.    DCD    3206762571
        0x00014ce4:    bf452426    &$E.    DCD    3208979494
        0x00014ce8:    bf2302d3    ..#.    DCD    3206742739
        0x00014cec:    bf456439    9dE.    DCD    3208995897
        0x00014cf0:    bf22b543    C.".    DCD    3206722883
        0x00014cf4:    bf45a42d    -.E.    DCD    3209012269
        0x00014cf8:    bf226799    .g".    DCD    3206703001
        0x00014cfc:    bf45e403    ..E.    DCD    3209028611
        0x00014d00:    bf2219d7    ..".    DCD    3206683095
        0x00014d04:    bf4623bb    .#F.    DCD    3209044923
        0x00014d08:    bf21cbfb    ..!.    DCD    3206663163
        0x00014d0c:    bf466354    TcF.    DCD    3209061204
        0x00014d10:    bf217e06    .~!.    DCD    3206643206
        0x00014d14:    bf46a2ce    ..F.    DCD    3209077454
        0x00014d18:    bf212ff9    ./!.    DCD    3206623225
        0x00014d1c:    bf46e22a    *.F.    DCD    3209093674
        0x00014d20:    bf20e1d2    .. .    DCD    3206603218
        0x00014d24:    bf472167    g!G.    DCD    3209109863
        0x00014d28:    bf209393    .. .    DCD    3206583187
        0x00014d2c:    bf476085    .`G.    DCD    3209126021
        0x00014d30:    bf20453b    ;E .    DCD    3206563131
        0x00014d34:    bf479f84    ..G.    DCD    3209142148
        0x00014d38:    bf1ff6cb    ....    DCD    3206543051
        0x00014d3c:    bf47de65    e.G.    DCD    3209158245
        0x00014d40:    bf1fa841    A...    DCD    3206522945
        0x00014d44:    bf481d27    '.H.    DCD    3209174311
        0x00014d48:    bf1f599f    .Y..    DCD    3206502815
        0x00014d4c:    bf485bca    .[H.    DCD    3209190346
        0x00014d50:    bf1f0ae5    ....    DCD    3206482661
        0x00014d54:    bf489a4e    N.H.    DCD    3209206350
        0x00014d58:    bf1ebc12    ....    DCD    3206462482
        0x00014d5c:    bf48d8b3    ..H.    DCD    3209222323
        0x00014d60:    bf1e6d26    &m..    DCD    3206442278
        0x00014d64:    bf4916fa    ..I.    DCD    3209238266
        0x00014d68:    bf1e1e22    "...    DCD    3206422050
        0x00014d6c:    bf495521    !UI.    DCD    3209254177
        0x00014d70:    bf1dcf06    ....    DCD    3206401798
        0x00014d74:    bf499329    ).I.    DCD    3209270057
        0x00014d78:    bf1d7fd1    ....    DCD    3206381521
        0x00014d7c:    bf49d112    ..I.    DCD    3209285906
        0x00014d80:    bf1d3084    .0..    DCD    3206361220
        0x00014d84:    bf4a0edc    ..J.    DCD    3209301724
        0x00014d88:    bf1ce11f    ....    DCD    3206340895
        0x00014d8c:    bf4a4c87    .LJ.    DCD    3209317511
        0x00014d90:    bf1c91a2    ....    DCD    3206320546
        0x00014d94:    bf4a8a13    ..J.    DCD    3209333267
        0x00014d98:    bf1c420c    .B..    DCD    3206300172
        0x00014d9c:    bf4ac77f    ..J.    DCD    3209348991
        0x00014da0:    bf1bf25f    _...    DCD    3206279775
        0x00014da4:    bf4b04cc    ..K.    DCD    3209364684
        0x00014da8:    bf1ba299    ....    DCD    3206259353
        0x00014dac:    bf4b41fa    .AK.    DCD    3209380346
        0x00014db0:    bf1b52bb    .R..    DCD    3206238907
        0x00014db4:    bf4b7f09    ..K.    DCD    3209395977
        0x00014db8:    bf1b02c6    ....    DCD    3206218438
        0x00014dbc:    bf4bbbf8    ..K.    DCD    3209411576
        0x00014dc0:    bf1ab2b8    ....    DCD    3206197944
        0x00014dc4:    bf4bf8c7    ..K.    DCD    3209427143
        0x00014dc8:    bf1a6293    .b..    DCD    3206177427
        0x00014dcc:    bf4c3578    x5L.    DCD    3209442680
        0x00014dd0:    bf1a1255    U...    DCD    3206156885
        0x00014dd4:    bf4c7208    .rL.    DCD    3209458184
        0x00014dd8:    bf19c200    ....    DCD    3206136320
        0x00014ddc:    bf4cae79    y.L.    DCD    3209473657
        0x00014de0:    bf197194    .q..    DCD    3206115732
        0x00014de4:    bf4ceacb    ..L.    DCD    3209489099
        0x00014de8:    bf19210f    .!..    DCD    3206095119
        0x00014dec:    bf4d26fd    .&M.    DCD    3209504509
        0x00014df0:    bf18d073    s...    DCD    3206074483
        0x00014df4:    bf4d6310    .cM.    DCD    3209519888
        0x00014df8:    bf187fc0    ....    DCD    3206053824
        0x00014dfc:    bf4d9f02    ..M.    DCD    3209535234
        0x00014e00:    bf182ef5    ....    DCD    3206033141
        0x00014e04:    bf4ddad5    ..M.    DCD    3209550549
        0x00014e08:    bf17de12    ....    DCD    3206012434
        0x00014e0c:    bf4e1689    ..N.    DCD    3209565833
        0x00014e10:    bf178d18    ....    DCD    3205991704
        0x00014e14:    bf4e521c    .RN.    DCD    3209581084
        0x00014e18:    bf173c07    .<..    DCD    3205970951
        0x00014e1c:    bf4e8d90    ..N.    DCD    3209596304
        0x00014e20:    bf16eadf    ....    DCD    3205950175
        0x00014e24:    bf4ec8e4    ..N.    DCD    3209611492
        0x00014e28:    bf16999f    ....    DCD    3205929375
        0x00014e2c:    bf4f0417    ..O.    DCD    3209626647
        0x00014e30:    bf164847    GH..    DCD    3205908551
        0x00014e34:    bf4f3f2b    +?O.    DCD    3209641771
        0x00014e38:    bf15f6d9    ....    DCD    3205887705
        0x00014e3c:    bf4f7a1f    .zO.    DCD    3209656863
        0x00014e40:    bf15a554    T...    DCD    3205866836
        0x00014e44:    bf4fb4f4    ..O.    DCD    3209671924
        0x00014e48:    bf1553b7    .S..    DCD    3205845943
        0x00014e4c:    bf4fefa8    ..O.    DCD    3209686952
        0x00014e50:    bf150204    ....    DCD    3205825028
        0x00014e54:    bf502a3b    ;*P.    DCD    3209701947
        0x00014e58:    bf14b039    9...    DCD    3205804089
        0x00014e5c:    bf5064af    .dP.    DCD    3209716911
        0x00014e60:    bf145e58    X^..    DCD    3205783128
        0x00014e64:    bf509f03    ..P.    DCD    3209731843
        0x00014e68:    bf140c5f    _...    DCD    3205762143
        0x00014e6c:    bf50d937    7.P.    DCD    3209746743
        0x00014e70:    bf13ba50    P...    DCD    3205741136
        0x00014e74:    bf51134a    J.Q.    DCD    3209761610
        0x00014e78:    bf13682a    *h..    DCD    3205720106
        0x00014e7c:    bf514d3d    =MQ.    DCD    3209776445
        0x00014e80:    bf1315ee    ....    DCD    3205699054
        0x00014e84:    bf518710    ..Q.    DCD    3209791248
        0x00014e88:    bf12c39a    ....    DCD    3205677978
        0x00014e8c:    bf51c0c2    ..Q.    DCD    3209806018
        0x00014e90:    bf127130    0q..    DCD    3205656880
        0x00014e94:    bf51fa54    T.Q.    DCD    3209820756
        0x00014e98:    bf121eb0    ....    DCD    3205635760
        0x00014e9c:    bf5233c6    .3R.    DCD    3209835462
        0x00014ea0:    bf11cc19    ....    DCD    3205614617
        0x00014ea4:    bf526d18    .mR.    DCD    3209850136
        0x00014ea8:    bf11796b    ky..    DCD    3205593451
        0x00014eac:    bf52a649    I.R.    DCD    3209864777
        0x00014eb0:    bf1126a7    .&..    DCD    3205572263
        0x00014eb4:    bf52df59    Y.R.    DCD    3209879385
        0x00014eb8:    bf10d3cd    ....    DCD    3205551053
        0x00014ebc:    bf531849    I.S.    DCD    3209893961
        0x00014ec0:    bf1080dc    ....    DCD    3205529820
        0x00014ec4:    bf535118    .QS.    DCD    3209908504
        0x00014ec8:    bf102dd5    .-..    DCD    3205508565
        0x00014ecc:    bf5389c7    ..S.    DCD    3209923015
        0x00014ed0:    bf0fdab8    ....    DCD    3205487288
        0x00014ed4:    bf53c255    U.S.    DCD    3209937493
        0x00014ed8:    bf0f8784    ....    DCD    3205465988
        0x00014edc:    bf53fac3    ..S.    DCD    3209951939
        0x00014ee0:    bf0f343b    ;4..    DCD    3205444667
        0x00014ee4:    bf54330f    .3T.    DCD    3209966351
        0x00014ee8:    bf0ee0db    ....    DCD    3205423323
        0x00014eec:    bf546b3b    ;kT.    DCD    3209980731
        0x00014ef0:    bf0e8d65    e...    DCD    3205401957
        0x00014ef4:    bf54a347    G.T.    DCD    3209995079
        0x00014ef8:    bf0e39da    .9..    DCD    3205380570
        0x00014efc:    bf54db31    1.T.    DCD    3210009393
        0x00014f00:    bf0de638    8...    DCD    3205359160
        0x00014f04:    bf5512fb    ..U.    DCD    3210023675
        0x00014f08:    bf0d9281    ....    DCD    3205337729
        0x00014f0c:    bf554aa4    .JU.    DCD    3210037924
        0x00014f10:    bf0d3eb3    .>..    DCD    3205316275
        0x00014f14:    bf55822c    ,.U.    DCD    3210052140
        0x00014f18:    bf0cead0    ....    DCD    3205294800
        0x00014f1c:    bf55b993    ..U.    DCD    3210066323
        0x00014f20:    bf0c96d7    ....    DCD    3205273303
        0x00014f24:    bf55f0d9    ..U.    DCD    3210080473
        0x00014f28:    bf0c42c9    .B..    DCD    3205251785
        0x00014f2c:    bf5627fe    .'V.    DCD    3210094590
        0x00014f30:    bf0beea5    ....    DCD    3205230245
        0x00014f34:    bf565f02    ._V.    DCD    3210108674
        0x00014f38:    bf0b9a6b    k...    DCD    3205208683
        0x00014f3c:    bf5695e5    ..V.    DCD    3210122725
        0x00014f40:    bf0b461c    .F..    DCD    3205187100
        0x00014f44:    bf56cca7    ..V.    DCD    3210136743
        0x00014f48:    bf0af1b7    ....    DCD    3205165495
        0x00014f4c:    bf570348    H.W.    DCD    3210150728
        0x00014f50:    bf0a9d3d    =...    DCD    3205143869
        0x00014f54:    bf5739c7    .9W.    DCD    3210164679
        0x00014f58:    bf0a48ad    .H..    DCD    3205122221
        0x00014f5c:    bf577026    &pW.    DCD    3210178598
        0x00014f60:    bf09f409    ....    DCD    3205100553
        0x00014f64:    bf57a663    c.W.    DCD    3210192483
        0x00014f68:    bf099f4e    N...    DCD    3205078862
        0x00014f6c:    bf57dc7f    ..W.    DCD    3210206335
        0x00014f70:    bf094a7f    .J..    DCD    3205057151
        0x00014f74:    bf581279    y.X.    DCD    3210220153
        0x00014f78:    bf08f59b    ....    DCD    3205035419
        0x00014f7c:    bf584853    SHX.    DCD    3210233939
        0x00014f80:    bf08a0a1    ....    DCD    3205013665
        0x00014f84:    bf587e0b    .~X.    DCD    3210247691
        0x00014f88:    bf084b92    .K..    DCD    3204991890
        0x00014f8c:    bf58b3a1    ..X.    DCD    3210261409
        0x00014f90:    bf07f66f    o...    DCD    3204970095
        0x00014f94:    bf58e917    ..X.    DCD    3210275095
        0x00014f98:    bf07a136    6...    DCD    3204948278
        0x00014f9c:    bf591e6a    j.Y.    DCD    3210288746
        0x00014fa0:    bf074be8    .K..    DCD    3204926440
        0x00014fa4:    bf59539c    .SY.    DCD    3210302364
        0x00014fa8:    bf06f686    ....    DCD    3204904582
        0x00014fac:    bf5988ad    ..Y.    DCD    3210315949
        0x00014fb0:    bf06a10e    ....    DCD    3204882702
        0x00014fb4:    bf59bd9c    ..Y.    DCD    3210329500
        0x00014fb8:    bf064b82    .K..    DCD    3204860802
        0x00014fbc:    bf59f26a    j.Y.    DCD    3210343018
        0x00014fc0:    bf05f5e2    ....    DCD    3204838882
        0x00014fc4:    bf5a2716    .'Z.    DCD    3210356502
        0x00014fc8:    bf05a02c    ,...    DCD    3204816940
        0x00014fcc:    bf5a5ba0    .[Z.    DCD    3210369952
        0x00014fd0:    bf054a62    bJ..    DCD    3204794978
        0x00014fd4:    bf5a9009    ..Z.    DCD    3210383369
        0x00014fd8:    bf04f484    ....    DCD    3204772996
        0x00014fdc:    bf5ac450    P.Z.    DCD    3210396752
        0x00014fe0:    bf049e91    ....    DCD    3204750993
        0x00014fe4:    bf5af875    u.Z.    DCD    3210410101
        0x00014fe8:    bf044889    .H..    DCD    3204728969
        0x00014fec:    bf5b2c79    y,[.    DCD    3210423417
        0x00014ff0:    bf03f26d    m...    DCD    3204706925
        0x00014ff4:    bf5b605a    Z`[.    DCD    3210436698
        0x00014ff8:    bf039c3d    =...    DCD    3204684861
        0x00014ffc:    bf5b941a    ..[.    DCD    3210449946
        0x00015000:    bf0345f8    .E..    DCD    3204662776
        0x00015004:    bf5bc7b8    ..[.    DCD    3210463160
        0x00015008:    bf02ef9f    ....    DCD    3204640671
        0x0001500c:    bf5bfb34    4.[.    DCD    3210476340
        0x00015010:    bf029932    2...    DCD    3204618546
        0x00015014:    bf5c2e8e    ..\.    DCD    3210489486
        0x00015018:    bf0242b1    .B..    DCD    3204596401
        0x0001501c:    bf5c61c7    .a\.    DCD    3210502599
        0x00015020:    bf01ec1c    ....    DCD    3204574236
        0x00015024:    bf5c94dd    ..\.    DCD    3210515677
        0x00015028:    bf019573    s...    DCD    3204552051
        0x0001502c:    bf5cc7d1    ..\.    DCD    3210528721
        0x00015030:    bf013eb5    .>..    DCD    3204529845
        0x00015034:    bf5cfaa3    ..\.    DCD    3210541731
        0x00015038:    bf00e7e4    ....    DCD    3204507620
        0x0001503c:    bf5d2d53    S-].    DCD    3210554707
        0x00015040:    bf0090ff    ....    DCD    3204485375
        0x00015044:    bf5d5fe1    ._].    DCD    3210567649
        0x00015048:    bf003a06    .:..    DCD    3204463110
        0x0001504c:    bf5d924d    M.].    DCD    3210580557
        0x00015050:    beffc5f3    ....    DCD    3204433395
        0x00015054:    bf5dc497    ..].    DCD    3210593431
        0x00015058:    beff17b2    ....    DCD    3204388786
        0x0001505c:    bf5df6be    ..].    DCD    3210606270
        0x00015060:    befe694a    Ji..    DCD    3204344138
        0x00015064:    bf5e28c3    .(^.    DCD    3210619075
        0x00015068:    befdbabb    ....    DCD    3204299451
        0x0001506c:    bf5e5aa6    .Z^.    DCD    3210631846
        0x00015070:    befd0c04    ....    DCD    3204254724
        0x00015074:    bf5e8c67    g.^.    DCD    3210644583
        0x00015078:    befc5d27    ']..    DCD    3204209959
        0x0001507c:    bf5ebe05    ..^.    DCD    3210657285
        0x00015080:    befbae22    "...    DCD    3204165154
        0x00015084:    bf5eef81    ..^.    DCD    3210669953
        0x00015088:    befafef7    ....    DCD    3204120311
        0x0001508c:    bf5f20db    . _.    DCD    3210682587
        0x00015090:    befa4fa5    .O..    DCD    3204075429
        0x00015094:    bf5f5212    .R_.    DCD    3210695186
        0x00015098:    bef9a02d    -...    DCD    3204030509
        0x0001509c:    bf5f8327    '._.    DCD    3210707751
        0x000150a0:    bef8f08e    ....    DCD    3203985550
        0x000150a4:    bf5fb419    .._.    DCD    3210720281
        0x000150a8:    bef840c8    .@..    DCD    3203940552
        0x000150ac:    bf5fe4e9    .._.    DCD    3210732777
        0x000150b0:    bef790dc    ....    DCD    3203895516
        0x000150b4:    bf601596    ..`.    DCD    3210745238
        0x000150b8:    bef6e0cb    ....    DCD    3203850443
        0x000150bc:    bf604621    !F`.    DCD    3210757665
        0x000150c0:    bef63093    .0..    DCD    3203805331
        0x000150c4:    bf607689    .v`.    DCD    3210770057
        0x000150c8:    bef58035    5...    DCD    3203760181
        0x000150cc:    bf60a6cf    ..`.    DCD    3210782415
        0x000150d0:    bef4cfb1    ....    DCD    3203714993
        0x000150d4:    bf60d6f2    ..`.    DCD    3210794738
        0x000150d8:    bef41f07    ....    DCD    3203669767
        0x000150dc:    bf6106f2    ..a.    DCD    3210807026
        0x000150e0:    bef36e38    8n..    DCD    3203624504
        0x000150e4:    bf6136d0    .6a.    DCD    3210819280
        0x000150e8:    bef2bd43    C...    DCD    3203579203
        0x000150ec:    bf61668a    .fa.    DCD    3210831498
        0x000150f0:    bef20c29    )...    DCD    3203533865
        0x000150f4:    bf619622    ".a.    DCD    3210843682
        0x000150f8:    bef15aea    .Z..    DCD    3203488490
        0x000150fc:    bf61c598    ..a.    DCD    3210855832
        0x00015100:    bef0a985    ....    DCD    3203443077
        0x00015104:    bf61f4ea    ..a.    DCD    3210867946
        0x00015108:    beeff7fb    ....    DCD    3203397627
        0x0001510c:    bf62241a    .$b.    DCD    3210880026
        0x00015110:    beef464c    LF..    DCD    3203352140
        0x00015114:    bf625326    &Sb.    DCD    3210892070
        0x00015118:    beee9479    y...    DCD    3203306617
        0x0001511c:    bf628210    ..b.    DCD    3210904080
        0x00015120:    beede280    ....    DCD    3203261056
        0x00015124:    bf62b0d7    ..b.    DCD    3210916055
        0x00015128:    beed3063    c0..    DCD    3203215459
        0x0001512c:    bf62df7b    {.b.    DCD    3210927995
        0x00015130:    beec7e21    !~..    DCD    3203169825
        0x00015134:    bf630dfc    ..c.    DCD    3210939900
        0x00015138:    beebcbbb    ....    DCD    3203124155
        0x0001513c:    bf633c5a    Z<c.    DCD    3210951770
        0x00015140:    beeb1930    0...    DCD    3203078448
        0x00015144:    bf636a95    .jc.    DCD    3210963605
        0x00015148:    beea6681    .f..    DCD    3203032705
        0x0001514c:    bf6398ac    ..c.    DCD    3210975404
        0x00015150:    bee9b3ae    ....    DCD    3202986926
        0x00015154:    bf63c6a1    ..c.    DCD    3210987169
        0x00015158:    bee900b7    ....    DCD    3202941111
        0x0001515c:    bf63f473    s.c.    DCD    3210998899
        0x00015160:    bee84d9c    .M..    DCD    3202895260
        0x00015164:    bf642221    !"d.    DCD    3211010593
        0x00015168:    bee79a5d    ]...    DCD    3202849373
        0x0001516c:    bf644fac    .Od.    DCD    3211022252
        0x00015170:    bee6e6fb    ....    DCD    3202803451
        0x00015174:    bf647d14    .}d.    DCD    3211033876
        0x00015178:    bee63375    u3..    DCD    3202757493
        0x0001517c:    bf64aa59    Y.d.    DCD    3211045465
        0x00015180:    bee57fcb    ....    DCD    3202711499
        0x00015184:    bf64d77b    {.d.    DCD    3211057019
        0x00015188:    bee4cbfe    ....    DCD    3202665470
        0x0001518c:    bf650479    y.e.    DCD    3211068537
        0x00015190:    bee4180e    ....    DCD    3202619406
        0x00015194:    bf653154    T1e.    DCD    3211080020
        0x00015198:    bee363fa    .c..    DCD    3202573306
        0x0001519c:    bf655e0b    .^e.    DCD    3211091467
        0x000151a0:    bee2afc4    ....    DCD    3202527172
        0x000151a4:    bf658aa0    ..e.    DCD    3211102880
        0x000151a8:    bee1fb6a    j...    DCD    3202481002
        0x000151ac:    bf65b710    ..e.    DCD    3211114256
        0x000151b0:    bee146ee    .F..    DCD    3202434798
        0x000151b4:    bf65e35e    ^.e.    DCD    3211125598
        0x000151b8:    bee0924f    O...    DCD    3202388559
        0x000151bc:    bf660f88    ..f.    DCD    3211136904
        0x000151c0:    bedfdd8d    ....    DCD    3202342285
        0x000151c4:    bf663b8e    .;f.    DCD    3211148174
        0x000151c8:    bedf28a9    .(..    DCD    3202295977
        0x000151cc:    bf666771    qgf.    DCD    3211159409
        0x000151d0:    bede73a2    .s..    DCD    3202249634
        0x000151d4:    bf669330    0.f.    DCD    3211170608
        0x000151d8:    beddbe79    y...    DCD    3202203257
        0x000151dc:    bf66becc    ..f.    DCD    3211181772
        0x000151e0:    bedd092e    ....    DCD    3202156846
        0x000151e4:    bf66ea45    E.f.    DCD    3211192901
        0x000151e8:    bedc53c1    .S..    DCD    3202110401
        0x000151ec:    bf671599    ..g.    DCD    3211203993
        0x000151f0:    bedb9e31    1...    DCD    3202063921
        0x000151f4:    bf6740ca    .@g.    DCD    3211215050
        0x000151f8:    bedae880    ....    DCD    3202017408
        0x000151fc:    bf676bd8    .kg.    DCD    3211226072
        0x00015200:    beda32ad    .2..    DCD    3201970861
        0x00015204:    bf6796c1    ..g.    DCD    3211237057
        0x00015208:    bed97cb9    .|..    DCD    3201924281
        0x0001520c:    bf67c187    ..g.    DCD    3211248007
        0x00015210:    bed8c6a3    ....    DCD    3201877667
        0x00015214:    bf67ec2a    *.g.    DCD    3211258922
        0x00015218:    bed8106b    k...    DCD    3201831019
        0x0001521c:    bf6816a8    ..h.    DCD    3211269800
        0x00015220:    bed75a13    .Z..    DCD    3201784339
        0x00015224:    bf684103    .Ah.    DCD    3211280643
        0x00015228:    bed6a399    ....    DCD    3201737625
        0x0001522c:    bf686b39    9kh.    DCD    3211291449
        0x00015230:    bed5ecfd    ....    DCD    3201690877
        0x00015234:    bf68954c    L.h.    DCD    3211302220
        0x00015238:    bed53641    A6..    DCD    3201644097
        0x0001523c:    bf68bf3c    <.h.    DCD    3211312956
        0x00015240:    bed47f64    d...    DCD    3201597284
        0x00015244:    bf68e907    ..h.    DCD    3211323655
        0x00015248:    bed3c867    g...    DCD    3201550439
        0x0001524c:    bf6912ae    ..i.    DCD    3211334318
        0x00015250:    bed31148    H...    DCD    3201503560
        0x00015254:    bf693c32    2<i.    DCD    3211344946
        0x00015258:    bed25a09    .Z..    DCD    3201456649
        0x0001525c:    bf696591    .ei.    DCD    3211355537
        0x00015260:    bed1a2aa    ....    DCD    3201409706
        0x00015264:    bf698ecc    ..i.    DCD    3211366092
        0x00015268:    bed0eb2a    *...    DCD    3201362730
        0x0001526c:    bf69b7e4    ..i.    DCD    3211376612
        0x00015270:    bed0338a    .3..    DCD    3201315722
        0x00015274:    bf69e0d7    ..i.    DCD    3211387095
        0x00015278:    becf7bca    .{..    DCD    3201268682
        0x0001527c:    bf6a09a7    ..j.    DCD    3211397543
        0x00015280:    becec3ea    ....    DCD    3201221610
        0x00015284:    bf6a3252    R2j.    DCD    3211407954
        0x00015288:    bece0bea    ....    DCD    3201174506
        0x0001528c:    bf6a5ad9    .Zj.    DCD    3211418329
        0x00015290:    becd53ca    .S..    DCD    3201127370
        0x00015294:    bf6a833c    <.j.    DCD    3211428668
        0x00015298:    becc9b8b    ....    DCD    3201080203
        0x0001529c:    bf6aab7b    {.j.    DCD    3211438971
        0x000152a0:    becbe32c    ,...    DCD    3201033004
        0x000152a4:    bf6ad395    ..j.    DCD    3211449237
        0x000152a8:    becb2aae    .*..    DCD    3200985774
        0x000152ac:    bf6afb8c    ..j.    DCD    3211459468
        0x000152b0:    beca7210    .r..    DCD    3200938512
        0x000152b4:    bf6b235e    ^#k.    DCD    3211469662
        0x000152b8:    bec9b953    S...    DCD    3200891219
        0x000152bc:    bf6b4b0c    .Kk.    DCD    3211479820
        0x000152c0:    bec90077    w...    DCD    3200843895
        0x000152c4:    bf6b7295    .rk.    DCD    3211489941
        0x000152c8:    bec8477c    |G..    DCD    3200796540
        0x000152cc:    bf6b99fb    ..k.    DCD    3211500027
        0x000152d0:    bec78e62    b...    DCD    3200749154
        0x000152d4:    bf6bc13b    ;.k.    DCD    3211510075
        0x000152d8:    bec6d529    )...    DCD    3200701737
        0x000152dc:    bf6be858    X.k.    DCD    3211520088
        0x000152e0:    bec61bd2    ....    DCD    3200654290
        0x000152e4:    bf6c0f50    P.l.    DCD    3211530064
        0x000152e8:    bec5625c    \b..    DCD    3200606812
        0x000152ec:    bf6c3624    $6l.    DCD    3211540004
        0x000152f0:    bec4a8c8    ....    DCD    3200559304
        0x000152f4:    bf6c5cd4    .\l.    DCD    3211549908
        0x000152f8:    bec3ef15    ....    DCD    3200511765
        0x000152fc:    bf6c835e    ^.l.    DCD    3211559774
        0x00015300:    bec33544    D5..    DCD    3200464196
        0x00015304:    bf6ca9c5    ..l.    DCD    3211569605
        0x00015308:    bec27b55    U{..    DCD    3200416597
        0x0001530c:    bf6cd007    ..l.    DCD    3211579399
        0x00015310:    bec1c148    H...    DCD    3200368968
        0x00015314:    bf6cf624    $.l.    DCD    3211589156
        0x00015318:    bec1071e    ....    DCD    3200321310
        0x0001531c:    bf6d1c1d    ..m.    DCD    3211598877
        0x00015320:    bec04cd5    .L..    DCD    3200273621
        0x00015324:    bf6d41f2    .Am.    DCD    3211608562
        0x00015328:    bebf926f    o...    DCD    3200225903
        0x0001532c:    bf6d67a1    .gm.    DCD    3211618209
        0x00015330:    bebed7eb    ....    DCD    3200178155
        0x00015334:    bf6d8d2d    -.m.    DCD    3211627821
        0x00015338:    bebe1d4a    J...    DCD    3200130378
        0x0001533c:    bf6db293    ..m.    DCD    3211637395
        0x00015340:    bebd628b    .b..    DCD    3200082571
        0x00015344:    bf6dd7d5    ..m.    DCD    3211646933
        0x00015348:    bebca7af    ....    DCD    3200034735
        0x0001534c:    bf6dfcf2    ..m.    DCD    3211656434
        0x00015350:    bebbecb6    ....    DCD    3199986870
        0x00015354:    bf6e21eb    .!n.    DCD    3211665899
        0x00015358:    bebb31a0    .1..    DCD    3199938976
        0x0001535c:    bf6e46be    .Fn.    DCD    3211675326
        0x00015360:    beba766e    nv..    DCD    3199891054
        0x00015364:    bf6e6b6d    mkn.    DCD    3211684717
        0x00015368:    beb9bb1e    ....    DCD    3199843102
        0x0001536c:    bf6e8ff8    ..n.    DCD    3211694072
        0x00015370:    beb8ffb2    ....    DCD    3199795122
        0x00015374:    bf6eb45d    ].n.    DCD    3211703389
        0x00015378:    beb8442a    *D..    DCD    3199747114
        0x0001537c:    bf6ed89e    ..n.    DCD    3211712670
        0x00015380:    beb78884    ....    DCD    3199699076
        0x00015384:    bf6efcba    ..n.    DCD    3211721914
        0x00015388:    beb6ccc3    ....    DCD    3199651011
        0x0001538c:    bf6f20b0    . o.    DCD    3211731120
        0x00015390:    beb610e6    ....    DCD    3199602918
        0x00015394:    bf6f4483    .Do.    DCD    3211740291
        0x00015398:    beb554ec    .T..    DCD    3199554796
        0x0001539c:    bf6f6830    0ho.    DCD    3211749424
        0x000153a0:    beb498d6    ....    DCD    3199506646
        0x000153a4:    bf6f8bb8    ..o.    DCD    3211758520
        0x000153a8:    beb3dca5    ....    DCD    3199458469
        0x000153ac:    bf6faf1b    ..o.    DCD    3211767579
        0x000153b0:    beb32058    X ..    DCD    3199410264
        0x000153b4:    bf6fd25a    Z.o.    DCD    3211776602
        0x000153b8:    beb263ef    .c..    DCD    3199362031
        0x000153bc:    bf6ff573    s.o.    DCD    3211785587
        0x000153c0:    beb1a76b    k...    DCD    3199313771
        0x000153c4:    bf701867    g.p.    DCD    3211794535
        0x000153c8:    beb0eacb    ....    DCD    3199265483
        0x000153cc:    bf703b37    7;p.    DCD    3211803447
        0x000153d0:    beb02e10    ....    DCD    3199217168
        0x000153d4:    bf705de1    .]p.    DCD    3211812321
        0x000153d8:    beaf713a    :q..    DCD    3199168826
        0x000153dc:    bf708066    f.p.    DCD    3211821158
        0x000153e0:    beaeb449    I...    DCD    3199120457
        0x000153e4:    bf70a2c6    ..p.    DCD    3211829958
        0x000153e8:    beadf73c    <...    DCD    3199072060
        0x000153ec:    bf70c502    ..p.    DCD    3211838722
        0x000153f0:    bead3a15    .:..    DCD    3199023637
        0x000153f4:    bf70e717    ..p.    DCD    3211847447
        0x000153f8:    beac7cd4    .|..    DCD    3198975188
        0x000153fc:    bf710908    ..q.    DCD    3211856136
        0x00015400:    beabbf77    w...    DCD    3198926711
        0x00015404:    bf712ad4    .*q.    DCD    3211864788
        0x00015408:    beab0201    ....    DCD    3198878209
        0x0001540c:    bf714c7a    zLq.    DCD    3211873402
        0x00015410:    beaa446f    oD..    DCD    3198829679
        0x00015414:    bf716dfb    .mq.    DCD    3211881979
        0x00015418:    bea986c4    ....    DCD    3198781124
        0x0001541c:    bf718f57    W.q.    DCD    3211890519
        0x00015420:    bea8c8fe    ....    DCD    3198732542
        0x00015424:    bf71b08e    ..q.    DCD    3211899022
        0x00015428:    bea80b1f    ....    DCD    3198683935
        0x0001542c:    bf71d19f    ..q.    DCD    3211907487
        0x00015430:    bea74d25    %M..    DCD    3198635301
        0x00015434:    bf71f28c    ..q.    DCD    3211915916
        0x00015438:    bea68f12    ....    DCD    3198586642
        0x0001543c:    bf721352    R.r.    DCD    3211924306
        0x00015440:    bea5d0e5    ....    DCD    3198537957
        0x00015444:    bf7233f4    .3r.    DCD    3211932660
        0x00015448:    bea5129f    ....    DCD    3198489247
        0x0001544c:    bf725470    pTr.    DCD    3211940976
        0x00015450:    bea4543f    ?T..    DCD    3198440511
        0x00015454:    bf7274c7    .tr.    DCD    3211949255
        0x00015458:    bea395c5    ....    DCD    3198391749
        0x0001545c:    bf7294f8    ..r.    DCD    3211957496
        0x00015460:    bea2d733    3...    DCD    3198342963
        0x00015464:    bf72b504    ..r.    DCD    3211965700
        0x00015468:    bea21887    ....    DCD    3198294151
        0x0001546c:    bf72d4eb    ..r.    DCD    3211973867
        0x00015470:    bea159c2    .Y..    DCD    3198245314
        0x00015474:    bf72f4ac    ..r.    DCD    3211981996
        0x00015478:    bea09ae5    ....    DCD    3198196453
        0x0001547c:    bf731447    G.s.    DCD    3211990087
        0x00015480:    be9fdbee    ....    DCD    3198147566
        0x00015484:    bf7333be    .3s.    DCD    3211998142
        0x00015488:    be9f1cdf    ....    DCD    3198098655
        0x0001548c:    bf73530e    .Ss.    DCD    3212006158
        0x00015490:    be9e5db8    .]..    DCD    3198049720
        0x00015494:    bf737239    9rs.    DCD    3212014137
        0x00015498:    be9d9e78    x...    DCD    3198000760
        0x0001549c:    bf73913f    ?.s.    DCD    3212022079
        0x000154a0:    be9cdf20     ...    DCD    3197951776
        0x000154a4:    bf73b01f    ..s.    DCD    3212029983
        0x000154a8:    be9c1faf    ....    DCD    3197902767
        0x000154ac:    bf73ced9    ..s.    DCD    3212037849
        0x000154b0:    be9b6027    '`..    DCD    3197853735
        0x000154b4:    bf73ed6e    n.s.    DCD    3212045678
        0x000154b8:    be9aa086    ....    DCD    3197804678
        0x000154bc:    bf740bdd    ..t.    DCD    3212053469
        0x000154c0:    be99e0ce    ....    DCD    3197755598
        0x000154c4:    bf742a27    '*t.    DCD    3212061223
        0x000154c8:    be9920fe    . ..    DCD    3197706494
        0x000154cc:    bf74484b    KHt.    DCD    3212068939
        0x000154d0:    be986116    .a..    DCD    3197657366
        0x000154d4:    bf746649    Ift.    DCD    3212076617
        0x000154d8:    be97a117    ....    DCD    3197608215
        0x000154dc:    bf748422    ".t.    DCD    3212084258
        0x000154e0:    be96e100    ....    DCD    3197559040
        0x000154e4:    bf74a1d5    ..t.    DCD    3212091861
        0x000154e8:    be9620d2    . ..    DCD    3197509842
        0x000154ec:    bf74bf62    b.t.    DCD    3212099426
        0x000154f0:    be95608d    .`..    DCD    3197460621
        0x000154f4:    bf74dcc9    ..t.    DCD    3212106953
        0x000154f8:    be94a031    1...    DCD    3197411377
        0x000154fc:    bf74fa0b    ..t.    DCD    3212114443
        0x00015500:    be93dfbf    ....    DCD    3197362111
        0x00015504:    bf751727    '.u.    DCD    3212121895
        0x00015508:    be931f35    5...    DCD    3197312821
        0x0001550c:    bf75341d    .4u.    DCD    3212129309
        0x00015510:    be925e94    .^..    DCD    3197263508
        0x00015514:    bf7550ed    .Pu.    DCD    3212136685
        0x00015518:    be919ddd    ....    DCD    3197214173
        0x0001551c:    bf756d97    .mu.    DCD    3212144023
        0x00015520:    be90dd10    ....    DCD    3197164816
        0x00015524:    bf758a1c    ..u.    DCD    3212151324
        0x00015528:    be901c2c    ,...    DCD    3197115436
        0x0001552c:    bf75a67b    {.u.    DCD    3212158587
        0x00015530:    be8f5b32    2[..    DCD    3197066034
        0x00015534:    bf75c2b3    ..u.    DCD    3212165811
        0x00015538:    be8e9a22    "...    DCD    3197016610
        0x0001553c:    bf75dec6    ..u.    DCD    3212172998
        0x00015540:    be8dd8fc    ....    DCD    3196967164
        0x00015544:    bf75fab3    ..u.    DCD    3212180147
        0x00015548:    be8d17c0    ....    DCD    3196917696
        0x0001554c:    bf76167a    z.v.    DCD    3212187258
        0x00015550:    be8c566e    nV..    DCD    3196868206
        0x00015554:    bf76321b    .2v.    DCD    3212194331
        0x00015558:    be8b9507    ....    DCD    3196818695
        0x0001555c:    bf764d97    .Mv.    DCD    3212201367
        0x00015560:    be8ad38a    ....    DCD    3196769162
        0x00015564:    bf7668ec    .hv.    DCD    3212208364
        0x00015568:    be8a11f8    ....    DCD    3196719608
        0x0001556c:    bf76841b    ..v.    DCD    3212215323
        0x00015570:    be895050    PP..    DCD    3196670032
        0x00015574:    bf769f24    $.v.    DCD    3212222244
        0x00015578:    be888e93    ....    DCD    3196620435
        0x0001557c:    bf76ba07    ..v.    DCD    3212229127
        0x00015580:    be87ccc1    ....    DCD    3196570817
        0x00015584:    bf76d4c4    ..v.    DCD    3212235972
        0x00015588:    be870ada    ....    DCD    3196521178
        0x0001558c:    bf76ef5b    [.v.    DCD    3212242779
        0x00015590:    be8648df    .H..    DCD    3196471519
        0x00015594:    bf7709cc    ..w.    DCD    3212249548
        0x00015598:    be8586ce    ....    DCD    3196421838
        0x0001559c:    bf772417    .$w.    DCD    3212256279
        0x000155a0:    be84c4aa    ....    DCD    3196372138
        0x000155a4:    bf773e3c    <>w.    DCD    3212262972
        0x000155a8:    be840270    p...    DCD    3196322416
        0x000155ac:    bf77583a    :Xw.    DCD    3212269626
        0x000155b0:    be834022    "@..    DCD    3196272674
        0x000155b4:    bf777213    .rw.    DCD    3212276243
        0x000155b8:    be827dc0    .}..    DCD    3196222912
        0x000155bc:    bf778bc5    ..w.    DCD    3212282821
        0x000155c0:    be81bb4a    J...    DCD    3196173130
        0x000155c4:    bf77a551    Q.w.    DCD    3212289361
        0x000155c8:    be80f8c0    ....    DCD    3196123328
        0x000155cc:    bf77beb7    ..w.    DCD    3212295863
        0x000155d0:    be803622    "6..    DCD    3196073506
        0x000155d4:    bf77d7f7    ..w.    DCD    3212302327
        0x000155d8:    be7ee6e1    ..~.    DCD    3195987681
        0x000155dc:    bf77f110    ..w.    DCD    3212308752
        0x000155e0:    be7d6156    Va}.    DCD    3195887958
        0x000155e4:    bf780a04    ..x.    DCD    3212315140
        0x000155e8:    be7bdba4    ..{.    DCD    3195788196
        0x000155ec:    bf7822d1    ."x.    DCD    3212321489
        0x000155f0:    be7a55cb    .Uz.    DCD    3195688395
        0x000155f4:    bf783b77    w;x.    DCD    3212327799
        0x000155f8:    be78cfcc    ..x.    DCD    3195588556
        0x000155fc:    bf7853f8    .Sx.    DCD    3212334072
        0x00015600:    be7749a6    .Iw.    DCD    3195488678
        0x00015604:    bf786c52    Rlx.    DCD    3212340306
        0x00015608:    be75c35a    Z.u.    DCD    3195388762
        0x0001560c:    bf788486    ..x.    DCD    3212346502
        0x00015610:    be743ce8    .<t.    DCD    3195288808
        0x00015614:    bf789c93    ..x.    DCD    3212352659
        0x00015618:    be72b651    Q.r.    DCD    3195188817
        0x0001561c:    bf78b47b    {.x.    DCD    3212358779
        0x00015620:    be712f94    ./q.    DCD    3195088788
        0x00015624:    bf78cc3b    ;.x.    DCD    3212364859
        0x00015628:    be6fa8b2    ..o.    DCD    3194988722
        0x0001562c:    bf78e3d6    ..x.    DCD    3212370902
        0x00015630:    be6e21ab    .!n.    DCD    3194888619
        0x00015634:    bf78fb4a    J.x.    DCD    3212376906
        0x00015638:    be6c9a7f    ..l.    DCD    3194788479
        0x0001563c:    bf791298    ..y.    DCD    3212382872
        0x00015640:    be6b132f    /.k.    DCD    3194688303
        0x00015644:    bf7929bf    .)y.    DCD    3212388799
        0x00015648:    be698bba    ..i.    DCD    3194588090
        0x0001564c:    bf7940c0    .@y.    DCD    3212394688
        0x00015650:    be680422    ".h.    DCD    3194487842
        0x00015654:    bf79579a    .Wy.    DCD    3212400538
        0x00015658:    be667c66    f|f.    DCD    3194387558
        0x0001565c:    bf796e4e    Nny.    DCD    3212406350
        0x00015660:    be64f486    ..d.    DCD    3194287238
        0x00015664:    bf7984dc    ..y.    DCD    3212412124
        0x00015668:    be636c83    .lc.    DCD    3194186883
        0x0001566c:    bf799b43    C.y.    DCD    3212417859
        0x00015670:    be61e45c    \.a.    DCD    3194086492
        0x00015674:    bf79b183    ..y.    DCD    3212423555
        0x00015678:    be605c13    .\`.    DCD    3193986067
        0x0001567c:    bf79c79d    ..y.    DCD    3212429213
        0x00015680:    be5ed3a8    ..^.    DCD    3193885608
        0x00015684:    bf79dd91    ..y.    DCD    3212434833
        0x00015688:    be5d4b1a    .K].    DCD    3193785114
        0x0001568c:    bf79f35e    ^.y.    DCD    3212440414
        0x00015690:    be5bc26a    j.[.    DCD    3193684586
        0x00015694:    bf7a0904    ..z.    DCD    3212445956
        0x00015698:    be5a3997    .9Z.    DCD    3193584023
        0x0001569c:    bf7a1e84    ..z.    DCD    3212451460
        0x000156a0:    be58b0a4    ..X.    DCD    3193483428
        0x000156a4:    bf7a33dd    .3z.    DCD    3212456925
        0x000156a8:    be57278f    .'W.    DCD    3193382799
        0x000156ac:    bf7a4910    .Iz.    DCD    3212462352
        0x000156b0:    be559e58    X.U.    DCD    3193282136
        0x000156b4:    bf7a5e1c    .^z.    DCD    3212467740
        0x000156b8:    be541501    ..T.    DCD    3193181441
        0x000156bc:    bf7a7302    .sz.    DCD    3212473090
        0x000156c0:    be528b89    ..R.    DCD    3193080713
        0x000156c4:    bf7a87c1    ..z.    DCD    3212478401
        0x000156c8:    be5101f1    ..Q.    DCD    3192979953
        0x000156cc:    bf7a9c59    Y.z.    DCD    3212483673
        0x000156d0:    be4f7838    8xO.    DCD    3192879160
        0x000156d4:    bf7ab0cb    ..z.    DCD    3212488907
        0x000156d8:    be4dee60    `.M.    DCD    3192778336
        0x000156dc:    bf7ac516    ..z.    DCD    3212494102
        0x000156e0:    be4c6467    gdL.    DCD    3192677479
        0x000156e4:    bf7ad93a    :.z.    DCD    3212499258
        0x000156e8:    be4ada4f    O.J.    DCD    3192576591
        0x000156ec:    bf7aed37    7.z.    DCD    3212504375
        0x000156f0:    be495018    .PI.    DCD    3192475672
        0x000156f4:    bf7b010e    ..{.    DCD    3212509454
        0x000156f8:    be47c5c2    ..G.    DCD    3192374722
        0x000156fc:    bf7b14be    ..{.    DCD    3212514494
        0x00015700:    be463b4d    M;F.    DCD    3192273741
        0x00015704:    bf7b2848    H({.    DCD    3212519496
        0x00015708:    be44b0b9    ..D.    DCD    3192172729
        0x0001570c:    bf7b3bab    .;{.    DCD    3212524459
        0x00015710:    be432607    .&C.    DCD    3192071687
        0x00015714:    bf7b4ee7    .N{.    DCD    3212529383
        0x00015718:    be419b37    7.A.    DCD    3191970615
        0x0001571c:    bf7b61fc    .a{.    DCD    3212534268
        0x00015720:    be401049    I.@.    DCD    3191869513
        0x00015724:    bf7b74ea    .t{.    DCD    3212539114
        0x00015728:    be3e853e    >.>.    DCD    3191768382
        0x0001572c:    bf7b87b2    ..{.    DCD    3212543922
        0x00015730:    be3cfa15    ..<.    DCD    3191667221
        0x00015734:    bf7b9a53    S.{.    DCD    3212548691
        0x00015738:    be3b6ecf    .n;.    DCD    3191566031
        0x0001573c:    bf7baccd    ..{.    DCD    3212553421
        0x00015740:    be39e36c    l.9.    DCD    3191464812
        0x00015744:    bf7bbf20     .{.    DCD    3212558112
        0x00015748:    be3857ec    .W8.    DCD    3191363564
        0x0001574c:    bf7bd14d    M.{.    DCD    3212562765
        0x00015750:    be36cc50    P.6.    DCD    3191262288
        0x00015754:    bf7be353    S.{.    DCD    3212567379
        0x00015758:    be354098    .@5.    DCD    3191160984
        0x0001575c:    bf7bf531    1.{.    DCD    3212571953
        0x00015760:    be33b4c4    ..3.    DCD    3191059652
        0x00015764:    bf7c06e9    ..|.    DCD    3212576489
        0x00015768:    be3228d4    .(2.    DCD    3190958292
        0x0001576c:    bf7c187a    z.|.    DCD    3212580986
        0x00015770:    be309cc9    ..0.    DCD    3190856905
        0x00015774:    bf7c29e5    .)|.    DCD    3212585445
        0x00015778:    be2f10a2    ../.    DCD    3190755490
        0x0001577c:    bf7c3b28    (;|.    DCD    3212589864
        0x00015780:    be2d8461    a.-.    DCD    3190654049
        0x00015784:    bf7c4c44    DL|.    DCD    3212594244
        0x00015788:    be2bf804    ..+.    DCD    3190552580
        0x0001578c:    bf7c5d3a    :]|.    DCD    3212598586
        0x00015790:    be2a6b8d    .k*.    DCD    3190451085
        0x00015794:    bf7c6e08    .n|.    DCD    3212602888
        0x00015798:    be28defc    ..(.    DCD    3190349564
        0x0001579c:    bf7c7eb0    .~|.    DCD    3212607152
        0x000157a0:    be275251    QR'.    DCD    3190248017
        0x000157a4:    bf7c8f31    1.|.    DCD    3212611377
        0x000157a8:    be25c58c    ..%.    DCD    3190146444
        0x000157ac:    bf7c9f8a    ..|.    DCD    3212615562
        0x000157b0:    be2438ad    .8$.    DCD    3190044845
        0x000157b4:    bf7cafbd    ..|.    DCD    3212619709
        0x000157b8:    be22abb6    ..".    DCD    3189943222
        0x000157bc:    bf7cbfc9    ..|.    DCD    3212623817
        0x000157c0:    be211ea5    ..!.    DCD    3189841573
        0x000157c4:    bf7ccfae    ..|.    DCD    3212627886
        0x000157c8:    be1f917b    {...    DCD    3189739899
        0x000157cc:    bf7cdf6c    l.|.    DCD    3212631916
        0x000157d0:    be1e0438    8...    DCD    3189638200
        0x000157d4:    bf7cef03    ..|.    DCD    3212635907
        0x000157d8:    be1c76de    .v..    DCD    3189536478
        0x000157dc:    bf7cfe73    s.|.    DCD    3212639859
        0x000157e0:    be1ae96b    k...    DCD    3189434731
        0x000157e4:    bf7d0dbc    ..}.    DCD    3212643772
        0x000157e8:    be195be0    .[..    DCD    3189332960
        0x000157ec:    bf7d1cdd    ..}.    DCD    3212647645
        0x000157f0:    be17ce3d    =...    DCD    3189231165
        0x000157f4:    bf7d2bd8    .+}.    DCD    3212651480
        0x000157f8:    be164083    .@..    DCD    3189129347
        0x000157fc:    bf7d3aac    .:}.    DCD    3212655276
        0x00015800:    be14b2b2    ....    DCD    3189027506
        0x00015804:    bf7d4959    YI}.    DCD    3212659033
        0x00015808:    be1324ca    .$..    DCD    3188925642
        0x0001580c:    bf7d57de    .W}.    DCD    3212662750
        0x00015810:    be1196cc    ....    DCD    3188823756
        0x00015814:    bf7d663d    =f}.    DCD    3212666429
        0x00015818:    be1008b7    ....    DCD    3188721847
        0x0001581c:    bf7d7474    tt}.    DCD    3212670068
        0x00015820:    be0e7a8b    .z..    DCD    3188619915
        0x00015824:    bf7d8285    ..}.    DCD    3212673669
        0x00015828:    be0cec4a    J...    DCD    3188517962
        0x0001582c:    bf7d906e    n.}.    DCD    3212677230
        0x00015830:    be0b5df3    .]..    DCD    3188415987
        0x00015834:    bf7d9e30    0.}.    DCD    3212680752
        0x00015838:    be09cf86    ....    DCD    3188313990
        0x0001583c:    bf7dabcc    ..}.    DCD    3212684236
        0x00015840:    be084105    .A..    DCD    3188211973
        0x00015844:    bf7db940    @.}.    DCD    3212687680
        0x00015848:    be06b26e    n...    DCD    3188109934
        0x0001584c:    bf7dc68c    ..}.    DCD    3212691084
        0x00015850:    be0523c2    .#..    DCD    3188007874
        0x00015854:    bf7dd3b2    ..}.    DCD    3212694450
        0x00015858:    be039502    ....    DCD    3187905794
        0x0001585c:    bf7de0b1    ..}.    DCD    3212697777
        0x00015860:    be02062e    ....    DCD    3187803694
        0x00015864:    bf7ded88    ..}.    DCD    3212701064
        0x00015868:    be007745    Ew..    DCD    3187701573
        0x0001586c:    bf7dfa38    8.}.    DCD    3212704312
        0x00015870:    bdfdd092    ....    DCD    3187527826
        0x00015874:    bf7e06c2    ..~.    DCD    3212707522
        0x00015878:    bdfab273    s...    DCD    3187323507
        0x0001587c:    bf7e1324    $.~.    DCD    3212710692
        0x00015880:    bdf7942c    ,...    DCD    3187119148
        0x00015884:    bf7e1f5e    ^.~.    DCD    3212713822
        0x00015888:    bdf475c0    .u..    DCD    3186914752
        0x0001588c:    bf7e2b72    r+~.    DCD    3212716914
        0x00015890:    bdf1572e    .W..    DCD    3186710318
        0x00015894:    bf7e375e    ^7~.    DCD    3212719966
        0x00015898:    bdee3876    v8..    DCD    3186505846
        0x0001589c:    bf7e4323    #C~.    DCD    3212722979
        0x000158a0:    bdeb199a    ....    DCD    3186301338
        0x000158a4:    bf7e4ec1    .N~.    DCD    3212725953
        0x000158a8:    bde7fa9a    ....    DCD    3186096794
        0x000158ac:    bf7e5a38    8Z~.    DCD    3212728888
        0x000158b0:    bde4db76    v...    DCD    3185892214
        0x000158b4:    bf7e6588    .e~.    DCD    3212731784
        0x000158b8:    bde1bc2e    ....    DCD    3185687598
        0x000158bc:    bf7e70b0    .p~.    DCD    3212734640
        0x000158c0:    bdde9cc4    ....    DCD    3185482948
        0x000158c4:    bf7e7bb1    .{~.    DCD    3212737457
        0x000158c8:    bddb7d37    7}..    DCD    3185278263
        0x000158cc:    bf7e868b    ..~.    DCD    3212740235
        0x000158d0:    bdd85d89    .]..    DCD    3185073545
        0x000158d4:    bf7e913d    =.~.    DCD    3212742973
        0x000158d8:    bdd53db9    .=..    DCD    3184868793
        0x000158dc:    bf7e9bc9    ..~.    DCD    3212745673
        0x000158e0:    bdd21dc8    ....    DCD    3184664008
        0x000158e4:    bf7ea62d    -.~.    DCD    3212748333
        0x000158e8:    bdcefdb7    ....    DCD    3184459191
        0x000158ec:    bf7eb069    i.~.    DCD    3212750953
        0x000158f0:    bdcbdd86    ....    DCD    3184254342
        0x000158f4:    bf7eba7f    ..~.    DCD    3212753535
        0x000158f8:    bdc8bd36    6...    DCD    3184049462
        0x000158fc:    bf7ec46d    m.~.    DCD    3212756077
        0x00015900:    bdc59cc6    ....    DCD    3183844550
        0x00015904:    bf7ece34    4.~.    DCD    3212758580
        0x00015908:    bdc27c39    9|..    DCD    3183639609
        0x0001590c:    bf7ed7d4    ..~.    DCD    3212761044
        0x00015910:    bdbf5b8d    .[..    DCD    3183434637
        0x00015914:    bf7ee14c    L.~.    DCD    3212763468
        0x00015918:    bdbc3ac3    .:..    DCD    3183229635
        0x0001591c:    bf7eea9d    ..~.    DCD    3212765853
        0x00015920:    bdb919dd    ....    DCD    3183024605
        0x00015924:    bf7ef3c7    ..~.    DCD    3212768199
        0x00015928:    bdb5f8da    ....    DCD    3182819546
        0x0001592c:    bf7efcc9    ..~.    DCD    3212770505
        0x00015930:    bdb2d7bb    ....    DCD    3182614459
        0x00015934:    bf7f05a4    ....    DCD    3212772772
        0x00015938:    bdafb680    ....    DCD    3182409344
        0x0001593c:    bf7f0e58    X...    DCD    3212775000
        0x00015940:    bdac952b    +...    DCD    3182204203
        0x00015944:    bf7f16e4    ....    DCD    3212777188
        0x00015948:    bda973ba    .s..    DCD    3181999034
        0x0001594c:    bf7f1f49    I...    DCD    3212779337
        0x00015950:    bda65230    0R..    DCD    3181793840
        0x00015954:    bf7f2787    .'..    DCD    3212781447
        0x00015958:    bda3308c    .0..    DCD    3181588620
        0x0001595c:    bf7f2f9d    ./..    DCD    3212783517
        0x00015960:    bda00ecf    ....    DCD    3181383375
        0x00015964:    bf7f378d    .7..    DCD    3212785549
        0x00015968:    bd9cecf9    ....    DCD    3181178105
        0x0001596c:    bf7f3f54    T?..    DCD    3212787540
        0x00015970:    bd99cb0a    ....    DCD    3180972810
        0x00015974:    bf7f46f4    .F..    DCD    3212789492
        0x00015978:    bd96a905    ....    DCD    3180767493
        0x0001597c:    bf7f4e6d    mN..    DCD    3212791405
        0x00015980:    bd9386e7    ....    DCD    3180562151
        0x00015984:    bf7f55bf    .U..    DCD    3212793279
        0x00015988:    bd9064b4    .d..    DCD    3180356788
        0x0001598c:    bf7f5ce9    .\..    DCD    3212795113
        0x00015990:    bd8d426a    jB..    DCD    3180151402
        0x00015994:    bf7f63ec    .c..    DCD    3212796908
        0x00015998:    bd8a200a    . ..    DCD    3179945994
        0x0001599c:    bf7f6ac7    .j..    DCD    3212798663
        0x000159a0:    bd86fd94    ....    DCD    3179740564
        0x000159a4:    bf7f717b    {q..    DCD    3212800379
        0x000159a8:    bd83db0a    ....    DCD    3179535114
        0x000159ac:    bf7f7808    .x..    DCD    3212802056
        0x000159b0:    bd80b86c    l...    DCD    3179329644
        0x000159b4:    bf7f7e6d    m~..    DCD    3212803693
        0x000159b8:    bd7b2b74    t+{.    DCD    3178965876
        0x000159bc:    bf7f84ab    ....    DCD    3212805291
        0x000159c0:    bd74e5e9    ..t.    DCD    3178554857
        0x000159c4:    bf7f8ac2    ....    DCD    3212806850
        0x000159c8:    bd6ea038    8.n.    DCD    3178143800
        0x000159cc:    bf7f90b1    ....    DCD    3212808369
        0x000159d0:    bd685a62    bZh.    DCD    3177732706
        0x000159d4:    bf7f9678    x...    DCD    3212809848
        0x000159d8:    bd621468    h.b.    DCD    3177321576
        0x000159dc:    bf7f9c18    ....    DCD    3212811288
        0x000159e0:    bd5bce4c    L.[.    DCD    3176910412
        0x000159e4:    bf7fa191    ....    DCD    3212812689
        0x000159e8:    bd55880e    ..U.    DCD    3176499214
        0x000159ec:    bf7fa6e3    ....    DCD    3212814051
        0x000159f0:    bd4f41af    .AO.    DCD    3176087983
        0x000159f4:    bf7fac0d    ....    DCD    3212815373
        0x000159f8:    bd48fb2f    /.H.    DCD    3175676719
        0x000159fc:    bf7fb10f    ....    DCD    3212816655
        0x00015a00:    bd42b491    ..B.    DCD    3175265425
        0x00015a04:    bf7fb5ea    ....    DCD    3212817898
        0x00015a08:    bd3c6dd5    .m<.    DCD    3174854101
        0x00015a0c:    bf7fba9e    ....    DCD    3212819102
        0x00015a10:    bd3626fc    .&6.    DCD    3174442748
        0x00015a14:    bf7fbf2a    *...    DCD    3212820266
        0x00015a18:    bd2fe007    ../.    DCD    3174031367
        0x00015a1c:    bf7fc38f    ....    DCD    3212821391
        0x00015a20:    bd2998f6    ..).    DCD    3173619958
        0x00015a24:    bf7fc7cc    ....    DCD    3212822476
        0x00015a28:    bd2351cc    .Q#.    DCD    3173208524
        0x00015a2c:    bf7fcbe2    ....    DCD    3212823522
        0x00015a30:    bd1d0a88    ....    DCD    3172797064
        0x00015a34:    bf7fcfd1    ....    DCD    3212824529
        0x00015a38:    bd16c32c    ,...    DCD    3172385580
        0x00015a3c:    bf7fd398    ....    DCD    3212825496
        0x00015a40:    bd107bb8    .{..    DCD    3171974072
        0x00015a44:    bf7fd737    7...    DCD    3212826423
        0x00015a48:    bd0a342f    /4..    DCD    3171562543
        0x00015a4c:    bf7fdaaf    ....    DCD    3212827311
        0x00015a50:    bd03ec90    ....    DCD    3171150992
        0x00015a54:    bf7fde00    ....    DCD    3212828160
        0x00015a58:    bcfb49b9    .I..    DCD    3170585017
        0x00015a5c:    bf7fe129    )...    DCD    3212828969
        0x00015a60:    bceeba2d    -...    DCD    3169761837
        0x00015a64:    bf7fe42b    +...    DCD    3212829739
        0x00015a68:    bce22a7b    {*..    DCD    3168938619
        0x00015a6c:    bf7fe705    ....    DCD    3212830469
        0x00015a70:    bcd59aa6    ....    DCD    3168115366
        0x00015a74:    bf7fe9b8    ....    DCD    3212831160
        0x00015a78:    bcc90ab0    ....    DCD    3167292080
        0x00015a7c:    bf7fec43    C...    DCD    3212831811
        0x00015a80:    bcbc7a9b    .z..    DCD    3166468763
        0x00015a84:    bf7feea7    ....    DCD    3212832423
        0x00015a88:    bcafea69    i...    DCD    3165645417
        0x00015a8c:    bf7ff0e3    ....    DCD    3212832995
        0x00015a90:    bca35a1c    .Z..    DCD    3164822044
        0x00015a94:    bf7ff2f8    ....    DCD    3212833528
        0x00015a98:    bc96c9b6    ....    DCD    3163998646
        0x00015a9c:    bf7ff4e6    ....    DCD    3212834022
        0x00015aa0:    bc8a3938    89..    DCD    3163175224
        0x00015aa4:    bf7ff6ac    ....    DCD    3212834476
        0x00015aa8:    bc7b514b    KQ{.    DCD    3162198347
        0x00015aac:    bf7ff84a    J...    DCD    3212834890
        0x00015ab0:    bc623000    .0b.    DCD    3160551424
        0x00015ab4:    bf7ff9c1    ....    DCD    3212835265
        0x00015ab8:    bc490e90    ..I.    DCD    3158904464
        0x00015abc:    bf7ffb11    ....    DCD    3212835601
        0x00015ac0:    bc2fed02    ../.    DCD    3157257474
        0x00015ac4:    bf7ffc39    9...    DCD    3212835897
        0x00015ac8:    bc16cb59    Y...    DCD    3155610457
        0x00015acc:    bf7ffd39    9...    DCD    3212836153
        0x00015ad0:    bbfb5330    0S..    DCD    3153810224
        0x00015ad4:    bf7ffe13    ....    DCD    3212836371
        0x00015ad8:    bbc90f89    ....    DCD    3150516105
        0x00015adc:    bf7ffec4    ....    DCD    3212836548
        0x00015ae0:    bb96cbc1    ....    DCD    3147221953
        0x00015ae4:    bf7fff4e    N...    DCD    3212836686
        0x00015ae8:    bb490fc7    ..I.    DCD    3142127559
        0x00015aec:    bf7fffb1    ....    DCD    3212836785
        0x00015af0:    bac90fd4    ....    DCD    3133738964
        0x00015af4:    bf7fffec    ....    DCD    3212836844
        0x00015af8:    80000000    ....    DCD    2147483648
        0x00015afc:    bf800000    ....    DCD    3212836864
        0x00015b00:    3ac90fd4    ...:    DCD    986255316
        0x00015b04:    bf7fffec    ....    DCD    3212836844
        0x00015b08:    3b490fc7    ..I;    DCD    994643911
        0x00015b0c:    bf7fffb1    ....    DCD    3212836785
        0x00015b10:    3b96cbc1    ...;    DCD    999738305
        0x00015b14:    bf7fff4e    N...    DCD    3212836686
        0x00015b18:    3bc90f89    ...;    DCD    1003032457
        0x00015b1c:    bf7ffec4    ....    DCD    3212836548
        0x00015b20:    3bfb5330    0S.;    DCD    1006326576
        0x00015b24:    bf7ffe13    ....    DCD    3212836371
        0x00015b28:    3c16cb59    Y..<    DCD    1008126809
        0x00015b2c:    bf7ffd39    9...    DCD    3212836153
        0x00015b30:    3c2fed02    ../<    DCD    1009773826
        0x00015b34:    bf7ffc39    9...    DCD    3212835897
        0x00015b38:    3c490e90    ..I<    DCD    1011420816
        0x00015b3c:    bf7ffb11    ....    DCD    3212835601
        0x00015b40:    3c623000    .0b<    DCD    1013067776
        0x00015b44:    bf7ff9c1    ....    DCD    3212835265
        0x00015b48:    3c7b514b    KQ{<    DCD    1014714699
        0x00015b4c:    bf7ff84a    J...    DCD    3212834890
        0x00015b50:    3c8a3938    89.<    DCD    1015691576
        0x00015b54:    bf7ff6ac    ....    DCD    3212834476
        0x00015b58:    3c96c9b6    ...<    DCD    1016514998
        0x00015b5c:    bf7ff4e6    ....    DCD    3212834022
        0x00015b60:    3ca35a1c    .Z.<    DCD    1017338396
        0x00015b64:    bf7ff2f8    ....    DCD    3212833528
        0x00015b68:    3cafea69    i..<    DCD    1018161769
        0x00015b6c:    bf7ff0e3    ....    DCD    3212832995
        0x00015b70:    3cbc7a9b    .z.<    DCD    1018985115
        0x00015b74:    bf7feea7    ....    DCD    3212832423
        0x00015b78:    3cc90ab0    ...<    DCD    1019808432
        0x00015b7c:    bf7fec43    C...    DCD    3212831811
        0x00015b80:    3cd59aa6    ...<    DCD    1020631718
        0x00015b84:    bf7fe9b8    ....    DCD    3212831160
        0x00015b88:    3ce22a7b    {*.<    DCD    1021454971
        0x00015b8c:    bf7fe705    ....    DCD    3212830469
        0x00015b90:    3ceeba2d    -..<    DCD    1022278189
        0x00015b94:    bf7fe42b    +...    DCD    3212829739
        0x00015b98:    3cfb49b9    .I.<    DCD    1023101369
        0x00015b9c:    bf7fe129    )...    DCD    3212828969
        0x00015ba0:    3d03ec90    ...=    DCD    1023667344
        0x00015ba4:    bf7fde00    ....    DCD    3212828160
        0x00015ba8:    3d0a342f    /4.=    DCD    1024078895
        0x00015bac:    bf7fdaaf    ....    DCD    3212827311
        0x00015bb0:    3d107bb8    .{.=    DCD    1024490424
        0x00015bb4:    bf7fd737    7...    DCD    3212826423
        0x00015bb8:    3d16c32c    ,..=    DCD    1024901932
        0x00015bbc:    bf7fd398    ....    DCD    3212825496
        0x00015bc0:    3d1d0a88    ...=    DCD    1025313416
        0x00015bc4:    bf7fcfd1    ....    DCD    3212824529
        0x00015bc8:    3d2351cc    .Q#=    DCD    1025724876
        0x00015bcc:    bf7fcbe2    ....    DCD    3212823522
        0x00015bd0:    3d2998f6    ..)=    DCD    1026136310
        0x00015bd4:    bf7fc7cc    ....    DCD    3212822476
        0x00015bd8:    3d2fe007    ../=    DCD    1026547719
        0x00015bdc:    bf7fc38f    ....    DCD    3212821391
        0x00015be0:    3d3626fc    .&6=    DCD    1026959100
        0x00015be4:    bf7fbf2a    *...    DCD    3212820266
        0x00015be8:    3d3c6dd5    .m<=    DCD    1027370453
        0x00015bec:    bf7fba9e    ....    DCD    3212819102
        0x00015bf0:    3d42b491    ..B=    DCD    1027781777
        0x00015bf4:    bf7fb5ea    ....    DCD    3212817898
        0x00015bf8:    3d48fb2f    /.H=    DCD    1028193071
        0x00015bfc:    bf7fb10f    ....    DCD    3212816655
        0x00015c00:    3d4f41af    .AO=    DCD    1028604335
        0x00015c04:    bf7fac0d    ....    DCD    3212815373
        0x00015c08:    3d55880e    ..U=    DCD    1029015566
        0x00015c0c:    bf7fa6e3    ....    DCD    3212814051
        0x00015c10:    3d5bce4c    L.[=    DCD    1029426764
        0x00015c14:    bf7fa191    ....    DCD    3212812689
        0x00015c18:    3d621468    h.b=    DCD    1029837928
        0x00015c1c:    bf7f9c18    ....    DCD    3212811288
        0x00015c20:    3d685a62    bZh=    DCD    1030249058
        0x00015c24:    bf7f9678    x...    DCD    3212809848
        0x00015c28:    3d6ea038    8.n=    DCD    1030660152
        0x00015c2c:    bf7f90b1    ....    DCD    3212808369
        0x00015c30:    3d74e5e9    ..t=    DCD    1031071209
        0x00015c34:    bf7f8ac2    ....    DCD    3212806850
        0x00015c38:    3d7b2b74    t+{=    DCD    1031482228
        0x00015c3c:    bf7f84ab    ....    DCD    3212805291
        0x00015c40:    3d80b86c    l..=    DCD    1031845996
        0x00015c44:    bf7f7e6d    m~..    DCD    3212803693
        0x00015c48:    3d83db0a    ...=    DCD    1032051466
        0x00015c4c:    bf7f7808    .x..    DCD    3212802056
        0x00015c50:    3d86fd94    ...=    DCD    1032256916
        0x00015c54:    bf7f717b    {q..    DCD    3212800379
        0x00015c58:    3d8a200a    . .=    DCD    1032462346
        0x00015c5c:    bf7f6ac7    .j..    DCD    3212798663
        0x00015c60:    3d8d426a    jB.=    DCD    1032667754
        0x00015c64:    bf7f63ec    .c..    DCD    3212796908
        0x00015c68:    3d9064b4    .d.=    DCD    1032873140
        0x00015c6c:    bf7f5ce9    .\..    DCD    3212795113
        0x00015c70:    3d9386e7    ...=    DCD    1033078503
        0x00015c74:    bf7f55bf    .U..    DCD    3212793279
        0x00015c78:    3d96a905    ...=    DCD    1033283845
        0x00015c7c:    bf7f4e6d    mN..    DCD    3212791405
        0x00015c80:    3d99cb0a    ...=    DCD    1033489162
        0x00015c84:    bf7f46f4    .F..    DCD    3212789492
        0x00015c88:    3d9cecf9    ...=    DCD    1033694457
        0x00015c8c:    bf7f3f54    T?..    DCD    3212787540
        0x00015c90:    3da00ecf    ...=    DCD    1033899727
        0x00015c94:    bf7f378d    .7..    DCD    3212785549
        0x00015c98:    3da3308c    .0.=    DCD    1034104972
        0x00015c9c:    bf7f2f9d    ./..    DCD    3212783517
        0x00015ca0:    3da65230    0R.=    DCD    1034310192
        0x00015ca4:    bf7f2787    .'..    DCD    3212781447
        0x00015ca8:    3da973ba    .s.=    DCD    1034515386
        0x00015cac:    bf7f1f49    I...    DCD    3212779337
        0x00015cb0:    3dac952b    +..=    DCD    1034720555
        0x00015cb4:    bf7f16e4    ....    DCD    3212777188
        0x00015cb8:    3dafb680    ...=    DCD    1034925696
        0x00015cbc:    bf7f0e58    X...    DCD    3212775000
        0x00015cc0:    3db2d7bb    ...=    DCD    1035130811
        0x00015cc4:    bf7f05a4    ....    DCD    3212772772
        0x00015cc8:    3db5f8da    ...=    DCD    1035335898
        0x00015ccc:    bf7efcc9    ..~.    DCD    3212770505
        0x00015cd0:    3db919dd    ...=    DCD    1035540957
        0x00015cd4:    bf7ef3c7    ..~.    DCD    3212768199
        0x00015cd8:    3dbc3ac3    .:.=    DCD    1035745987
        0x00015cdc:    bf7eea9d    ..~.    DCD    3212765853
        0x00015ce0:    3dbf5b8d    .[.=    DCD    1035950989
        0x00015ce4:    bf7ee14c    L.~.    DCD    3212763468
        0x00015ce8:    3dc27c39    9|.=    DCD    1036155961
        0x00015cec:    bf7ed7d4    ..~.    DCD    3212761044
        0x00015cf0:    3dc59cc6    ...=    DCD    1036360902
        0x00015cf4:    bf7ece34    4.~.    DCD    3212758580
        0x00015cf8:    3dc8bd36    6..=    DCD    1036565814
        0x00015cfc:    bf7ec46d    m.~.    DCD    3212756077
        0x00015d00:    3dcbdd86    ...=    DCD    1036770694
        0x00015d04:    bf7eba7f    ..~.    DCD    3212753535
        0x00015d08:    3dcefdb7    ...=    DCD    1036975543
        0x00015d0c:    bf7eb069    i.~.    DCD    3212750953
        0x00015d10:    3dd21dc8    ...=    DCD    1037180360
        0x00015d14:    bf7ea62d    -.~.    DCD    3212748333
        0x00015d18:    3dd53db9    .=.=    DCD    1037385145
        0x00015d1c:    bf7e9bc9    ..~.    DCD    3212745673
        0x00015d20:    3dd85d89    .].=    DCD    1037589897
        0x00015d24:    bf7e913d    =.~.    DCD    3212742973
        0x00015d28:    3ddb7d37    7}.=    DCD    1037794615
        0x00015d2c:    bf7e868b    ..~.    DCD    3212740235
        0x00015d30:    3dde9cc4    ...=    DCD    1037999300
        0x00015d34:    bf7e7bb1    .{~.    DCD    3212737457
        0x00015d38:    3de1bc2e    ...=    DCD    1038203950
        0x00015d3c:    bf7e70b0    .p~.    DCD    3212734640
        0x00015d40:    3de4db76    v..=    DCD    1038408566
        0x00015d44:    bf7e6588    .e~.    DCD    3212731784
        0x00015d48:    3de7fa9a    ...=    DCD    1038613146
        0x00015d4c:    bf7e5a38    8Z~.    DCD    3212728888
        0x00015d50:    3deb199a    ...=    DCD    1038817690
        0x00015d54:    bf7e4ec1    .N~.    DCD    3212725953
        0x00015d58:    3dee3876    v8.=    DCD    1039022198
        0x00015d5c:    bf7e4323    #C~.    DCD    3212722979
        0x00015d60:    3df1572e    .W.=    DCD    1039226670
        0x00015d64:    bf7e375e    ^7~.    DCD    3212719966
        0x00015d68:    3df475c0    .u.=    DCD    1039431104
        0x00015d6c:    bf7e2b72    r+~.    DCD    3212716914
        0x00015d70:    3df7942c    ,..=    DCD    1039635500
        0x00015d74:    bf7e1f5e    ^.~.    DCD    3212713822
        0x00015d78:    3dfab273    s..=    DCD    1039839859
        0x00015d7c:    bf7e1324    $.~.    DCD    3212710692
        0x00015d80:    3dfdd092    ...=    DCD    1040044178
        0x00015d84:    bf7e06c2    ..~.    DCD    3212707522
        0x00015d88:    3e007745    Ew.>    DCD    1040217925
        0x00015d8c:    bf7dfa38    8.}.    DCD    3212704312
        0x00015d90:    3e02062e    ...>    DCD    1040320046
        0x00015d94:    bf7ded88    ..}.    DCD    3212701064
        0x00015d98:    3e039502    ...>    DCD    1040422146
        0x00015d9c:    bf7de0b1    ..}.    DCD    3212697777
        0x00015da0:    3e0523c2    .#.>    DCD    1040524226
        0x00015da4:    bf7dd3b2    ..}.    DCD    3212694450
        0x00015da8:    3e06b26e    n..>    DCD    1040626286
        0x00015dac:    bf7dc68c    ..}.    DCD    3212691084
        0x00015db0:    3e084105    .A.>    DCD    1040728325
        0x00015db4:    bf7db940    @.}.    DCD    3212687680
        0x00015db8:    3e09cf86    ...>    DCD    1040830342
        0x00015dbc:    bf7dabcc    ..}.    DCD    3212684236
        0x00015dc0:    3e0b5df3    .].>    DCD    1040932339
        0x00015dc4:    bf7d9e30    0.}.    DCD    3212680752
        0x00015dc8:    3e0cec4a    J..>    DCD    1041034314
        0x00015dcc:    bf7d906e    n.}.    DCD    3212677230
        0x00015dd0:    3e0e7a8b    .z.>    DCD    1041136267
        0x00015dd4:    bf7d8285    ..}.    DCD    3212673669
        0x00015dd8:    3e1008b7    ...>    DCD    1041238199
        0x00015ddc:    bf7d7474    tt}.    DCD    3212670068
        0x00015de0:    3e1196cc    ...>    DCD    1041340108
        0x00015de4:    bf7d663d    =f}.    DCD    3212666429
        0x00015de8:    3e1324ca    .$.>    DCD    1041441994
        0x00015dec:    bf7d57de    .W}.    DCD    3212662750
        0x00015df0:    3e14b2b2    ...>    DCD    1041543858
        0x00015df4:    bf7d4959    YI}.    DCD    3212659033
        0x00015df8:    3e164083    .@.>    DCD    1041645699
        0x00015dfc:    bf7d3aac    .:}.    DCD    3212655276
        0x00015e00:    3e17ce3d    =..>    DCD    1041747517
        0x00015e04:    bf7d2bd8    .+}.    DCD    3212651480
        0x00015e08:    3e195be0    .[.>    DCD    1041849312
        0x00015e0c:    bf7d1cdd    ..}.    DCD    3212647645
        0x00015e10:    3e1ae96b    k..>    DCD    1041951083
        0x00015e14:    bf7d0dbc    ..}.    DCD    3212643772
        0x00015e18:    3e1c76de    .v.>    DCD    1042052830
        0x00015e1c:    bf7cfe73    s.|.    DCD    3212639859
        0x00015e20:    3e1e0438    8..>    DCD    1042154552
        0x00015e24:    bf7cef03    ..|.    DCD    3212635907
        0x00015e28:    3e1f917b    {..>    DCD    1042256251
        0x00015e2c:    bf7cdf6c    l.|.    DCD    3212631916
        0x00015e30:    3e211ea5    ..!>    DCD    1042357925
        0x00015e34:    bf7ccfae    ..|.    DCD    3212627886
        0x00015e38:    3e22abb6    ..">    DCD    1042459574
        0x00015e3c:    bf7cbfc9    ..|.    DCD    3212623817
        0x00015e40:    3e2438ad    .8$>    DCD    1042561197
        0x00015e44:    bf7cafbd    ..|.    DCD    3212619709
        0x00015e48:    3e25c58c    ..%>    DCD    1042662796
        0x00015e4c:    bf7c9f8a    ..|.    DCD    3212615562
        0x00015e50:    3e275251    QR'>    DCD    1042764369
        0x00015e54:    bf7c8f31    1.|.    DCD    3212611377
        0x00015e58:    3e28defc    ..(>    DCD    1042865916
        0x00015e5c:    bf7c7eb0    .~|.    DCD    3212607152
        0x00015e60:    3e2a6b8d    .k*>    DCD    1042967437
        0x00015e64:    bf7c6e08    .n|.    DCD    3212602888
        0x00015e68:    3e2bf804    ..+>    DCD    1043068932
        0x00015e6c:    bf7c5d3a    :]|.    DCD    3212598586
        0x00015e70:    3e2d8461    a.->    DCD    1043170401
        0x00015e74:    bf7c4c44    DL|.    DCD    3212594244
        0x00015e78:    3e2f10a2    ../>    DCD    1043271842
        0x00015e7c:    bf7c3b28    (;|.    DCD    3212589864
        0x00015e80:    3e309cc9    ..0>    DCD    1043373257
        0x00015e84:    bf7c29e5    .)|.    DCD    3212585445
        0x00015e88:    3e3228d4    .(2>    DCD    1043474644
        0x00015e8c:    bf7c187a    z.|.    DCD    3212580986
        0x00015e90:    3e33b4c4    ..3>    DCD    1043576004
        0x00015e94:    bf7c06e9    ..|.    DCD    3212576489
        0x00015e98:    3e354098    .@5>    DCD    1043677336
        0x00015e9c:    bf7bf531    1.{.    DCD    3212571953
        0x00015ea0:    3e36cc50    P.6>    DCD    1043778640
        0x00015ea4:    bf7be353    S.{.    DCD    3212567379
        0x00015ea8:    3e3857ec    .W8>    DCD    1043879916
        0x00015eac:    bf7bd14d    M.{.    DCD    3212562765
        0x00015eb0:    3e39e36c    l.9>    DCD    1043981164
        0x00015eb4:    bf7bbf20     .{.    DCD    3212558112
        0x00015eb8:    3e3b6ecf    .n;>    DCD    1044082383
        0x00015ebc:    bf7baccd    ..{.    DCD    3212553421
        0x00015ec0:    3e3cfa15    ..<>    DCD    1044183573
        0x00015ec4:    bf7b9a53    S.{.    DCD    3212548691
        0x00015ec8:    3e3e853e    >.>>    DCD    1044284734
        0x00015ecc:    bf7b87b2    ..{.    DCD    3212543922
        0x00015ed0:    3e401049    I.@>    DCD    1044385865
        0x00015ed4:    bf7b74ea    .t{.    DCD    3212539114
        0x00015ed8:    3e419b37    7.A>    DCD    1044486967
        0x00015edc:    bf7b61fc    .a{.    DCD    3212534268
        0x00015ee0:    3e432607    .&C>    DCD    1044588039
        0x00015ee4:    bf7b4ee7    .N{.    DCD    3212529383
        0x00015ee8:    3e44b0b9    ..D>    DCD    1044689081
        0x00015eec:    bf7b3bab    .;{.    DCD    3212524459
        0x00015ef0:    3e463b4d    M;F>    DCD    1044790093
        0x00015ef4:    bf7b2848    H({.    DCD    3212519496
        0x00015ef8:    3e47c5c2    ..G>    DCD    1044891074
        0x00015efc:    bf7b14be    ..{.    DCD    3212514494
        0x00015f00:    3e495018    .PI>    DCD    1044992024
        0x00015f04:    bf7b010e    ..{.    DCD    3212509454
        0x00015f08:    3e4ada4f    O.J>    DCD    1045092943
        0x00015f0c:    bf7aed37    7.z.    DCD    3212504375
        0x00015f10:    3e4c6467    gdL>    DCD    1045193831
        0x00015f14:    bf7ad93a    :.z.    DCD    3212499258
        0x00015f18:    3e4dee60    `.M>    DCD    1045294688
        0x00015f1c:    bf7ac516    ..z.    DCD    3212494102
        0x00015f20:    3e4f7838    8xO>    DCD    1045395512
        0x00015f24:    bf7ab0cb    ..z.    DCD    3212488907
        0x00015f28:    3e5101f1    ..Q>    DCD    1045496305
        0x00015f2c:    bf7a9c59    Y.z.    DCD    3212483673
        0x00015f30:    3e528b89    ..R>    DCD    1045597065
        0x00015f34:    bf7a87c1    ..z.    DCD    3212478401
        0x00015f38:    3e541501    ..T>    DCD    1045697793
        0x00015f3c:    bf7a7302    .sz.    DCD    3212473090
        0x00015f40:    3e559e58    X.U>    DCD    1045798488
        0x00015f44:    bf7a5e1c    .^z.    DCD    3212467740
        0x00015f48:    3e57278f    .'W>    DCD    1045899151
        0x00015f4c:    bf7a4910    .Iz.    DCD    3212462352
        0x00015f50:    3e58b0a4    ..X>    DCD    1045999780
        0x00015f54:    bf7a33dd    .3z.    DCD    3212456925
        0x00015f58:    3e5a3997    .9Z>    DCD    1046100375
        0x00015f5c:    bf7a1e84    ..z.    DCD    3212451460
        0x00015f60:    3e5bc26a    j.[>    DCD    1046200938
        0x00015f64:    bf7a0904    ..z.    DCD    3212445956
        0x00015f68:    3e5d4b1a    .K]>    DCD    1046301466
        0x00015f6c:    bf79f35e    ^.y.    DCD    3212440414
        0x00015f70:    3e5ed3a8    ..^>    DCD    1046401960
        0x00015f74:    bf79dd91    ..y.    DCD    3212434833
        0x00015f78:    3e605c13    .\`>    DCD    1046502419
        0x00015f7c:    bf79c79d    ..y.    DCD    3212429213
        0x00015f80:    3e61e45c    \.a>    DCD    1046602844
        0x00015f84:    bf79b183    ..y.    DCD    3212423555
        0x00015f88:    3e636c83    .lc>    DCD    1046703235
        0x00015f8c:    bf799b43    C.y.    DCD    3212417859
        0x00015f90:    3e64f486    ..d>    DCD    1046803590
        0x00015f94:    bf7984dc    ..y.    DCD    3212412124
        0x00015f98:    3e667c66    f|f>    DCD    1046903910
        0x00015f9c:    bf796e4e    Nny.    DCD    3212406350
        0x00015fa0:    3e680422    ".h>    DCD    1047004194
        0x00015fa4:    bf79579a    .Wy.    DCD    3212400538
        0x00015fa8:    3e698bba    ..i>    DCD    1047104442
        0x00015fac:    bf7940c0    .@y.    DCD    3212394688
        0x00015fb0:    3e6b132f    /.k>    DCD    1047204655
        0x00015fb4:    bf7929bf    .)y.    DCD    3212388799
        0x00015fb8:    3e6c9a7f    ..l>    DCD    1047304831
        0x00015fbc:    bf791298    ..y.    DCD    3212382872
        0x00015fc0:    3e6e21ab    .!n>    DCD    1047404971
        0x00015fc4:    bf78fb4a    J.x.    DCD    3212376906
        0x00015fc8:    3e6fa8b2    ..o>    DCD    1047505074
        0x00015fcc:    bf78e3d6    ..x.    DCD    3212370902
        0x00015fd0:    3e712f94    ./q>    DCD    1047605140
        0x00015fd4:    bf78cc3b    ;.x.    DCD    3212364859
        0x00015fd8:    3e72b651    Q.r>    DCD    1047705169
        0x00015fdc:    bf78b47b    {.x.    DCD    3212358779
        0x00015fe0:    3e743ce8    .<t>    DCD    1047805160
        0x00015fe4:    bf789c93    ..x.    DCD    3212352659
        0x00015fe8:    3e75c35a    Z.u>    DCD    1047905114
        0x00015fec:    bf788486    ..x.    DCD    3212346502
        0x00015ff0:    3e7749a6    .Iw>    DCD    1048005030
        0x00015ff4:    bf786c52    Rlx.    DCD    3212340306
        0x00015ff8:    3e78cfcc    ..x>    DCD    1048104908
        0x00015ffc:    bf7853f8    .Sx.    DCD    3212334072
        0x00016000:    3e7a55cb    .Uz>    DCD    1048204747
        0x00016004:    bf783b77    w;x.    DCD    3212327799
        0x00016008:    3e7bdba4    ..{>    DCD    1048304548
        0x0001600c:    bf7822d1    ."x.    DCD    3212321489
        0x00016010:    3e7d6156    Va}>    DCD    1048404310
        0x00016014:    bf780a04    ..x.    DCD    3212315140
        0x00016018:    3e7ee6e1    ..~>    DCD    1048504033
        0x0001601c:    bf77f110    ..w.    DCD    3212308752
        0x00016020:    3e803622    "6.>    DCD    1048589858
        0x00016024:    bf77d7f7    ..w.    DCD    3212302327
        0x00016028:    3e80f8c0    ...>    DCD    1048639680
        0x0001602c:    bf77beb7    ..w.    DCD    3212295863
        0x00016030:    3e81bb4a    J..>    DCD    1048689482
        0x00016034:    bf77a551    Q.w.    DCD    3212289361
        0x00016038:    3e827dc0    .}.>    DCD    1048739264
        0x0001603c:    bf778bc5    ..w.    DCD    3212282821
        0x00016040:    3e834022    "@.>    DCD    1048789026
        0x00016044:    bf777213    .rw.    DCD    3212276243
        0x00016048:    3e840270    p..>    DCD    1048838768
        0x0001604c:    bf77583a    :Xw.    DCD    3212269626
        0x00016050:    3e84c4aa    ...>    DCD    1048888490
        0x00016054:    bf773e3c    <>w.    DCD    3212262972
        0x00016058:    3e8586ce    ...>    DCD    1048938190
        0x0001605c:    bf772417    .$w.    DCD    3212256279
        0x00016060:    3e8648df    .H.>    DCD    1048987871
        0x00016064:    bf7709cc    ..w.    DCD    3212249548
        0x00016068:    3e870ada    ...>    DCD    1049037530
        0x0001606c:    bf76ef5b    [.v.    DCD    3212242779
        0x00016070:    3e87ccc1    ...>    DCD    1049087169
        0x00016074:    bf76d4c4    ..v.    DCD    3212235972
        0x00016078:    3e888e93    ...>    DCD    1049136787
        0x0001607c:    bf76ba07    ..v.    DCD    3212229127
        0x00016080:    3e895050    PP.>    DCD    1049186384
        0x00016084:    bf769f24    $.v.    DCD    3212222244
        0x00016088:    3e8a11f8    ...>    DCD    1049235960
        0x0001608c:    bf76841b    ..v.    DCD    3212215323
        0x00016090:    3e8ad38a    ...>    DCD    1049285514
        0x00016094:    bf7668ec    .hv.    DCD    3212208364
        0x00016098:    3e8b9507    ...>    DCD    1049335047
        0x0001609c:    bf764d97    .Mv.    DCD    3212201367
        0x000160a0:    3e8c566e    nV.>    DCD    1049384558
        0x000160a4:    bf76321b    .2v.    DCD    3212194331
        0x000160a8:    3e8d17c0    ...>    DCD    1049434048
        0x000160ac:    bf76167a    z.v.    DCD    3212187258
        0x000160b0:    3e8dd8fc    ...>    DCD    1049483516
        0x000160b4:    bf75fab3    ..u.    DCD    3212180147
        0x000160b8:    3e8e9a22    "..>    DCD    1049532962
        0x000160bc:    bf75dec6    ..u.    DCD    3212172998
        0x000160c0:    3e8f5b32    2[.>    DCD    1049582386
        0x000160c4:    bf75c2b3    ..u.    DCD    3212165811
        0x000160c8:    3e901c2c    ,..>    DCD    1049631788
        0x000160cc:    bf75a67b    {.u.    DCD    3212158587
        0x000160d0:    3e90dd10    ...>    DCD    1049681168
        0x000160d4:    bf758a1c    ..u.    DCD    3212151324
        0x000160d8:    3e919ddd    ...>    DCD    1049730525
        0x000160dc:    bf756d97    .mu.    DCD    3212144023
        0x000160e0:    3e925e94    .^.>    DCD    1049779860
        0x000160e4:    bf7550ed    .Pu.    DCD    3212136685
        0x000160e8:    3e931f35    5..>    DCD    1049829173
        0x000160ec:    bf75341d    .4u.    DCD    3212129309
        0x000160f0:    3e93dfbf    ...>    DCD    1049878463
        0x000160f4:    bf751727    '.u.    DCD    3212121895
        0x000160f8:    3e94a031    1..>    DCD    1049927729
        0x000160fc:    bf74fa0b    ..t.    DCD    3212114443
        0x00016100:    3e95608d    .`.>    DCD    1049976973
        0x00016104:    bf74dcc9    ..t.    DCD    3212106953
        0x00016108:    3e9620d2    . .>    DCD    1050026194
        0x0001610c:    bf74bf62    b.t.    DCD    3212099426
        0x00016110:    3e96e100    ...>    DCD    1050075392
        0x00016114:    bf74a1d5    ..t.    DCD    3212091861
        0x00016118:    3e97a117    ...>    DCD    1050124567
        0x0001611c:    bf748422    ".t.    DCD    3212084258
        0x00016120:    3e986116    .a.>    DCD    1050173718
        0x00016124:    bf746649    Ift.    DCD    3212076617
        0x00016128:    3e9920fe    . .>    DCD    1050222846
        0x0001612c:    bf74484b    KHt.    DCD    3212068939
        0x00016130:    3e99e0ce    ...>    DCD    1050271950
        0x00016134:    bf742a27    '*t.    DCD    3212061223
        0x00016138:    3e9aa086    ...>    DCD    1050321030
        0x0001613c:    bf740bdd    ..t.    DCD    3212053469
        0x00016140:    3e9b6027    '`.>    DCD    1050370087
        0x00016144:    bf73ed6e    n.s.    DCD    3212045678
        0x00016148:    3e9c1faf    ...>    DCD    1050419119
        0x0001614c:    bf73ced9    ..s.    DCD    3212037849
        0x00016150:    3e9cdf20     ..>    DCD    1050468128
        0x00016154:    bf73b01f    ..s.    DCD    3212029983
        0x00016158:    3e9d9e78    x..>    DCD    1050517112
        0x0001615c:    bf73913f    ?.s.    DCD    3212022079
        0x00016160:    3e9e5db8    .].>    DCD    1050566072
        0x00016164:    bf737239    9rs.    DCD    3212014137
        0x00016168:    3e9f1cdf    ...>    DCD    1050615007
        0x0001616c:    bf73530e    .Ss.    DCD    3212006158
        0x00016170:    3e9fdbee    ...>    DCD    1050663918
        0x00016174:    bf7333be    .3s.    DCD    3211998142
        0x00016178:    3ea09ae5    ...>    DCD    1050712805
        0x0001617c:    bf731447    G.s.    DCD    3211990087
        0x00016180:    3ea159c2    .Y.>    DCD    1050761666
        0x00016184:    bf72f4ac    ..r.    DCD    3211981996
        0x00016188:    3ea21887    ...>    DCD    1050810503
        0x0001618c:    bf72d4eb    ..r.    DCD    3211973867
        0x00016190:    3ea2d733    3..>    DCD    1050859315
        0x00016194:    bf72b504    ..r.    DCD    3211965700
        0x00016198:    3ea395c5    ...>    DCD    1050908101
        0x0001619c:    bf7294f8    ..r.    DCD    3211957496
        0x000161a0:    3ea4543f    ?T.>    DCD    1050956863
        0x000161a4:    bf7274c7    .tr.    DCD    3211949255
        0x000161a8:    3ea5129f    ...>    DCD    1051005599
        0x000161ac:    bf725470    pTr.    DCD    3211940976
        0x000161b0:    3ea5d0e5    ...>    DCD    1051054309
        0x000161b4:    bf7233f4    .3r.    DCD    3211932660
        0x000161b8:    3ea68f12    ...>    DCD    1051102994
        0x000161bc:    bf721352    R.r.    DCD    3211924306
        0x000161c0:    3ea74d25    %M.>    DCD    1051151653
        0x000161c4:    bf71f28c    ..q.    DCD    3211915916
        0x000161c8:    3ea80b1f    ...>    DCD    1051200287
        0x000161cc:    bf71d19f    ..q.    DCD    3211907487
        0x000161d0:    3ea8c8fe    ...>    DCD    1051248894
        0x000161d4:    bf71b08e    ..q.    DCD    3211899022
        0x000161d8:    3ea986c4    ...>    DCD    1051297476
        0x000161dc:    bf718f57    W.q.    DCD    3211890519
        0x000161e0:    3eaa446f    oD.>    DCD    1051346031
        0x000161e4:    bf716dfb    .mq.    DCD    3211881979
        0x000161e8:    3eab0201    ...>    DCD    1051394561
        0x000161ec:    bf714c7a    zLq.    DCD    3211873402
        0x000161f0:    3eabbf77    w..>    DCD    1051443063
        0x000161f4:    bf712ad4    .*q.    DCD    3211864788
        0x000161f8:    3eac7cd4    .|.>    DCD    1051491540
        0x000161fc:    bf710908    ..q.    DCD    3211856136
        0x00016200:    3ead3a15    .:.>    DCD    1051539989
        0x00016204:    bf70e717    ..p.    DCD    3211847447
        0x00016208:    3eadf73c    <..>    DCD    1051588412
        0x0001620c:    bf70c502    ..p.    DCD    3211838722
        0x00016210:    3eaeb449    I..>    DCD    1051636809
        0x00016214:    bf70a2c6    ..p.    DCD    3211829958
        0x00016218:    3eaf713a    :q.>    DCD    1051685178
        0x0001621c:    bf708066    f.p.    DCD    3211821158
        0x00016220:    3eb02e10    ...>    DCD    1051733520
        0x00016224:    bf705de1    .]p.    DCD    3211812321
        0x00016228:    3eb0eacb    ...>    DCD    1051781835
        0x0001622c:    bf703b37    7;p.    DCD    3211803447
        0x00016230:    3eb1a76b    k..>    DCD    1051830123
        0x00016234:    bf701867    g.p.    DCD    3211794535
        0x00016238:    3eb263ef    .c.>    DCD    1051878383
        0x0001623c:    bf6ff573    s.o.    DCD    3211785587
        0x00016240:    3eb32058    X .>    DCD    1051926616
        0x00016244:    bf6fd25a    Z.o.    DCD    3211776602
        0x00016248:    3eb3dca5    ...>    DCD    1051974821
        0x0001624c:    bf6faf1b    ..o.    DCD    3211767579
        0x00016250:    3eb498d6    ...>    DCD    1052022998
        0x00016254:    bf6f8bb8    ..o.    DCD    3211758520
        0x00016258:    3eb554ec    .T.>    DCD    1052071148
        0x0001625c:    bf6f6830    0ho.    DCD    3211749424
        0x00016260:    3eb610e6    ...>    DCD    1052119270
        0x00016264:    bf6f4483    .Do.    DCD    3211740291
        0x00016268:    3eb6ccc3    ...>    DCD    1052167363
        0x0001626c:    bf6f20b0    . o.    DCD    3211731120
        0x00016270:    3eb78884    ...>    DCD    1052215428
        0x00016274:    bf6efcba    ..n.    DCD    3211721914
        0x00016278:    3eb8442a    *D.>    DCD    1052263466
        0x0001627c:    bf6ed89e    ..n.    DCD    3211712670
        0x00016280:    3eb8ffb2    ...>    DCD    1052311474
        0x00016284:    bf6eb45d    ].n.    DCD    3211703389
        0x00016288:    3eb9bb1e    ...>    DCD    1052359454
        0x0001628c:    bf6e8ff8    ..n.    DCD    3211694072
        0x00016290:    3eba766e    nv.>    DCD    1052407406
        0x00016294:    bf6e6b6d    mkn.    DCD    3211684717
        0x00016298:    3ebb31a0    .1.>    DCD    1052455328
        0x0001629c:    bf6e46be    .Fn.    DCD    3211675326
        0x000162a0:    3ebbecb6    ...>    DCD    1052503222
        0x000162a4:    bf6e21eb    .!n.    DCD    3211665899
        0x000162a8:    3ebca7af    ...>    DCD    1052551087
        0x000162ac:    bf6dfcf2    ..m.    DCD    3211656434
        0x000162b0:    3ebd628b    .b.>    DCD    1052598923
        0x000162b4:    bf6dd7d5    ..m.    DCD    3211646933
        0x000162b8:    3ebe1d4a    J..>    DCD    1052646730
        0x000162bc:    bf6db293    ..m.    DCD    3211637395
        0x000162c0:    3ebed7eb    ...>    DCD    1052694507
        0x000162c4:    bf6d8d2d    -.m.    DCD    3211627821
        0x000162c8:    3ebf926f    o..>    DCD    1052742255
        0x000162cc:    bf6d67a1    .gm.    DCD    3211618209
        0x000162d0:    3ec04cd5    .L.>    DCD    1052789973
        0x000162d4:    bf6d41f2    .Am.    DCD    3211608562
        0x000162d8:    3ec1071e    ...>    DCD    1052837662
        0x000162dc:    bf6d1c1d    ..m.    DCD    3211598877
        0x000162e0:    3ec1c148    H..>    DCD    1052885320
        0x000162e4:    bf6cf624    $.l.    DCD    3211589156
        0x000162e8:    3ec27b55    U{.>    DCD    1052932949
        0x000162ec:    bf6cd007    ..l.    DCD    3211579399
        0x000162f0:    3ec33544    D5.>    DCD    1052980548
        0x000162f4:    bf6ca9c5    ..l.    DCD    3211569605
        0x000162f8:    3ec3ef15    ...>    DCD    1053028117
        0x000162fc:    bf6c835e    ^.l.    DCD    3211559774
        0x00016300:    3ec4a8c8    ...>    DCD    1053075656
        0x00016304:    bf6c5cd4    .\l.    DCD    3211549908
        0x00016308:    3ec5625c    \b.>    DCD    1053123164
        0x0001630c:    bf6c3624    $6l.    DCD    3211540004
        0x00016310:    3ec61bd2    ...>    DCD    1053170642
        0x00016314:    bf6c0f50    P.l.    DCD    3211530064
        0x00016318:    3ec6d529    )..>    DCD    1053218089
        0x0001631c:    bf6be858    X.k.    DCD    3211520088
        0x00016320:    3ec78e62    b..>    DCD    1053265506
        0x00016324:    bf6bc13b    ;.k.    DCD    3211510075
        0x00016328:    3ec8477c    |G.>    DCD    1053312892
        0x0001632c:    bf6b99fb    ..k.    DCD    3211500027
        0x00016330:    3ec90077    w..>    DCD    1053360247
        0x00016334:    bf6b7295    .rk.    DCD    3211489941
        0x00016338:    3ec9b953    S..>    DCD    1053407571
        0x0001633c:    bf6b4b0c    .Kk.    DCD    3211479820
        0x00016340:    3eca7210    .r.>    DCD    1053454864
        0x00016344:    bf6b235e    ^#k.    DCD    3211469662
        0x00016348:    3ecb2aae    .*.>    DCD    1053502126
        0x0001634c:    bf6afb8c    ..j.    DCD    3211459468
        0x00016350:    3ecbe32c    ,..>    DCD    1053549356
        0x00016354:    bf6ad395    ..j.    DCD    3211449237
        0x00016358:    3ecc9b8b    ...>    DCD    1053596555
        0x0001635c:    bf6aab7b    {.j.    DCD    3211438971
        0x00016360:    3ecd53ca    .S.>    DCD    1053643722
        0x00016364:    bf6a833c    <.j.    DCD    3211428668
        0x00016368:    3ece0bea    ...>    DCD    1053690858
        0x0001636c:    bf6a5ad9    .Zj.    DCD    3211418329
        0x00016370:    3ecec3ea    ...>    DCD    1053737962
        0x00016374:    bf6a3252    R2j.    DCD    3211407954
        0x00016378:    3ecf7bca    .{.>    DCD    1053785034
        0x0001637c:    bf6a09a7    ..j.    DCD    3211397543
        0x00016380:    3ed0338a    .3.>    DCD    1053832074
        0x00016384:    bf69e0d7    ..i.    DCD    3211387095
        0x00016388:    3ed0eb2a    *..>    DCD    1053879082
        0x0001638c:    bf69b7e4    ..i.    DCD    3211376612
        0x00016390:    3ed1a2aa    ...>    DCD    1053926058
        0x00016394:    bf698ecc    ..i.    DCD    3211366092
        0x00016398:    3ed25a09    .Z.>    DCD    1053973001
        0x0001639c:    bf696591    .ei.    DCD    3211355537
        0x000163a0:    3ed31148    H..>    DCD    1054019912
        0x000163a4:    bf693c32    2<i.    DCD    3211344946
        0x000163a8:    3ed3c867    g..>    DCD    1054066791
        0x000163ac:    bf6912ae    ..i.    DCD    3211334318
        0x000163b0:    3ed47f64    d..>    DCD    1054113636
        0x000163b4:    bf68e907    ..h.    DCD    3211323655
        0x000163b8:    3ed53641    A6.>    DCD    1054160449
        0x000163bc:    bf68bf3c    <.h.    DCD    3211312956
        0x000163c0:    3ed5ecfd    ...>    DCD    1054207229
        0x000163c4:    bf68954c    L.h.    DCD    3211302220
        0x000163c8:    3ed6a399    ...>    DCD    1054253977
        0x000163cc:    bf686b39    9kh.    DCD    3211291449
        0x000163d0:    3ed75a13    .Z.>    DCD    1054300691
        0x000163d4:    bf684103    .Ah.    DCD    3211280643
        0x000163d8:    3ed8106b    k..>    DCD    1054347371
        0x000163dc:    bf6816a8    ..h.    DCD    3211269800
        0x000163e0:    3ed8c6a3    ...>    DCD    1054394019
        0x000163e4:    bf67ec2a    *.g.    DCD    3211258922
        0x000163e8:    3ed97cb9    .|.>    DCD    1054440633
        0x000163ec:    bf67c187    ..g.    DCD    3211248007
        0x000163f0:    3eda32ad    .2.>    DCD    1054487213
        0x000163f4:    bf6796c1    ..g.    DCD    3211237057
        0x000163f8:    3edae880    ...>    DCD    1054533760
        0x000163fc:    bf676bd8    .kg.    DCD    3211226072
        0x00016400:    3edb9e31    1..>    DCD    1054580273
        0x00016404:    bf6740ca    .@g.    DCD    3211215050
        0x00016408:    3edc53c1    .S.>    DCD    1054626753
        0x0001640c:    bf671599    ..g.    DCD    3211203993
        0x00016410:    3edd092e    ...>    DCD    1054673198
        0x00016414:    bf66ea45    E.f.    DCD    3211192901
        0x00016418:    3eddbe79    y..>    DCD    1054719609
        0x0001641c:    bf66becc    ..f.    DCD    3211181772
        0x00016420:    3ede73a2    .s.>    DCD    1054765986
        0x00016424:    bf669330    0.f.    DCD    3211170608
        0x00016428:    3edf28a9    .(.>    DCD    1054812329
        0x0001642c:    bf666771    qgf.    DCD    3211159409
        0x00016430:    3edfdd8d    ...>    DCD    1054858637
        0x00016434:    bf663b8e    .;f.    DCD    3211148174
        0x00016438:    3ee0924f    O..>    DCD    1054904911
        0x0001643c:    bf660f88    ..f.    DCD    3211136904
        0x00016440:    3ee146ee    .F.>    DCD    1054951150
        0x00016444:    bf65e35e    ^.e.    DCD    3211125598
        0x00016448:    3ee1fb6a    j..>    DCD    1054997354
        0x0001644c:    bf65b710    ..e.    DCD    3211114256
        0x00016450:    3ee2afc4    ...>    DCD    1055043524
        0x00016454:    bf658aa0    ..e.    DCD    3211102880
        0x00016458:    3ee363fa    .c.>    DCD    1055089658
        0x0001645c:    bf655e0b    .^e.    DCD    3211091467
        0x00016460:    3ee4180e    ...>    DCD    1055135758
        0x00016464:    bf653154    T1e.    DCD    3211080020
        0x00016468:    3ee4cbfe    ...>    DCD    1055181822
        0x0001646c:    bf650479    y.e.    DCD    3211068537
        0x00016470:    3ee57fcb    ...>    DCD    1055227851
        0x00016474:    bf64d77b    {.d.    DCD    3211057019
        0x00016478:    3ee63375    u3.>    DCD    1055273845
        0x0001647c:    bf64aa59    Y.d.    DCD    3211045465
        0x00016480:    3ee6e6fb    ...>    DCD    1055319803
        0x00016484:    bf647d14    .}d.    DCD    3211033876
        0x00016488:    3ee79a5d    ]..>    DCD    1055365725
        0x0001648c:    bf644fac    .Od.    DCD    3211022252
        0x00016490:    3ee84d9c    .M.>    DCD    1055411612
        0x00016494:    bf642221    !"d.    DCD    3211010593
        0x00016498:    3ee900b7    ...>    DCD    1055457463
        0x0001649c:    bf63f473    s.c.    DCD    3210998899
        0x000164a0:    3ee9b3ae    ...>    DCD    1055503278
        0x000164a4:    bf63c6a1    ..c.    DCD    3210987169
        0x000164a8:    3eea6681    .f.>    DCD    1055549057
        0x000164ac:    bf6398ac    ..c.    DCD    3210975404
        0x000164b0:    3eeb1930    0..>    DCD    1055594800
        0x000164b4:    bf636a95    .jc.    DCD    3210963605
        0x000164b8:    3eebcbbb    ...>    DCD    1055640507
        0x000164bc:    bf633c5a    Z<c.    DCD    3210951770
        0x000164c0:    3eec7e21    !~.>    DCD    1055686177
        0x000164c4:    bf630dfc    ..c.    DCD    3210939900
        0x000164c8:    3eed3063    c0.>    DCD    1055731811
        0x000164cc:    bf62df7b    {.b.    DCD    3210927995
        0x000164d0:    3eede280    ...>    DCD    1055777408
        0x000164d4:    bf62b0d7    ..b.    DCD    3210916055
        0x000164d8:    3eee9479    y..>    DCD    1055822969
        0x000164dc:    bf628210    ..b.    DCD    3210904080
        0x000164e0:    3eef464c    LF.>    DCD    1055868492
        0x000164e4:    bf625326    &Sb.    DCD    3210892070
        0x000164e8:    3eeff7fb    ...>    DCD    1055913979
        0x000164ec:    bf62241a    .$b.    DCD    3210880026
        0x000164f0:    3ef0a985    ...>    DCD    1055959429
        0x000164f4:    bf61f4ea    ..a.    DCD    3210867946
        0x000164f8:    3ef15aea    .Z.>    DCD    1056004842
        0x000164fc:    bf61c598    ..a.    DCD    3210855832
        0x00016500:    3ef20c29    )..>    DCD    1056050217
        0x00016504:    bf619622    ".a.    DCD    3210843682
        0x00016508:    3ef2bd43    C..>    DCD    1056095555
        0x0001650c:    bf61668a    .fa.    DCD    3210831498
        0x00016510:    3ef36e38    8n.>    DCD    1056140856
        0x00016514:    bf6136d0    .6a.    DCD    3210819280
        0x00016518:    3ef41f07    ...>    DCD    1056186119
        0x0001651c:    bf6106f2    ..a.    DCD    3210807026
        0x00016520:    3ef4cfb1    ...>    DCD    1056231345
        0x00016524:    bf60d6f2    ..`.    DCD    3210794738
        0x00016528:    3ef58035    5..>    DCD    1056276533
        0x0001652c:    bf60a6cf    ..`.    DCD    3210782415
        0x00016530:    3ef63093    .0.>    DCD    1056321683
        0x00016534:    bf607689    .v`.    DCD    3210770057
        0x00016538:    3ef6e0cb    ...>    DCD    1056366795
        0x0001653c:    bf604621    !F`.    DCD    3210757665
        0x00016540:    3ef790dc    ...>    DCD    1056411868
        0x00016544:    bf601596    ..`.    DCD    3210745238
        0x00016548:    3ef840c8    .@.>    DCD    1056456904
        0x0001654c:    bf5fe4e9    .._.    DCD    3210732777
        0x00016550:    3ef8f08e    ...>    DCD    1056501902
        0x00016554:    bf5fb419    .._.    DCD    3210720281
        0x00016558:    3ef9a02d    -..>    DCD    1056546861
        0x0001655c:    bf5f8327    '._.    DCD    3210707751
        0x00016560:    3efa4fa5    .O.>    DCD    1056591781
        0x00016564:    bf5f5212    .R_.    DCD    3210695186
        0x00016568:    3efafef7    ...>    DCD    1056636663
        0x0001656c:    bf5f20db    . _.    DCD    3210682587
        0x00016570:    3efbae22    "..>    DCD    1056681506
        0x00016574:    bf5eef81    ..^.    DCD    3210669953
        0x00016578:    3efc5d27    '].>    DCD    1056726311
        0x0001657c:    bf5ebe05    ..^.    DCD    3210657285
        0x00016580:    3efd0c04    ...>    DCD    1056771076
        0x00016584:    bf5e8c67    g.^.    DCD    3210644583
        0x00016588:    3efdbabb    ...>    DCD    1056815803
        0x0001658c:    bf5e5aa6    .Z^.    DCD    3210631846
        0x00016590:    3efe694a    Ji.>    DCD    1056860490
        0x00016594:    bf5e28c3    .(^.    DCD    3210619075
        0x00016598:    3eff17b2    ...>    DCD    1056905138
        0x0001659c:    bf5df6be    ..].    DCD    3210606270
        0x000165a0:    3effc5f3    ...>    DCD    1056949747
        0x000165a4:    bf5dc497    ..].    DCD    3210593431
        0x000165a8:    3f003a06    .:.?    DCD    1056979462
        0x000165ac:    bf5d924d    M.].    DCD    3210580557
        0x000165b0:    3f0090ff    ...?    DCD    1057001727
        0x000165b4:    bf5d5fe1    ._].    DCD    3210567649
        0x000165b8:    3f00e7e4    ...?    DCD    1057023972
        0x000165bc:    bf5d2d53    S-].    DCD    3210554707
        0x000165c0:    3f013eb5    .>.?    DCD    1057046197
        0x000165c4:    bf5cfaa3    ..\.    DCD    3210541731
        0x000165c8:    3f019573    s..?    DCD    1057068403
        0x000165cc:    bf5cc7d1    ..\.    DCD    3210528721
        0x000165d0:    3f01ec1c    ...?    DCD    1057090588
        0x000165d4:    bf5c94dd    ..\.    DCD    3210515677
        0x000165d8:    3f0242b1    .B.?    DCD    1057112753
        0x000165dc:    bf5c61c7    .a\.    DCD    3210502599
        0x000165e0:    3f029932    2..?    DCD    1057134898
        0x000165e4:    bf5c2e8e    ..\.    DCD    3210489486
        0x000165e8:    3f02ef9f    ...?    DCD    1057157023
        0x000165ec:    bf5bfb34    4.[.    DCD    3210476340
        0x000165f0:    3f0345f8    .E.?    DCD    1057179128
        0x000165f4:    bf5bc7b8    ..[.    DCD    3210463160
        0x000165f8:    3f039c3d    =..?    DCD    1057201213
        0x000165fc:    bf5b941a    ..[.    DCD    3210449946
        0x00016600:    3f03f26d    m..?    DCD    1057223277
        0x00016604:    bf5b605a    Z`[.    DCD    3210436698
        0x00016608:    3f044889    .H.?    DCD    1057245321
        0x0001660c:    bf5b2c79    y,[.    DCD    3210423417
        0x00016610:    3f049e91    ...?    DCD    1057267345
        0x00016614:    bf5af875    u.Z.    DCD    3210410101
        0x00016618:    3f04f484    ...?    DCD    1057289348
        0x0001661c:    bf5ac450    P.Z.    DCD    3210396752
        0x00016620:    3f054a62    bJ.?    DCD    1057311330
        0x00016624:    bf5a9009    ..Z.    DCD    3210383369
        0x00016628:    3f05a02c    ,..?    DCD    1057333292
        0x0001662c:    bf5a5ba0    .[Z.    DCD    3210369952
        0x00016630:    3f05f5e2    ...?    DCD    1057355234
        0x00016634:    bf5a2716    .'Z.    DCD    3210356502
        0x00016638:    3f064b82    .K.?    DCD    1057377154
        0x0001663c:    bf59f26a    j.Y.    DCD    3210343018
        0x00016640:    3f06a10e    ...?    DCD    1057399054
        0x00016644:    bf59bd9c    ..Y.    DCD    3210329500
        0x00016648:    3f06f686    ...?    DCD    1057420934
        0x0001664c:    bf5988ad    ..Y.    DCD    3210315949
        0x00016650:    3f074be8    .K.?    DCD    1057442792
        0x00016654:    bf59539c    .SY.    DCD    3210302364
        0x00016658:    3f07a136    6..?    DCD    1057464630
        0x0001665c:    bf591e6a    j.Y.    DCD    3210288746
        0x00016660:    3f07f66f    o..?    DCD    1057486447
        0x00016664:    bf58e917    ..X.    DCD    3210275095
        0x00016668:    3f084b92    .K.?    DCD    1057508242
        0x0001666c:    bf58b3a1    ..X.    DCD    3210261409
        0x00016670:    3f08a0a1    ...?    DCD    1057530017
        0x00016674:    bf587e0b    .~X.    DCD    3210247691
        0x00016678:    3f08f59b    ...?    DCD    1057551771
        0x0001667c:    bf584853    SHX.    DCD    3210233939
        0x00016680:    3f094a7f    .J.?    DCD    1057573503
        0x00016684:    bf581279    y.X.    DCD    3210220153
        0x00016688:    3f099f4e    N..?    DCD    1057595214
        0x0001668c:    bf57dc7f    ..W.    DCD    3210206335
        0x00016690:    3f09f409    ...?    DCD    1057616905
        0x00016694:    bf57a663    c.W.    DCD    3210192483
        0x00016698:    3f0a48ad    .H.?    DCD    1057638573
        0x0001669c:    bf577026    &pW.    DCD    3210178598
        0x000166a0:    3f0a9d3d    =..?    DCD    1057660221
        0x000166a4:    bf5739c7    .9W.    DCD    3210164679
        0x000166a8:    3f0af1b7    ...?    DCD    1057681847
        0x000166ac:    bf570348    H.W.    DCD    3210150728
        0x000166b0:    3f0b461c    .F.?    DCD    1057703452
        0x000166b4:    bf56cca7    ..V.    DCD    3210136743
        0x000166b8:    3f0b9a6b    k..?    DCD    1057725035
        0x000166bc:    bf5695e5    ..V.    DCD    3210122725
        0x000166c0:    3f0beea5    ...?    DCD    1057746597
        0x000166c4:    bf565f02    ._V.    DCD    3210108674
        0x000166c8:    3f0c42c9    .B.?    DCD    1057768137
        0x000166cc:    bf5627fe    .'V.    DCD    3210094590
        0x000166d0:    3f0c96d7    ...?    DCD    1057789655
        0x000166d4:    bf55f0d9    ..U.    DCD    3210080473
        0x000166d8:    3f0cead0    ...?    DCD    1057811152
        0x000166dc:    bf55b993    ..U.    DCD    3210066323
        0x000166e0:    3f0d3eb3    .>.?    DCD    1057832627
        0x000166e4:    bf55822c    ,.U.    DCD    3210052140
        0x000166e8:    3f0d9281    ...?    DCD    1057854081
        0x000166ec:    bf554aa4    .JU.    DCD    3210037924
        0x000166f0:    3f0de638    8..?    DCD    1057875512
        0x000166f4:    bf5512fb    ..U.    DCD    3210023675
        0x000166f8:    3f0e39da    .9.?    DCD    1057896922
        0x000166fc:    bf54db31    1.T.    DCD    3210009393
        0x00016700:    3f0e8d65    e..?    DCD    1057918309
        0x00016704:    bf54a347    G.T.    DCD    3209995079
        0x00016708:    3f0ee0db    ...?    DCD    1057939675
        0x0001670c:    bf546b3b    ;kT.    DCD    3209980731
        0x00016710:    3f0f343b    ;4.?    DCD    1057961019
        0x00016714:    bf54330f    .3T.    DCD    3209966351
        0x00016718:    3f0f8784    ...?    DCD    1057982340
        0x0001671c:    bf53fac3    ..S.    DCD    3209951939
        0x00016720:    3f0fdab8    ...?    DCD    1058003640
        0x00016724:    bf53c255    U.S.    DCD    3209937493
        0x00016728:    3f102dd5    .-.?    DCD    1058024917
        0x0001672c:    bf5389c7    ..S.    DCD    3209923015
        0x00016730:    3f1080dc    ...?    DCD    1058046172
        0x00016734:    bf535118    .QS.    DCD    3209908504
        0x00016738:    3f10d3cd    ...?    DCD    1058067405
        0x0001673c:    bf531849    I.S.    DCD    3209893961
        0x00016740:    3f1126a7    .&.?    DCD    1058088615
        0x00016744:    bf52df59    Y.R.    DCD    3209879385
        0x00016748:    3f11796b    ky.?    DCD    1058109803
        0x0001674c:    bf52a649    I.R.    DCD    3209864777
        0x00016750:    3f11cc19    ...?    DCD    1058130969
        0x00016754:    bf526d18    .mR.    DCD    3209850136
        0x00016758:    3f121eb0    ...?    DCD    1058152112
        0x0001675c:    bf5233c6    .3R.    DCD    3209835462
        0x00016760:    3f127130    0q.?    DCD    1058173232
        0x00016764:    bf51fa54    T.Q.    DCD    3209820756
        0x00016768:    3f12c39a    ...?    DCD    1058194330
        0x0001676c:    bf51c0c2    ..Q.    DCD    3209806018
        0x00016770:    3f1315ee    ...?    DCD    1058215406
        0x00016774:    bf518710    ..Q.    DCD    3209791248
        0x00016778:    3f13682a    *h.?    DCD    1058236458
        0x0001677c:    bf514d3d    =MQ.    DCD    3209776445
        0x00016780:    3f13ba50    P..?    DCD    1058257488
        0x00016784:    bf51134a    J.Q.    DCD    3209761610
        0x00016788:    3f140c5f    _..?    DCD    1058278495
        0x0001678c:    bf50d937    7.P.    DCD    3209746743
        0x00016790:    3f145e58    X^.?    DCD    1058299480
        0x00016794:    bf509f03    ..P.    DCD    3209731843
        0x00016798:    3f14b039    9..?    DCD    1058320441
        0x0001679c:    bf5064af    .dP.    DCD    3209716911
        0x000167a0:    3f150204    ...?    DCD    1058341380
        0x000167a4:    bf502a3b    ;*P.    DCD    3209701947
        0x000167a8:    3f1553b7    .S.?    DCD    1058362295
        0x000167ac:    bf4fefa8    ..O.    DCD    3209686952
        0x000167b0:    3f15a554    T..?    DCD    1058383188
        0x000167b4:    bf4fb4f4    ..O.    DCD    3209671924
        0x000167b8:    3f15f6d9    ...?    DCD    1058404057
        0x000167bc:    bf4f7a1f    .zO.    DCD    3209656863
        0x000167c0:    3f164847    GH.?    DCD    1058424903
        0x000167c4:    bf4f3f2b    +?O.    DCD    3209641771
        0x000167c8:    3f16999f    ...?    DCD    1058445727
        0x000167cc:    bf4f0417    ..O.    DCD    3209626647
        0x000167d0:    3f16eadf    ...?    DCD    1058466527
        0x000167d4:    bf4ec8e4    ..N.    DCD    3209611492
        0x000167d8:    3f173c07    .<.?    DCD    1058487303
        0x000167dc:    bf4e8d90    ..N.    DCD    3209596304
        0x000167e0:    3f178d18    ...?    DCD    1058508056
        0x000167e4:    bf4e521c    .RN.    DCD    3209581084
        0x000167e8:    3f17de12    ...?    DCD    1058528786
        0x000167ec:    bf4e1689    ..N.    DCD    3209565833
        0x000167f0:    3f182ef5    ...?    DCD    1058549493
        0x000167f4:    bf4ddad5    ..M.    DCD    3209550549
        0x000167f8:    3f187fc0    ...?    DCD    1058570176
        0x000167fc:    bf4d9f02    ..M.    DCD    3209535234
        0x00016800:    3f18d073    s..?    DCD    1058590835
        0x00016804:    bf4d6310    .cM.    DCD    3209519888
        0x00016808:    3f19210f    .!.?    DCD    1058611471
        0x0001680c:    bf4d26fd    .&M.    DCD    3209504509
        0x00016810:    3f197194    .q.?    DCD    1058632084
        0x00016814:    bf4ceacb    ..L.    DCD    3209489099
        0x00016818:    3f19c200    ...?    DCD    1058652672
        0x0001681c:    bf4cae79    y.L.    DCD    3209473657
        0x00016820:    3f1a1255    U..?    DCD    1058673237
        0x00016824:    bf4c7208    .rL.    DCD    3209458184
        0x00016828:    3f1a6293    .b.?    DCD    1058693779
        0x0001682c:    bf4c3578    x5L.    DCD    3209442680
        0x00016830:    3f1ab2b8    ...?    DCD    1058714296
        0x00016834:    bf4bf8c7    ..K.    DCD    3209427143
        0x00016838:    3f1b02c6    ...?    DCD    1058734790
        0x0001683c:    bf4bbbf8    ..K.    DCD    3209411576
        0x00016840:    3f1b52bb    .R.?    DCD    1058755259
        0x00016844:    bf4b7f09    ..K.    DCD    3209395977
        0x00016848:    3f1ba299    ...?    DCD    1058775705
        0x0001684c:    bf4b41fa    .AK.    DCD    3209380346
        0x00016850:    3f1bf25f    _..?    DCD    1058796127
        0x00016854:    bf4b04cc    ..K.    DCD    3209364684
        0x00016858:    3f1c420c    .B.?    DCD    1058816524
        0x0001685c:    bf4ac77f    ..J.    DCD    3209348991
        0x00016860:    3f1c91a2    ...?    DCD    1058836898
        0x00016864:    bf4a8a13    ..J.    DCD    3209333267
        0x00016868:    3f1ce11f    ...?    DCD    1058857247
        0x0001686c:    bf4a4c87    .LJ.    DCD    3209317511
        0x00016870:    3f1d3084    .0.?    DCD    1058877572
        0x00016874:    bf4a0edc    ..J.    DCD    3209301724
        0x00016878:    3f1d7fd1    ...?    DCD    1058897873
        0x0001687c:    bf49d112    ..I.    DCD    3209285906
        0x00016880:    3f1dcf06    ...?    DCD    1058918150
        0x00016884:    bf499329    ).I.    DCD    3209270057
        0x00016888:    3f1e1e22    "..?    DCD    1058938402
        0x0001688c:    bf495521    !UI.    DCD    3209254177
        0x00016890:    3f1e6d26    &m.?    DCD    1058958630
        0x00016894:    bf4916fa    ..I.    DCD    3209238266
        0x00016898:    3f1ebc12    ...?    DCD    1058978834
        0x0001689c:    bf48d8b3    ..H.    DCD    3209222323
        0x000168a0:    3f1f0ae5    ...?    DCD    1058999013
        0x000168a4:    bf489a4e    N.H.    DCD    3209206350
        0x000168a8:    3f1f599f    .Y.?    DCD    1059019167
        0x000168ac:    bf485bca    .[H.    DCD    3209190346
        0x000168b0:    3f1fa841    A..?    DCD    1059039297
        0x000168b4:    bf481d27    '.H.    DCD    3209174311
        0x000168b8:    3f1ff6cb    ...?    DCD    1059059403
        0x000168bc:    bf47de65    e.G.    DCD    3209158245
        0x000168c0:    3f20453b    ;E ?    DCD    1059079483
        0x000168c4:    bf479f84    ..G.    DCD    3209142148
        0x000168c8:    3f209393    .. ?    DCD    1059099539
        0x000168cc:    bf476085    .`G.    DCD    3209126021
        0x000168d0:    3f20e1d2    .. ?    DCD    1059119570
        0x000168d4:    bf472167    g!G.    DCD    3209109863
        0x000168d8:    3f212ff9    ./!?    DCD    1059139577
        0x000168dc:    bf46e22a    *.F.    DCD    3209093674
        0x000168e0:    3f217e06    .~!?    DCD    1059159558
        0x000168e4:    bf46a2ce    ..F.    DCD    3209077454
        0x000168e8:    3f21cbfb    ..!?    DCD    1059179515
        0x000168ec:    bf466354    TcF.    DCD    3209061204
        0x000168f0:    3f2219d7    .."?    DCD    1059199447
        0x000168f4:    bf4623bb    .#F.    DCD    3209044923
        0x000168f8:    3f226799    .g"?    DCD    1059219353
        0x000168fc:    bf45e403    ..E.    DCD    3209028611
        0x00016900:    3f22b543    C."?    DCD    1059239235
        0x00016904:    bf45a42d    -.E.    DCD    3209012269
        0x00016908:    3f2302d3    ..#?    DCD    1059259091
        0x0001690c:    bf456439    9dE.    DCD    3208995897
        0x00016910:    3f23504b    KP#?    DCD    1059278923
        0x00016914:    bf452426    &$E.    DCD    3208979494
        0x00016918:    3f239da9    ..#?    DCD    1059298729
        0x0001691c:    bf44e3f5    ..D.    DCD    3208963061
        0x00016920:    3f23eaee    ..#?    DCD    1059318510
        0x00016924:    bf44a3a5    ..D.    DCD    3208946597
        0x00016928:    3f24381a    .8$?    DCD    1059338266
        0x0001692c:    bf446337    7cD.    DCD    3208930103
        0x00016930:    3f24852c    ,.$?    DCD    1059357996
        0x00016934:    bf4422ab    ."D.    DCD    3208913579
        0x00016938:    3f24d225    %.$?    DCD    1059377701
        0x0001693c:    bf43e200    ..C.    DCD    3208897024
        0x00016940:    3f251f04    ..%?    DCD    1059397380
        0x00016944:    bf43a138    8.C.    DCD    3208880440
        0x00016948:    3f256bcb    .k%?    DCD    1059417035
        0x0001694c:    bf436051    Q`C.    DCD    3208863825
        0x00016950:    3f25b877    w.%?    DCD    1059436663
        0x00016954:    bf431f4c    L.C.    DCD    3208847180
        0x00016958:    3f26050a    ..&?    DCD    1059456266
        0x0001695c:    bf42de29    ).B.    DCD    3208830505
        0x00016960:    3f265184    .Q&?    DCD    1059475844
        0x00016964:    bf429ce8    ..B.    DCD    3208813800
        0x00016968:    3f269de3    ..&?    DCD    1059495395
        0x0001696c:    bf425b89    .[B.    DCD    3208797065
        0x00016970:    3f26ea2a    *.&?    DCD    1059514922
        0x00016974:    bf421a0b    ..B.    DCD    3208780299
        0x00016978:    3f273656    V6'?    DCD    1059534422
        0x0001697c:    bf41d870    p.A.    DCD    3208763504
        0x00016980:    3f278268    h.'?    DCD    1059553896
        0x00016984:    bf4196b7    ..A.    DCD    3208746679
        0x00016988:    3f27ce61    a.'?    DCD    1059573345
        0x0001698c:    bf4154e1    .TA.    DCD    3208729825
        0x00016990:    3f281a40    @.(?    DCD    1059592768
        0x00016994:    bf4112ec    ..A.    DCD    3208712940
        0x00016998:    3f286605    .f(?    DCD    1059612165
        0x0001699c:    bf40d0da    ..@.    DCD    3208696026
        0x000169a0:    3f28b1b0    ..(?    DCD    1059631536
        0x000169a4:    bf408ea9    ..@.    DCD    3208679081
        0x000169a8:    3f28fd41    A.(?    DCD    1059650881
        0x000169ac:    bf404c5c    \L@.    DCD    3208662108
        0x000169b0:    3f2948b8    .H)?    DCD    1059670200
        0x000169b4:    bf4009f0    ..@.    DCD    3208645104
        0x000169b8:    3f299415    ..)?    DCD    1059689493
        0x000169bc:    bf3fc767    g.?.    DCD    3208628071
        0x000169c0:    3f29df57    W.)?    DCD    1059708759
        0x000169c4:    bf3f84c0    ..?.    DCD    3208611008
        0x000169c8:    3f2a2a80    .**?    DCD    1059728000
        0x000169cc:    bf3f41fc    .A?.    DCD    3208593916
        0x000169d0:    3f2a758e    .u*?    DCD    1059747214
        0x000169d4:    bf3eff1b    ..>.    DCD    3208576795
        0x000169d8:    3f2ac082    ..*?    DCD    1059766402
        0x000169dc:    bf3ebc1b    ..>.    DCD    3208559643
        0x000169e0:    3f2b0b5b    [.+?    DCD    1059785563
        0x000169e4:    bf3e78ff    .x>.    DCD    3208542463
        0x000169e8:    3f2b561b    .V+?    DCD    1059804699
        0x000169ec:    bf3e35c5    .5>.    DCD    3208525253
        0x000169f0:    3f2ba0bf    ..+?    DCD    1059823807
        0x000169f4:    bf3df26e    n.=.    DCD    3208508014
        0x000169f8:    3f2beb4a    J.+?    DCD    1059842890
        0x000169fc:    bf3daef9    ..=.    DCD    3208490745
        0x00016a00:    3f2c35b9    .5,?    DCD    1059861945
        0x00016a04:    bf3d6b67    gk=.    DCD    3208473447
        0x00016a08:    3f2c800f    ..,?    DCD    1059880975
        0x00016a0c:    bf3d27b8    .'=.    DCD    3208456120
        0x00016a10:    3f2cca49    I.,?    DCD    1059899977
        0x00016a14:    bf3ce3ec    ..<.    DCD    3208438764
        0x00016a18:    3f2d1469    i.-?    DCD    1059918953
        0x00016a1c:    bf3ca003    ..<.    DCD    3208421379
        0x00016a20:    3f2d5e6f    o^-?    DCD    1059937903
        0x00016a24:    bf3c5bfc    .[<.    DCD    3208403964
        0x00016a28:    3f2da859    Y.-?    DCD    1059956825
        0x00016a2c:    bf3c17d9    ..<.    DCD    3208386521
        0x00016a30:    3f2df229    ).-?    DCD    1059975721
        0x00016a34:    bf3bd398    ..;.    DCD    3208369048
        0x00016a38:    3f2e3bde    .;.?    DCD    1059994590
        0x00016a3c:    bf3b8f3b    ;.;.    DCD    3208351547
        0x00016a40:    3f2e8578    x..?    DCD    1060013432
        0x00016a44:    bf3b4ac1    .J;.    DCD    3208334017
        0x00016a48:    3f2ecef7    ...?    DCD    1060032247
        0x00016a4c:    bf3b0629    ).;.    DCD    3208316457
        0x00016a50:    3f2f185b    [./?    DCD    1060051035
        0x00016a54:    bf3ac175    u.:.    DCD    3208298869
        0x00016a58:    3f2f61a5    .a/?    DCD    1060069797
        0x00016a5c:    bf3a7ca4    .|:.    DCD    3208281252
        0x00016a60:    3f2faad3    ../?    DCD    1060088531
        0x00016a64:    bf3a37b7    .7:.    DCD    3208263607
        0x00016a68:    3f2ff3e6    ../?    DCD    1060107238
        0x00016a6c:    bf39f2ac    ..9.    DCD    3208245932
        0x00016a70:    3f303cde    .<0?    DCD    1060125918
        0x00016a74:    bf39ad85    ..9.    DCD    3208228229
        0x00016a78:    3f3085bb    ..0?    DCD    1060144571
        0x00016a7c:    bf396842    Bh9.    DCD    3208210498
        0x00016a80:    3f30ce7c    |.0?    DCD    1060163196
        0x00016a84:    bf3922e1    ."9.    DCD    3208192737
        0x00016a88:    3f311722    ".1?    DCD    1060181794
        0x00016a8c:    bf38dd65    e.8.    DCD    3208174949
        0x00016a90:    3f315fad    ._1?    DCD    1060200365
        0x00016a94:    bf3897cb    ..8.    DCD    3208157131
        0x00016a98:    3f31a81d    ..1?    DCD    1060218909
        0x00016a9c:    bf385216    .R8.    DCD    3208139286
        0x00016aa0:    3f31f071    q.1?    DCD    1060237425
        0x00016aa4:    bf380c43    C.8.    DCD    3208121411
        0x00016aa8:    3f3238aa    .82?    DCD    1060255914
        0x00016aac:    bf37c655    U.7.    DCD    3208103509
        0x00016ab0:    3f3280c7    ..2?    DCD    1060274375
        0x00016ab4:    bf37804a    J.7.    DCD    3208085578
        0x00016ab8:    3f32c8c9    ..2?    DCD    1060292809
        0x00016abc:    bf373a23    #:7.    DCD    3208067619
        0x00016ac0:    3f3310af    ..3?    DCD    1060311215
        0x00016ac4:    bf36f3df    ..6.    DCD    3208049631
        0x00016ac8:    3f33587a    zX3?    DCD    1060329594
        0x00016acc:    bf36ad7f    ..6.    DCD    3208031615
        0x00016ad0:    3f33a029    ).3?    DCD    1060347945
        0x00016ad4:    bf366704    .g6.    DCD    3208013572
        0x00016ad8:    3f33e7bc    ..3?    DCD    1060366268
        0x00016adc:    bf36206c    l 6.    DCD    3207995500
        0x00016ae0:    3f342f34    4/4?    DCD    1060384564
        0x00016ae4:    bf35d9b8    ..5.    DCD    3207977400
        0x00016ae8:    3f34768f    .v4?    DCD    1060402831
        0x00016aec:    bf3592e7    ..5.    DCD    3207959271
        0x00016af0:    3f34bdcf    ..4?    DCD    1060421071
        0x00016af4:    bf354bfb    .K5.    DCD    3207941115
        0x00016af8:    3f3504f3    ..5?    DCD    1060439283
        0x00016afc:    bf3504f3    ..5.    DCD    3207922931
        0x00016b00:    3f354bfb    .K5?    DCD    1060457467
        0x00016b04:    bf34bdcf    ..4.    DCD    3207904719
        0x00016b08:    3f3592e7    ..5?    DCD    1060475623
        0x00016b0c:    bf34768f    .v4.    DCD    3207886479
        0x00016b10:    3f35d9b8    ..5?    DCD    1060493752
        0x00016b14:    bf342f34    4/4.    DCD    3207868212
        0x00016b18:    3f36206c    l 6?    DCD    1060511852
        0x00016b1c:    bf33e7bc    ..3.    DCD    3207849916
        0x00016b20:    3f366704    .g6?    DCD    1060529924
        0x00016b24:    bf33a029    ).3.    DCD    3207831593
        0x00016b28:    3f36ad7f    ..6?    DCD    1060547967
        0x00016b2c:    bf33587a    zX3.    DCD    3207813242
        0x00016b30:    3f36f3df    ..6?    DCD    1060565983
        0x00016b34:    bf3310af    ..3.    DCD    3207794863
        0x00016b38:    3f373a23    #:7?    DCD    1060583971
        0x00016b3c:    bf32c8c9    ..2.    DCD    3207776457
        0x00016b40:    3f37804a    J.7?    DCD    1060601930
        0x00016b44:    bf3280c7    ..2.    DCD    3207758023
        0x00016b48:    3f37c655    U.7?    DCD    1060619861
        0x00016b4c:    bf3238aa    .82.    DCD    3207739562
        0x00016b50:    3f380c43    C.8?    DCD    1060637763
        0x00016b54:    bf31f071    q.1.    DCD    3207721073
        0x00016b58:    3f385216    .R8?    DCD    1060655638
        0x00016b5c:    bf31a81d    ..1.    DCD    3207702557
        0x00016b60:    3f3897cb    ..8?    DCD    1060673483
        0x00016b64:    bf315fad    ._1.    DCD    3207684013
        0x00016b68:    3f38dd65    e.8?    DCD    1060691301
        0x00016b6c:    bf311722    ".1.    DCD    3207665442
        0x00016b70:    3f3922e1    ."9?    DCD    1060709089
        0x00016b74:    bf30ce7c    |.0.    DCD    3207646844
        0x00016b78:    3f396842    Bh9?    DCD    1060726850
        0x00016b7c:    bf3085bb    ..0.    DCD    3207628219
        0x00016b80:    3f39ad85    ..9?    DCD    1060744581
        0x00016b84:    bf303cde    .<0.    DCD    3207609566
        0x00016b88:    3f39f2ac    ..9?    DCD    1060762284
        0x00016b8c:    bf2ff3e6    ../.    DCD    3207590886
        0x00016b90:    3f3a37b7    .7:?    DCD    1060779959
        0x00016b94:    bf2faad3    ../.    DCD    3207572179
        0x00016b98:    3f3a7ca4    .|:?    DCD    1060797604
        0x00016b9c:    bf2f61a5    .a/.    DCD    3207553445
        0x00016ba0:    3f3ac175    u.:?    DCD    1060815221
        0x00016ba4:    bf2f185b    [./.    DCD    3207534683
        0x00016ba8:    3f3b0629    ).;?    DCD    1060832809
        0x00016bac:    bf2ecef7    ....    DCD    3207515895
        0x00016bb0:    3f3b4ac1    .J;?    DCD    1060850369
        0x00016bb4:    bf2e8578    x...    DCD    3207497080
        0x00016bb8:    3f3b8f3b    ;.;?    DCD    1060867899
        0x00016bbc:    bf2e3bde    .;..    DCD    3207478238
        0x00016bc0:    3f3bd398    ..;?    DCD    1060885400
        0x00016bc4:    bf2df229    ).-.    DCD    3207459369
        0x00016bc8:    3f3c17d9    ..<?    DCD    1060902873
        0x00016bcc:    bf2da859    Y.-.    DCD    3207440473
        0x00016bd0:    3f3c5bfc    .[<?    DCD    1060920316
        0x00016bd4:    bf2d5e6f    o^-.    DCD    3207421551
        0x00016bd8:    3f3ca003    ..<?    DCD    1060937731
        0x00016bdc:    bf2d1469    i.-.    DCD    3207402601
        0x00016be0:    3f3ce3ec    ..<?    DCD    1060955116
        0x00016be4:    bf2cca49    I.,.    DCD    3207383625
        0x00016be8:    3f3d27b8    .'=?    DCD    1060972472
        0x00016bec:    bf2c800f    ..,.    DCD    3207364623
        0x00016bf0:    3f3d6b67    gk=?    DCD    1060989799
        0x00016bf4:    bf2c35b9    .5,.    DCD    3207345593
        0x00016bf8:    3f3daef9    ..=?    DCD    1061007097
        0x00016bfc:    bf2beb4a    J.+.    DCD    3207326538
        0x00016c00:    3f3df26e    n.=?    DCD    1061024366
        0x00016c04:    bf2ba0bf    ..+.    DCD    3207307455
        0x00016c08:    3f3e35c5    .5>?    DCD    1061041605
        0x00016c0c:    bf2b561b    .V+.    DCD    3207288347
        0x00016c10:    3f3e78ff    .x>?    DCD    1061058815
        0x00016c14:    bf2b0b5b    [.+.    DCD    3207269211
        0x00016c18:    3f3ebc1b    ..>?    DCD    1061075995
        0x00016c1c:    bf2ac082    ..*.    DCD    3207250050
        0x00016c20:    3f3eff1b    ..>?    DCD    1061093147
        0x00016c24:    bf2a758e    .u*.    DCD    3207230862
        0x00016c28:    3f3f41fc    .A??    DCD    1061110268
        0x00016c2c:    bf2a2a80    .**.    DCD    3207211648
        0x00016c30:    3f3f84c0    ..??    DCD    1061127360
        0x00016c34:    bf29df57    W.).    DCD    3207192407
        0x00016c38:    3f3fc767    g.??    DCD    1061144423
        0x00016c3c:    bf299415    ..).    DCD    3207173141
        0x00016c40:    3f4009f0    ..@?    DCD    1061161456
        0x00016c44:    bf2948b8    .H).    DCD    3207153848
        0x00016c48:    3f404c5c    \L@?    DCD    1061178460
        0x00016c4c:    bf28fd41    A.(.    DCD    3207134529
        0x00016c50:    3f408ea9    ..@?    DCD    1061195433
        0x00016c54:    bf28b1b0    ..(.    DCD    3207115184
        0x00016c58:    3f40d0da    ..@?    DCD    1061212378
        0x00016c5c:    bf286605    .f(.    DCD    3207095813
        0x00016c60:    3f4112ec    ..A?    DCD    1061229292
        0x00016c64:    bf281a40    @.(.    DCD    3207076416
        0x00016c68:    3f4154e1    .TA?    DCD    1061246177
        0x00016c6c:    bf27ce61    a.'.    DCD    3207056993
        0x00016c70:    3f4196b7    ..A?    DCD    1061263031
        0x00016c74:    bf278268    h.'.    DCD    3207037544
        0x00016c78:    3f41d870    p.A?    DCD    1061279856
        0x00016c7c:    bf273656    V6'.    DCD    3207018070
        0x00016c80:    3f421a0b    ..B?    DCD    1061296651
        0x00016c84:    bf26ea2a    *.&.    DCD    3206998570
        0x00016c88:    3f425b89    .[B?    DCD    1061313417
        0x00016c8c:    bf269de3    ..&.    DCD    3206979043
        0x00016c90:    3f429ce8    ..B?    DCD    1061330152
        0x00016c94:    bf265184    .Q&.    DCD    3206959492
        0x00016c98:    3f42de29    ).B?    DCD    1061346857
        0x00016c9c:    bf26050a    ..&.    DCD    3206939914
        0x00016ca0:    3f431f4c    L.C?    DCD    1061363532
        0x00016ca4:    bf25b877    w.%.    DCD    3206920311
        0x00016ca8:    3f436051    Q`C?    DCD    1061380177
        0x00016cac:    bf256bcb    .k%.    DCD    3206900683
        0x00016cb0:    3f43a138    8.C?    DCD    1061396792
        0x00016cb4:    bf251f04    ..%.    DCD    3206881028
        0x00016cb8:    3f43e200    ..C?    DCD    1061413376
        0x00016cbc:    bf24d225    %.$.    DCD    3206861349
        0x00016cc0:    3f4422ab    ."D?    DCD    1061429931
        0x00016cc4:    bf24852c    ,.$.    DCD    3206841644
        0x00016cc8:    3f446337    7cD?    DCD    1061446455
        0x00016ccc:    bf24381a    .8$.    DCD    3206821914
        0x00016cd0:    3f44a3a5    ..D?    DCD    1061462949
        0x00016cd4:    bf23eaee    ..#.    DCD    3206802158
        0x00016cd8:    3f44e3f5    ..D?    DCD    1061479413
        0x00016cdc:    bf239da9    ..#.    DCD    3206782377
        0x00016ce0:    3f452426    &$E?    DCD    1061495846
        0x00016ce4:    bf23504b    KP#.    DCD    3206762571
        0x00016ce8:    3f456439    9dE?    DCD    1061512249
        0x00016cec:    bf2302d3    ..#.    DCD    3206742739
        0x00016cf0:    3f45a42d    -.E?    DCD    1061528621
        0x00016cf4:    bf22b543    C.".    DCD    3206722883
        0x00016cf8:    3f45e403    ..E?    DCD    1061544963
        0x00016cfc:    bf226799    .g".    DCD    3206703001
        0x00016d00:    3f4623bb    .#F?    DCD    1061561275
        0x00016d04:    bf2219d7    ..".    DCD    3206683095
        0x00016d08:    3f466354    TcF?    DCD    1061577556
        0x00016d0c:    bf21cbfb    ..!.    DCD    3206663163
        0x00016d10:    3f46a2ce    ..F?    DCD    1061593806
        0x00016d14:    bf217e06    .~!.    DCD    3206643206
        0x00016d18:    3f46e22a    *.F?    DCD    1061610026
        0x00016d1c:    bf212ff9    ./!.    DCD    3206623225
        0x00016d20:    3f472167    g!G?    DCD    1061626215
        0x00016d24:    bf20e1d2    .. .    DCD    3206603218
        0x00016d28:    3f476085    .`G?    DCD    1061642373
        0x00016d2c:    bf209393    .. .    DCD    3206583187
        0x00016d30:    3f479f84    ..G?    DCD    1061658500
        0x00016d34:    bf20453b    ;E .    DCD    3206563131
        0x00016d38:    3f47de65    e.G?    DCD    1061674597
        0x00016d3c:    bf1ff6cb    ....    DCD    3206543051
        0x00016d40:    3f481d27    '.H?    DCD    1061690663
        0x00016d44:    bf1fa841    A...    DCD    3206522945
        0x00016d48:    3f485bca    .[H?    DCD    1061706698
        0x00016d4c:    bf1f599f    .Y..    DCD    3206502815
        0x00016d50:    3f489a4e    N.H?    DCD    1061722702
        0x00016d54:    bf1f0ae5    ....    DCD    3206482661
        0x00016d58:    3f48d8b3    ..H?    DCD    1061738675
        0x00016d5c:    bf1ebc12    ....    DCD    3206462482
        0x00016d60:    3f4916fa    ..I?    DCD    1061754618
        0x00016d64:    bf1e6d26    &m..    DCD    3206442278
        0x00016d68:    3f495521    !UI?    DCD    1061770529
        0x00016d6c:    bf1e1e22    "...    DCD    3206422050
        0x00016d70:    3f499329    ).I?    DCD    1061786409
        0x00016d74:    bf1dcf06    ....    DCD    3206401798
        0x00016d78:    3f49d112    ..I?    DCD    1061802258
        0x00016d7c:    bf1d7fd1    ....    DCD    3206381521
        0x00016d80:    3f4a0edc    ..J?    DCD    1061818076
        0x00016d84:    bf1d3084    .0..    DCD    3206361220
        0x00016d88:    3f4a4c87    .LJ?    DCD    1061833863
        0x00016d8c:    bf1ce11f    ....    DCD    3206340895
        0x00016d90:    3f4a8a13    ..J?    DCD    1061849619
        0x00016d94:    bf1c91a2    ....    DCD    3206320546
        0x00016d98:    3f4ac77f    ..J?    DCD    1061865343
        0x00016d9c:    bf1c420c    .B..    DCD    3206300172
        0x00016da0:    3f4b04cc    ..K?    DCD    1061881036
        0x00016da4:    bf1bf25f    _...    DCD    3206279775
        0x00016da8:    3f4b41fa    .AK?    DCD    1061896698
        0x00016dac:    bf1ba299    ....    DCD    3206259353
        0x00016db0:    3f4b7f09    ..K?    DCD    1061912329
        0x00016db4:    bf1b52bb    .R..    DCD    3206238907
        0x00016db8:    3f4bbbf8    ..K?    DCD    1061927928
        0x00016dbc:    bf1b02c6    ....    DCD    3206218438
        0x00016dc0:    3f4bf8c7    ..K?    DCD    1061943495
        0x00016dc4:    bf1ab2b8    ....    DCD    3206197944
        0x00016dc8:    3f4c3578    x5L?    DCD    1061959032
        0x00016dcc:    bf1a6293    .b..    DCD    3206177427
        0x00016dd0:    3f4c7208    .rL?    DCD    1061974536
        0x00016dd4:    bf1a1255    U...    DCD    3206156885
        0x00016dd8:    3f4cae79    y.L?    DCD    1061990009
        0x00016ddc:    bf19c200    ....    DCD    3206136320
        0x00016de0:    3f4ceacb    ..L?    DCD    1062005451
        0x00016de4:    bf197194    .q..    DCD    3206115732
        0x00016de8:    3f4d26fd    .&M?    DCD    1062020861
        0x00016dec:    bf19210f    .!..    DCD    3206095119
        0x00016df0:    3f4d6310    .cM?    DCD    1062036240
        0x00016df4:    bf18d073    s...    DCD    3206074483
        0x00016df8:    3f4d9f02    ..M?    DCD    1062051586
        0x00016dfc:    bf187fc0    ....    DCD    3206053824
        0x00016e00:    3f4ddad5    ..M?    DCD    1062066901
        0x00016e04:    bf182ef5    ....    DCD    3206033141
        0x00016e08:    3f4e1689    ..N?    DCD    1062082185
        0x00016e0c:    bf17de12    ....    DCD    3206012434
        0x00016e10:    3f4e521c    .RN?    DCD    1062097436
        0x00016e14:    bf178d18    ....    DCD    3205991704
        0x00016e18:    3f4e8d90    ..N?    DCD    1062112656
        0x00016e1c:    bf173c07    .<..    DCD    3205970951
        0x00016e20:    3f4ec8e4    ..N?    DCD    1062127844
        0x00016e24:    bf16eadf    ....    DCD    3205950175
        0x00016e28:    3f4f0417    ..O?    DCD    1062142999
        0x00016e2c:    bf16999f    ....    DCD    3205929375
        0x00016e30:    3f4f3f2b    +?O?    DCD    1062158123
        0x00016e34:    bf164847    GH..    DCD    3205908551
        0x00016e38:    3f4f7a1f    .zO?    DCD    1062173215
        0x00016e3c:    bf15f6d9    ....    DCD    3205887705
        0x00016e40:    3f4fb4f4    ..O?    DCD    1062188276
        0x00016e44:    bf15a554    T...    DCD    3205866836
        0x00016e48:    3f4fefa8    ..O?    DCD    1062203304
        0x00016e4c:    bf1553b7    .S..    DCD    3205845943
        0x00016e50:    3f502a3b    ;*P?    DCD    1062218299
        0x00016e54:    bf150204    ....    DCD    3205825028
        0x00016e58:    3f5064af    .dP?    DCD    1062233263
        0x00016e5c:    bf14b039    9...    DCD    3205804089
        0x00016e60:    3f509f03    ..P?    DCD    1062248195
        0x00016e64:    bf145e58    X^..    DCD    3205783128
        0x00016e68:    3f50d937    7.P?    DCD    1062263095
        0x00016e6c:    bf140c5f    _...    DCD    3205762143
        0x00016e70:    3f51134a    J.Q?    DCD    1062277962
        0x00016e74:    bf13ba50    P...    DCD    3205741136
        0x00016e78:    3f514d3d    =MQ?    DCD    1062292797
        0x00016e7c:    bf13682a    *h..    DCD    3205720106
        0x00016e80:    3f518710    ..Q?    DCD    1062307600
        0x00016e84:    bf1315ee    ....    DCD    3205699054
        0x00016e88:    3f51c0c2    ..Q?    DCD    1062322370
        0x00016e8c:    bf12c39a    ....    DCD    3205677978
        0x00016e90:    3f51fa54    T.Q?    DCD    1062337108
        0x00016e94:    bf127130    0q..    DCD    3205656880
        0x00016e98:    3f5233c6    .3R?    DCD    1062351814
        0x00016e9c:    bf121eb0    ....    DCD    3205635760
        0x00016ea0:    3f526d18    .mR?    DCD    1062366488
        0x00016ea4:    bf11cc19    ....    DCD    3205614617
        0x00016ea8:    3f52a649    I.R?    DCD    1062381129
        0x00016eac:    bf11796b    ky..    DCD    3205593451
        0x00016eb0:    3f52df59    Y.R?    DCD    1062395737
        0x00016eb4:    bf1126a7    .&..    DCD    3205572263
        0x00016eb8:    3f531849    I.S?    DCD    1062410313
        0x00016ebc:    bf10d3cd    ....    DCD    3205551053
        0x00016ec0:    3f535118    .QS?    DCD    1062424856
        0x00016ec4:    bf1080dc    ....    DCD    3205529820
        0x00016ec8:    3f5389c7    ..S?    DCD    1062439367
        0x00016ecc:    bf102dd5    .-..    DCD    3205508565
        0x00016ed0:    3f53c255    U.S?    DCD    1062453845
        0x00016ed4:    bf0fdab8    ....    DCD    3205487288
        0x00016ed8:    3f53fac3    ..S?    DCD    1062468291
        0x00016edc:    bf0f8784    ....    DCD    3205465988
        0x00016ee0:    3f54330f    .3T?    DCD    1062482703
        0x00016ee4:    bf0f343b    ;4..    DCD    3205444667
        0x00016ee8:    3f546b3b    ;kT?    DCD    1062497083
        0x00016eec:    bf0ee0db    ....    DCD    3205423323
        0x00016ef0:    3f54a347    G.T?    DCD    1062511431
        0x00016ef4:    bf0e8d65    e...    DCD    3205401957
        0x00016ef8:    3f54db31    1.T?    DCD    1062525745
        0x00016efc:    bf0e39da    .9..    DCD    3205380570
        0x00016f00:    3f5512fb    ..U?    DCD    1062540027
        0x00016f04:    bf0de638    8...    DCD    3205359160
        0x00016f08:    3f554aa4    .JU?    DCD    1062554276
        0x00016f0c:    bf0d9281    ....    DCD    3205337729
        0x00016f10:    3f55822c    ,.U?    DCD    1062568492
        0x00016f14:    bf0d3eb3    .>..    DCD    3205316275
        0x00016f18:    3f55b993    ..U?    DCD    1062582675
        0x00016f1c:    bf0cead0    ....    DCD    3205294800
        0x00016f20:    3f55f0d9    ..U?    DCD    1062596825
        0x00016f24:    bf0c96d7    ....    DCD    3205273303
        0x00016f28:    3f5627fe    .'V?    DCD    1062610942
        0x00016f2c:    bf0c42c9    .B..    DCD    3205251785
        0x00016f30:    3f565f02    ._V?    DCD    1062625026
        0x00016f34:    bf0beea5    ....    DCD    3205230245
        0x00016f38:    3f5695e5    ..V?    DCD    1062639077
        0x00016f3c:    bf0b9a6b    k...    DCD    3205208683
        0x00016f40:    3f56cca7    ..V?    DCD    1062653095
        0x00016f44:    bf0b461c    .F..    DCD    3205187100
        0x00016f48:    3f570348    H.W?    DCD    1062667080
        0x00016f4c:    bf0af1b7    ....    DCD    3205165495
        0x00016f50:    3f5739c7    .9W?    DCD    1062681031
        0x00016f54:    bf0a9d3d    =...    DCD    3205143869
        0x00016f58:    3f577026    &pW?    DCD    1062694950
        0x00016f5c:    bf0a48ad    .H..    DCD    3205122221
        0x00016f60:    3f57a663    c.W?    DCD    1062708835
        0x00016f64:    bf09f409    ....    DCD    3205100553
        0x00016f68:    3f57dc7f    ..W?    DCD    1062722687
        0x00016f6c:    bf099f4e    N...    DCD    3205078862
        0x00016f70:    3f581279    y.X?    DCD    1062736505
        0x00016f74:    bf094a7f    .J..    DCD    3205057151
        0x00016f78:    3f584853    SHX?    DCD    1062750291
        0x00016f7c:    bf08f59b    ....    DCD    3205035419
        0x00016f80:    3f587e0b    .~X?    DCD    1062764043
        0x00016f84:    bf08a0a1    ....    DCD    3205013665
        0x00016f88:    3f58b3a1    ..X?    DCD    1062777761
        0x00016f8c:    bf084b92    .K..    DCD    3204991890
        0x00016f90:    3f58e917    ..X?    DCD    1062791447
        0x00016f94:    bf07f66f    o...    DCD    3204970095
        0x00016f98:    3f591e6a    j.Y?    DCD    1062805098
        0x00016f9c:    bf07a136    6...    DCD    3204948278
        0x00016fa0:    3f59539c    .SY?    DCD    1062818716
        0x00016fa4:    bf074be8    .K..    DCD    3204926440
        0x00016fa8:    3f5988ad    ..Y?    DCD    1062832301
        0x00016fac:    bf06f686    ....    DCD    3204904582
        0x00016fb0:    3f59bd9c    ..Y?    DCD    1062845852
        0x00016fb4:    bf06a10e    ....    DCD    3204882702
        0x00016fb8:    3f59f26a    j.Y?    DCD    1062859370
        0x00016fbc:    bf064b82    .K..    DCD    3204860802
        0x00016fc0:    3f5a2716    .'Z?    DCD    1062872854
        0x00016fc4:    bf05f5e2    ....    DCD    3204838882
        0x00016fc8:    3f5a5ba0    .[Z?    DCD    1062886304
        0x00016fcc:    bf05a02c    ,...    DCD    3204816940
        0x00016fd0:    3f5a9009    ..Z?    DCD    1062899721
        0x00016fd4:    bf054a62    bJ..    DCD    3204794978
        0x00016fd8:    3f5ac450    P.Z?    DCD    1062913104
        0x00016fdc:    bf04f484    ....    DCD    3204772996
        0x00016fe0:    3f5af875    u.Z?    DCD    1062926453
        0x00016fe4:    bf049e91    ....    DCD    3204750993
        0x00016fe8:    3f5b2c79    y,[?    DCD    1062939769
        0x00016fec:    bf044889    .H..    DCD    3204728969
        0x00016ff0:    3f5b605a    Z`[?    DCD    1062953050
        0x00016ff4:    bf03f26d    m...    DCD    3204706925
        0x00016ff8:    3f5b941a    ..[?    DCD    1062966298
        0x00016ffc:    bf039c3d    =...    DCD    3204684861
        0x00017000:    3f5bc7b8    ..[?    DCD    1062979512
        0x00017004:    bf0345f8    .E..    DCD    3204662776
        0x00017008:    3f5bfb34    4.[?    DCD    1062992692
        0x0001700c:    bf02ef9f    ....    DCD    3204640671
        0x00017010:    3f5c2e8e    ..\?    DCD    1063005838
        0x00017014:    bf029932    2...    DCD    3204618546
        0x00017018:    3f5c61c7    .a\?    DCD    1063018951
        0x0001701c:    bf0242b1    .B..    DCD    3204596401
        0x00017020:    3f5c94dd    ..\?    DCD    1063032029
        0x00017024:    bf01ec1c    ....    DCD    3204574236
        0x00017028:    3f5cc7d1    ..\?    DCD    1063045073
        0x0001702c:    bf019573    s...    DCD    3204552051
        0x00017030:    3f5cfaa3    ..\?    DCD    1063058083
        0x00017034:    bf013eb5    .>..    DCD    3204529845
        0x00017038:    3f5d2d53    S-]?    DCD    1063071059
        0x0001703c:    bf00e7e4    ....    DCD    3204507620
        0x00017040:    3f5d5fe1    ._]?    DCD    1063084001
        0x00017044:    bf0090ff    ....    DCD    3204485375
        0x00017048:    3f5d924d    M.]?    DCD    1063096909
        0x0001704c:    bf003a06    .:..    DCD    3204463110
        0x00017050:    3f5dc497    ..]?    DCD    1063109783
        0x00017054:    beffc5f3    ....    DCD    3204433395
        0x00017058:    3f5df6be    ..]?    DCD    1063122622
        0x0001705c:    beff17b2    ....    DCD    3204388786
        0x00017060:    3f5e28c3    .(^?    DCD    1063135427
        0x00017064:    befe694a    Ji..    DCD    3204344138
        0x00017068:    3f5e5aa6    .Z^?    DCD    1063148198
        0x0001706c:    befdbabb    ....    DCD    3204299451
        0x00017070:    3f5e8c67    g.^?    DCD    1063160935
        0x00017074:    befd0c04    ....    DCD    3204254724
        0x00017078:    3f5ebe05    ..^?    DCD    1063173637
        0x0001707c:    befc5d27    ']..    DCD    3204209959
        0x00017080:    3f5eef81    ..^?    DCD    1063186305
        0x00017084:    befbae22    "...    DCD    3204165154
        0x00017088:    3f5f20db    . _?    DCD    1063198939
        0x0001708c:    befafef7    ....    DCD    3204120311
        0x00017090:    3f5f5212    .R_?    DCD    1063211538
        0x00017094:    befa4fa5    .O..    DCD    3204075429
        0x00017098:    3f5f8327    '._?    DCD    1063224103
        0x0001709c:    bef9a02d    -...    DCD    3204030509
        0x000170a0:    3f5fb419    .._?    DCD    1063236633
        0x000170a4:    bef8f08e    ....    DCD    3203985550
        0x000170a8:    3f5fe4e9    .._?    DCD    1063249129
        0x000170ac:    bef840c8    .@..    DCD    3203940552
        0x000170b0:    3f601596    ..`?    DCD    1063261590
        0x000170b4:    bef790dc    ....    DCD    3203895516
        0x000170b8:    3f604621    !F`?    DCD    1063274017
        0x000170bc:    bef6e0cb    ....    DCD    3203850443
        0x000170c0:    3f607689    .v`?    DCD    1063286409
        0x000170c4:    bef63093    .0..    DCD    3203805331
        0x000170c8:    3f60a6cf    ..`?    DCD    1063298767
        0x000170cc:    bef58035    5...    DCD    3203760181
        0x000170d0:    3f60d6f2    ..`?    DCD    1063311090
        0x000170d4:    bef4cfb1    ....    DCD    3203714993
        0x000170d8:    3f6106f2    ..a?    DCD    1063323378
        0x000170dc:    bef41f07    ....    DCD    3203669767
        0x000170e0:    3f6136d0    .6a?    DCD    1063335632
        0x000170e4:    bef36e38    8n..    DCD    3203624504
        0x000170e8:    3f61668a    .fa?    DCD    1063347850
        0x000170ec:    bef2bd43    C...    DCD    3203579203
        0x000170f0:    3f619622    ".a?    DCD    1063360034
        0x000170f4:    bef20c29    )...    DCD    3203533865
        0x000170f8:    3f61c598    ..a?    DCD    1063372184
        0x000170fc:    bef15aea    .Z..    DCD    3203488490
        0x00017100:    3f61f4ea    ..a?    DCD    1063384298
        0x00017104:    bef0a985    ....    DCD    3203443077
        0x00017108:    3f62241a    .$b?    DCD    1063396378
        0x0001710c:    beeff7fb    ....    DCD    3203397627
        0x00017110:    3f625326    &Sb?    DCD    1063408422
        0x00017114:    beef464c    LF..    DCD    3203352140
        0x00017118:    3f628210    ..b?    DCD    1063420432
        0x0001711c:    beee9479    y...    DCD    3203306617
        0x00017120:    3f62b0d7    ..b?    DCD    1063432407
        0x00017124:    beede280    ....    DCD    3203261056
        0x00017128:    3f62df7b    {.b?    DCD    1063444347
        0x0001712c:    beed3063    c0..    DCD    3203215459
        0x00017130:    3f630dfc    ..c?    DCD    1063456252
        0x00017134:    beec7e21    !~..    DCD    3203169825
        0x00017138:    3f633c5a    Z<c?    DCD    1063468122
        0x0001713c:    beebcbbb    ....    DCD    3203124155
        0x00017140:    3f636a95    .jc?    DCD    1063479957
        0x00017144:    beeb1930    0...    DCD    3203078448
        0x00017148:    3f6398ac    ..c?    DCD    1063491756
        0x0001714c:    beea6681    .f..    DCD    3203032705
        0x00017150:    3f63c6a1    ..c?    DCD    1063503521
        0x00017154:    bee9b3ae    ....    DCD    3202986926
        0x00017158:    3f63f473    s.c?    DCD    1063515251
        0x0001715c:    bee900b7    ....    DCD    3202941111
        0x00017160:    3f642221    !"d?    DCD    1063526945
        0x00017164:    bee84d9c    .M..    DCD    3202895260
        0x00017168:    3f644fac    .Od?    DCD    1063538604
        0x0001716c:    bee79a5d    ]...    DCD    3202849373
        0x00017170:    3f647d14    .}d?    DCD    1063550228
        0x00017174:    bee6e6fb    ....    DCD    3202803451
        0x00017178:    3f64aa59    Y.d?    DCD    1063561817
        0x0001717c:    bee63375    u3..    DCD    3202757493
        0x00017180:    3f64d77b    {.d?    DCD    1063573371
        0x00017184:    bee57fcb    ....    DCD    3202711499
        0x00017188:    3f650479    y.e?    DCD    1063584889
        0x0001718c:    bee4cbfe    ....    DCD    3202665470
        0x00017190:    3f653154    T1e?    DCD    1063596372
        0x00017194:    bee4180e    ....    DCD    3202619406
        0x00017198:    3f655e0b    .^e?    DCD    1063607819
        0x0001719c:    bee363fa    .c..    DCD    3202573306
        0x000171a0:    3f658aa0    ..e?    DCD    1063619232
        0x000171a4:    bee2afc4    ....    DCD    3202527172
        0x000171a8:    3f65b710    ..e?    DCD    1063630608
        0x000171ac:    bee1fb6a    j...    DCD    3202481002
        0x000171b0:    3f65e35e    ^.e?    DCD    1063641950
        0x000171b4:    bee146ee    .F..    DCD    3202434798
        0x000171b8:    3f660f88    ..f?    DCD    1063653256
        0x000171bc:    bee0924f    O...    DCD    3202388559
        0x000171c0:    3f663b8e    .;f?    DCD    1063664526
        0x000171c4:    bedfdd8d    ....    DCD    3202342285
        0x000171c8:    3f666771    qgf?    DCD    1063675761
        0x000171cc:    bedf28a9    .(..    DCD    3202295977
        0x000171d0:    3f669330    0.f?    DCD    1063686960
        0x000171d4:    bede73a2    .s..    DCD    3202249634
        0x000171d8:    3f66becc    ..f?    DCD    1063698124
        0x000171dc:    beddbe79    y...    DCD    3202203257
        0x000171e0:    3f66ea45    E.f?    DCD    1063709253
        0x000171e4:    bedd092e    ....    DCD    3202156846
        0x000171e8:    3f671599    ..g?    DCD    1063720345
        0x000171ec:    bedc53c1    .S..    DCD    3202110401
        0x000171f0:    3f6740ca    .@g?    DCD    1063731402
        0x000171f4:    bedb9e31    1...    DCD    3202063921
        0x000171f8:    3f676bd8    .kg?    DCD    1063742424
        0x000171fc:    bedae880    ....    DCD    3202017408
        0x00017200:    3f6796c1    ..g?    DCD    1063753409
        0x00017204:    beda32ad    .2..    DCD    3201970861
        0x00017208:    3f67c187    ..g?    DCD    1063764359
        0x0001720c:    bed97cb9    .|..    DCD    3201924281
        0x00017210:    3f67ec2a    *.g?    DCD    1063775274
        0x00017214:    bed8c6a3    ....    DCD    3201877667
        0x00017218:    3f6816a8    ..h?    DCD    1063786152
        0x0001721c:    bed8106b    k...    DCD    3201831019
        0x00017220:    3f684103    .Ah?    DCD    1063796995
        0x00017224:    bed75a13    .Z..    DCD    3201784339
        0x00017228:    3f686b39    9kh?    DCD    1063807801
        0x0001722c:    bed6a399    ....    DCD    3201737625
        0x00017230:    3f68954c    L.h?    DCD    1063818572
        0x00017234:    bed5ecfd    ....    DCD    3201690877
        0x00017238:    3f68bf3c    <.h?    DCD    1063829308
        0x0001723c:    bed53641    A6..    DCD    3201644097
        0x00017240:    3f68e907    ..h?    DCD    1063840007
        0x00017244:    bed47f64    d...    DCD    3201597284
        0x00017248:    3f6912ae    ..i?    DCD    1063850670
        0x0001724c:    bed3c867    g...    DCD    3201550439
        0x00017250:    3f693c32    2<i?    DCD    1063861298
        0x00017254:    bed31148    H...    DCD    3201503560
        0x00017258:    3f696591    .ei?    DCD    1063871889
        0x0001725c:    bed25a09    .Z..    DCD    3201456649
        0x00017260:    3f698ecc    ..i?    DCD    1063882444
        0x00017264:    bed1a2aa    ....    DCD    3201409706
        0x00017268:    3f69b7e4    ..i?    DCD    1063892964
        0x0001726c:    bed0eb2a    *...    DCD    3201362730
        0x00017270:    3f69e0d7    ..i?    DCD    1063903447
        0x00017274:    bed0338a    .3..    DCD    3201315722
        0x00017278:    3f6a09a7    ..j?    DCD    1063913895
        0x0001727c:    becf7bca    .{..    DCD    3201268682
        0x00017280:    3f6a3252    R2j?    DCD    1063924306
        0x00017284:    becec3ea    ....    DCD    3201221610
        0x00017288:    3f6a5ad9    .Zj?    DCD    1063934681
        0x0001728c:    bece0bea    ....    DCD    3201174506
        0x00017290:    3f6a833c    <.j?    DCD    1063945020
        0x00017294:    becd53ca    .S..    DCD    3201127370
        0x00017298:    3f6aab7b    {.j?    DCD    1063955323
        0x0001729c:    becc9b8b    ....    DCD    3201080203
        0x000172a0:    3f6ad395    ..j?    DCD    1063965589
        0x000172a4:    becbe32c    ,...    DCD    3201033004
        0x000172a8:    3f6afb8c    ..j?    DCD    1063975820
        0x000172ac:    becb2aae    .*..    DCD    3200985774
        0x000172b0:    3f6b235e    ^#k?    DCD    1063986014
        0x000172b4:    beca7210    .r..    DCD    3200938512
        0x000172b8:    3f6b4b0c    .Kk?    DCD    1063996172
        0x000172bc:    bec9b953    S...    DCD    3200891219
        0x000172c0:    3f6b7295    .rk?    DCD    1064006293
        0x000172c4:    bec90077    w...    DCD    3200843895
        0x000172c8:    3f6b99fb    ..k?    DCD    1064016379
        0x000172cc:    bec8477c    |G..    DCD    3200796540
        0x000172d0:    3f6bc13b    ;.k?    DCD    1064026427
        0x000172d4:    bec78e62    b...    DCD    3200749154
        0x000172d8:    3f6be858    X.k?    DCD    1064036440
        0x000172dc:    bec6d529    )...    DCD    3200701737
        0x000172e0:    3f6c0f50    P.l?    DCD    1064046416
        0x000172e4:    bec61bd2    ....    DCD    3200654290
        0x000172e8:    3f6c3624    $6l?    DCD    1064056356
        0x000172ec:    bec5625c    \b..    DCD    3200606812
        0x000172f0:    3f6c5cd4    .\l?    DCD    1064066260
        0x000172f4:    bec4a8c8    ....    DCD    3200559304
        0x000172f8:    3f6c835e    ^.l?    DCD    1064076126
        0x000172fc:    bec3ef15    ....    DCD    3200511765
        0x00017300:    3f6ca9c5    ..l?    DCD    1064085957
        0x00017304:    bec33544    D5..    DCD    3200464196
        0x00017308:    3f6cd007    ..l?    DCD    1064095751
        0x0001730c:    bec27b55    U{..    DCD    3200416597
        0x00017310:    3f6cf624    $.l?    DCD    1064105508
        0x00017314:    bec1c148    H...    DCD    3200368968
        0x00017318:    3f6d1c1d    ..m?    DCD    1064115229
        0x0001731c:    bec1071e    ....    DCD    3200321310
        0x00017320:    3f6d41f2    .Am?    DCD    1064124914
        0x00017324:    bec04cd5    .L..    DCD    3200273621
        0x00017328:    3f6d67a1    .gm?    DCD    1064134561
        0x0001732c:    bebf926f    o...    DCD    3200225903
        0x00017330:    3f6d8d2d    -.m?    DCD    1064144173
        0x00017334:    bebed7eb    ....    DCD    3200178155
        0x00017338:    3f6db293    ..m?    DCD    1064153747
        0x0001733c:    bebe1d4a    J...    DCD    3200130378
        0x00017340:    3f6dd7d5    ..m?    DCD    1064163285
        0x00017344:    bebd628b    .b..    DCD    3200082571
        0x00017348:    3f6dfcf2    ..m?    DCD    1064172786
        0x0001734c:    bebca7af    ....    DCD    3200034735
        0x00017350:    3f6e21eb    .!n?    DCD    1064182251
        0x00017354:    bebbecb6    ....    DCD    3199986870
        0x00017358:    3f6e46be    .Fn?    DCD    1064191678
        0x0001735c:    bebb31a0    .1..    DCD    3199938976
        0x00017360:    3f6e6b6d    mkn?    DCD    1064201069
        0x00017364:    beba766e    nv..    DCD    3199891054
        0x00017368:    3f6e8ff8    ..n?    DCD    1064210424
        0x0001736c:    beb9bb1e    ....    DCD    3199843102
        0x00017370:    3f6eb45d    ].n?    DCD    1064219741
        0x00017374:    beb8ffb2    ....    DCD    3199795122
        0x00017378:    3f6ed89e    ..n?    DCD    1064229022
        0x0001737c:    beb8442a    *D..    DCD    3199747114
        0x00017380:    3f6efcba    ..n?    DCD    1064238266
        0x00017384:    beb78884    ....    DCD    3199699076
        0x00017388:    3f6f20b0    . o?    DCD    1064247472
        0x0001738c:    beb6ccc3    ....    DCD    3199651011
        0x00017390:    3f6f4483    .Do?    DCD    1064256643
        0x00017394:    beb610e6    ....    DCD    3199602918
        0x00017398:    3f6f6830    0ho?    DCD    1064265776
        0x0001739c:    beb554ec    .T..    DCD    3199554796
        0x000173a0:    3f6f8bb8    ..o?    DCD    1064274872
        0x000173a4:    beb498d6    ....    DCD    3199506646
        0x000173a8:    3f6faf1b    ..o?    DCD    1064283931
        0x000173ac:    beb3dca5    ....    DCD    3199458469
        0x000173b0:    3f6fd25a    Z.o?    DCD    1064292954
        0x000173b4:    beb32058    X ..    DCD    3199410264
        0x000173b8:    3f6ff573    s.o?    DCD    1064301939
        0x000173bc:    beb263ef    .c..    DCD    3199362031
        0x000173c0:    3f701867    g.p?    DCD    1064310887
        0x000173c4:    beb1a76b    k...    DCD    3199313771
        0x000173c8:    3f703b37    7;p?    DCD    1064319799
        0x000173cc:    beb0eacb    ....    DCD    3199265483
        0x000173d0:    3f705de1    .]p?    DCD    1064328673
        0x000173d4:    beb02e10    ....    DCD    3199217168
        0x000173d8:    3f708066    f.p?    DCD    1064337510
        0x000173dc:    beaf713a    :q..    DCD    3199168826
        0x000173e0:    3f70a2c6    ..p?    DCD    1064346310
        0x000173e4:    beaeb449    I...    DCD    3199120457
        0x000173e8:    3f70c502    ..p?    DCD    1064355074
        0x000173ec:    beadf73c    <...    DCD    3199072060
        0x000173f0:    3f70e717    ..p?    DCD    1064363799
        0x000173f4:    bead3a15    .:..    DCD    3199023637
        0x000173f8:    3f710908    ..q?    DCD    1064372488
        0x000173fc:    beac7cd4    .|..    DCD    3198975188
        0x00017400:    3f712ad4    .*q?    DCD    1064381140
        0x00017404:    beabbf77    w...    DCD    3198926711
        0x00017408:    3f714c7a    zLq?    DCD    1064389754
        0x0001740c:    beab0201    ....    DCD    3198878209
        0x00017410:    3f716dfb    .mq?    DCD    1064398331
        0x00017414:    beaa446f    oD..    DCD    3198829679
        0x00017418:    3f718f57    W.q?    DCD    1064406871
        0x0001741c:    bea986c4    ....    DCD    3198781124
        0x00017420:    3f71b08e    ..q?    DCD    1064415374
        0x00017424:    bea8c8fe    ....    DCD    3198732542
        0x00017428:    3f71d19f    ..q?    DCD    1064423839
        0x0001742c:    bea80b1f    ....    DCD    3198683935
        0x00017430:    3f71f28c    ..q?    DCD    1064432268
        0x00017434:    bea74d25    %M..    DCD    3198635301
        0x00017438:    3f721352    R.r?    DCD    1064440658
        0x0001743c:    bea68f12    ....    DCD    3198586642
        0x00017440:    3f7233f4    .3r?    DCD    1064449012
        0x00017444:    bea5d0e5    ....    DCD    3198537957
        0x00017448:    3f725470    pTr?    DCD    1064457328
        0x0001744c:    bea5129f    ....    DCD    3198489247
        0x00017450:    3f7274c7    .tr?    DCD    1064465607
        0x00017454:    bea4543f    ?T..    DCD    3198440511
        0x00017458:    3f7294f8    ..r?    DCD    1064473848
        0x0001745c:    bea395c5    ....    DCD    3198391749
        0x00017460:    3f72b504    ..r?    DCD    1064482052
        0x00017464:    bea2d733    3...    DCD    3198342963
        0x00017468:    3f72d4eb    ..r?    DCD    1064490219
        0x0001746c:    bea21887    ....    DCD    3198294151
        0x00017470:    3f72f4ac    ..r?    DCD    1064498348
        0x00017474:    bea159c2    .Y..    DCD    3198245314
        0x00017478:    3f731447    G.s?    DCD    1064506439
        0x0001747c:    bea09ae5    ....    DCD    3198196453
        0x00017480:    3f7333be    .3s?    DCD    1064514494
        0x00017484:    be9fdbee    ....    DCD    3198147566
        0x00017488:    3f73530e    .Ss?    DCD    1064522510
        0x0001748c:    be9f1cdf    ....    DCD    3198098655
        0x00017490:    3f737239    9rs?    DCD    1064530489
        0x00017494:    be9e5db8    .]..    DCD    3198049720
        0x00017498:    3f73913f    ?.s?    DCD    1064538431
        0x0001749c:    be9d9e78    x...    DCD    3198000760
        0x000174a0:    3f73b01f    ..s?    DCD    1064546335
        0x000174a4:    be9cdf20     ...    DCD    3197951776
        0x000174a8:    3f73ced9    ..s?    DCD    1064554201
        0x000174ac:    be9c1faf    ....    DCD    3197902767
        0x000174b0:    3f73ed6e    n.s?    DCD    1064562030
        0x000174b4:    be9b6027    '`..    DCD    3197853735
        0x000174b8:    3f740bdd    ..t?    DCD    1064569821
        0x000174bc:    be9aa086    ....    DCD    3197804678
        0x000174c0:    3f742a27    '*t?    DCD    1064577575
        0x000174c4:    be99e0ce    ....    DCD    3197755598
        0x000174c8:    3f74484b    KHt?    DCD    1064585291
        0x000174cc:    be9920fe    . ..    DCD    3197706494
        0x000174d0:    3f746649    Ift?    DCD    1064592969
        0x000174d4:    be986116    .a..    DCD    3197657366
        0x000174d8:    3f748422    ".t?    DCD    1064600610
        0x000174dc:    be97a117    ....    DCD    3197608215
        0x000174e0:    3f74a1d5    ..t?    DCD    1064608213
        0x000174e4:    be96e100    ....    DCD    3197559040
        0x000174e8:    3f74bf62    b.t?    DCD    1064615778
        0x000174ec:    be9620d2    . ..    DCD    3197509842
        0x000174f0:    3f74dcc9    ..t?    DCD    1064623305
        0x000174f4:    be95608d    .`..    DCD    3197460621
        0x000174f8:    3f74fa0b    ..t?    DCD    1064630795
        0x000174fc:    be94a031    1...    DCD    3197411377
        0x00017500:    3f751727    '.u?    DCD    1064638247
        0x00017504:    be93dfbf    ....    DCD    3197362111
        0x00017508:    3f75341d    .4u?    DCD    1064645661
        0x0001750c:    be931f35    5...    DCD    3197312821
        0x00017510:    3f7550ed    .Pu?    DCD    1064653037
        0x00017514:    be925e94    .^..    DCD    3197263508
        0x00017518:    3f756d97    .mu?    DCD    1064660375
        0x0001751c:    be919ddd    ....    DCD    3197214173
        0x00017520:    3f758a1c    ..u?    DCD    1064667676
        0x00017524:    be90dd10    ....    DCD    3197164816
        0x00017528:    3f75a67b    {.u?    DCD    1064674939
        0x0001752c:    be901c2c    ,...    DCD    3197115436
        0x00017530:    3f75c2b3    ..u?    DCD    1064682163
        0x00017534:    be8f5b32    2[..    DCD    3197066034
        0x00017538:    3f75dec6    ..u?    DCD    1064689350
        0x0001753c:    be8e9a22    "...    DCD    3197016610
        0x00017540:    3f75fab3    ..u?    DCD    1064696499
        0x00017544:    be8dd8fc    ....    DCD    3196967164
        0x00017548:    3f76167a    z.v?    DCD    1064703610
        0x0001754c:    be8d17c0    ....    DCD    3196917696
        0x00017550:    3f76321b    .2v?    DCD    1064710683
        0x00017554:    be8c566e    nV..    DCD    3196868206
        0x00017558:    3f764d97    .Mv?    DCD    1064717719
        0x0001755c:    be8b9507    ....    DCD    3196818695
        0x00017560:    3f7668ec    .hv?    DCD    1064724716
        0x00017564:    be8ad38a    ....    DCD    3196769162
        0x00017568:    3f76841b    ..v?    DCD    1064731675
        0x0001756c:    be8a11f8    ....    DCD    3196719608
        0x00017570:    3f769f24    $.v?    DCD    1064738596
        0x00017574:    be895050    PP..    DCD    3196670032
        0x00017578:    3f76ba07    ..v?    DCD    1064745479
        0x0001757c:    be888e93    ....    DCD    3196620435
        0x00017580:    3f76d4c4    ..v?    DCD    1064752324
        0x00017584:    be87ccc1    ....    DCD    3196570817
        0x00017588:    3f76ef5b    [.v?    DCD    1064759131
        0x0001758c:    be870ada    ....    DCD    3196521178
        0x00017590:    3f7709cc    ..w?    DCD    1064765900
        0x00017594:    be8648df    .H..    DCD    3196471519
        0x00017598:    3f772417    .$w?    DCD    1064772631
        0x0001759c:    be8586ce    ....    DCD    3196421838
        0x000175a0:    3f773e3c    <>w?    DCD    1064779324
        0x000175a4:    be84c4aa    ....    DCD    3196372138
        0x000175a8:    3f77583a    :Xw?    DCD    1064785978
        0x000175ac:    be840270    p...    DCD    3196322416
        0x000175b0:    3f777213    .rw?    DCD    1064792595
        0x000175b4:    be834022    "@..    DCD    3196272674
        0x000175b8:    3f778bc5    ..w?    DCD    1064799173
        0x000175bc:    be827dc0    .}..    DCD    3196222912
        0x000175c0:    3f77a551    Q.w?    DCD    1064805713
        0x000175c4:    be81bb4a    J...    DCD    3196173130
        0x000175c8:    3f77beb7    ..w?    DCD    1064812215
        0x000175cc:    be80f8c0    ....    DCD    3196123328
        0x000175d0:    3f77d7f7    ..w?    DCD    1064818679
        0x000175d4:    be803622    "6..    DCD    3196073506
        0x000175d8:    3f77f110    ..w?    DCD    1064825104
        0x000175dc:    be7ee6e1    ..~.    DCD    3195987681
        0x000175e0:    3f780a04    ..x?    DCD    1064831492
        0x000175e4:    be7d6156    Va}.    DCD    3195887958
        0x000175e8:    3f7822d1    ."x?    DCD    1064837841
        0x000175ec:    be7bdba4    ..{.    DCD    3195788196
        0x000175f0:    3f783b77    w;x?    DCD    1064844151
        0x000175f4:    be7a55cb    .Uz.    DCD    3195688395
        0x000175f8:    3f7853f8    .Sx?    DCD    1064850424
        0x000175fc:    be78cfcc    ..x.    DCD    3195588556
        0x00017600:    3f786c52    Rlx?    DCD    1064856658
        0x00017604:    be7749a6    .Iw.    DCD    3195488678
        0x00017608:    3f788486    ..x?    DCD    1064862854
        0x0001760c:    be75c35a    Z.u.    DCD    3195388762
        0x00017610:    3f789c93    ..x?    DCD    1064869011
        0x00017614:    be743ce8    .<t.    DCD    3195288808
        0x00017618:    3f78b47b    {.x?    DCD    1064875131
        0x0001761c:    be72b651    Q.r.    DCD    3195188817
        0x00017620:    3f78cc3b    ;.x?    DCD    1064881211
        0x00017624:    be712f94    ./q.    DCD    3195088788
        0x00017628:    3f78e3d6    ..x?    DCD    1064887254
        0x0001762c:    be6fa8b2    ..o.    DCD    3194988722
        0x00017630:    3f78fb4a    J.x?    DCD    1064893258
        0x00017634:    be6e21ab    .!n.    DCD    3194888619
        0x00017638:    3f791298    ..y?    DCD    1064899224
        0x0001763c:    be6c9a7f    ..l.    DCD    3194788479
        0x00017640:    3f7929bf    .)y?    DCD    1064905151
        0x00017644:    be6b132f    /.k.    DCD    3194688303
        0x00017648:    3f7940c0    .@y?    DCD    1064911040
        0x0001764c:    be698bba    ..i.    DCD    3194588090
        0x00017650:    3f79579a    .Wy?    DCD    1064916890
        0x00017654:    be680422    ".h.    DCD    3194487842
        0x00017658:    3f796e4e    Nny?    DCD    1064922702
        0x0001765c:    be667c66    f|f.    DCD    3194387558
        0x00017660:    3f7984dc    ..y?    DCD    1064928476
        0x00017664:    be64f486    ..d.    DCD    3194287238
        0x00017668:    3f799b43    C.y?    DCD    1064934211
        0x0001766c:    be636c83    .lc.    DCD    3194186883
        0x00017670:    3f79b183    ..y?    DCD    1064939907
        0x00017674:    be61e45c    \.a.    DCD    3194086492
        0x00017678:    3f79c79d    ..y?    DCD    1064945565
        0x0001767c:    be605c13    .\`.    DCD    3193986067
        0x00017680:    3f79dd91    ..y?    DCD    1064951185
        0x00017684:    be5ed3a8    ..^.    DCD    3193885608
        0x00017688:    3f79f35e    ^.y?    DCD    1064956766
        0x0001768c:    be5d4b1a    .K].    DCD    3193785114
        0x00017690:    3f7a0904    ..z?    DCD    1064962308
        0x00017694:    be5bc26a    j.[.    DCD    3193684586
        0x00017698:    3f7a1e84    ..z?    DCD    1064967812
        0x0001769c:    be5a3997    .9Z.    DCD    3193584023
        0x000176a0:    3f7a33dd    .3z?    DCD    1064973277
        0x000176a4:    be58b0a4    ..X.    DCD    3193483428
        0x000176a8:    3f7a4910    .Iz?    DCD    1064978704
        0x000176ac:    be57278f    .'W.    DCD    3193382799
        0x000176b0:    3f7a5e1c    .^z?    DCD    1064984092
        0x000176b4:    be559e58    X.U.    DCD    3193282136
        0x000176b8:    3f7a7302    .sz?    DCD    1064989442
        0x000176bc:    be541501    ..T.    DCD    3193181441
        0x000176c0:    3f7a87c1    ..z?    DCD    1064994753
        0x000176c4:    be528b89    ..R.    DCD    3193080713
        0x000176c8:    3f7a9c59    Y.z?    DCD    1065000025
        0x000176cc:    be5101f1    ..Q.    DCD    3192979953
        0x000176d0:    3f7ab0cb    ..z?    DCD    1065005259
        0x000176d4:    be4f7838    8xO.    DCD    3192879160
        0x000176d8:    3f7ac516    ..z?    DCD    1065010454
        0x000176dc:    be4dee60    `.M.    DCD    3192778336
        0x000176e0:    3f7ad93a    :.z?    DCD    1065015610
        0x000176e4:    be4c6467    gdL.    DCD    3192677479
        0x000176e8:    3f7aed37    7.z?    DCD    1065020727
        0x000176ec:    be4ada4f    O.J.    DCD    3192576591
        0x000176f0:    3f7b010e    ..{?    DCD    1065025806
        0x000176f4:    be495018    .PI.    DCD    3192475672
        0x000176f8:    3f7b14be    ..{?    DCD    1065030846
        0x000176fc:    be47c5c2    ..G.    DCD    3192374722
        0x00017700:    3f7b2848    H({?    DCD    1065035848
        0x00017704:    be463b4d    M;F.    DCD    3192273741
        0x00017708:    3f7b3bab    .;{?    DCD    1065040811
        0x0001770c:    be44b0b9    ..D.    DCD    3192172729
        0x00017710:    3f7b4ee7    .N{?    DCD    1065045735
        0x00017714:    be432607    .&C.    DCD    3192071687
        0x00017718:    3f7b61fc    .a{?    DCD    1065050620
        0x0001771c:    be419b37    7.A.    DCD    3191970615
        0x00017720:    3f7b74ea    .t{?    DCD    1065055466
        0x00017724:    be401049    I.@.    DCD    3191869513
        0x00017728:    3f7b87b2    ..{?    DCD    1065060274
        0x0001772c:    be3e853e    >.>.    DCD    3191768382
        0x00017730:    3f7b9a53    S.{?    DCD    1065065043
        0x00017734:    be3cfa15    ..<.    DCD    3191667221
        0x00017738:    3f7baccd    ..{?    DCD    1065069773
        0x0001773c:    be3b6ecf    .n;.    DCD    3191566031
        0x00017740:    3f7bbf20     .{?    DCD    1065074464
        0x00017744:    be39e36c    l.9.    DCD    3191464812
        0x00017748:    3f7bd14d    M.{?    DCD    1065079117
        0x0001774c:    be3857ec    .W8.    DCD    3191363564
        0x00017750:    3f7be353    S.{?    DCD    1065083731
        0x00017754:    be36cc50    P.6.    DCD    3191262288
        0x00017758:    3f7bf531    1.{?    DCD    1065088305
        0x0001775c:    be354098    .@5.    DCD    3191160984
        0x00017760:    3f7c06e9    ..|?    DCD    1065092841
        0x00017764:    be33b4c4    ..3.    DCD    3191059652
        0x00017768:    3f7c187a    z.|?    DCD    1065097338
        0x0001776c:    be3228d4    .(2.    DCD    3190958292
        0x00017770:    3f7c29e5    .)|?    DCD    1065101797
        0x00017774:    be309cc9    ..0.    DCD    3190856905
        0x00017778:    3f7c3b28    (;|?    DCD    1065106216
        0x0001777c:    be2f10a2    ../.    DCD    3190755490
        0x00017780:    3f7c4c44    DL|?    DCD    1065110596
        0x00017784:    be2d8461    a.-.    DCD    3190654049
        0x00017788:    3f7c5d3a    :]|?    DCD    1065114938
        0x0001778c:    be2bf804    ..+.    DCD    3190552580
        0x00017790:    3f7c6e08    .n|?    DCD    1065119240
        0x00017794:    be2a6b8d    .k*.    DCD    3190451085
        0x00017798:    3f7c7eb0    .~|?    DCD    1065123504
        0x0001779c:    be28defc    ..(.    DCD    3190349564
        0x000177a0:    3f7c8f31    1.|?    DCD    1065127729
        0x000177a4:    be275251    QR'.    DCD    3190248017
        0x000177a8:    3f7c9f8a    ..|?    DCD    1065131914
        0x000177ac:    be25c58c    ..%.    DCD    3190146444
        0x000177b0:    3f7cafbd    ..|?    DCD    1065136061
        0x000177b4:    be2438ad    .8$.    DCD    3190044845
        0x000177b8:    3f7cbfc9    ..|?    DCD    1065140169
        0x000177bc:    be22abb6    ..".    DCD    3189943222
        0x000177c0:    3f7ccfae    ..|?    DCD    1065144238
        0x000177c4:    be211ea5    ..!.    DCD    3189841573
        0x000177c8:    3f7cdf6c    l.|?    DCD    1065148268
        0x000177cc:    be1f917b    {...    DCD    3189739899
        0x000177d0:    3f7cef03    ..|?    DCD    1065152259
        0x000177d4:    be1e0438    8...    DCD    3189638200
        0x000177d8:    3f7cfe73    s.|?    DCD    1065156211
        0x000177dc:    be1c76de    .v..    DCD    3189536478
        0x000177e0:    3f7d0dbc    ..}?    DCD    1065160124
        0x000177e4:    be1ae96b    k...    DCD    3189434731
        0x000177e8:    3f7d1cdd    ..}?    DCD    1065163997
        0x000177ec:    be195be0    .[..    DCD    3189332960
        0x000177f0:    3f7d2bd8    .+}?    DCD    1065167832
        0x000177f4:    be17ce3d    =...    DCD    3189231165
        0x000177f8:    3f7d3aac    .:}?    DCD    1065171628
        0x000177fc:    be164083    .@..    DCD    3189129347
        0x00017800:    3f7d4959    YI}?    DCD    1065175385
        0x00017804:    be14b2b2    ....    DCD    3189027506
        0x00017808:    3f7d57de    .W}?    DCD    1065179102
        0x0001780c:    be1324ca    .$..    DCD    3188925642
        0x00017810:    3f7d663d    =f}?    DCD    1065182781
        0x00017814:    be1196cc    ....    DCD    3188823756
        0x00017818:    3f7d7474    tt}?    DCD    1065186420
        0x0001781c:    be1008b7    ....    DCD    3188721847
        0x00017820:    3f7d8285    ..}?    DCD    1065190021
        0x00017824:    be0e7a8b    .z..    DCD    3188619915
        0x00017828:    3f7d906e    n.}?    DCD    1065193582
        0x0001782c:    be0cec4a    J...    DCD    3188517962
        0x00017830:    3f7d9e30    0.}?    DCD    1065197104
        0x00017834:    be0b5df3    .]..    DCD    3188415987
        0x00017838:    3f7dabcc    ..}?    DCD    1065200588
        0x0001783c:    be09cf86    ....    DCD    3188313990
        0x00017840:    3f7db940    @.}?    DCD    1065204032
        0x00017844:    be084105    .A..    DCD    3188211973
        0x00017848:    3f7dc68c    ..}?    DCD    1065207436
        0x0001784c:    be06b26e    n...    DCD    3188109934
        0x00017850:    3f7dd3b2    ..}?    DCD    1065210802
        0x00017854:    be0523c2    .#..    DCD    3188007874
        0x00017858:    3f7de0b1    ..}?    DCD    1065214129
        0x0001785c:    be039502    ....    DCD    3187905794
        0x00017860:    3f7ded88    ..}?    DCD    1065217416
        0x00017864:    be02062e    ....    DCD    3187803694
        0x00017868:    3f7dfa38    8.}?    DCD    1065220664
        0x0001786c:    be007745    Ew..    DCD    3187701573
        0x00017870:    3f7e06c2    ..~?    DCD    1065223874
        0x00017874:    bdfdd092    ....    DCD    3187527826
        0x00017878:    3f7e1324    $.~?    DCD    1065227044
        0x0001787c:    bdfab273    s...    DCD    3187323507
        0x00017880:    3f7e1f5e    ^.~?    DCD    1065230174
        0x00017884:    bdf7942c    ,...    DCD    3187119148
        0x00017888:    3f7e2b72    r+~?    DCD    1065233266
        0x0001788c:    bdf475c0    .u..    DCD    3186914752
        0x00017890:    3f7e375e    ^7~?    DCD    1065236318
        0x00017894:    bdf1572e    .W..    DCD    3186710318
        0x00017898:    3f7e4323    #C~?    DCD    1065239331
        0x0001789c:    bdee3876    v8..    DCD    3186505846
        0x000178a0:    3f7e4ec1    .N~?    DCD    1065242305
        0x000178a4:    bdeb199a    ....    DCD    3186301338
        0x000178a8:    3f7e5a38    8Z~?    DCD    1065245240
        0x000178ac:    bde7fa9a    ....    DCD    3186096794
        0x000178b0:    3f7e6588    .e~?    DCD    1065248136
        0x000178b4:    bde4db76    v...    DCD    3185892214
        0x000178b8:    3f7e70b0    .p~?    DCD    1065250992
        0x000178bc:    bde1bc2e    ....    DCD    3185687598
        0x000178c0:    3f7e7bb1    .{~?    DCD    1065253809
        0x000178c4:    bdde9cc4    ....    DCD    3185482948
        0x000178c8:    3f7e868b    ..~?    DCD    1065256587
        0x000178cc:    bddb7d37    7}..    DCD    3185278263
        0x000178d0:    3f7e913d    =.~?    DCD    1065259325
        0x000178d4:    bdd85d89    .]..    DCD    3185073545
        0x000178d8:    3f7e9bc9    ..~?    DCD    1065262025
        0x000178dc:    bdd53db9    .=..    DCD    3184868793
        0x000178e0:    3f7ea62d    -.~?    DCD    1065264685
        0x000178e4:    bdd21dc8    ....    DCD    3184664008
        0x000178e8:    3f7eb069    i.~?    DCD    1065267305
        0x000178ec:    bdcefdb7    ....    DCD    3184459191
        0x000178f0:    3f7eba7f    ..~?    DCD    1065269887
        0x000178f4:    bdcbdd86    ....    DCD    3184254342
        0x000178f8:    3f7ec46d    m.~?    DCD    1065272429
        0x000178fc:    bdc8bd36    6...    DCD    3184049462
        0x00017900:    3f7ece34    4.~?    DCD    1065274932
        0x00017904:    bdc59cc6    ....    DCD    3183844550
        0x00017908:    3f7ed7d4    ..~?    DCD    1065277396
        0x0001790c:    bdc27c39    9|..    DCD    3183639609
        0x00017910:    3f7ee14c    L.~?    DCD    1065279820
        0x00017914:    bdbf5b8d    .[..    DCD    3183434637
        0x00017918:    3f7eea9d    ..~?    DCD    1065282205
        0x0001791c:    bdbc3ac3    .:..    DCD    3183229635
        0x00017920:    3f7ef3c7    ..~?    DCD    1065284551
        0x00017924:    bdb919dd    ....    DCD    3183024605
        0x00017928:    3f7efcc9    ..~?    DCD    1065286857
        0x0001792c:    bdb5f8da    ....    DCD    3182819546
        0x00017930:    3f7f05a4    ...?    DCD    1065289124
        0x00017934:    bdb2d7bb    ....    DCD    3182614459
        0x00017938:    3f7f0e58    X..?    DCD    1065291352
        0x0001793c:    bdafb680    ....    DCD    3182409344
        0x00017940:    3f7f16e4    ...?    DCD    1065293540
        0x00017944:    bdac952b    +...    DCD    3182204203
        0x00017948:    3f7f1f49    I..?    DCD    1065295689
        0x0001794c:    bda973ba    .s..    DCD    3181999034
        0x00017950:    3f7f2787    .'.?    DCD    1065297799
        0x00017954:    bda65230    0R..    DCD    3181793840
        0x00017958:    3f7f2f9d    ./.?    DCD    1065299869
        0x0001795c:    bda3308c    .0..    DCD    3181588620
        0x00017960:    3f7f378d    .7.?    DCD    1065301901
        0x00017964:    bda00ecf    ....    DCD    3181383375
        0x00017968:    3f7f3f54    T?.?    DCD    1065303892
        0x0001796c:    bd9cecf9    ....    DCD    3181178105
        0x00017970:    3f7f46f4    .F.?    DCD    1065305844
        0x00017974:    bd99cb0a    ....    DCD    3180972810
        0x00017978:    3f7f4e6d    mN.?    DCD    1065307757
        0x0001797c:    bd96a905    ....    DCD    3180767493
        0x00017980:    3f7f55bf    .U.?    DCD    1065309631
        0x00017984:    bd9386e7    ....    DCD    3180562151
        0x00017988:    3f7f5ce9    .\.?    DCD    1065311465
        0x0001798c:    bd9064b4    .d..    DCD    3180356788
        0x00017990:    3f7f63ec    .c.?    DCD    1065313260
        0x00017994:    bd8d426a    jB..    DCD    3180151402
        0x00017998:    3f7f6ac7    .j.?    DCD    1065315015
        0x0001799c:    bd8a200a    . ..    DCD    3179945994
        0x000179a0:    3f7f717b    {q.?    DCD    1065316731
        0x000179a4:    bd86fd94    ....    DCD    3179740564
        0x000179a8:    3f7f7808    .x.?    DCD    1065318408
        0x000179ac:    bd83db0a    ....    DCD    3179535114
        0x000179b0:    3f7f7e6d    m~.?    DCD    1065320045
        0x000179b4:    bd80b86c    l...    DCD    3179329644
        0x000179b8:    3f7f84ab    ...?    DCD    1065321643
        0x000179bc:    bd7b2b74    t+{.    DCD    3178965876
        0x000179c0:    3f7f8ac2    ...?    DCD    1065323202
        0x000179c4:    bd74e5e9    ..t.    DCD    3178554857
        0x000179c8:    3f7f90b1    ...?    DCD    1065324721
        0x000179cc:    bd6ea038    8.n.    DCD    3178143800
        0x000179d0:    3f7f9678    x..?    DCD    1065326200
        0x000179d4:    bd685a62    bZh.    DCD    3177732706
        0x000179d8:    3f7f9c18    ...?    DCD    1065327640
        0x000179dc:    bd621468    h.b.    DCD    3177321576
        0x000179e0:    3f7fa191    ...?    DCD    1065329041
        0x000179e4:    bd5bce4c    L.[.    DCD    3176910412
        0x000179e8:    3f7fa6e3    ...?    DCD    1065330403
        0x000179ec:    bd55880e    ..U.    DCD    3176499214
        0x000179f0:    3f7fac0d    ...?    DCD    1065331725
        0x000179f4:    bd4f41af    .AO.    DCD    3176087983
        0x000179f8:    3f7fb10f    ...?    DCD    1065333007
        0x000179fc:    bd48fb2f    /.H.    DCD    3175676719
        0x00017a00:    3f7fb5ea    ...?    DCD    1065334250
        0x00017a04:    bd42b491    ..B.    DCD    3175265425
        0x00017a08:    3f7fba9e    ...?    DCD    1065335454
        0x00017a0c:    bd3c6dd5    .m<.    DCD    3174854101
        0x00017a10:    3f7fbf2a    *..?    DCD    1065336618
        0x00017a14:    bd3626fc    .&6.    DCD    3174442748
        0x00017a18:    3f7fc38f    ...?    DCD    1065337743
        0x00017a1c:    bd2fe007    ../.    DCD    3174031367
        0x00017a20:    3f7fc7cc    ...?    DCD    1065338828
        0x00017a24:    bd2998f6    ..).    DCD    3173619958
        0x00017a28:    3f7fcbe2    ...?    DCD    1065339874
        0x00017a2c:    bd2351cc    .Q#.    DCD    3173208524
        0x00017a30:    3f7fcfd1    ...?    DCD    1065340881
        0x00017a34:    bd1d0a88    ....    DCD    3172797064
        0x00017a38:    3f7fd398    ...?    DCD    1065341848
        0x00017a3c:    bd16c32c    ,...    DCD    3172385580
        0x00017a40:    3f7fd737    7..?    DCD    1065342775
        0x00017a44:    bd107bb8    .{..    DCD    3171974072
        0x00017a48:    3f7fdaaf    ...?    DCD    1065343663
        0x00017a4c:    bd0a342f    /4..    DCD    3171562543
        0x00017a50:    3f7fde00    ...?    DCD    1065344512
        0x00017a54:    bd03ec90    ....    DCD    3171150992
        0x00017a58:    3f7fe129    )..?    DCD    1065345321
        0x00017a5c:    bcfb49b9    .I..    DCD    3170585017
        0x00017a60:    3f7fe42b    +..?    DCD    1065346091
        0x00017a64:    bceeba2d    -...    DCD    3169761837
        0x00017a68:    3f7fe705    ...?    DCD    1065346821
        0x00017a6c:    bce22a7b    {*..    DCD    3168938619
        0x00017a70:    3f7fe9b8    ...?    DCD    1065347512
        0x00017a74:    bcd59aa6    ....    DCD    3168115366
        0x00017a78:    3f7fec43    C..?    DCD    1065348163
        0x00017a7c:    bcc90ab0    ....    DCD    3167292080
        0x00017a80:    3f7feea7    ...?    DCD    1065348775
        0x00017a84:    bcbc7a9b    .z..    DCD    3166468763
        0x00017a88:    3f7ff0e3    ...?    DCD    1065349347
        0x00017a8c:    bcafea69    i...    DCD    3165645417
        0x00017a90:    3f7ff2f8    ...?    DCD    1065349880
        0x00017a94:    bca35a1c    .Z..    DCD    3164822044
        0x00017a98:    3f7ff4e6    ...?    DCD    1065350374
        0x00017a9c:    bc96c9b6    ....    DCD    3163998646
        0x00017aa0:    3f7ff6ac    ...?    DCD    1065350828
        0x00017aa4:    bc8a3938    89..    DCD    3163175224
        0x00017aa8:    3f7ff84a    J..?    DCD    1065351242
        0x00017aac:    bc7b514b    KQ{.    DCD    3162198347
        0x00017ab0:    3f7ff9c1    ...?    DCD    1065351617
        0x00017ab4:    bc623000    .0b.    DCD    3160551424
        0x00017ab8:    3f7ffb11    ...?    DCD    1065351953
        0x00017abc:    bc490e90    ..I.    DCD    3158904464
        0x00017ac0:    3f7ffc39    9..?    DCD    1065352249
        0x00017ac4:    bc2fed02    ../.    DCD    3157257474
        0x00017ac8:    3f7ffd39    9..?    DCD    1065352505
        0x00017acc:    bc16cb59    Y...    DCD    3155610457
        0x00017ad0:    3f7ffe13    ...?    DCD    1065352723
        0x00017ad4:    bbfb5330    0S..    DCD    3153810224
        0x00017ad8:    3f7ffec4    ...?    DCD    1065352900
        0x00017adc:    bbc90f89    ....    DCD    3150516105
        0x00017ae0:    3f7fff4e    N..?    DCD    1065353038
        0x00017ae4:    bb96cbc1    ....    DCD    3147221953
        0x00017ae8:    3f7fffb1    ...?    DCD    1065353137
        0x00017aec:    bb490fc7    ..I.    DCD    3142127559
        0x00017af0:    3f7fffec    ...?    DCD    1065353196
        0x00017af4:    bac90fd4    ....    DCD    3133738964
    Region$$Table$$Base
        0x00017af8:    00017b18    .{..    DCD    97048
        0x00017afc:    10000000    ....    DCD    268435456
        0x00017b00:    0000009c    ....    DCD    156
        0x00017b04:    0000c170    p...    DCD    49520
        0x00017b08:    00017bb4    .{..    DCD    97204
        0x00017b0c:    1000009c    ....    DCD    268435612
        0x00017b10:    00015c74    t\..    DCD    89204
        0x00017b14:    0000c18c    ....    DCD    49548
    Region$$Table$$Limit

** Section #2 'SRAM' (SHT_PROGBITS) [SHF_ALLOC + SHF_WRITE]
    Size   : 156 bytes (alignment 4)
    Address: 0x10000000

    0x10000000:   00 00 00 00 00 00 00 00 00 00 00 00 00 04 04 00    ................
    0x10000010:   40 00 00 00 00 00 00 00 0b 00 00 00 02 00 00 00    @...............
    0x10000020:   01 02 00 00 01 00 00 00 00 00 00 00 00 00 00 00    ................
    0x10000030:   00 00 00 00 00 00 00 00 00 00 00 00 00 00 00 00    ................
    0x10000040:   0a 00 00 00 03 00 00 00 1e 00 00 00 03 00 00 00    ................
    0x10000050:   0f 00 00 00 03 00 00 00 0e 00 00 00 03 00 00 00    ................
    0x10000060:   11 00 00 00 03 00 00 00 00 c2 01 00 60 00 00 00    ............`...
    0x10000070:   00 00 00 00 00 00 00 00 00 00 00 00 12 00 00 00    ................
    0x10000080:   a0 54 01 10 00 04 00 00 a0 58 01 10 00 04 00 00    .T.......X......
    0x10000090:   00 00 00 00 00 00 00 00 00 00 00 00                ............


** Section #3 'SRAM' (SHT_NOBITS) [SHF_ALLOC + SHF_WRITE]
    Size   : 89204 bytes (alignment 8)
    Address: 0x1000009c


** Section #4 '.debug_abbrev' (SHT_PROGBITS)
    Size   : 2610 bytes


** Section #5 '.debug_frame' (SHT_PROGBITS)
    Size   : 3092 bytes


** Section #6 '.debug_info' (SHT_PROGBITS)
    Size   : 305116 bytes


** Section #7 '.debug_line' (SHT_PROGBITS)
    Size   : 9405 bytes


** Section #8 '.debug_loc' (SHT_PROGBITS)
    Size   : 9455 bytes


** Section #9 '.debug_macinfo' (SHT_PROGBITS)
    Size   : 225792 bytes


** Section #10 '.debug_pubnames' (SHT_PROGBITS)
    Size   : 1112 bytes


** Section #11 '.debug_str' (SHT_PROGBITS)
    Size   : 5051 bytes


** Section #12 '.debug_ranges' (SHT_PROGBITS)
    Size   : 200 bytes


** Section #13 '.symtab' (SHT_SYMTAB)
    Size   : 9008 bytes (alignment 4)
    String table #14 '.strtab'
    Last local symbol no. 364

    Symbol table .symtab (562 symbols, 364 local)

      #  Symbol Name                Value      Bind  Sec  Type  Vis  Size
    ========================================================================

      1  $d                         0x0000c000   Lc    1   --   De 
      2  $t                         0x0000c100   Lc    1   --   De 
      3  $d                         0x0000c130   Lc    1   --   De 
      4  $t                         0x0000c134   Lc    1   --   De 
      5  $d                         0x0000c168   Lc    1   --   De 
      6  $t                         0x0000c170   Lc    1   --   De 
      7  $d                         0x0000c21a   Lc    1   --   De 
      8  $t                         0x0000c228   Lc    1   --   De 
      9  $d                         0x0000c248   Lc    1   --   De 
     10  $t                         0x0000c24c   Lc    1   --   De 
     11  $d                         0x0000c250   Lc    1   --   De 
     12  $t                         0x0000c254   Lc    1   --   De 
     13  $d                         0x0000c2b8   Lc    1   --   De 
     14  $t                         0x0000c2bc   Lc    1   --   De 
     15  $t.0                       0x0000c2c0   Lc    1   --   De 
     16  $d.1                       0x0000c440   Lc    1   --   De 
     17  $t.0                       0x0000c454   Lc    1   --   De 
     18  $t                         0x0000cd3a   Lc    1   --   De 
     19  $d                         0x0000cda0   Lc    1   --   De 
     20  $t                         0x0000cdb0   Lc    1   --   De 
     21  $d                         0x0000cdf6   Lc    1   --   De 
     22  $t                         0x0000cdfc   Lc    1   --   De 
     23  $d                         0x0000ce0a   Lc    1   --   De 
     24  $t                         0x0000ce10   Lc    1   --   De 
     25  $d                         0x0000ce28   Lc    1   --   De 
     26  $t                         0x0000ce32   Lc    1   --   De 
     27  $d                         0x0000cefc   Lc    1   --   De 
     28  $t                         0x0000cf0c   Lc    1   --   De 
     29  $d                         0x0000cf38   Lc    1   --   De 
     30  $t                         0x0000cf40   Lc    1   --   De 
     31  $d                         0x0000cf5e   Lc    1   --   De 
     32  $t                         0x0000cf64   Lc    1   --   De 
     33  $d                         0x0000d1ae   Lc    1   --   De 
     34  $t                         0x0000d1e4   Lc    1   --   De 
     35  $d                         0x0000d222   Lc    1   --   De 
     36  $t                         0x0000d228   Lc    1   --   De 
     37  $d                         0x0000d290   Lc    1   --   De 
     38  $t                         0x0000d2ac   Lc    1   --   De 
     39  $d                         0x0000d3f2   Lc    1   --   De 
     40  $t                         0x0000d414   Lc    1   --   De 
     41  $d                         0x0000d51a   Lc    1   --   De 
     42  $t                         0x0000d528   Lc    1   --   De 
     43  $d                         0x0000d558   Lc    1   --   De 
     44  $t                         0x0000d560   Lc    1   --   De 
     45  $d                         0x0000d5ea   Lc    1   --   De 
     46  $t                         0x0000d5f4   Lc    1   --   De 
     47  $d                         0x0000d624   Lc    1   --   De 
     48  $t                         0x0000d62c   Lc    1   --   De 
     49  $d                         0x0000d650   Lc    1   --   De 
     50  $t                         0x0000d658   Lc    1   --   De 
     51  $d                         0x0000d690   Lc    1   --   De 
     52  $t                         0x0000d698   Lc    1   --   De 
     53  $d                         0x0000d6bc   Lc    1   --   De 
     54  $t                         0x0000d6c4   Lc    1   --   De 
     55  $d                         0x0000d6ee   Lc    1   --   De 
     56  $t                         0x0000d6f8   Lc    1   --   De 
     57  $d                         0x0000d730   Lc    1   --   De 
     58  $t                         0x0000d738   Lc    1   --   De 
     59  $d                         0x0000d7b0   Lc    1   --   De 
     60  $t                         0x0000d7b4   Lc    1   --   De 
     61  $d                         0x0000d868   Lc    1   --   De 
     62  $t                         0x0000d870   Lc    1   --   De 
     63  $d                         0x0000d8d8   Lc    1   --   De 
     64  $t                         0x0000d8e0   Lc    1   --   De 
     65  $d                         0x0000d97e   Lc    1   --   De 
     66  $t                         0x0000d99c   Lc    1   --   De 
     67  $d                         0x0000da16   Lc    1   --   De 
     68  $t                         0x0000da2c   Lc    1   --   De 
     69  $d                         0x0000da58   Lc    1   --   De 
     70  $t                         0x0000da5c   Lc    1   --   De 
     71  $d                         0x0000dc24   Lc    1   --   De 
     72  $t                         0x0000df34   Lc    1   --   De 
     73  $d                         0x0000df60   Lc    1   --   De 
     74  $t                         0x0000df68   Lc    1   --   De 
     75  $d                         0x0000df6e   Lc    1   --   De 
     76  $t                         0x0000df74   Lc    1   --   De 
     77  $d                         0x0000df94   Lc    1   --   De 
     78  $t                         0x0000dfb0   Lc    1   --   De 
     79  $d                         0x0000e3d0   Lc    1   --   De 
     80  $t                         0x0000e3d4   Lc    1   --   De 
     81  $d                         0x0000e6e4   Lc    1   --   De 
     82  $t                         0x0000e6f0   Lc    1   --   De 
     83  $d                         0x0000e848   Lc    1   --   De 
     84  $t                         0x0000e880   Lc    1   --   De 
     85  $d                         0x0000e9bc   Lc    1   --   De 
     86  $t                         0x0000e9e8   Lc    1   --   De 
     87  $d                         0x0000ea1c   Lc    1   --   De 
     88  $t                         0x0000ea24   Lc    1   --   De 
     89  $d                         0x0000eaa6   Lc    1   --   De 
     90  $t                         0x0000eb78   Lc    1   --   De 
     91  $d                         0x0000ecf0   Lc    1   --   De 
     92  $t                         0x0000ecf4   Lc    1   --   De 
     93  $d                         0x0000ed72   Lc    1   --   De 
     94  $t                         0x0000ed76   Lc    1   --   De 
     95  $d                         0x0000ede8   Lc    1   --   De 
     96  $t                         0x0000edec   Lc    1   --   De 
     97  $d                         0x0000ee6e   Lc    1   --   De 
     98  $t                         0x0000ee72   Lc    1   --   De 
     99  $d.realdata                0x0000eea2   Lc    1   --   De 
    100  $d.realdata                0x10000000   Lc    2   --   De 
    101  ..\src\pdm_fft.c           0x00000000   Lc  Abs  File  De 
    102  ../src/pdm_fft.c           0x00000000   Lc  Abs  File  De 
    103  i.am_pdm0_isr              0x0000da2c   Lc    1  Sect  De 
    104  i.main                     0x0000e6f0   Lc    1  Sect  De 
    105  i.pcm_fft_print            0x0000e948   Lc    1  Sect  De 
    106  i.pdm_config_print         0x0000e9e8   Lc    1  Sect  De 
    107  .bss                       0x100010a0   Lc    3  Sect  De   0x14000
    108  .data                      0x10000000   Lc    2  Sect  De   0x2c
    109  ..\..\..\..\..\utils\am_util_delay.c
                                    0x00000000   Lc  Abs  File  De 
    110  ../../../../../utils/am_util_delay.c
                                    0x00000000   Lc  Abs  File  De 
    111  i.am_util_delay_ms         0x0000da5c   Lc    1  Sect  De 
    112  ..\..\..\..\..\utils\am_util_faultisr.c
                                    0x00000000   Lc  Abs  File  De 
    113  .emb_text                  0x0000c1d4   Lc    1  Sect  De   0x22
    114  $v0                        0x0000c1d4   Lc    1   --   De 
    115  ../../../../../utils/am_util_faultisr.c
                                    0x00000000   Lc  Abs  File  De 
    116  i.am_util_faultisr_collect_data
                                    0x0000da7c   Lc    1  Sect  De 
    117  ../../../../../utils/am_util_stdio.c
                                    0x00000000   Lc  Abs  File  De 
    118  i.am_util_stdio_printf     0x0000df34   Lc    1  Sect  De 
    119  i.am_util_stdio_printf_init
                                    0x0000df68   Lc    1  Sect  De 
    120  i.am_util_stdio_terminal_clear
                                    0x0000df74   Lc    1  Sect  De 
    121  i.am_util_stdio_vsprintf   0x0000dfb0   Lc    1  Sect  De 
    122  i.ndigits_in_u64           0x0000e880   Lc    1  Sect  De 
    123  ndigits_in_u64             0x0000e881   Lc    1  Code  De   0xc6
    124  i.uint64_to_str            0x0000eb78   Lc    1  Sect  De 
    125  uint64_to_str              0x0000eb79   Lc    1  Code  De   0x126
    126  .bss                       0x100150a0   Lc    3  Sect  De   0x400
    127  g_prfbuf                   0x100150a0   Lc    3  Data  De   0x400
    128  .data                      0x1000002c   Lc    2  Sect  De   0x8
    129  g_bTxtXlate                0x1000002c   Lc    2  Data  De   0x1
    130  ../keil/startup_keil.s     0x00000000   Lc  Abs  File  De 
    131  STACK                      0x100000a0   Lc    3  Sect  De   0x1000
    132  StackMem                   0x100000a0   Lc    3  Data  De 
    133  HEAP                       0x10015d10   Lc    3  Sect  De 
    134  HeapMem                    0x10015d10   Lc    3  Data  De 
    135  RESET                      0x0000c000   Lc    1  Sect  De   0x134
    136  $v0                        0x0000c100   Lc    1   --   De 
    137  .text                      0x0000c210   Lc    1  Sect  De   0x18
    138  $v0                        0x0000c210   Lc    1   --   De 
    139  ..\am_hal_global.c         0x00000000   Lc  Abs  File  De 
    140  ../am_hal_global.c         0x00000000   Lc  Abs  File  De 
    141  .data                      0x10000034   Lc    2  Sect  De   0x4
    142  ..\am_bsp.c                0x00000000   Lc  Abs  File  De 
    143  ../am_bsp.c                0x00000000   Lc  Abs  File  De 
    144  i.am_bsp_itm_printf_enable 0x0000cd74   Lc    1  Sect  De 
    145  .bss                       0x100154a0   Lc    3  Sect  De   0x400
    146  pui8UartTxBuffer           0x100154a0   Lc    3  Data  De   0x400
    147  .bss                       0x100158a0   Lc    3  Sect  De   0x400
    148  pui8UartRxBuffer           0x100158a0   Lc    3  Data  De   0x400
    149  .data                      0x10000038   Lc    2  Sect  De   0x58
    150  g_ui32PrintInterface       0x10000038   Lc    2  Data  De   0x4
    151  g_sCOMUART                 0x1000003c   Lc    2  Data  De   0x4
    152  g_sBspUartBufferedConfig   0x10000068   Lc    2  Data  De   0x28
    153  ..\am_hal_cachectrl.c      0x00000000   Lc  Abs  File  De 
    154  ../am_hal_cachectrl.c      0x00000000   Lc  Abs  File  De 
    155  i.am_hal_cachectrl_config  0x0000cdb0   Lc    1  Sect  De 
    156  i.am_hal_cachectrl_enable  0x0000cdfc   Lc    1  Sect  De 
    157  .constdata                 0x0000eea2   Lc    1  Sect  De   0x3
    158  ..\am_hal_clkgen.c         0x00000000   Lc  Abs  File  De 
    159  ../am_hal_clkgen.c         0x00000000   Lc  Abs  File  De 
    160  i.am_hal_clkgen_control    0x0000ce10   Lc    1  Sect  De 
    161  i.am_hal_clkgen_status_get 0x0000cf0c   Lc    1  Sect  De 
    162  ..\am_hal_flash.c          0x00000000   Lc  Abs  File  De 
    163  ../am_hal_flash.c          0x00000000   Lc  Abs  File  De 
    164  i.am_hal_flash_delay       0x0000cf40   Lc    1  Sect  De 
    165  ..\am_hal_gpio.c           0x00000000   Lc  Abs  File  De 
    166  ../am_hal_gpio.c           0x00000000   Lc  Abs  File  De 
    167  i.am_hal_gpio_pinconfig    0x0000cf64   Lc    1  Sect  De 
    168  i.am_hal_gpio_state_write  0x0000d1e4   Lc    1  Sect  De 
    169  .constdata                 0x0000eea8   Lc    1  Sect  De   0x162
    170  g_ui8Inpen                 0x0000eeac   Lc    1  Data  De   0x32
    171  g_ui8Bit76Capabilities     0x0000eede   Lc    1  Data  De   0x32
    172  g_ui8nCEpins               0x0000ef10   Lc    1  Data  De   0x32
    173  g_ui8NCEtable              0x0000ef42   Lc    1  Data  De   0xc8
    174  .constdata                 0x0000f00c   Lc    1  Sect  De   0x4
    175  ..\am_hal_interrupt.c      0x00000000   Lc  Abs  File  De 
    176  .emb_text                  0x0000c1f8   Lc    1  Sect  De   0x16
    177  $v0                        0x0000c1f8   Lc    1   --   De 
    178  ../am_hal_interrupt.c      0x00000000   Lc  Abs  File  De 
    179  ..\am_hal_mcuctrl.c        0x00000000   Lc  Abs  File  De 
    180  ../am_hal_mcuctrl.c        0x00000000   Lc  Abs  File  De 
    181  i.am_hal_mcuctrl_info_get  0x0000d2dc   Lc    1  Sect  De 
    182  .constdata                 0x0000f010   Lc    1  Sect  De   0x80
    183  ..\am_hal_pdm.c            0x00000000   Lc  Abs  File  De 
    184  ../am_hal_pdm.c            0x00000000   Lc  Abs  File  De 
    185  i.am_hal_pdm_configure     0x0000d414   Lc    1  Sect  De 
    186  i.am_hal_pdm_disable       0x0000d528   Lc    1  Sect  De 
    187  i.am_hal_pdm_dma_start     0x0000d560   Lc    1  Sect  De 
    188  i.am_hal_pdm_enable        0x0000d5f4   Lc    1  Sect  De 
    189  i.am_hal_pdm_fifo_flush    0x0000d62c   Lc    1  Sect  De 
    190  i.am_hal_pdm_initialize    0x0000d658   Lc    1  Sect  De 
    191  i.am_hal_pdm_interrupt_clear
                                    0x0000d698   Lc    1  Sect  De 
    192  i.am_hal_pdm_interrupt_enable
                                    0x0000d6c4   Lc    1  Sect  De 
    193  i.am_hal_pdm_interrupt_status_get
                                    0x0000d6f8   Lc    1  Sect  De 
    194  i.am_hal_pdm_power_control 0x0000d738   Lc    1  Sect  De 
    195  .bss                       0x10015ca0   Lc    3  Sect  De   0xc
    196  ..\am_hal_sysctrl.c        0x00000000   Lc  Abs  File  De 
    197  ../am_hal_sysctrl.c        0x00000000   Lc  Abs  File  De 
    198  i.am_hal_sysctrl_sleep     0x0000d8e0   Lc    1  Sect  De 
    199  .data                      0x10000090   Lc    2  Sect  De   0x8
    200  g_ui32BusWriteFlush        0x10000094   Lc    2  Data  De   0x4
    201  arm_cmplx_mag_f32.c        0x00000000   Lc  Abs  File  De 
    202  arm_cfft_radix4_f32.c      0x00000000   Lc  Abs  File  De 
    203  arm_cfft_radix4_init_f32.c 0x00000000   Lc  Abs  File  De 
    204  arm_max_f32.c              0x00000000   Lc  Abs  File  De 
    205  ..\am_bsp_pins.c           0x00000000   Lc  Abs  File  De 
    206  ../am_bsp_pins.c           0x00000000   Lc  Abs  File  De 
    207  .constdata                 0x0000f090   Lc    1  Sect  De   0x4
    208  ..\am_hal_itm.c            0x00000000   Lc  Abs  File  De 
    209  ../am_hal_itm.c            0x00000000   Lc  Abs  File  De 
    210  i.am_hal_itm_enable        0x0000d264   Lc    1  Sect  De 
    211  i.am_hal_itm_print         0x0000d2ac   Lc    1  Sect  De 
    212  ..\am_hal_pwrctrl.c        0x00000000   Lc  Abs  File  De 
    213  ../am_hal_pwrctrl.c        0x00000000   Lc  Abs  File  De 
    214  i.am_hal_pwrctrl_periph_disable
                                    0x0000d7b4   Lc    1  Sect  De 
    215  i.am_hal_pwrctrl_periph_enable
                                    0x0000d870   Lc    1  Sect  De 
    216  .constdata                 0x0000f094   Lc    1  Sect  De   0x264
    217  ..\am_hal_reset.c          0x00000000   Lc  Abs  File  De 
    218  ../am_hal_reset.c          0x00000000   Lc  Abs  File  De 
    219  .data                      0x10000098   Lc    2  Sect  De   0x4
    220  ..\am_hal_rtc.c            0x00000000   Lc  Abs  File  De 
    221  ../am_hal_rtc.c            0x00000000   Lc  Abs  File  De 
    222  ..\am_hal_tpiu.c           0x00000000   Lc  Abs  File  De 
    223  ../am_hal_tpiu.c           0x00000000   Lc  Abs  File  De 
    224  i.am_hal_tpiu_enable       0x0000d99c   Lc    1  Sect  De 
    225  ..\am_hal_uart.c           0x00000000   Lc  Abs  File  De 
    226  ../am_hal_uart.c           0x00000000   Lc  Abs  File  De 
    227  arm_bitreversal.c          0x00000000   Lc  Abs  File  De 
    228  arm_common_tables.c        0x00000000   Lc  Abs  File  De 
    229  ..\am_hal_queue.c          0x00000000   Lc  Abs  File  De 
    230  ../am_hal_queue.c          0x00000000   Lc  Abs  File  De 
    231  dc.s                       0x00000000   Lc  Abs  File  De 
    232  ../clib/longlong.s         0x00000000   Lc  Abs  File  De 
    233  ../clib/longlong.s         0x00000000   Lc  Abs  File  De 
    234  ../clib/heapaux.c          0x00000000   Lc  Abs  File  De 
    235  .text                      0x0000c228   Lc    1  Sect  De 
    236  ../clib/angel/startup.s    0x00000000   Lc  Abs  File  De 
    237  !!!main                    0x0000c134   Lc    1  Sect  De   0x8
    238  ../fplib/d2f.s             0x00000000   Lc  Abs  File  De 
    239  x$fpl$d2f                  0x0000eca0   Lc    1  Sect  De   0x62
    240  $v0                        0x0000eca0   Lc    1   --   De 
    241  ../fplib/f2d.s             0x00000000   Lc  Abs  File  De 
    242  x$fpl$f2d                  0x0000edac   Lc    1  Sect  De   0x56
    243  $v0                        0x0000edac   Lc    1   --   De 
    244  ../mathlib/sqrtf.c         0x00000000   Lc  Abs  File  De 
    245  i.__hardfp_sqrtf           0x0000cd3a   Lc    1  Sect  De 
    246  ../mathlib/sqrtf.c         0x00000000   Lc  Abs  File  De 
    247  ../clib/angel/kernel.s     0x00000000   Lc  Abs  File  De 
    248  .ARM.Collect$$rtentry$$00000000
                                    0x0000c1b4   Lc    1  Sect  De 
    249  ../clib/fenv.c             0x00000000   Lc  Abs  File  De 
    250  .text                      0x0000c22e   Lc    1  Sect  De 
    251  ../fplib/dnaninf.s         0x00000000   Lc  Abs  File  De 
    252  x$fpl$dnaninf              0x0000ed02   Lc    1  Sect  De   0x9c
    253  $v0                        0x0000ed02   Lc    1   --   De 
    254  ../fplib/dretinf.s         0x00000000   Lc  Abs  File  De 
    255  x$fpl$dretinf              0x0000ed9e   Lc    1  Sect  De   0xc
    256  $v0                        0x0000ed9e   Lc    1   --   De 
    257  ../fplib/fnaninf.s         0x00000000   Lc  Abs  File  De 
    258  x$fpl$fnaninf              0x0000ee02   Lc    1  Sect  De   0x8c
    259  $v0                        0x0000ee02   Lc    1   --   De 
    260  ../fplib/fretinf.s         0x00000000   Lc  Abs  File  De 
    261  x$fpl$fretinf              0x0000ee98   Lc    1  Sect  De   0xa
    262  $v0                        0x0000ee98   Lc    1   --   De 
    263  ../fplib/usenofp.s         0x00000000   Lc  Abs  File  De 
    264  x$fpl$usenofp              0x0000eea2   Lc    1  Sect  De 
    265  ../clib/angel/kernel.s     0x00000000   Lc  Abs  File  De 
    266  .ARM.Collect$$rtentry$$00000002
                                    0x0000c1b4   Lc    1  Sect  De 
    267  .ARM.Collect$$rtentry$$00000009
                                    0x0000c1ba   Lc    1  Sect  De 
    268  .ARM.Collect$$rtentry$$0000000A
                                    0x0000c1ba   Lc    1  Sect  De   0x4
    269  .ARM.Collect$$rtentry$$0000000C
                                    0x0000c1be   Lc    1  Sect  De 
    270  .ARM.Collect$$rtentry$$0000000D
                                    0x0000c1be   Lc    1  Sect  De   0x8
    271  ../clib/angel/kernel.s     0x00000000   Lc  Abs  File  De 
    272  .ARM.Collect$$rtentry$$00000004
                                    0x0000c1b4   Lc    1  Sect  De   0x6
    273  ../clib/angel/rt.s         0x00000000   Lc  Abs  File  De 
    274  ../clib/angel/rt.s         0x00000000   Lc  Abs  File  De 
    275  .text                      0x0000c244   Lc    1  Sect  De   0x8
    276  ../clib/angel/sys.s        0x00000000   Lc  Abs  File  De 
    277  .text                      0x0000c24c   Lc    1  Sect  De   0x8
    278  .bss                       0x10015cac   Lc    3  Sect  De   0x60
    279  ../clib/angel/sys.s        0x00000000   Lc  Abs  File  De 
    280  .text                      0x0000c254   Lc    1  Sect  De   0x4a
    281  ../clib/stdlib.c           0x00000000   Lc  Abs  File  De 
    282  .text                      0x0000c29e   Lc    1  Sect  De 
    283  ../clib/angel/boardlib.s   0x00000000   Lc  Abs  File  De 
    284  ../clib/angel/boardlib.s   0x00000000   Lc  Abs  File  De 
    285  ../clib/angel/boardlib.s   0x00000000   Lc  Abs  File  De 
    286  ../clib/libinit.s          0x00000000   Lc  Abs  File  De 
    287  .ARM.Collect$$libinit$$00000000
                                    0x0000c1a8   Lc    1  Sect  De   0x2
    288  ../clib/angel/kernel.s     0x00000000   Lc  Abs  File  De 
    289  .ARM.Collect$$rtexit$$00000000
                                    0x0000c1c6   Lc    1  Sect  De   0x2
    290  ../clib/libinit.s          0x00000000   Lc  Abs  File  De 
    291  .ARM.Collect$$libinit$$00000001
                                    0x0000c1aa   Lc    1  Sect  De   0x4
    292  .ARM.Collect$$libinit$$00000004
                                    0x0000c1ae   Lc    1  Sect  De 
    293  .ARM.Collect$$libinit$$0000000A
                                    0x0000c1ae   Lc    1  Sect  De 
    294  .ARM.Collect$$libinit$$0000000C
                                    0x0000c1ae   Lc    1  Sect  De 
    295  .ARM.Collect$$libinit$$0000000E
                                    0x0000c1ae   Lc    1  Sect  De 
    296  .ARM.Collect$$libinit$$00000011
                                    0x0000c1ae   Lc    1  Sect  De 
    297  .ARM.Collect$$libinit$$00000013
                                    0x0000c1ae   Lc    1  Sect  De 
    298  .ARM.Collect$$libinit$$00000015
                                    0x0000c1ae   Lc    1  Sect  De 
    299  .ARM.Collect$$libinit$$00000017
                                    0x0000c1ae   Lc    1  Sect  De 
    300  .ARM.Collect$$libinit$$00000019
                                    0x0000c1ae   Lc    1  Sect  De 
    301  .ARM.Collect$$libinit$$0000001B
                                    0x0000c1ae   Lc    1  Sect  De 
    302  .ARM.Collect$$libinit$$0000001D
                                    0x0000c1ae   Lc    1  Sect  De 
    303  .ARM.Collect$$libinit$$0000001F
                                    0x0000c1ae   Lc    1  Sect  De 
    304  .ARM.Collect$$libinit$$00000021
                                    0x0000c1ae   Lc    1  Sect  De 
    305  .ARM.Collect$$libinit$$00000023
                                    0x0000c1ae   Lc    1  Sect  De 
    306  .ARM.Collect$$libinit$$00000025
                                    0x0000c1ae   Lc    1  Sect  De 
    307  .ARM.Collect$$libinit$$0000002C
                                    0x0000c1ae   Lc    1  Sect  De 
    308  .ARM.Collect$$libinit$$0000002E
                                    0x0000c1ae   Lc    1  Sect  De 
    309  .ARM.Collect$$libinit$$00000030
                                    0x0000c1ae   Lc    1  Sect  De 
    310  .ARM.Collect$$libinit$$00000032
                                    0x0000c1ae   Lc    1  Sect  De 
    311  .ARM.Collect$$libinit$$00000033
                                    0x0000c1ae   Lc    1  Sect  De   0x2
    312  ../clib/angel/kernel.s     0x00000000   Lc  Abs  File  De 
    313  .ARM.Collect$$rtexit$$00000002
                                    0x0000c1c8   Lc    1  Sect  De 
    314  .ARM.Collect$$rtexit$$00000003
                                    0x0000c1c8   Lc    1  Sect  De   0x4
    315  .ARM.Collect$$rtexit$$00000004
                                    0x0000c1cc   Lc    1  Sect  De   0x6
    316  ../clib/armsys.c           0x00000000   Lc  Abs  File  De 
    317  ../clib/armsys.c           0x00000000   Lc  Abs  File  De 
    318  ../fplib/fpinit.s          0x00000000   Lc  Abs  File  De 
    319  x$fpl$fpinit               0x0000ee8e   Lc    1  Sect  De   0xa
    320  $v0                        0x0000ee8e   Lc    1   --   De 
    321  ../clib/angel/sysapp.c     0x00000000   Lc  Abs  File  De 
    322  .text                      0x0000c2b0   Lc    1  Sect  De 
    323  ../clib/angel/boardlib.s   0x00000000   Lc  Abs  File  De 
    324  ../clib/armsys.c           0x00000000   Lc  Abs  File  De 
    325  ../clib/armsys.c           0x00000000   Lc  Abs  File  De 
    326  ../clib/libinit.s          0x00000000   Lc  Abs  File  De 
    327  .ARM.Collect$$libshutdown$$00000000
                                    0x0000c1b0   Lc    1  Sect  De   0x2
    328  ../clib/angel/sysapp.c     0x00000000   Lc  Abs  File  De 
    329  ../clib/angel/sys.s        0x00000000   Lc  Abs  File  De 
    330  .text                      0x0000c2bc   Lc    1  Sect  De   0x2
    331  ../clib/angel/sys.s        0x00000000   Lc  Abs  File  De 
    332  .text                      0x0000c2be   Lc    1  Sect  De 
    333  ../clib/heapalloc.c        0x00000000   Lc  Abs  File  De 
    334  ../clib/signal.c           0x00000000   Lc  Abs  File  De 
    335  ../clib/signal.c           0x00000000   Lc  Abs  File  De 
    336  ../clib/libinit.s          0x00000000   Lc  Abs  File  De 
    337  .ARM.Collect$$libshutdown$$00000002
                                    0x0000c1b2   Lc    1  Sect  De 
    338  .ARM.Collect$$libshutdown$$00000004
                                    0x0000c1b2   Lc    1  Sect  De 
    339  .ARM.Collect$$libshutdown$$00000007
                                    0x0000c1b2   Lc    1  Sect  De 
    340  .ARM.Collect$$libshutdown$$0000000A
                                    0x0000c1b2   Lc    1  Sect  De 
    341  .ARM.Collect$$libshutdown$$0000000C
                                    0x0000c1b2   Lc    1  Sect  De 
    342  .ARM.Collect$$libshutdown$$0000000F
                                    0x0000c1b2   Lc    1  Sect  De 
    343  .ARM.Collect$$libshutdown$$00000010
                                    0x0000c1b2   Lc    1  Sect  De   0x2
    344  ../clib/angel/rt.s         0x00000000   Lc  Abs  File  De 
    345  ../clib/signal.c           0x00000000   Lc  Abs  File  De 
    346  ../clib/signal.c           0x00000000   Lc  Abs  File  De 
    347  ../clib/signal.c           0x00000000   Lc  Abs  File  De 
    348  ../clib/signal.c           0x00000000   Lc  Abs  File  De 
    349  ../clib/angel/sysapp.c     0x00000000   Lc  Abs  File  De 
    350  ../clib/signal.s           0x00000000   Lc  Abs  File  De 
    351  ../clib/signal.c           0x00000000   Lc  Abs  File  De 
    352  ../clib/signal.c           0x00000000   Lc  Abs  File  De 
    353  ../clib/signal.c           0x00000000   Lc  Abs  File  De 
    354  ../clib/signal.c           0x00000000   Lc  Abs  File  De 
    355  ../clib/signal.c           0x00000000   Lc  Abs  File  De 
    356  ../clib/signal.c           0x00000000   Lc  Abs  File  De 
    357  ../clib/signal.c           0x00000000   Lc  Abs  File  De 
    358  ../clib/signal.c           0x00000000   Lc  Abs  File  De 
    359  ../clib/angel/scatter.s    0x00000000   Lc  Abs  File  De 
    360  !!!scatter                 0x0000c13c   Lc    1  Sect  De   0x34
    361  ../clib/angel/handlers.s   0x00000000   Lc  Abs  File  De 
    362  !!handler_copy             0x0000c170   Lc    1  Sect  De   0x1a
    363  ../clib/angel/handlers.s   0x00000000   Lc  Abs  File  De 
    364  !!handler_zi               0x0000c18c   Lc    1  Sect  De   0x1c
    365  BuildAttributes$$THM_ISAv4$E$P$D$K$B$S$7EM$VFPi3$EXTD16$VFPS$VFMA$PE$A:L22UL41UL21$X:L11$S22US41US21$IEEE1$IW$USESV6$~STKCKD$USESV7$~SHL$OTIME$ROPI$IEEEJ$EBA8$UX$STANDARDLIB$REQ8$PRES8$EABIv2
                                    0x00000000   Gb  Abs   --   Hi 
    366  __ARM_use_no_argv          0x00000000   Gb  Abs   --   Hi 
    367  __Vectors                  0x0000c000   Gb    1  Data  Hi 
    368  __Patchable                0x0000c0c0   Gb    1  Data  Hi 
    369  Reset_Handler              0x0000c101   Wk    1  Code  Hi   0x1c
    370  NMI_Handler                0x0000c11f   Wk    1  Code  Hi   0x2
    371  MemManage_Handler          0x0000c121   Wk    1  Code  Hi   0x2
    372  BusFault_Handler           0x0000c123   Wk    1  Code  Hi   0x2
    373  UsageFault_Handler         0x0000c125   Wk    1  Code  Hi   0x2
    374  SVC_Handler                0x0000c127   Wk    1  Code  Hi   0x2
    375  DebugMon_Handler           0x0000c129   Wk    1  Code  Hi   0x2
    376  PendSV_Handler             0x0000c12b   Wk    1  Code  Hi   0x2
    377  SysTick_Handler            0x0000c12d   Wk    1  Code  Hi   0x2
    378  am_adc_isr                 0x0000c12f   Wk    1  Code  Hi 
    379  am_ble_isr                 0x0000c12f   Wk    1  Code  Hi 
    380  am_brownout_isr            0x0000c12f   Wk    1  Code  Hi 
    381  am_clkgen_isr              0x0000c12f   Wk    1  Code  Hi 
    382  am_ctimer_isr              0x0000c12f   Wk    1  Code  Hi 
    383  am_gpio_isr                0x0000c12f   Wk    1  Code  Hi 
    384  am_iomaster0_isr           0x0000c12f   Wk    1  Code  Hi 
    385  am_iomaster1_isr           0x0000c12f   Wk    1  Code  Hi 
    386  am_iomaster2_isr           0x0000c12f   Wk    1  Code  Hi 
    387  am_iomaster3_isr           0x0000c12f   Wk    1  Code  Hi 
    388  am_iomaster4_isr           0x0000c12f   Wk    1  Code  Hi 
    389  am_iomaster5_isr           0x0000c12f   Wk    1  Code  Hi 
    390  am_ioslave_acc_isr         0x0000c12f   Wk    1  Code  Hi 
    391  am_ioslave_ios_isr         0x0000c12f   Wk    1  Code  Hi 
    392  am_mspi0_isr               0x0000c12f   Wk    1  Code  Hi 
    393  am_rtc_isr                 0x0000c12f   Wk    1  Code  Hi 
    394  am_scard_isr               0x0000c12f   Wk    1  Code  Hi 
    395  am_software0_isr           0x0000c12f   Wk    1  Code  Hi 
    396  am_stimer_cmpr0_isr        0x0000c12f   Wk    1  Code  Hi 
    397  am_stimer_cmpr1_isr        0x0000c12f   Wk    1  Code  Hi 
    398  am_stimer_cmpr2_isr        0x0000c12f   Wk    1  Code  Hi 
    399  am_stimer_cmpr3_isr        0x0000c12f   Wk    1  Code  Hi 
    400  am_stimer_cmpr4_isr        0x0000c12f   Wk    1  Code  Hi 
    401  am_stimer_cmpr5_isr        0x0000c12f   Wk    1  Code  Hi 
    402  am_stimer_cmpr6_isr        0x0000c12f   Wk    1  Code  Hi 
    403  am_stimer_cmpr7_isr        0x0000c12f   Wk    1  Code  Hi 
    404  am_stimer_isr              0x0000c12f   Wk    1  Code  Hi 
    405  am_uart0_isr               0x0000c12f   Wk    1  Code  Hi 
    406  am_uart1_isr               0x0000c12f   Wk    1  Code  Hi 
    407  am_uart_isr                0x0000c12f   Wk    1  Code  Hi 
    408  am_vcomp_isr               0x0000c12f   Wk    1  Code  Hi 
    409  am_watchdog_isr            0x0000c12f   Wk    1  Code  Hi 
    410  __main                     0x0000c135   Gb    1  Code  Hi   0x8
    411  __scatterload              0x0000c13d   Gb    1  Code  Hi 
    412  __scatterload_rt2          0x0000c13d   Gb    1  Code  Hi   0x2c
    413  __scatterload_rt2_thumb_only
                                    0x0000c13d   Gb    1  Code  Hi 
    414  __scatterload_null         0x0000c14b   Gb    1  Code  Hi 
    415  __scatterload_copy         0x0000c171   Gb    1  Code  Hi   0x1a
    416  __scatterload_zeroinit     0x0000c18d   Gb    1  Code  Hi   0x1c
    417  __rt_lib_init              0x0000c1a9   Gb    1  Code  De 
    418  __rt_lib_init_fp_1         0x0000c1ab   Gb    1  Code  Hi 
    419  __rt_lib_init_alloca_1     0x0000c1af   Gb    1  Code  Hi 
    420  __rt_lib_init_argv_1       0x0000c1af   Gb    1  Code  Hi 
    421  __rt_lib_init_atexit_1     0x0000c1af   Gb    1  Code  Hi 
    422  __rt_lib_init_clock_1      0x0000c1af   Gb    1  Code  Hi 
    423  __rt_lib_init_cpp_1        0x0000c1af   Gb    1  Code  Hi 
    424  __rt_lib_init_exceptions_1 0x0000c1af   Gb    1  Code  Hi 
    425  __rt_lib_init_fp_trap_1    0x0000c1af   Gb    1  Code  Hi 
    426  __rt_lib_init_getenv_1     0x0000c1af   Gb    1  Code  Hi 
    427  __rt_lib_init_heap_1       0x0000c1af   Gb    1  Code  Hi 
    428  __rt_lib_init_lc_collate_1 0x0000c1af   Gb    1  Code  Hi 
    429  __rt_lib_init_lc_ctype_1   0x0000c1af   Gb    1  Code  Hi 
    430  __rt_lib_init_lc_monetary_1
                                    0x0000c1af   Gb    1  Code  Hi 
    431  __rt_lib_init_lc_numeric_1 0x0000c1af   Gb    1  Code  Hi 
    432  __rt_lib_init_lc_time_1    0x0000c1af   Gb    1  Code  Hi 
    433  __rt_lib_init_preinit_1    0x0000c1af   Gb    1  Code  Hi 
    434  __rt_lib_init_rand_1       0x0000c1af   Gb    1  Code  Hi 
    435  __rt_lib_init_return       0x0000c1af   Gb    1  Code  Hi 
    436  __rt_lib_init_signal_1     0x0000c1af   Gb    1  Code  Hi 
    437  __rt_lib_init_stdio_1      0x0000c1af   Gb    1  Code  Hi 
    438  __rt_lib_init_user_alloc_1 0x0000c1af   Gb    1  Code  Hi 
    439  __rt_lib_shutdown          0x0000c1b1   Gb    1  Code  De 
    440  __rt_lib_shutdown_cpp_1    0x0000c1b3   Gb    1  Code  Hi 
    441  __rt_lib_shutdown_fp_trap_1
                                    0x0000c1b3   Gb    1  Code  Hi 
    442  __rt_lib_shutdown_heap_1   0x0000c1b3   Gb    1  Code  Hi 
    443  __rt_lib_shutdown_return   0x0000c1b3   Gb    1  Code  Hi 
    444  __rt_lib_shutdown_signal_1 0x0000c1b3   Gb    1  Code  Hi 
    445  __rt_lib_shutdown_stdio_1  0x0000c1b3   Gb    1  Code  Hi 
    446  __rt_lib_shutdown_user_alloc_1
                                    0x0000c1b3   Gb    1  Code  Hi 
    447  __rt_entry                 0x0000c1b5   Gb    1  Code  Hi 
    448  __rt_entry_presh_1         0x0000c1b5   Gb    1  Code  Hi 
    449  __rt_entry_sh              0x0000c1b5   Gb    1  Code  Hi 
    450  __rt_entry_li              0x0000c1bb   Gb    1  Code  Hi 
    451  __rt_entry_postsh_1        0x0000c1bb   Gb    1  Code  Hi 
    452  __rt_entry_main            0x0000c1bf   Gb    1  Code  Hi 
    453  __rt_entry_postli_1        0x0000c1bf   Gb    1  Code  Hi 
    454  __rt_exit                  0x0000c1c7   Gb    1  Code  De 
    455  __rt_exit_ls               0x0000c1c9   Gb    1  Code  Hi 
    456  __rt_exit_prels_1          0x0000c1c9   Gb    1  Code  Hi 
    457  __rt_exit_exit             0x0000c1cd   Gb    1  Code  Hi 
    458  HardFault_Handler          0x0000c1d5   Gb    1  Code  Hi   0x1a
    459  getStackedReg              0x0000c1ef   Gb    1  Code  Hi   0x8
    460  am_hal_interrupt_master_enable
                                    0x0000c1f9   Gb    1  Code  Hi   0x8
    461  am_hal_interrupt_master_disable
                                    0x0000c201   Gb    1  Code  Hi   0x8
    462  am_hal_interrupt_master_set
                                    0x0000c209   Gb    1  Code  Hi   0x6
    463  __user_initial_stackheap   0x0000c211   Gb    1  Code  Hi   0xa
    464  __use_two_region_memory    0x0000c229   Gb    1  Code  Hi   0x2
    465  __rt_heap_escrow$2region   0x0000c22b   Gb    1  Code  De   0x2
    466  __rt_heap_expand$2region   0x0000c22d   Gb    1  Code  De   0x2
    467  __read_errno               0x0000c22f   Gb    1  Code  De   0xa
    468  __set_errno                0x0000c239   Gb    1  Code  De   0xc
    469  __aeabi_errno_addr         0x0000c245   Gb    1  Code  De   0x8
    470  __errno$intlibspace        0x0000c245   Gb    1  Code  De 
    471  __rt_errno_addr$intlibspace
                                    0x0000c245   Gb    1  Code  De 
    472  __user_libspace            0x0000c24d   Wk    1  Code  De   0x8
    473  __user_perproc_libspace    0x0000c24d   Wk    1  Code  De 
    474  __user_perthread_libspace  0x0000c24d   Wk    1  Code  De 
    475  __user_setup_stackheap     0x0000c255   Gb    1  Code  De   0x4a
    476  exit                       0x0000c29f   Gb    1  Code  De   0x12
    477  _sys_exit                  0x0000c2b1   Gb    1  Code  De   0x8
    478  __I$use$semihosting        0x0000c2bd   Gb    1  Code  Hi 
    479  __use_no_semihosting_swi   0x0000c2bd   Gb    1  Code  Hi   0x2
    480  __semihosting_library_function
                                    0x0000c2bf   Gb    1  Code  Hi 
    481  arm_bitreversal_f32        0x0000c2c1   Gb    1  Code  Hi   0xbe
    482  arm_cfft_radix4_f32        0x0000c37f   Gb    1  Code  Hi   0x40
    483  arm_cfft_radix4_init_f32   0x0000c3c1   Gb    1  Code  Hi   0x94
    484  arm_cmplx_mag_f32          0x0000c455   Gb    1  Code  Hi   0x154
    485  arm_max_f32                0x0000c5a9   Gb    1  Code  Hi   0xbc
    486  arm_radix4_butterfly_f32   0x0000c665   Gb    1  Code  Hi   0x35a
    487  arm_radix4_butterfly_inverse_f32
                                    0x0000c9c1   Gb    1  Code  Hi   0x37a
    488  __hardfp_sqrtf             0x0000cd3b   Gb    1  Code  De   0x3a
    489  am_bsp_itm_printf_enable   0x0000cd75   Gb    1  Code  Hi   0x2c
    490  am_hal_cachectrl_config    0x0000cdb1   Gb    1  Code  Hi   0x46
    491  am_hal_cachectrl_enable    0x0000cdfd   Gb    1  Code  Hi   0xe
    492  am_hal_clkgen_control      0x0000ce11   Gb    1  Code  Hi   0xec
    493  am_hal_clkgen_status_get   0x0000cf0d   Gb    1  Code  Hi   0x2c
    494  am_hal_flash_delay         0x0000cf41   Gb    1  Code  Hi   0x1e
    495  am_hal_gpio_pinconfig      0x0000cf65   Gb    1  Code  Hi   0x24a
    496  am_hal_gpio_state_write    0x0000d1e5   Gb    1  Code  Hi   0x80
    497  am_hal_itm_enable          0x0000d265   Gb    1  Code  Hi   0x2c
    498  am_hal_itm_print           0x0000d2ad   Gb    1  Code  Hi   0x30
    499  am_hal_mcuctrl_info_get    0x0000d2dd   Gb    1  Code  Hi   0x116
    500  am_hal_pdm_configure       0x0000d415   Gb    1  Code  Hi   0x106
    501  am_hal_pdm_disable         0x0000d529   Gb    1  Code  Hi   0x30
    502  am_hal_pdm_dma_start       0x0000d561   Gb    1  Code  Hi   0x8a
    503  am_hal_pdm_enable          0x0000d5f5   Gb    1  Code  Hi   0x30
    504  am_hal_pdm_fifo_flush      0x0000d62d   Gb    1  Code  Hi   0x24
    505  am_hal_pdm_initialize      0x0000d659   Gb    1  Code  Hi   0x38
    506  am_hal_pdm_interrupt_clear 0x0000d699   Gb    1  Code  Hi   0x24
    507  am_hal_pdm_interrupt_enable
                                    0x0000d6c5   Gb    1  Code  Hi   0x2a
    508  am_hal_pdm_interrupt_status_get
                                    0x0000d6f9   Gb    1  Code  Hi   0x38
    509  am_hal_pdm_power_control   0x0000d739   Gb    1  Code  Hi   0x78
    510  am_hal_pwrctrl_periph_disable
                                    0x0000d7b5   Gb    1  Code  Hi   0xb4
    511  am_hal_pwrctrl_periph_enable
                                    0x0000d871   Gb    1  Code  Hi   0x68
    512  am_hal_sysctrl_sleep       0x0000d8e1   Gb    1  Code  Hi   0x9e
    513  am_hal_tpiu_enable         0x0000d99d   Gb    1  Code  Hi   0x7a
    514  am_pdm0_isr                0x0000da2d   Gb    1  Code  Hi   0x2c
    515  am_util_delay_ms           0x0000da5d   Gb    1  Code  Hi   0x20
    516  am_util_faultisr_collect_data
                                    0x0000da7d   Gb    1  Code  Hi   0x1a8
    517  am_util_stdio_printf       0x0000df35   Gb    1  Code  Hi   0x2c
    518  am_util_stdio_printf_init  0x0000df69   Gb    1  Code  Hi   0x6
    519  am_util_stdio_terminal_clear
                                    0x0000df75   Gb    1  Code  Hi   0x20
    520  am_util_stdio_vsprintf     0x0000dfb1   Gb    1  Code  Hi   0x734
    521  main                       0x0000e6f1   Gb    1  Code  Hi   0x158
    522  pcm_fft_print              0x0000e949   Gb    1  Code  Hi   0x74
    523  pdm_config_print           0x0000e9e9   Gb    1  Code  Hi   0xbe
    524  __aeabi_d2f                0x0000eca1   Gb    1  Code  Hi 
    525  _d2f                       0x0000eca1   Gb    1  Code  De   0x62
    526  __fpl_dnaninf              0x0000ed03   Gb    1  Code  De   0x9c
    527  __fpl_dretinf              0x0000ed9f   Gb    1  Code  De   0xc
    528  __aeabi_f2d                0x0000edad   Gb    1  Code  Hi 
    529  _f2d                       0x0000edad   Gb    1  Code  De   0x56
    530  __fpl_fnaninf              0x0000ee03   Gb    1  Code  De   0x8c
    531  _fp_init                   0x0000ee8f   Gb    1  Code  De   0xa
    532  __fplib_config_fpu_vfp     0x0000ee97   Gb    1  Code  De 
    533  __fplib_config_pureend_doubles
                                    0x0000ee97   Gb    1  Code  De 
    534  __fpl_fretinf              0x0000ee99   Gb    1  Code  De   0xa
    535  __I$use$fp                 0x0000eea2   Gb    1   --   Hi 
    536  am_hal_cachectrl_defaults  0x0000eea2   Gb    1  Data  Hi   0x3
    537  g_AM_HAL_GPIO_DISABLE      0x0000eea8   Gb    1  Data  Hi   0x4
    538  g_AM_HAL_GPIO_OUTPUT       0x0000f00c   Gb    1  Data  Hi   0x4
    539  g_am_hal_mcuctrl_flash_size
                                    0x0000f010   Gb    1  Data  Hi   0x40
    540  g_am_hal_mcuctrl_sram_size 0x0000f050   Gb    1  Data  Hi   0x40
    541  g_AM_BSP_GPIO_ITM_SWO      0x0000f090   Gb    1  Data  Hi   0x4
    542  am_hal_pwrctrl_peripheral_control
                                    0x0000f094   Gb    1  Data  Hi   0xb4
    543  am_hal_pwrctrl_memory_control
                                    0x0000f148   Gb    1  Data  Hi   0x1b0
    544  armBitRevTable             0x0000f2f8   Gb    1  Data  Hi   0x800
    545  twiddleCoef_4096           0x0000faf8   Gb    1  Data  Hi   0x8000
    546  Region$$Table$$Base        0x00017af8   Gb    1   --   Hi 
    547  Region$$Table$$Limit       0x00017b18   Gb    1   --   Hi 
    548  g_bPDMDataReady            0x10000000   Gb    2  Data  Hi   0x1
    549  g_ui32SampleFreq           0x10000004   Gb    2  Data  Hi   0x4
    550  PDMHandle                  0x10000008   Gb    2  Data  Hi   0x4
    551  g_sPdmConfig               0x1000000c   Gb    2  Data  Hi   0x20
    552  g_pfnCharPrint             0x10000030   Gb    2  Data  Hi   0x4
    553  g_ui32HALflags             0x10000034   Gb    2  Data  Hi   0x4
    554  am_bsp_psLEDs              0x10000040   Gb    2  Data  Hi   0x28
    555  g_am_hal_sysctrl_sleep_count
                                    0x10000090   Gb    2  Data  Hi   0x4
    556  gAmHalResetStatus          0x10000098   Gb    2  Data  Hi   0x4
    557  g_ui32PDMDataBuffer        0x100010a0   Gb    3  Data  Hi   0x4000
    558  g_fPDMTimeDomain           0x100050a0   Gb    3  Data  Hi   0x8000
    559  g_fPDMMagnitudes           0x1000d0a0   Gb    3  Data  Hi   0x8000
    560  g_am_hal_pdm_states        0x10015ca0   Gb    3  Data  Hi   0xc
    561  __libspace_start           0x10015cac   Gb    3  Data  De   0x60
    562  __temporary_stack_top$libspace
                                    0x10015d0c   Gb    3  Data  De 


** Section #14 '.strtab' (SHT_STRTAB)
    Size   : 8280 bytes

            #  Offset String
        ====================================

            1      1: $d
            2      4: $t
            3      7: $t.0
            4     12: $d.1
            5     17: $d.realdata
            6     29: ..\src\pdm_fft.c
            7     46: ../src/pdm_fft.c
            8     63: i.am_pdm0_isr
            9     77: i.main
           10     84: i.pcm_fft_print
           11    100: i.pdm_config_print
           12    119: .bss
           13    124: .data
           14    130: ..\..\..\..\..\utils\am_util_delay.c
           15    167: ../../../../../utils/am_util_delay.c
           16    204: i.am_util_delay_ms
           17    223: ..\..\..\..\..\utils\am_util_faultisr.c
           18    263: .emb_text
           19    273: $v0
           20    277: ../../../../../utils/am_util_faultisr.c
           21    317: i.am_util_faultisr_collect_data
           22    349: ../../../../../utils/am_util_stdio.c
           23    386: i.am_util_stdio_printf
           24    409: i.am_util_stdio_printf_init
           25    437: i.am_util_stdio_terminal_clear
           26    468: i.am_util_stdio_vsprintf
           27    493: i.ndigits_in_u64
           28    510: ndigits_in_u64
           29    525: i.uint64_to_str
           30    541: uint64_to_str
           31    555: g_prfbuf
           32    564: g_bTxtXlate
           33    576: ../keil/startup_keil.s
           34    599: STACK
           35    605: StackMem
           36    614: HEAP
           37    619: HeapMem
           38    627: RESET
           39    633: .text
           40    639: ..\am_hal_global.c
           41    658: ../am_hal_global.c
           42    677: ..\am_bsp.c
           43    689: ../am_bsp.c
           44    701: i.am_bsp_itm_printf_enable
           45    728: pui8UartTxBuffer
           46    745: pui8UartRxBuffer
           47    762: g_ui32PrintInterface
           48    783: g_sCOMUART
           49    794: g_sBspUartBufferedConfig
           50    819: ..\am_hal_cachectrl.c
           51    841: ../am_hal_cachectrl.c
           52    863: i.am_hal_cachectrl_config
           53    889: i.am_hal_cachectrl_enable
           54    915: .constdata
           55    926: ..\am_hal_clkgen.c
           56    945: ../am_hal_clkgen.c
           57    964: i.am_hal_clkgen_control
           58    988: i.am_hal_clkgen_status_get
           59   1015: ..\am_hal_flash.c
           60   1033: ../am_hal_flash.c
           61   1051: i.am_hal_flash_delay
           62   1072: ..\am_hal_gpio.c
           63   1089: ../am_hal_gpio.c
           64   1106: i.am_hal_gpio_pinconfig
           65   1130: i.am_hal_gpio_state_write
           66   1156: g_ui8Inpen
           67   1167: g_ui8Bit76Capabilities
           68   1190: g_ui8nCEpins
           69   1203: g_ui8NCEtable
           70   1217: ..\am_hal_interrupt.c
           71   1239: ../am_hal_interrupt.c
           72   1261: ..\am_hal_mcuctrl.c
           73   1281: ../am_hal_mcuctrl.c
           74   1301: i.am_hal_mcuctrl_info_get
           75   1327: ..\am_hal_pdm.c
           76   1343: ../am_hal_pdm.c
           77   1359: i.am_hal_pdm_configure
           78   1382: i.am_hal_pdm_disable
           79   1403: i.am_hal_pdm_dma_start
           80   1426: i.am_hal_pdm_enable
           81   1446: i.am_hal_pdm_fifo_flush
           82   1470: i.am_hal_pdm_initialize
           83   1494: i.am_hal_pdm_interrupt_clear
           84   1523: i.am_hal_pdm_interrupt_enable
           85   1553: i.am_hal_pdm_interrupt_status_get
           86   1587: i.am_hal_pdm_power_control
           87   1614: ..\am_hal_sysctrl.c
           88   1634: ../am_hal_sysctrl.c
           89   1654: i.am_hal_sysctrl_sleep
           90   1677: g_ui32BusWriteFlush
           91   1697: arm_cmplx_mag_f32.c
           92   1717: arm_cfft_radix4_f32.c
           93   1739: arm_cfft_radix4_init_f32.c
           94   1766: arm_max_f32.c
           95   1780: ..\am_bsp_pins.c
           96   1797: ../am_bsp_pins.c
           97   1814: ..\am_hal_itm.c
           98   1830: ../am_hal_itm.c
           99   1846: i.am_hal_itm_enable
          100   1866: i.am_hal_itm_print
          101   1885: ..\am_hal_pwrctrl.c
          102   1905: ../am_hal_pwrctrl.c
          103   1925: i.am_hal_pwrctrl_periph_disable
          104   1957: i.am_hal_pwrctrl_periph_enable
          105   1988: ..\am_hal_reset.c
          106   2006: ../am_hal_reset.c
          107   2024: ..\am_hal_rtc.c
          108   2040: ../am_hal_rtc.c
          109   2056: ..\am_hal_tpiu.c
          110   2073: ../am_hal_tpiu.c
          111   2090: i.am_hal_tpiu_enable
          112   2111: ..\am_hal_uart.c
          113   2128: ../am_hal_uart.c
          114   2145: arm_bitreversal.c
          115   2163: arm_common_tables.c
          116   2183: ..\am_hal_queue.c
          117   2201: ../am_hal_queue.c
          118   2219: dc.s
          119   2224: ../clib/longlong.s
          120   2243: ../clib/heapaux.c
          121   2261: ../clib/angel/startup.s
          122   2285: !!!main
          123   2293: ../fplib/d2f.s
          124   2308: x$fpl$d2f
          125   2318: ../fplib/f2d.s
          126   2333: x$fpl$f2d
          127   2343: ../mathlib/sqrtf.c
          128   2362: i.__hardfp_sqrtf
          129   2379: ../clib/angel/kernel.s
          130   2402: .ARM.Collect$$rtentry$$00000000
          131   2434: ../clib/fenv.c
          132   2449: ../fplib/dnaninf.s
          133   2468: x$fpl$dnaninf
          134   2482: ../fplib/dretinf.s
          135   2501: x$fpl$dretinf
          136   2515: ../fplib/fnaninf.s
          137   2534: x$fpl$fnaninf
          138   2548: ../fplib/fretinf.s
          139   2567: x$fpl$fretinf
          140   2581: ../fplib/usenofp.s
          141   2600: x$fpl$usenofp
          142   2614: .ARM.Collect$$rtentry$$00000002
          143   2646: .ARM.Collect$$rtentry$$00000009
          144   2678: .ARM.Collect$$rtentry$$0000000A
          145   2710: .ARM.Collect$$rtentry$$0000000C
          146   2742: .ARM.Collect$$rtentry$$0000000D
          147   2774: .ARM.Collect$$rtentry$$00000004
          148   2806: ../clib/angel/rt.s
          149   2825: ../clib/angel/sys.s
          150   2845: ../clib/stdlib.c
          151   2862: ../clib/angel/boardlib.s
          152   2887: ../clib/libinit.s
          153   2905: .ARM.Collect$$libinit$$00000000
          154   2937: .ARM.Collect$$rtexit$$00000000
          155   2968: .ARM.Collect$$libinit$$00000001
          156   3000: .ARM.Collect$$libinit$$00000004
          157   3032: .ARM.Collect$$libinit$$0000000A
          158   3064: .ARM.Collect$$libinit$$0000000C
          159   3096: .ARM.Collect$$libinit$$0000000E
          160   3128: .ARM.Collect$$libinit$$00000011
          161   3160: .ARM.Collect$$libinit$$00000013
          162   3192: .ARM.Collect$$libinit$$00000015
          163   3224: .ARM.Collect$$libinit$$00000017
          164   3256: .ARM.Collect$$libinit$$00000019
          165   3288: .ARM.Collect$$libinit$$0000001B
          166   3320: .ARM.Collect$$libinit$$0000001D
          167   3352: .ARM.Collect$$libinit$$0000001F
          168   3384: .ARM.Collect$$libinit$$00000021
          169   3416: .ARM.Collect$$libinit$$00000023
          170   3448: .ARM.Collect$$libinit$$00000025
          171   3480: .ARM.Collect$$libinit$$0000002C
          172   3512: .ARM.Collect$$libinit$$0000002E
          173   3544: .ARM.Collect$$libinit$$00000030
          174   3576: .ARM.Collect$$libinit$$00000032
          175   3608: .ARM.Collect$$libinit$$00000033
          176   3640: .ARM.Collect$$rtexit$$00000002
          177   3671: .ARM.Collect$$rtexit$$00000003
          178   3702: .ARM.Collect$$rtexit$$00000004
          179   3733: ../clib/armsys.c
          180   3750: ../fplib/fpinit.s
          181   3768: x$fpl$fpinit
          182   3781: ../clib/angel/sysapp.c
          183   3804: .ARM.Collect$$libshutdown$$00000000
          184   3840: ../clib/heapalloc.c
          185   3860: ../clib/signal.c
          186   3877: .ARM.Collect$$libshutdown$$00000002
          187   3913: .ARM.Collect$$libshutdown$$00000004
          188   3949: .ARM.Collect$$libshutdown$$00000007
          189   3985: .ARM.Collect$$libshutdown$$0000000A
          190   4021: .ARM.Collect$$libshutdown$$0000000C
          191   4057: .ARM.Collect$$libshutdown$$0000000F
          192   4093: .ARM.Collect$$libshutdown$$00000010
          193   4129: ../clib/signal.s
          194   4146: ../clib/angel/scatter.s
          195   4170: !!!scatter
          196   4181: ../clib/angel/handlers.s
          197   4206: !!handler_copy
          198   4221: !!handler_zi
          199   4234: BuildAttributes$$THM_ISAv4$E$P$D$K$B$S$7EM$VFPi3$EXTD16$VFPS$VFMA$PE$A:L22UL41UL21$X:L11$S22US41US21$IEEE1$IW$USESV6$~STKCKD$USESV7$~SHL$OTIME$ROPI$IEEEJ$EBA8$UX$STANDARDLIB$REQ8$PRES8$EABIv2
          200   4426: __ARM_use_no_argv
          201   4444: __Vectors
          202   4454: __Patchable
          203   4466: Reset_Handler
          204   4480: NMI_Handler
          205   4492: MemManage_Handler
          206   4510: BusFault_Handler
          207   4527: UsageFault_Handler
          208   4546: SVC_Handler
          209   4558: DebugMon_Handler
          210   4575: PendSV_Handler
          211   4590: SysTick_Handler
          212   4606: am_adc_isr
          213   4617: am_ble_isr
          214   4628: am_brownout_isr
          215   4644: am_clkgen_isr
          216   4658: am_ctimer_isr
          217   4672: am_gpio_isr
          218   4684: am_iomaster0_isr
          219   4701: am_iomaster1_isr
          220   4718: am_iomaster2_isr
          221   4735: am_iomaster3_isr
          222   4752: am_iomaster4_isr
          223   4769: am_iomaster5_isr
          224   4786: am_ioslave_acc_isr
          225   4805: am_ioslave_ios_isr
          226   4824: am_mspi0_isr
          227   4837: am_rtc_isr
          228   4848: am_scard_isr
          229   4861: am_software0_isr
          230   4878: am_stimer_cmpr0_isr
          231   4898: am_stimer_cmpr1_isr
          232   4918: am_stimer_cmpr2_isr
          233   4938: am_stimer_cmpr3_isr
          234   4958: am_stimer_cmpr4_isr
          235   4978: am_stimer_cmpr5_isr
          236   4998: am_stimer_cmpr6_isr
          237   5018: am_stimer_cmpr7_isr
          238   5038: am_stimer_isr
          239   5052: am_uart0_isr
          240   5065: am_uart1_isr
          241   5078: am_uart_isr
          242   5090: am_vcomp_isr
          243   5103: am_watchdog_isr
          244   5119: __main
          245   5126: __scatterload
          246   5140: __scatterload_rt2
          247   5158: __scatterload_rt2_thumb_only
          248   5187: __scatterload_null
          249   5206: __scatterload_copy
          250   5225: __scatterload_zeroinit
          251   5248: __rt_lib_init
          252   5262: __rt_lib_init_fp_1
          253   5281: __rt_lib_init_alloca_1
          254   5304: __rt_lib_init_argv_1
          255   5325: __rt_lib_init_atexit_1
          256   5348: __rt_lib_init_clock_1
          257   5370: __rt_lib_init_cpp_1
          258   5390: __rt_lib_init_exceptions_1
          259   5417: __rt_lib_init_fp_trap_1
          260   5441: __rt_lib_init_getenv_1
          261   5464: __rt_lib_init_heap_1
          262   5485: __rt_lib_init_lc_collate_1
          263   5512: __rt_lib_init_lc_ctype_1
          264   5537: __rt_lib_init_lc_monetary_1
          265   5565: __rt_lib_init_lc_numeric_1
          266   5592: __rt_lib_init_lc_time_1
          267   5616: __rt_lib_init_preinit_1
          268   5640: __rt_lib_init_rand_1
          269   5661: __rt_lib_init_return
          270   5682: __rt_lib_init_signal_1
          271   5705: __rt_lib_init_stdio_1
          272   5727: __rt_lib_init_user_alloc_1
          273   5754: __rt_lib_shutdown
          274   5772: __rt_lib_shutdown_cpp_1
          275   5796: __rt_lib_shutdown_fp_trap_1
          276   5824: __rt_lib_shutdown_heap_1
          277   5849: __rt_lib_shutdown_return
          278   5874: __rt_lib_shutdown_signal_1
          279   5901: __rt_lib_shutdown_stdio_1
          280   5927: __rt_lib_shutdown_user_alloc_1
          281   5958: __rt_entry
          282   5969: __rt_entry_presh_1
          283   5988: __rt_entry_sh
          284   6002: __rt_entry_li
          285   6016: __rt_entry_postsh_1
          286   6036: __rt_entry_main
          287   6052: __rt_entry_postli_1
          288   6072: __rt_exit
          289   6082: __rt_exit_ls
          290   6095: __rt_exit_prels_1
          291   6113: __rt_exit_exit
          292   6128: HardFault_Handler
          293   6146: getStackedReg
          294   6160: am_hal_interrupt_master_enable
          295   6191: am_hal_interrupt_master_disable
          296   6223: am_hal_interrupt_master_set
          297   6251: __user_initial_stackheap
          298   6276: __use_two_region_memory
          299   6300: __rt_heap_escrow$2region
          300   6325: __rt_heap_expand$2region
          301   6350: __read_errno
          302   6363: __set_errno
          303   6375: __aeabi_errno_addr
          304   6394: __errno$intlibspace
          305   6414: __rt_errno_addr$intlibspace
          306   6442: __user_libspace
          307   6458: __user_perproc_libspace
          308   6482: __user_perthread_libspace
          309   6508: __user_setup_stackheap
          310   6531: exit
          311   6536: _sys_exit
          312   6546: __I$use$semihosting
          313   6566: __use_no_semihosting_swi
          314   6591: __semihosting_library_function
          315   6622: arm_bitreversal_f32
          316   6642: arm_cfft_radix4_f32
          317   6662: arm_cfft_radix4_init_f32
          318   6687: arm_cmplx_mag_f32
          319   6705: arm_max_f32
          320   6717: arm_radix4_butterfly_f32
          321   6742: arm_radix4_butterfly_inverse_f32
          322   6775: __hardfp_sqrtf
          323   6790: am_bsp_itm_printf_enable
          324   6815: am_hal_cachectrl_config
          325   6839: am_hal_cachectrl_enable
          326   6863: am_hal_clkgen_control
          327   6885: am_hal_clkgen_status_get
          328   6910: am_hal_flash_delay
          329   6929: am_hal_gpio_pinconfig
          330   6951: am_hal_gpio_state_write
          331   6975: am_hal_itm_enable
          332   6993: am_hal_itm_print
          333   7010: am_hal_mcuctrl_info_get
          334   7034: am_hal_pdm_configure
          335   7055: am_hal_pdm_disable
          336   7074: am_hal_pdm_dma_start
          337   7095: am_hal_pdm_enable
          338   7113: am_hal_pdm_fifo_flush
          339   7135: am_hal_pdm_initialize
          340   7157: am_hal_pdm_interrupt_clear
          341   7184: am_hal_pdm_interrupt_enable
          342   7212: am_hal_pdm_interrupt_status_get
          343   7244: am_hal_pdm_power_control
          344   7269: am_hal_pwrctrl_periph_disable
          345   7299: am_hal_pwrctrl_periph_enable
          346   7328: am_hal_sysctrl_sleep
          347   7349: am_hal_tpiu_enable
          348   7368: am_pdm0_isr
          349   7380: am_util_delay_ms
          350   7397: am_util_faultisr_collect_data
          351   7427: am_util_stdio_printf
          352   7448: am_util_stdio_printf_init
          353   7474: am_util_stdio_terminal_clear
          354   7503: am_util_stdio_vsprintf
          355   7526: main
          356   7531: pcm_fft_print
          357   7545: pdm_config_print
          358   7562: __aeabi_d2f
          359   7574: _d2f
          360   7579: __fpl_dnaninf
          361   7593: __fpl_dretinf
          362   7607: __aeabi_f2d
          363   7619: _f2d
          364   7624: __fpl_fnaninf
          365   7638: _fp_init
          366   7647: __fplib_config_fpu_vfp
          367   7670: __fplib_config_pureend_doubles
          368   7701: __fpl_fretinf
          369   7715: __I$use$fp
          370   7726: am_hal_cachectrl_defaults
          371   7752: g_AM_HAL_GPIO_DISABLE
          372   7774: g_AM_HAL_GPIO_OUTPUT
          373   7795: g_am_hal_mcuctrl_flash_size
          374   7823: g_am_hal_mcuctrl_sram_size
          375   7850: g_AM_BSP_GPIO_ITM_SWO
          376   7872: am_hal_pwrctrl_peripheral_control
          377   7906: am_hal_pwrctrl_memory_control
          378   7936: armBitRevTable
          379   7951: twiddleCoef_4096
          380   7968: Region$$Table$$Base
          381   7988: Region$$Table$$Limit
          382   8009: g_bPDMDataReady
          383   8025: g_ui32SampleFreq
          384   8042: PDMHandle
          385   8052: g_sPdmConfig
          386   8065: g_pfnCharPrint
          387   8080: g_ui32HALflags
          388   8095: am_bsp_psLEDs
          389   8109: g_am_hal_sysctrl_sleep_count
          390   8138: gAmHalResetStatus
          391   8156: g_ui32PDMDataBuffer
          392   8176: g_fPDMTimeDomain
          393   8193: g_fPDMMagnitudes
          394   8210: g_am_hal_pdm_states
          395   8230: __libspace_start
          396   8247: __temporary_stack_top$libspace
          397   8278: 
          398   8279: 


** Section #15 '.note' (SHT_NOTE)
    Size   : 28 bytes (alignment 4)


** Section #16 '.comment' (SHT_PROGBITS)
    Size   : 25820 bytes


** Section #17 '.shstrtab' (SHT_STRTAB)
    Size   : 172 bytes

            #  Offset String
        ====================================

            1      1: FLASH
            2      7: SRAM
            3     12: .debug_abbrev
            4     26: .debug_frame
            5     39: .debug_info
            6     51: .debug_line
            7     63: .debug_loc
            8     74: .debug_macinfo
            9     89: .debug_pubnames
           10    105: .debug_str
           11    116: .debug_ranges
           12    130: .symtab
           13    138: .strtab
           14    146: .note
           15    152: .comment
           16    161: .shstrtab
           17    171: 


