
========================================================================

** ELF Header Information

    File Name: bin\freertos_lowpower.axf

    Machine class: ELFCLASS32 (32-bit)
    Data encoding: ELFDATA2LSB (Little endian)
    Header version: EV_CURRENT (Current version)
    Operating System ABI: none
    ABI Version: 0
    File Type: ET_EXEC (Executable) (2)
    Machine: EM_ARM (ARM)

    Image Entry point: 0x0000c135
    Flags: EF_ARM_HASENTRY + EF_ARM_ABI_FLOAT_HARD (0x05000402)

    ARM ELF revision: 5 (ABI version 2)

    Conforms to Hard float procedure-call standard

    Built with
    Component: ARM Compiler 5.06 update 6 (build 750) Tool: armasm [4d35ec]
    Component: ARM Compiler 5.06 update 6 (build 750) Tool: armlink [4d35ed]

    Header size: 52 bytes (0x34)
    Program header entry size: 32 bytes (0x20)
    Section header entry size: 40 bytes (0x28)

    Program header entries: 1
    Section header entries: 17

    Program header offset: 788664 (0x000c08b8)
    Section header offset: 788696 (0x000c08d8)

    Section header string table index: 16

========================================================================

** Program header #0 (PT_LOAD) [PF_X + PF_W + PF_R + PF_ARM_ENTRY]
    Size : 44128 bytes (19556 bytes in file)
    Virtual address: 0x0000c000 (Alignment 8)


========================================================================

** Section #1 'ROMEM' (SHT_PROGBITS) [SHF_ALLOC + SHF_EXECINSTR]
    Size   : 19296 bytes (alignment 4)
    Address: 0x0000c000

    $d
    RESET
    __Vectors
        0x0000c000:    10001000    ....    DCD    268439552
        0x0000c004:    0000c101    ....    DCD    49409
        0x0000c008:    0000c11f    ....    DCD    49439
        0x0000c00c:    0000c295    ....    DCD    49813
        0x0000c010:    0000c121    !...    DCD    49441
        0x0000c014:    0000c123    #...    DCD    49443
        0x0000c018:    0000c125    %...    DCD    49445
        0x0000c01c:    00000000    ....    DCD    0
        0x0000c020:    00000000    ....    DCD    0
        0x0000c024:    00000000    ....    DCD    0
        0x0000c028:    00000000    ....    DCD    0
        0x0000c02c:    0000c1d5    ....    DCD    49621
        0x0000c030:    0000c129    )...    DCD    49449
        0x0000c034:    00000000    ....    DCD    0
        0x0000c038:    0000c231    1...    DCD    49713
        0x0000c03c:    0000c691    ....    DCD    50833
        0x0000c040:    0000c12f    /...    DCD    49455
        0x0000c044:    0000c12f    /...    DCD    49455
        0x0000c048:    0000c12f    /...    DCD    49455
        0x0000c04c:    0000c12f    /...    DCD    49455
        0x0000c050:    0000c12f    /...    DCD    49455
        0x0000c054:    0000c12f    /...    DCD    49455
        0x0000c058:    0000c12f    /...    DCD    49455
        0x0000c05c:    0000c12f    /...    DCD    49455
        0x0000c060:    0000c12f    /...    DCD    49455
        0x0000c064:    0000c12f    /...    DCD    49455
        0x0000c068:    0000c12f    /...    DCD    49455
        0x0000c06c:    0000c12f    /...    DCD    49455
        0x0000c070:    0000c12f    /...    DCD    49455
        0x0000c074:    0000c88b    ....    DCD    51339
        0x0000c078:    0000c75d    ]...    DCD    51037
        0x0000c07c:    0000c12f    /...    DCD    49455
        0x0000c080:    0000c12f    /...    DCD    49455
        0x0000c084:    0000c12f    /...    DCD    49455
        0x0000c088:    0000c12f    /...    DCD    49455
        0x0000c08c:    0000c12f    /...    DCD    49455
        0x0000c090:    0000c12f    /...    DCD    49455
        0x0000c094:    0000c12f    /...    DCD    49455
        0x0000c098:    0000c12f    /...    DCD    49455
        0x0000c09c:    0000dbe9    ....    DCD    56297
        0x0000c0a0:    0000dc09    ....    DCD    56329
        0x0000c0a4:    0000c12f    /...    DCD    49455
        0x0000c0a8:    0000c12f    /...    DCD    49455
        0x0000c0ac:    0000c12f    /...    DCD    49455
        0x0000c0b0:    0000c12f    /...    DCD    49455
        0x0000c0b4:    0000c12f    /...    DCD    49455
        0x0000c0b8:    0000c12f    /...    DCD    49455
        0x0000c0bc:    0000c12f    /...    DCD    49455
        0x0000c0c0:    0000c12f    /...    DCD    49455
        0x0000c0c4:    0000c12f    /...    DCD    49455
    __Patchable
        0x0000c0c8:    00000000    ....    DCD    0
        0x0000c0cc:    00000000    ....    DCD    0
        0x0000c0d0:    00000000    ....    DCD    0
        0x0000c0d4:    00000000    ....    DCD    0
        0x0000c0d8:    00000000    ....    DCD    0
        0x0000c0dc:    00000000    ....    DCD    0
        0x0000c0e0:    00000000    ....    DCD    0
        0x0000c0e4:    00000000    ....    DCD    0
        0x0000c0e8:    00000000    ....    DCD    0
        0x0000c0ec:    00000000    ....    DCD    0
        0x0000c0f0:    00000000    ....    DCD    0
        0x0000c0f4:    00000000    ....    DCD    0
        0x0000c0f8:    00000000    ....    DCD    0
        0x0000c0fc:    00000000    ....    DCD    0
    $t
    $v0
    Reset_Handler
        0x0000c100:    f64e5088    N..P    MOV      r0,#0xed88
        0x0000c104:    f2ce0000    ....    MOVT     r0,#0xe000
        0x0000c108:    6801        .h      LDR      r1,[r0,#0]
        0x0000c10a:    f4410170    A.p.    ORR      r1,r1,#0xf00000
        0x0000c10e:    6001        .`      STR      r1,[r0,#0]
        0x0000c110:    f3bf8f4f    ..O.    DSB      
        0x0000c114:    f3bf8f6f    ..o.    ISB      
        0x0000c118:    4805        .H      LDR      r0,[pc,#20] ; [0xc130] = 0xc135
        0x0000c11a:    4700        .G      BX       r0
        0x0000c11c:    e7fe        ..      B        0xc11c ; Reset_Handler + 28
    NMI_Handler
        0x0000c11e:    e7fe        ..      B        NMI_Handler ; 0xc11e
    MemManage_Handler
        0x0000c120:    e7fe        ..      B        MemManage_Handler ; 0xc120
    BusFault_Handler
        0x0000c122:    e7fe        ..      B        BusFault_Handler ; 0xc122
    UsageFault_Handler
        0x0000c124:    e7fe        ..      B        UsageFault_Handler ; 0xc124
        0x0000c126:    e7fe        ..      B        0xc126 ; UsageFault_Handler + 2
    DebugMon_Handler
        0x0000c128:    e7fe        ..      B        DebugMon_Handler ; 0xc128
        0x0000c12a:    e7fe        ..      B        0xc12a ; DebugMon_Handler + 2
        0x0000c12c:    e7fe        ..      B        0xc12c ; DebugMon_Handler + 4
    am_adc_isr
    am_ble_isr
    am_brownout_isr
    am_clkgen_isr
    am_iomaster0_isr
    am_iomaster1_isr
    am_iomaster2_isr
    am_iomaster3_isr
    am_iomaster4_isr
    am_iomaster5_isr
    am_ioslave_acc_isr
    am_ioslave_ios_isr
    am_mspi0_isr
    am_mspi1_isr
    am_mspi2_isr
    am_pdm0_isr
    am_rtc_isr
    am_scard_isr
    am_software0_isr
    am_stimer_cmpr2_isr
    am_stimer_cmpr3_isr
    am_stimer_cmpr4_isr
    am_stimer_cmpr5_isr
    am_stimer_cmpr6_isr
    am_stimer_cmpr7_isr
    am_stimer_isr
    am_uart0_isr
    am_uart1_isr
    am_uart_isr
    am_vcomp_isr
    am_watchdog_isr
        0x0000c12e:    e7fe        ..      B        am_adc_isr ; 0xc12e
    $d
        0x0000c130:    0000c135    5...    DCD    49461
    $t
    !!!main
    __main
        0x0000c134:    f000f802    ....    BL       __scatterload ; 0xc13c
        0x0000c138:    f000f83c    ..<.    BL       __rt_entry ; 0xc1b4
    !!!scatter
    __scatterload
    __scatterload_rt2
    __scatterload_rt2_thumb_only
        0x0000c13c:    a00a        ..      ADR      r0,{pc}+0x2c ; 0xc168
        0x0000c13e:    e8900c00    ....    LDM      r0,{r10,r11}
        0x0000c142:    4482        .D      ADD      r10,r10,r0
        0x0000c144:    4483        .D      ADD      r11,r11,r0
        0x0000c146:    f1aa0701    ....    SUB      r7,r10,#1
    __scatterload_null
        0x0000c14a:    45da        .E      CMP      r10,r11
        0x0000c14c:    d101        ..      BNE      0xc152 ; __scatterload_null + 8
        0x0000c14e:    f000f831    ..1.    BL       __rt_entry ; 0xc1b4
        0x0000c152:    f2af0e09    ....    ADR      lr,{pc}-7 ; 0xc14b
        0x0000c156:    e8ba000f    ....    LDM      r10!,{r0-r3}
        0x0000c15a:    f0130f01    ....    TST      r3,#1
        0x0000c15e:    bf18        ..      IT       NE
        0x0000c160:    1afb        ..      SUBNE    r3,r7,r3
        0x0000c162:    f0430301    C...    ORR      r3,r3,#1
        0x0000c166:    4718        .G      BX       r3
    $d
        0x0000c168:    000049c8    .I..    DCD    18888
        0x0000c16c:    000049f8    .I..    DCD    18936
    $t
    !!handler_copy
    __scatterload_copy
        0x0000c170:    3a10        .:      SUBS     r2,r2,#0x10
        0x0000c172:    bf24        $.      ITT      CS
        0x0000c174:    c878        x.      LDMCS    r0!,{r3-r6}
        0x0000c176:    c178        x.      STMCS    r1!,{r3-r6}
        0x0000c178:    d8fa        ..      BHI      __scatterload_copy ; 0xc170
        0x0000c17a:    0752        R.      LSLS     r2,r2,#29
        0x0000c17c:    bf24        $.      ITT      CS
        0x0000c17e:    c830        0.      LDMCS    r0!,{r4,r5}
        0x0000c180:    c130        0.      STMCS    r1!,{r4,r5}
        0x0000c182:    bf44        D.      ITT      MI
        0x0000c184:    6804        .h      LDRMI    r4,[r0,#0]
        0x0000c186:    600c        .`      STRMI    r4,[r1,#0]
        0x0000c188:    4770        pG      BX       lr
        0x0000c18a:    0000        ..      MOVS     r0,r0
    !!handler_zi
    __scatterload_zeroinit
        0x0000c18c:    2300        .#      MOVS     r3,#0
        0x0000c18e:    2400        .$      MOVS     r4,#0
        0x0000c190:    2500        .%      MOVS     r5,#0
        0x0000c192:    2600        .&      MOVS     r6,#0
        0x0000c194:    3a10        .:      SUBS     r2,r2,#0x10
        0x0000c196:    bf28        (.      IT       CS
        0x0000c198:    c178        x.      STMCS    r1!,{r3-r6}
        0x0000c19a:    d8fb        ..      BHI      0xc194 ; __scatterload_zeroinit + 8
        0x0000c19c:    0752        R.      LSLS     r2,r2,#29
        0x0000c19e:    bf28        (.      IT       CS
        0x0000c1a0:    c130        0.      STMCS    r1!,{r4,r5}
        0x0000c1a2:    bf48        H.      IT       MI
        0x0000c1a4:    600b        .`      STRMI    r3,[r1,#0]
        0x0000c1a6:    4770        pG      BX       lr
    .ARM.Collect$$libinit$$00000000
    __rt_lib_init
        0x0000c1a8:    b51f        ..      PUSH     {r0-r4,lr}
    .ARM.Collect$$libinit$$00000001
    __rt_lib_init_fp_1
        0x0000c1aa:    f004fa1e    ....    BL       _fp_init ; 0x105ea
    .ARM.Collect$$libinit$$00000004
    .ARM.Collect$$libinit$$0000000A
    .ARM.Collect$$libinit$$0000000C
    .ARM.Collect$$libinit$$0000000E
    .ARM.Collect$$libinit$$00000011
    .ARM.Collect$$libinit$$00000013
    .ARM.Collect$$libinit$$00000015
    .ARM.Collect$$libinit$$00000017
    .ARM.Collect$$libinit$$00000019
    .ARM.Collect$$libinit$$0000001B
    .ARM.Collect$$libinit$$0000001D
    .ARM.Collect$$libinit$$0000001F
    .ARM.Collect$$libinit$$00000021
    .ARM.Collect$$libinit$$00000023
    .ARM.Collect$$libinit$$00000025
    .ARM.Collect$$libinit$$0000002C
    .ARM.Collect$$libinit$$0000002E
    .ARM.Collect$$libinit$$00000030
    .ARM.Collect$$libinit$$00000032
    .ARM.Collect$$libinit$$00000033
    __rt_lib_init_alloca_1
    __rt_lib_init_argv_1
    __rt_lib_init_atexit_1
    __rt_lib_init_clock_1
    __rt_lib_init_cpp_1
    __rt_lib_init_exceptions_1
    __rt_lib_init_fp_trap_1
    __rt_lib_init_getenv_1
    __rt_lib_init_heap_1
    __rt_lib_init_lc_collate_1
    __rt_lib_init_lc_ctype_1
    __rt_lib_init_lc_monetary_1
    __rt_lib_init_lc_numeric_1
    __rt_lib_init_lc_time_1
    __rt_lib_init_preinit_1
    __rt_lib_init_rand_1
    __rt_lib_init_return
    __rt_lib_init_signal_1
    __rt_lib_init_stdio_1
    __rt_lib_init_user_alloc_1
        0x0000c1ae:    bd1f        ..      POP      {r0-r4,pc}
    .ARM.Collect$$libshutdown$$00000000
    __rt_lib_shutdown
        0x0000c1b0:    b510        ..      PUSH     {r4,lr}
    .ARM.Collect$$libshutdown$$00000002
    .ARM.Collect$$libshutdown$$00000004
    .ARM.Collect$$libshutdown$$00000007
    .ARM.Collect$$libshutdown$$0000000A
    .ARM.Collect$$libshutdown$$0000000C
    .ARM.Collect$$libshutdown$$0000000F
    .ARM.Collect$$libshutdown$$00000010
    __rt_lib_shutdown_cpp_1
    __rt_lib_shutdown_fp_trap_1
    __rt_lib_shutdown_heap_1
    __rt_lib_shutdown_return
    __rt_lib_shutdown_signal_1
    __rt_lib_shutdown_stdio_1
    __rt_lib_shutdown_user_alloc_1
        0x0000c1b2:    bd10        ..      POP      {r4,pc}
    .ARM.Collect$$rtentry$$00000000
    .ARM.Collect$$rtentry$$00000002
    .ARM.Collect$$rtentry$$00000004
    __rt_entry
    __rt_entry_presh_1
    __rt_entry_sh
        0x0000c1b4:    f000f971    ..q.    BL       __user_setup_stackheap ; 0xc49a
        0x0000c1b8:    4611        .F      MOV      r1,r2
    .ARM.Collect$$rtentry$$00000009
    .ARM.Collect$$rtentry$$0000000A
    __rt_entry_li
    __rt_entry_postsh_1
        0x0000c1ba:    f7fffff5    ....    BL       __rt_lib_init ; 0xc1a8
    .ARM.Collect$$rtentry$$0000000C
    .ARM.Collect$$rtentry$$0000000D
    __rt_entry_main
    __rt_entry_postli_1
        0x0000c1be:    f002fc15    ....    BL       main ; 0xe9ec
        0x0000c1c2:    f000f98f    ....    BL       exit ; 0xc4e4
    .ARM.Collect$$rtexit$$00000000
    __rt_exit
        0x0000c1c6:    b403        ..      PUSH     {r0,r1}
    .ARM.Collect$$rtexit$$00000002
    .ARM.Collect$$rtexit$$00000003
    __rt_exit_ls
    __rt_exit_prels_1
        0x0000c1c8:    f7fffff2    ....    BL       __rt_lib_shutdown ; 0xc1b0
    .ARM.Collect$$rtexit$$00000004
    __rt_exit_exit
        0x0000c1cc:    bc03        ..      POP      {r0,r1}
        0x0000c1ce:    f000f997    ....    BL       _sys_exit ; 0xc500
        0x0000c1d2:    0000        ..      MOVS     r0,r0
    .emb_text
    $v0
    SVC_Handler
        0x0000c1d4:    4b2c        ,K      LDR      r3,[pc,#176] ; [0xc288] = 0x10001048
        0x0000c1d6:    6819        .h      LDR      r1,[r3,#0]
        0x0000c1d8:    6808        .h      LDR      r0,[r1,#0]
        0x0000c1da:    e8b04ff0    ...O    LDM      r0!,{r4-r11,lr}
        0x0000c1de:    f3808809    ....    MSR      PSP,r0
        0x0000c1e2:    f3bf8f6f    ..o.    ISB      
        0x0000c1e6:    f04f0000    O...    MOV      r0,#0
        0x0000c1ea:    f3808811    ....    MSR      BASEPRI,r0
        0x0000c1ee:    4770        pG      BX       lr
    $d
        0x0000c1f0:    00000000    ....    DCD    0
    $t
    __asm___6_port_c_39a90d8d__prvStartFirstTask
        0x0000c1f4:    4808        .H      LDR      r0,[pc,#32] ; [0xc218] = 0xe000ed08
        0x0000c1f6:    6800        .h      LDR      r0,[r0,#0]
        0x0000c1f8:    6800        .h      LDR      r0,[r0,#0]
        0x0000c1fa:    f3808808    ....    MSR      MSP,r0
        0x0000c1fe:    f04f0000    O...    MOV      r0,#0
        0x0000c202:    f3808814    ....    MSR      CONTROL,r0
        0x0000c206:    b662        b.      CPSIE    i
        0x0000c208:    b661        a.      CPSIE    f
        0x0000c20a:    f3bf8f4f    ..O.    DSB      
        0x0000c20e:    f3bf8f6f    ..o.    ISB      
        0x0000c212:    df00        ..      SVC      #0x0 ; formerly SWI
        0x0000c214:    bf00        ..      NOP      
        0x0000c216:    bf00        ..      NOP      
    $d
        0x0000c218:    e000ed08    ....    DCD    3758157064
    $t
    __asm___6_port_c_39a90d8d__prvEnableVFP
        0x0000c21c:    f8df000c    ....    LDR.W    r0,[pc,#12] ; [0xc22c] = 0xe000ed88
        0x0000c220:    6801        .h      LDR      r1,[r0,#0]
        0x0000c222:    f4410170    A.p.    ORR      r1,r1,#0xf00000
        0x0000c226:    6001        .`      STR      r1,[r0,#0]
        0x0000c228:    4770        pG      BX       lr
        0x0000c22a:    bf00        ..      NOP      
    $d
        0x0000c22c:    e000ed88    ....    DCD    3758157192
    $t
    PendSV_Handler
        0x0000c230:    f3ef8009    ....    MRS      r0,PSP
        0x0000c234:    f3bf8f6f    ..o.    ISB      
        0x0000c238:    4b13        .K      LDR      r3,[pc,#76] ; [0xc288] = 0x10001048
        0x0000c23a:    681a        .h      LDR      r2,[r3,#0]
        0x0000c23c:    f01e0f10    ....    TST      lr,#0x10
        0x0000c240:    bf08        ..      IT       EQ
        0x0000c242:    ed208a10     ...    VSTMDBEQ r0!,{s16-s31}
        0x0000c246:    e9204ff0     ..O    STMDB    r0!,{r4-r11,lr}
        0x0000c24a:    6010        .`      STR      r0,[r2,#0]
        0x0000c24c:    b409        ..      PUSH     {r0,r3}
        0x0000c24e:    f04f0080    O...    MOV      r0,#0x80
        0x0000c252:    f3808811    ....    MSR      BASEPRI,r0
        0x0000c256:    f3bf8f4f    ..O.    DSB      
        0x0000c25a:    f3bf8f6f    ..o.    ISB      
        0x0000c25e:    f003fb1d    ....    BL       vTaskSwitchContext ; 0xf89c
        0x0000c262:    f04f0000    O...    MOV      r0,#0
        0x0000c266:    f3808811    ....    MSR      BASEPRI,r0
        0x0000c26a:    bc09        ..      POP      {r0,r3}
        0x0000c26c:    6819        .h      LDR      r1,[r3,#0]
        0x0000c26e:    6808        .h      LDR      r0,[r1,#0]
        0x0000c270:    e8b04ff0    ...O    LDM      r0!,{r4-r11,lr}
        0x0000c274:    f01e0f10    ....    TST      lr,#0x10
        0x0000c278:    bf08        ..      IT       EQ
        0x0000c27a:    ecb08a10    ....    VLDMEQ   r0!,{s16-s31}
        0x0000c27e:    f3808809    ....    MSR      PSP,r0
        0x0000c282:    f3bf8f6f    ..o.    ISB      
        0x0000c286:    4770        pG      BX       lr
    $d
        0x0000c288:    10001048    H...    DCD    268439624
    $t
    vPortGetIPSR
        0x0000c28c:    f3ef8005    ....    MRS      r0,IPSR
        0x0000c290:    4770        pG      BX       lr
        0x0000c292:    0000        ..      MOVS     r0,r0
    .emb_text
    $v0
    HardFault_Handler
        0x0000c294:    b501        ..      PUSH     {r0,lr}
        0x0000c296:    f01e0f04    ....    TST      lr,#4
        0x0000c29a:    bf0a        ..      ITET     EQ
        0x0000c29c:    f3ef8008    ....    MRSEQ    r0,MSP
        0x0000c2a0:    f3ef8009    ....    MRSNE    r0,PSP
        0x0000c2a4:    f1100008    ....    ADDSEQ   r0,r0,#8
        0x0000c2a8:    f001fcd4    ....    BL       am_util_faultisr_collect_data ; 0xdc54
        0x0000c2ac:    bd01        ..      POP      {r0,pc}
    getStackedReg
        0x0000c2ae:    0080        ..      LSLS     r0,r0,#2
        0x0000c2b0:    1840        @.      ADDS     r0,r0,r1
        0x0000c2b2:    6800        .h      LDR      r0,[r0,#0]
        0x0000c2b4:    4770        pG      BX       lr
        0x0000c2b6:    0000        ..      MOVS     r0,r0
    .emb_text
    $v0
    am_hal_triple_read
        0x0000c2b8:    b412        ..      PUSH     {r1,r4}
        0x0000c2ba:    f3ef8410    ....    MRS      r4,PRIMASK
        0x0000c2be:    b672        r.      CPSID    i
        0x0000c2c0:    6801        .h      LDR      r1,[r0,#0]
        0x0000c2c2:    6802        .h      LDR      r2,[r0,#0]
        0x0000c2c4:    6803        .h      LDR      r3,[r0,#0]
        0x0000c2c6:    f3848810    ....    MSR      PRIMASK,r4
        0x0000c2ca:    bc11        ..      POP      {r0,r4}
        0x0000c2cc:    6001        .`      STR      r1,[r0,#0]
        0x0000c2ce:    6042        B`      STR      r2,[r0,#4]
        0x0000c2d0:    6083        .`      STR      r3,[r0,#8]
        0x0000c2d2:    4770        pG      BX       lr
    .emb_text
    $v0
    am_hal_interrupt_master_enable
        0x0000c2d4:    f3ef8010    ....    MRS      r0,PRIMASK
        0x0000c2d8:    b662        b.      CPSIE    i
        0x0000c2da:    4770        pG      BX       lr
    am_hal_interrupt_master_disable
        0x0000c2dc:    f3ef8010    ....    MRS      r0,PRIMASK
        0x0000c2e0:    b672        r.      CPSID    i
        0x0000c2e2:    4770        pG      BX       lr
    am_hal_interrupt_master_set
        0x0000c2e4:    f3808810    ....    MSR      PRIMASK,r0
        0x0000c2e8:    4770        pG      BX       lr
        0x0000c2ea:    0000        ..      MOVS     r0,r0
    .text
    $v0
    __user_initial_stackheap
        0x0000c2ec:    4802        .H      LDR      r0,[pc,#8] ; [0xc2f8] = 0x10006100
        0x0000c2ee:    4903        .I      LDR      r1,[pc,#12] ; [0xc2fc] = 0x10001000
        0x0000c2f0:    4a01        .J      LDR      r2,[pc,#4] ; [0xc2f8] = 0x10006100
        0x0000c2f2:    4b03        .K      LDR      r3,[pc,#12] ; [0xc300] = 0x10000000
        0x0000c2f4:    4770        pG      BX       lr
    $d
        0x0000c2f6:    0000        ..      DCW    0
        0x0000c2f8:    10006100    .a..    DCD    268460288
        0x0000c2fc:    10001000    ....    DCD    268439552
        0x0000c300:    10000000    ....    DCD    268435456
    $t
    .text
    __aeabi_memcpy
    __rt_memcpy
        0x0000c304:    2a03        .*      CMP      r2,#3
        0x0000c306:    f2408030    @.0.    BLS.W    _memcpy_lastbytes ; 0xc36a
        0x0000c30a:    f0100c03    ....    ANDS     r12,r0,#3
        0x0000c30e:    f0008015    ....    BEQ.W    0xc33c ; __aeabi_memcpy + 56
        0x0000c312:    f8113b01    ...;    LDRB     r3,[r1],#1
        0x0000c316:    f1bc0f02    ....    CMP      r12,#2
        0x0000c31a:    4462        bD      ADD      r2,r2,r12
        0x0000c31c:    bf98        ..      IT       LS
        0x0000c31e:    f811cb01    ....    LDRBLS   r12,[r1],#1
        0x0000c322:    f8003b01    ...;    STRB     r3,[r0],#1
        0x0000c326:    bf38        8.      IT       CC
        0x0000c328:    f8113b01    ...;    LDRBCC   r3,[r1],#1
        0x0000c32c:    f1a20204    ....    SUB      r2,r2,#4
        0x0000c330:    bf98        ..      IT       LS
        0x0000c332:    f800cb01    ....    STRBLS   r12,[r0],#1
        0x0000c336:    bf38        8.      IT       CC
        0x0000c338:    f8003b01    ...;    STRBCC   r3,[r0],#1
        0x0000c33c:    f0110303    ....    ANDS     r3,r1,#3
        0x0000c340:    f0008030    ..0.    BEQ.W    __aeabi_memcpy4 ; 0xc3a4
        0x0000c344:    3a08        .:      SUBS     r2,r2,#8
        0x0000c346:    f0c08008    ....    BCC.W    0xc35a ; __aeabi_memcpy + 86
        0x0000c34a:    f8513b04    Q..;    LDR      r3,[r1],#4
        0x0000c34e:    3a08        .:      SUBS     r2,r2,#8
        0x0000c350:    f851cb04    Q...    LDR      r12,[r1],#4
        0x0000c354:    e8a01008    ....    STM      r0!,{r3,r12}
        0x0000c358:    e7f5        ..      B        0xc346 ; __aeabi_memcpy + 66
        0x0000c35a:    1d12        ..      ADDS     r2,r2,#4
        0x0000c35c:    bf5c        \.      ITT      PL
        0x0000c35e:    f8513b04    Q..;    LDRPL    r3,[r1],#4
        0x0000c362:    f8403b04    @..;    STRPL    r3,[r0],#4
        0x0000c366:    f3af8000    ....    NOP.W    
    _memcpy_lastbytes
        0x0000c36a:    07d2        ..      LSLS     r2,r2,#31
        0x0000c36c:    bf24        $.      ITT      CS
        0x0000c36e:    f8113b01    ...;    LDRBCS   r3,[r1],#1
        0x0000c372:    f811cb01    ....    LDRBCS   r12,[r1],#1
        0x0000c376:    bf48        H.      IT       MI
        0x0000c378:    f8112b01    ...+    LDRBMI   r2,[r1],#1
        0x0000c37c:    bf24        $.      ITT      CS
        0x0000c37e:    f8003b01    ...;    STRBCS   r3,[r0],#1
        0x0000c382:    f800cb01    ....    STRBCS   r12,[r0],#1
        0x0000c386:    bf48        H.      IT       MI
        0x0000c388:    f8002b01    ...+    STRBMI   r2,[r0],#1
        0x0000c38c:    4770        pG      BX       lr
    .text
    __aeabi_memset
        0x0000c38e:    f00203ff    ....    AND      r3,r2,#0xff
        0x0000c392:    ea432203    C.."    ORR      r2,r3,r3,LSL #8
        0x0000c396:    ea424202    B..B    ORR      r2,r2,r2,LSL #16
        0x0000c39a:    f000b837    ..7.    B.W      _memset ; 0xc40c
    .text
    __use_two_region_memory
        0x0000c39e:    4770        pG      BX       lr
    __rt_heap_escrow$2region
        0x0000c3a0:    4770        pG      BX       lr
    __rt_heap_expand$2region
        0x0000c3a2:    4770        pG      BX       lr
    .text
    __aeabi_memcpy4
    __aeabi_memcpy8
    __rt_memcpy_w
        0x0000c3a4:    b510        ..      PUSH     {r4,lr}
        0x0000c3a6:    3a20         :      SUBS     r2,r2,#0x20
        0x0000c3a8:    f0c0800b    ....    BCC.W    0xc3c2 ; __aeabi_memcpy4 + 30
        0x0000c3ac:    e8b15018    ...P    LDM      r1!,{r3,r4,r12,lr}
        0x0000c3b0:    3a20         :      SUBS     r2,r2,#0x20
        0x0000c3b2:    e8a05018    ...P    STM      r0!,{r3,r4,r12,lr}
        0x0000c3b6:    e8b15018    ...P    LDM      r1!,{r3,r4,r12,lr}
        0x0000c3ba:    e8a05018    ...P    STM      r0!,{r3,r4,r12,lr}
        0x0000c3be:    f4bfaff5    ....    BCS.W    0xc3ac ; __aeabi_memcpy4 + 8
        0x0000c3c2:    ea5f7c02    _..|    LSLS     r12,r2,#28
        0x0000c3c6:    bf24        $.      ITT      CS
        0x0000c3c8:    e8b15018    ...P    LDMCS    r1!,{r3,r4,r12,lr}
        0x0000c3cc:    e8a05018    ...P    STMCS    r0!,{r3,r4,r12,lr}
        0x0000c3d0:    bf44        D.      ITT      MI
        0x0000c3d2:    c918        ..      LDMMI    r1!,{r3,r4}
        0x0000c3d4:    c018        ..      STMMI    r0!,{r3,r4}
        0x0000c3d6:    e8bd4010    ...@    POP      {r4,lr}
        0x0000c3da:    ea5f7c82    _..|    LSLS     r12,r2,#30
        0x0000c3de:    bf24        $.      ITT      CS
        0x0000c3e0:    f8513b04    Q..;    LDRCS    r3,[r1],#4
        0x0000c3e4:    f8403b04    @..;    STRCS    r3,[r0],#4
        0x0000c3e8:    bf08        ..      IT       EQ
        0x0000c3ea:    4770        pG      BXEQ     lr
    _memcpy_lastbytes_aligned
        0x0000c3ec:    07d2        ..      LSLS     r2,r2,#31
        0x0000c3ee:    bf28        (.      IT       CS
        0x0000c3f0:    f8313b02    1..;    LDRHCS   r3,[r1],#2
        0x0000c3f4:    bf48        H.      IT       MI
        0x0000c3f6:    f8112b01    ...+    LDRBMI   r2,[r1],#1
        0x0000c3fa:    bf28        (.      IT       CS
        0x0000c3fc:    f8203b02     ..;    STRHCS   r3,[r0],#2
        0x0000c400:    bf48        H.      IT       MI
        0x0000c402:    f8002b01    ...+    STRBMI   r2,[r0],#1
        0x0000c406:    4770        pG      BX       lr
    .text
    __aeabi_memclr
    __rt_memclr
        0x0000c408:    f04f0200    O...    MOV      r2,#0
    _memset
        0x0000c40c:    2904        .)      CMP      r1,#4
        0x0000c40e:    f0c08012    ....    BCC.W    0xc436 ; _memset + 42
        0x0000c412:    f0100c03    ....    ANDS     r12,r0,#3
        0x0000c416:    f000801b    ....    BEQ.W    _memset_w ; 0xc450
        0x0000c41a:    f1cc0c04    ....    RSB      r12,r12,#4
        0x0000c41e:    f1bc0f02    ....    CMP      r12,#2
        0x0000c422:    bf18        ..      IT       NE
        0x0000c424:    f8002b01    ...+    STRBNE   r2,[r0],#1
        0x0000c428:    bfa8        ..      IT       GE
        0x0000c42a:    f8202b02     ..+    STRHGE   r2,[r0],#2
        0x0000c42e:    eba1010c    ....    SUB      r1,r1,r12
        0x0000c432:    f000b80d    ....    B.W      _memset_w ; 0xc450
        0x0000c436:    ea5f7cc1    _..|    LSLS     r12,r1,#31
        0x0000c43a:    bf24        $.      ITT      CS
        0x0000c43c:    f8002b01    ...+    STRBCS   r2,[r0],#1
        0x0000c440:    f8002b01    ...+    STRBCS   r2,[r0],#1
        0x0000c444:    bf48        H.      IT       MI
        0x0000c446:    f8002b01    ...+    STRBMI   r2,[r0],#1
        0x0000c44a:    4770        pG      BX       lr
    .text
    __aeabi_memclr4
    __aeabi_memclr8
    __rt_memclr_w
        0x0000c44c:    f04f0200    O...    MOV      r2,#0
    _memset_w
        0x0000c450:    b500        ..      PUSH     {lr}
        0x0000c452:    4613        .F      MOV      r3,r2
        0x0000c454:    4694        .F      MOV      r12,r2
        0x0000c456:    4696        .F      MOV      lr,r2
        0x0000c458:    3920         9      SUBS     r1,r1,#0x20
        0x0000c45a:    bf22        ".      ITTT     CS
        0x0000c45c:    e8a0500c    ...P    STMCS    r0!,{r2,r3,r12,lr}
        0x0000c460:    e8a0500c    ...P    STMCS    r0!,{r2,r3,r12,lr}
        0x0000c464:    f1b10120    .. .    SUBSCS   r1,r1,#0x20
        0x0000c468:    f4bfaff7    ....    BCS.W    0xc45a ; _memset_w + 10
        0x0000c46c:    0709        ..      LSLS     r1,r1,#28
        0x0000c46e:    bf28        (.      IT       CS
        0x0000c470:    e8a0500c    ...P    STMCS    r0!,{r2,r3,r12,lr}
        0x0000c474:    bf48        H.      IT       MI
        0x0000c476:    c00c        ..      STMMI    r0!,{r2,r3}
        0x0000c478:    f85deb04    ]...    POP      {lr}
        0x0000c47c:    0089        ..      LSLS     r1,r1,#2
        0x0000c47e:    bf28        (.      IT       CS
        0x0000c480:    f8402b04    @..+    STRCS    r2,[r0],#4
        0x0000c484:    bf08        ..      IT       EQ
        0x0000c486:    4770        pG      BXEQ     lr
        0x0000c488:    bf48        H.      IT       MI
        0x0000c48a:    f8202b02     ..+    STRHMI   r2,[r0],#2
        0x0000c48e:    f0114f80    ...O    TST      r1,#0x40000000
        0x0000c492:    bf18        ..      IT       NE
        0x0000c494:    f8002b01    ...+    STRBNE   r2,[r0],#1
        0x0000c498:    4770        pG      BX       lr
    .text
    __user_setup_stackheap
        0x0000c49a:    4675        uF      MOV      r5,lr
        0x0000c49c:    f000f82c    ..,.    BL       __user_libspace ; 0xc4f8
        0x0000c4a0:    46ae        .F      MOV      lr,r5
        0x0000c4a2:    0005        ..      MOVS     r5,r0
        0x0000c4a4:    4669        iF      MOV      r1,sp
        0x0000c4a6:    4653        SF      MOV      r3,r10
        0x0000c4a8:    f0200007     ...    BIC      r0,r0,#7
        0x0000c4ac:    4685        .F      MOV      sp,r0
        0x0000c4ae:    b018        ..      ADD      sp,sp,#0x60
        0x0000c4b0:    b520         .      PUSH     {r5,lr}
        0x0000c4b2:    f7ffff1b    ....    BL       __user_initial_stackheap ; 0xc2ec
        0x0000c4b6:    e8bd4020    .. @    POP      {r5,lr}
        0x0000c4ba:    f04f0600    O...    MOV      r6,#0
        0x0000c4be:    f04f0700    O...    MOV      r7,#0
        0x0000c4c2:    f04f0800    O...    MOV      r8,#0
        0x0000c4c6:    f04f0b00    O...    MOV      r11,#0
        0x0000c4ca:    f0210107    !...    BIC      r1,r1,#7
        0x0000c4ce:    46ac        .F      MOV      r12,r5
        0x0000c4d0:    e8ac09c0    ....    STM      r12!,{r6-r8,r11}
        0x0000c4d4:    e8ac09c0    ....    STM      r12!,{r6-r8,r11}
        0x0000c4d8:    e8ac09c0    ....    STM      r12!,{r6-r8,r11}
        0x0000c4dc:    e8ac09c0    ....    STM      r12!,{r6-r8,r11}
        0x0000c4e0:    468d        .F      MOV      sp,r1
        0x0000c4e2:    4770        pG      BX       lr
    .text
    exit
        0x0000c4e4:    b510        ..      PUSH     {r4,lr}
        0x0000c4e6:    4604        .F      MOV      r4,r0
        0x0000c4e8:    f3af8000    ....    NOP.W    
        0x0000c4ec:    4620         F      MOV      r0,r4
        0x0000c4ee:    e8bd4010    ...@    POP      {r4,lr}
        0x0000c4f2:    f7ffbe68    ..h.    B.W      __rt_exit ; 0xc1c6
        0x0000c4f6:    0000        ..      MOVS     r0,r0
    .text
    __user_libspace
    __user_perproc_libspace
    __user_perthread_libspace
        0x0000c4f8:    4800        .H      LDR      r0,[pc,#0] ; [0xc4fc] = 0x1000609c
        0x0000c4fa:    4770        pG      BX       lr
    $d
        0x0000c4fc:    1000609c    .`..    DCD    268460188
    $t
    .text
    _sys_exit
        0x0000c500:    4901        .I      LDR      r1,[pc,#4] ; [0xc508] = 0x20026
        0x0000c502:    2018        .       MOVS     r0,#0x18
        0x0000c504:    beab        ..      BKPT     #0xab
        0x0000c506:    e7fe        ..      B        0xc506 ; _sys_exit + 6
    $d
        0x0000c508:    00020026    &...    DCD    131110
    $t
    .text
    __I$use$semihosting
    __use_no_semihosting_swi
        0x0000c50c:    4770        pG      BX       lr
    .text
    __semihosting_library_function
        0x0000c50e:    0000        ..      MOVS     r0,r0
    i.LedTask
    LedTask
        0x0000c510:    4d11        .M      LDR      r5,[pc,#68] ; [0xc558] = 0x10001004
        0x0000c512:    b082        ..      SUB      sp,sp,#8
        0x0000c514:    f04f36ff    O..6    MOV      r6,#0xffffffff
        0x0000c518:    9600        ..      STR      r6,[sp,#0]
        0x0000c51a:    2300        .#      MOVS     r3,#0
        0x0000c51c:    2201        ."      MOVS     r2,#1
        0x0000c51e:    2107        .!      MOVS     r1,#7
        0x0000c520:    6828        (h      LDR      r0,[r5,#0]
        0x0000c522:    f003fa11    ....    BL       xEventGroupWaitBits ; 0xf948
        0x0000c526:    0004        ..      MOVS     r4,r0
        0x0000c528:    d0f6        ..      BEQ      0xc518 ; LedTask + 8
        0x0000c52a:    f0140f01    ....    TST      r4,#1
        0x0000c52e:    d003        ..      BEQ      0xc538 ; LedTask + 40
        0x0000c530:    2100        .!      MOVS     r1,#0
        0x0000c532:    480a        .H      LDR      r0,[pc,#40] ; [0xc55c] = 0x100010ac
        0x0000c534:    f000f979    ..y.    BL       am_devices_led_toggle ; 0xc82a
        0x0000c538:    f0140f02    ....    TST      r4,#2
        0x0000c53c:    d003        ..      BEQ      0xc546 ; LedTask + 54
        0x0000c53e:    2101        .!      MOVS     r1,#1
        0x0000c540:    4806        .H      LDR      r0,[pc,#24] ; [0xc55c] = 0x100010ac
        0x0000c542:    f000f972    ..r.    BL       am_devices_led_toggle ; 0xc82a
        0x0000c546:    f0140f04    ....    TST      r4,#4
        0x0000c54a:    d0e5        ..      BEQ      0xc518 ; LedTask + 8
        0x0000c54c:    2102        .!      MOVS     r1,#2
        0x0000c54e:    4803        .H      LDR      r0,[pc,#12] ; [0xc55c] = 0x100010ac
        0x0000c550:    f000f96b    ..k.    BL       am_devices_led_toggle ; 0xc82a
        0x0000c554:    e7e0        ..      B        0xc518 ; LedTask + 8
    $d
        0x0000c556:    0000        ..      DCW    0
        0x0000c558:    10001004    ....    DCD    268439556
        0x0000c55c:    100010ac    ....    DCD    268439724
    $t
    i.LedTaskSetup
    LedTaskSetup
        0x0000c560:    e92d43f0    -..C    PUSH     {r4-r9,lr}
        0x0000c564:    b089        ..      SUB      sp,sp,#0x24
        0x0000c566:    a03c        <.      ADR      r0,{pc}+0xf2 ; 0xc658
        0x0000c568:    f001fdd0    ....    BL       am_util_stdio_printf ; 0xe10c
        0x0000c56c:    f003f9de    ....    BL       xEventGroupCreate ; 0xf92c
        0x0000c570:    493e        >I      LDR      r1,[pc,#248] ; [0xc66c] = 0x10001004
        0x0000c572:    6008        .`      STR      r0,[r1,#0]
        0x0000c574:    2800        .(      CMP      r0,#0
        0x0000c576:    d0fd        ..      BEQ      0xc574 ; LedTaskSetup + 20
        0x0000c578:    2105        .!      MOVS     r1,#5
        0x0000c57a:    483d        =H      LDR      r0,[pc,#244] ; [0xc670] = 0x100010ac
        0x0000c57c:    f000f8fa    ....    BL       am_devices_led_array_init ; 0xc774
        0x0000c580:    2100        .!      MOVS     r1,#0
        0x0000c582:    483b        ;H      LDR      r0,[pc,#236] ; [0xc670] = 0x100010ac
        0x0000c584:    f000f93a    ..:.    BL       am_devices_led_off ; 0xc7fc
        0x0000c588:    2101        .!      MOVS     r1,#1
        0x0000c58a:    4839        9H      LDR      r0,[pc,#228] ; [0xc670] = 0x100010ac
        0x0000c58c:    f000f936    ..6.    BL       am_devices_led_off ; 0xc7fc
        0x0000c590:    2102        .!      MOVS     r1,#2
        0x0000c592:    4837        7H      LDR      r0,[pc,#220] ; [0xc670] = 0x100010ac
        0x0000c594:    f000f932    ..2.    BL       am_devices_led_off ; 0xc7fc
        0x0000c598:    2103        .!      MOVS     r1,#3
        0x0000c59a:    4835        5H      LDR      r0,[pc,#212] ; [0xc670] = 0x100010ac
        0x0000c59c:    f000f92e    ....    BL       am_devices_led_off ; 0xc7fc
        0x0000c5a0:    2104        .!      MOVS     r1,#4
        0x0000c5a2:    4833        3H      LDR      r0,[pc,#204] ; [0xc670] = 0x100010ac
        0x0000c5a4:    f000f92a    ..*.    BL       am_devices_led_off ; 0xc7fc
        0x0000c5a8:    4932        2I      LDR      r1,[pc,#200] ; [0xc674] = 0xe000e00d
        0x0000c5aa:    2080        .       MOVS     r0,#0x80
        0x0000c5ac:    f8810400    ....    STRB     r0,[r1,#0x400]
        0x0000c5b0:    4931        1I      LDR      r1,[pc,#196] ; [0xc678] = 0xe88d
        0x0000c5b2:    2010        .       MOVS     r0,#0x10
        0x0000c5b4:    f000fd5e    ..^.    BL       am_hal_gpio_interrupt_register ; 0xd074
        0x0000c5b8:    4930        0I      LDR      r1,[pc,#192] ; [0xc67c] = 0xe8f1
        0x0000c5ba:    2012        .       MOVS     r0,#0x12
        0x0000c5bc:    f000fd5a    ..Z.    BL       am_hal_gpio_interrupt_register ; 0xd074
        0x0000c5c0:    492f        /I      LDR      r1,[pc,#188] ; [0xc680] = 0xe955
        0x0000c5c2:    2013        .       MOVS     r0,#0x13
        0x0000c5c4:    f000fd56    ..V.    BL       am_hal_gpio_interrupt_register ; 0xd074
        0x0000c5c8:    482e        .H      LDR      r0,[pc,#184] ; [0xc684] = 0x10b20
        0x0000c5ca:    6801        .h      LDR      r1,[r0,#0]
        0x0000c5cc:    2010        .       MOVS     r0,#0x10
        0x0000c5ce:    f000fdd9    ....    BL       am_hal_gpio_pinconfig ; 0xd184
        0x0000c5d2:    482d        -H      LDR      r0,[pc,#180] ; [0xc688] = 0x10b24
        0x0000c5d4:    6801        .h      LDR      r1,[r0,#0]
        0x0000c5d6:    2012        .       MOVS     r0,#0x12
        0x0000c5d8:    f000fdd4    ....    BL       am_hal_gpio_pinconfig ; 0xd184
        0x0000c5dc:    482b        +H      LDR      r0,[pc,#172] ; [0xc68c] = 0x10b28
        0x0000c5de:    6801        .h      LDR      r1,[r0,#0]
        0x0000c5e0:    2013        .       MOVS     r0,#0x13
        0x0000c5e2:    f000fdcf    ....    BL       am_hal_gpio_pinconfig ; 0xd184
        0x0000c5e6:    2000        .       MOVS     r0,#0
        0x0000c5e8:    466d        mF      MOV      r5,sp
        0x0000c5ea:    9002        ..      STR      r0,[sp,#8]
        0x0000c5ec:    9001        ..      STR      r0,[sp,#4]
        0x0000c5ee:    9000        ..      STR      r0,[sp,#0]
        0x0000c5f0:    ae03        ..      ADD      r6,sp,#0xc
        0x0000c5f2:    9005        ..      STR      r0,[sp,#0x14]
        0x0000c5f4:    9004        ..      STR      r0,[sp,#0x10]
        0x0000c5f6:    9003        ..      STR      r0,[sp,#0xc]
        0x0000c5f8:    ac06        ..      ADD      r4,sp,#0x18
        0x0000c5fa:    9008        ..      STR      r0,[sp,#0x20]
        0x0000c5fc:    9007        ..      STR      r0,[sp,#0x1c]
        0x0000c5fe:    9006        ..      STR      r0,[sp,#0x18]
        0x0000c600:    f44f3780    O..7    MOV      r7,#0x10000
        0x0000c604:    4628        (F      MOV      r0,r5
        0x0000c606:    9700        ..      STR      r7,[sp,#0]
        0x0000c608:    f000fce8    ....    BL       am_hal_gpio_interrupt_clear ; 0xcfdc
        0x0000c60c:    f44f2880    O..(    MOV      r8,#0x40000
        0x0000c610:    4630        0F      MOV      r0,r6
        0x0000c612:    f8cd800c    ....    STR      r8,[sp,#0xc]
        0x0000c616:    f000fce1    ....    BL       am_hal_gpio_interrupt_clear ; 0xcfdc
        0x0000c61a:    f44f2900    O..)    MOV      r9,#0x80000
        0x0000c61e:    4620         F      MOV      r0,r4
        0x0000c620:    f8cd9018    ....    STR      r9,[sp,#0x18]
        0x0000c624:    f000fcda    ....    BL       am_hal_gpio_interrupt_clear ; 0xcfdc
        0x0000c628:    4628        (F      MOV      r0,r5
        0x0000c62a:    9700        ..      STR      r7,[sp,#0]
        0x0000c62c:    f000fcfe    ....    BL       am_hal_gpio_interrupt_enable ; 0xd02c
        0x0000c630:    4630        0F      MOV      r0,r6
        0x0000c632:    f8cd800c    ....    STR      r8,[sp,#0xc]
        0x0000c636:    f000fcf9    ....    BL       am_hal_gpio_interrupt_enable ; 0xd02c
        0x0000c63a:    4620         F      MOV      r0,r4
        0x0000c63c:    f8cd9018    ....    STR      r9,[sp,#0x18]
        0x0000c640:    f000fcf4    ....    BL       am_hal_gpio_interrupt_enable ; 0xd02c
        0x0000c644:    f04f21e0    O..!    MOV      r1,#0xe000e000
        0x0000c648:    10f8        ..      ASRS     r0,r7,#3
        0x0000c64a:    f8c10100    ....    STR      r0,[r1,#0x100]
        0x0000c64e:    f7fffe41    ..A.    BL       am_hal_interrupt_master_enable ; 0xc2d4
        0x0000c652:    b009        ..      ADD      sp,sp,#0x24
        0x0000c654:    e8bd83f0    ....    POP      {r4-r9,pc}
    $d
        0x0000c658:    5444454c    LEDT    DCD    1413760332
        0x0000c65c:    3a6b7361    ask:    DCD    980120417
        0x0000c660:    74657320     set    DCD    1952805664
        0x0000c664:    0a0d7075    up..    DCD    168652917
        0x0000c668:    00000000    ....    DCD    0
        0x0000c66c:    10001004    ....    DCD    268439556
        0x0000c670:    100010ac    ....    DCD    268439724
        0x0000c674:    e000e00d    ....    DCD    3758153741
        0x0000c678:    0000e88d    ....    DCD    59533
        0x0000c67c:    0000e8f1    ....    DCD    59633
        0x0000c680:    0000e955    U...    DCD    59733
        0x0000c684:    00010b20     ...    DCD    68384
        0x0000c688:    00010b24    $...    DCD    68388
        0x0000c68c:    00010b28    (...    DCD    68392
    $t
    i.SysTick_Handler
    SysTick_Handler
        0x0000c690:    b510        ..      PUSH     {r4,lr}
        0x0000c692:    2080        .       MOVS     r0,#0x80
        0x0000c694:    f3808811    ....    MSR      BASEPRI,r0
        0x0000c698:    f3bf8f4f    ..O.    DSB      
        0x0000c69c:    f3bf8f6f    ..o.    ISB      
        0x0000c6a0:    f003fd6c    ..l.    BL       xTaskIncrementTick ; 0x1017c
        0x0000c6a4:    b118        ..      CBZ      r0,0xc6ae ; SysTick_Handler + 30
        0x0000c6a6:    4904        .I      LDR      r1,[pc,#16] ; [0xc6b8] = 0xe000ed04
        0x0000c6a8:    f04f5080    O..P    MOV      r0,#0x10000000
        0x0000c6ac:    6008        .`      STR      r0,[r1,#0]
        0x0000c6ae:    2000        .       MOVS     r0,#0
        0x0000c6b0:    f3808811    ....    MSR      BASEPRI,r0
        0x0000c6b4:    bd10        ..      POP      {r4,pc}
    $d
        0x0000c6b6:    0000        ..      DCW    0
        0x0000c6b8:    e000ed04    ....    DCD    3758157060
    $t
    i.am_bsp_itm_printf_disable
    am_bsp_itm_printf_disable
        0x0000c6bc:    b510        ..      PUSH     {r4,lr}
        0x0000c6be:    f000ff0f    ....    BL       am_hal_itm_disable ; 0xd4e0
        0x0000c6c2:    2000        .       MOVS     r0,#0
        0x0000c6c4:    f001fd3c    ..<.    BL       am_util_stdio_printf_init ; 0xe140
        0x0000c6c8:    4803        .H      LDR      r0,[pc,#12] ; [0xc6d8] = 0x10610
        0x0000c6ca:    6801        .h      LDR      r1,[r0,#0]
        0x0000c6cc:    e8bd4010    ...@    POP      {r4,lr}
        0x0000c6d0:    2029        )       MOVS     r0,#0x29
        0x0000c6d2:    f000bd57    ..W.    B.W      am_hal_gpio_pinconfig ; 0xd184
    $d
        0x0000c6d6:    0000        ..      DCW    0
        0x0000c6d8:    00010610    ....    DCD    67088
    $t
    i.am_bsp_itm_printf_enable
    am_bsp_itm_printf_enable
        0x0000c6dc:    b500        ..      PUSH     {lr}
        0x0000c6de:    490a        .I      LDR      r1,[pc,#40] ; [0xc708] = 0x100010a4
        0x0000c6e0:    b085        ..      SUB      sp,sp,#0x14
        0x0000c6e2:    2001        .       MOVS     r0,#1
        0x0000c6e4:    6008        .`      STR      r0,[r1,#0]
        0x0000c6e6:    f000ff51    ..Q.    BL       am_hal_itm_enable ; 0xd58c
        0x0000c6ea:    4808        .H      LDR      r0,[pc,#32] ; [0xc70c] = 0xf4240
        0x0000c6ec:    9000        ..      STR      r0,[sp,#0]
        0x0000c6ee:    4668        hF      MOV      r0,sp
        0x0000c6f0:    f001fa32    ..2.    BL       am_hal_tpiu_enable ; 0xdb58
        0x0000c6f4:    4806        .H      LDR      r0,[pc,#24] ; [0xc710] = 0x10b2c
        0x0000c6f6:    6801        .h      LDR      r1,[r0,#0]
        0x0000c6f8:    2029        )       MOVS     r0,#0x29
        0x0000c6fa:    f000fd43    ..C.    BL       am_hal_gpio_pinconfig ; 0xd184
        0x0000c6fe:    4805        .H      LDR      r0,[pc,#20] ; [0xc714] = 0xd5d5
        0x0000c700:    f001fd1e    ....    BL       am_util_stdio_printf_init ; 0xe140
        0x0000c704:    b005        ..      ADD      sp,sp,#0x14
        0x0000c706:    bd00        ..      POP      {pc}
    $d
        0x0000c708:    100010a4    ....    DCD    268439716
        0x0000c70c:    000f4240    @B..    DCD    1000000
        0x0000c710:    00010b2c    ,...    DCD    68396
        0x0000c714:    0000d5d5    ....    DCD    54741
    $t
    i.am_bsp_low_power_init
    am_bsp_low_power_init
        0x0000c718:    e92d41f0    -..A    PUSH     {r4-r8,lr}
        0x0000c71c:    f001f80e    ....    BL       am_hal_pwrctrl_low_power_init ; 0xd73c
        0x0000c720:    f001f8f2    ....    BL       am_hal_rtc_osc_disable ; 0xd908
        0x0000c724:    4f0b        .O      LDR      r7,[pc,#44] ; [0xc754] = 0x100010ac
        0x0000c726:    4e0c        .N      LDR      r6,[pc,#48] ; [0xc758] = 0x10820
        0x0000c728:    2400        .$      MOVS     r4,#0
        0x0000c72a:    bf00        ..      NOP      
        0x0000c72c:    f8575034    W.4P    LDR      r5,[r7,r4,LSL #3]
        0x0000c730:    6831        1h      LDR      r1,[r6,#0]
        0x0000c732:    4628        (F      MOV      r0,r5
        0x0000c734:    f000fd26    ..&.    BL       am_hal_gpio_pinconfig ; 0xd184
        0x0000c738:    2103        .!      MOVS     r1,#3
        0x0000c73a:    4628        (F      MOV      r0,r5
        0x0000c73c:    f000fe8f    ....    BL       am_hal_gpio_state_write ; 0xd45e
        0x0000c740:    2100        .!      MOVS     r1,#0
        0x0000c742:    4628        (F      MOV      r0,r5
        0x0000c744:    f000fe8b    ....    BL       am_hal_gpio_state_write ; 0xd45e
        0x0000c748:    1c64        d.      ADDS     r4,r4,#1
        0x0000c74a:    2c05        .,      CMP      r4,#5
        0x0000c74c:    d3ee        ..      BCC      0xc72c ; am_bsp_low_power_init + 20
        0x0000c74e:    e8bd81f0    ....    POP      {r4-r8,pc}
    $d
        0x0000c752:    0000        ..      DCW    0
        0x0000c754:    100010ac    ....    DCD    268439724
        0x0000c758:    00010820     ...    DCD    67616
    $t
    i.am_ctimer_isr
    am_ctimer_isr
        0x0000c75c:    b510        ..      PUSH     {r4,lr}
        0x0000c75e:    2000        .       MOVS     r0,#0
        0x0000c760:    f000fbcc    ....    BL       am_hal_ctimer_int_status_get ; 0xcefc
        0x0000c764:    4604        .F      MOV      r4,r0
        0x0000c766:    f000fb9f    ....    BL       am_hal_ctimer_int_clear ; 0xcea8
        0x0000c76a:    4620         F      MOV      r0,r4
        0x0000c76c:    e8bd4010    ...@    POP      {r4,lr}
        0x0000c770:    f000bbaa    ....    B.W      am_hal_ctimer_int_service ; 0xcec8
    i.am_devices_led_array_init
    am_devices_led_array_init
        0x0000c774:    2800        .(      CMP      r0,#0
        0x0000c776:    bf08        ..      IT       EQ
        0x0000c778:    4770        pG      BXEQ     lr
        0x0000c77a:    291f        .)      CMP      r1,#0x1f
        0x0000c77c:    bf88        ..      IT       HI
        0x0000c77e:    4770        pG      BXHI     lr
        0x0000c780:    e92d47f0    -..G    PUSH     {r4-r10,lr}
        0x0000c784:    000e        ..      MOVS     r6,r1
        0x0000c786:    4607        .F      MOV      r7,r0
        0x0000c788:    f04f0500    O...    MOV      r5,#0
        0x0000c78c:    bf1a        ..      ITTE     NE
        0x0000c78e:    f8df8064    ..d.    LDRNE    r8,[pc,#100] ; [0xc7f4] = 0x10820
        0x0000c792:    f8df9064    ..d.    LDRNE    r9,[pc,#100] ; [0xc7f8] = 0x1081c
        0x0000c796:    e8bd87f0    ....    POPEQ    {r4-r10,pc}
        0x0000c79a:    bf00        ..      NOP      
        0x0000c79c:    eb1704c5    ....    ADDS     r4,r7,r5,LSL #3
        0x0000c7a0:    d023        #.      BEQ      0xc7ea ; am_devices_led_array_init + 118
        0x0000c7a2:    6820         h      LDR      r0,[r4,#0]
        0x0000c7a4:    284a        J(      CMP      r0,#0x4a
        0x0000c7a6:    d220         .      BCS      0xc7ea ; am_devices_led_array_init + 118
        0x0000c7a8:    7921        !y      LDRB     r1,[r4,#4]
        0x0000c7aa:    f0110f02    ....    TST      r1,#2
        0x0000c7ae:    d00e        ..      BEQ      0xc7ce ; am_devices_led_array_init + 90
        0x0000c7b0:    f8d81000    ....    LDR      r1,[r8,#0]
        0x0000c7b4:    f000fce6    ....    BL       am_hal_gpio_pinconfig ; 0xd184
        0x0000c7b8:    2103        .!      MOVS     r1,#3
        0x0000c7ba:    6820         h      LDR      r0,[r4,#0]
        0x0000c7bc:    f000fe4f    ..O.    BL       am_hal_gpio_state_write ; 0xd45e
        0x0000c7c0:    7920         y      LDRB     r0,[r4,#4]
        0x0000c7c2:    f0000101    ....    AND      r1,r0,#1
        0x0000c7c6:    6820         h      LDR      r0,[r4,#0]
        0x0000c7c8:    f000fe49    ..I.    BL       am_hal_gpio_state_write ; 0xd45e
        0x0000c7cc:    e00d        ..      B        0xc7ea ; am_devices_led_array_init + 118
        0x0000c7ce:    f8d91000    ....    LDR      r1,[r9,#0]
        0x0000c7d2:    f000fcd7    ....    BL       am_hal_gpio_pinconfig ; 0xd184
        0x0000c7d6:    2103        .!      MOVS     r1,#3
        0x0000c7d8:    6820         h      LDR      r0,[r4,#0]
        0x0000c7da:    f000fe40    ..@.    BL       am_hal_gpio_state_write ; 0xd45e
        0x0000c7de:    7920         y      LDRB     r0,[r4,#4]
        0x0000c7e0:    f0000101    ....    AND      r1,r0,#1
        0x0000c7e4:    6820         h      LDR      r0,[r4,#0]
        0x0000c7e6:    f000fe3a    ..:.    BL       am_hal_gpio_state_write ; 0xd45e
        0x0000c7ea:    1c6d        m.      ADDS     r5,r5,#1
        0x0000c7ec:    42b5        .B      CMP      r5,r6
        0x0000c7ee:    d3d5        ..      BCC      0xc79c ; am_devices_led_array_init + 40
        0x0000c7f0:    e8bd87f0    ....    POP      {r4-r10,pc}
    $d
        0x0000c7f4:    00010820     ...    DCD    67616
        0x0000c7f8:    0001081c    ....    DCD    67612
    $t
    i.am_devices_led_off
    am_devices_led_off
        0x0000c7fc:    2800        .(      CMP      r0,#0
        0x0000c7fe:    bf18        ..      IT       NE
        0x0000c800:    291f        .)      CMPNE    r1,#0x1f
        0x0000c802:    bf3a        :.      ITTE     CC
        0x0000c804:    f8502031    P.1     LDRCC    r2,[r0,r1,LSL #3]
        0x0000c808:    2a4a        J*      CMPCC    r2,#0x4a
        0x0000c80a:    4770        pG      BXCS     lr
        0x0000c80c:    eb0000c1    ....    ADD      r0,r0,r1,LSL #3
        0x0000c810:    6840        @h      LDR      r0,[r0,#4]
        0x0000c812:    f0100f02    ....    TST      r0,#2
        0x0000c816:    d004        ..      BEQ      0xc822 ; am_devices_led_off + 38
        0x0000c818:    2101        .!      MOVS     r1,#1
        0x0000c81a:    4381        .C      BICS     r1,r1,r0
        0x0000c81c:    4610        .F      MOV      r0,r2
        0x0000c81e:    f000be1e    ....    B.W      am_hal_gpio_state_write ; 0xd45e
        0x0000c822:    2103        .!      MOVS     r1,#3
        0x0000c824:    4610        .F      MOV      r0,r2
        0x0000c826:    f000be1a    ....    B.W      am_hal_gpio_state_write ; 0xd45e
    i.am_devices_led_toggle
    am_devices_led_toggle
        0x0000c82a:    2800        .(      CMP      r0,#0
        0x0000c82c:    bf18        ..      IT       NE
        0x0000c82e:    291f        .)      CMPNE    r1,#0x1f
        0x0000c830:    bf28        (.      IT       CS
        0x0000c832:    4770        pG      BXCS     lr
        0x0000c834:    b538        8.      PUSH     {r3-r5,lr}
        0x0000c836:    460c        .F      MOV      r4,r1
        0x0000c838:    4605        .F      MOV      r5,r0
        0x0000c83a:    f8500034    P.4.    LDR      r0,[r0,r4,LSL #3]
        0x0000c83e:    284a        J(      CMP      r0,#0x4a
        0x0000c840:    bf28        (.      IT       CS
        0x0000c842:    bd38        8.      POPCS    {r3-r5,pc}
        0x0000c844:    eb0501c4    ....    ADD      r1,r5,r4,LSL #3
        0x0000c848:    7909        .y      LDRB     r1,[r1,#4]
        0x0000c84a:    f0110f02    ....    TST      r1,#2
        0x0000c84e:    d004        ..      BEQ      0xc85a ; am_devices_led_toggle + 48
        0x0000c850:    e8bd4038    ..8@    POP      {r3-r5,lr}
        0x0000c854:    2102        .!      MOVS     r1,#2
        0x0000c856:    f000be02    ....    B.W      am_hal_gpio_state_write ; 0xd45e
        0x0000c85a:    466a        jF      MOV      r2,sp
        0x0000c85c:    2102        .!      MOVS     r1,#2
        0x0000c85e:    f000fdd1    ....    BL       am_hal_gpio_state_read ; 0xd404
        0x0000c862:    2800        .(      CMP      r0,#0
        0x0000c864:    bf18        ..      IT       NE
        0x0000c866:    bd38        8.      POPNE    {r3-r5,pc}
        0x0000c868:    9800        ..      LDR      r0,[sp,#0]
        0x0000c86a:    2800        .(      CMP      r0,#0
        0x0000c86c:    f8550034    U.4.    LDR      r0,[r5,r4,LSL #3]
        0x0000c870:    bf14        ..      ITE      NE
        0x0000c872:    2103        .!      MOVNE    r1,#3
        0x0000c874:    2104        .!      MOVEQ    r1,#4
        0x0000c876:    f000fdf2    ....    BL       am_hal_gpio_state_write ; 0xd45e
        0x0000c87a:    bd38        8.      POP      {r3-r5,pc}
    i.am_freertos_sleep
    am_freertos_sleep
        0x0000c87c:    b510        ..      PUSH     {r4,lr}
        0x0000c87e:    2001        .       MOVS     r0,#1
        0x0000c880:    f001f8ee    ....    BL       am_hal_sysctrl_sleep ; 0xda60
        0x0000c884:    2000        .       MOVS     r0,#0
        0x0000c886:    bd10        ..      POP      {r4,pc}
    i.am_freertos_wakeup
    am_freertos_wakeup
        0x0000c888:    4770        pG      BX       lr
    i.am_gpio_isr
    am_gpio_isr
        0x0000c88a:    b510        ..      PUSH     {r4,lr}
        0x0000c88c:    b084        ..      SUB      sp,sp,#0x10
        0x0000c88e:    2000        .       MOVS     r0,#0
        0x0000c890:    466c        lF      MOV      r4,sp
        0x0000c892:    9002        ..      STR      r0,[sp,#8]
        0x0000c894:    9001        ..      STR      r0,[sp,#4]
        0x0000c896:    9000        ..      STR      r0,[sp,#0]
        0x0000c898:    4621        !F      MOV      r1,r4
        0x0000c89a:    f000fc3b    ..;.    BL       am_hal_gpio_interrupt_status_get ; 0xd114
        0x0000c89e:    4620         F      MOV      r0,r4
        0x0000c8a0:    f000fb9c    ....    BL       am_hal_gpio_interrupt_clear ; 0xcfdc
        0x0000c8a4:    4620         F      MOV      r0,r4
        0x0000c8a6:    f000fbf5    ....    BL       am_hal_gpio_interrupt_service ; 0xd094
        0x0000c8aa:    b004        ..      ADD      sp,sp,#0x10
        0x0000c8ac:    bd10        ..      POP      {r4,pc}
        0x0000c8ae:    0000        ..      MOVS     r0,r0
    i.am_hal_burst_mode_disable
    am_hal_burst_mode_disable
        0x0000c8b0:    b5f8        ..      PUSH     {r3-r7,lr}
        0x0000c8b2:    4604        .F      MOV      r4,r0
        0x0000c8b4:    f7fffd12    ....    BL       am_hal_interrupt_master_disable ; 0xc2dc
        0x0000c8b8:    4e12        .N      LDR      r6,[pc,#72] ; [0xc904] = 0x40004034
        0x0000c8ba:    9000        ..      STR      r0,[sp,#0]
        0x0000c8bc:    2100        .!      MOVS     r1,#0
        0x0000c8be:    4630        0F      MOV      r0,r6
        0x0000c8c0:    f000fb78    ..x.    BL       am_hal_flash_store_ui32 ; 0xcfb4
        0x0000c8c4:    9800        ..      LDR      r0,[sp,#0]
        0x0000c8c6:    f7fffd0d    ....    BL       am_hal_interrupt_master_set ; 0xc2e4
        0x0000c8ca:    480f        .H      LDR      r0,[pc,#60] ; [0xc908] = 0x40021000
        0x0000c8cc:    6a81        .j      LDR      r1,[r0,#0x28]
        0x0000c8ce:    f0214100    !..A    BIC      r1,r1,#0x80000000
        0x0000c8d2:    6281        .b      STR      r1,[r0,#0x28]
        0x0000c8d4:    2501        .%      MOVS     r5,#1
        0x0000c8d6:    2300        .#      MOVS     r3,#0
        0x0000c8d8:    2204        ."      MOVS     r2,#4
        0x0000c8da:    4631        1F      MOV      r1,r6
        0x0000c8dc:    f2427010    B..p    MOV      r0,#0x2710
        0x0000c8e0:    9500        ..      STR      r5,[sp,#0]
        0x0000c8e2:    f000fb35    ..5.    BL       am_hal_flash_delay_status_check ; 0xcf50
        0x0000c8e6:    2800        .(      CMP      r0,#0
        0x0000c8e8:    bf1c        ..      ITT      NE
        0x0000c8ea:    7025        %p      STRBNE   r5,[r4,#0]
        0x0000c8ec:    bdf8        ..      POPNE    {r3-r7,pc}
        0x0000c8ee:    f04f2040    O.@     MOV      r0,#0x40004000
        0x0000c8f2:    6b40        @k      LDR      r0,[r0,#0x34]
        0x0000c8f4:    f0100f04    ....    TST      r0,#4
        0x0000c8f8:    bf1a        ..      ITTE     NE
        0x0000c8fa:    2000        .       MOVNE    r0,#0
        0x0000c8fc:    7020         p      STRBNE   r0,[r4,#0]
        0x0000c8fe:    7025        %p      STRBEQ   r5,[r4,#0]
        0x0000c900:    2000        .       MOVS     r0,#0
        0x0000c902:    bdf8        ..      POP      {r3-r7,pc}
    $d
        0x0000c904:    40004034    4@.@    DCD    1073758260
        0x0000c908:    40021000    ...@    DCD    1073876992
    $t
    i.am_hal_burst_mode_enable
    am_hal_burst_mode_enable
        0x0000c90c:    b5f8        ..      PUSH     {r3-r7,lr}
        0x0000c90e:    4604        .F      MOV      r4,r0
        0x0000c910:    4814        .H      LDR      r0,[pc,#80] ; [0xc964] = 0x100010fc
        0x0000c912:    2501        .%      MOVS     r5,#1
        0x0000c914:    7800        .x      LDRB     r0,[r0,#0]
        0x0000c916:    2800        .(      CMP      r0,#0
        0x0000c918:    bf02        ..      ITTT     EQ
        0x0000c91a:    7025        %p      STRBEQ   r5,[r4,#0]
        0x0000c91c:    2007        .       MOVEQ    r0,#7
        0x0000c91e:    bdf8        ..      POPEQ    {r3-r7,pc}
        0x0000c920:    f04f2640    O.@&    MOV      r6,#0x40004000
        0x0000c924:    6b70        pk      LDR      r0,[r6,#0x34]
        0x0000c926:    f0400001    @...    ORR      r0,r0,#1
        0x0000c92a:    6370        pc      STR      r0,[r6,#0x34]
        0x0000c92c:    2304        .#      MOVS     r3,#4
        0x0000c92e:    461a        .F      MOV      r2,r3
        0x0000c930:    490d        .I      LDR      r1,[pc,#52] ; [0xc968] = 0x40004034
        0x0000c932:    f2427010    B..p    MOV      r0,#0x2710
        0x0000c936:    9500        ..      STR      r5,[sp,#0]
        0x0000c938:    f000fb0a    ....    BL       am_hal_flash_delay_status_check ; 0xcf50
        0x0000c93c:    2800        .(      CMP      r0,#0
        0x0000c93e:    bf1c        ..      ITT      NE
        0x0000c940:    7025        %p      STRBNE   r5,[r4,#0]
        0x0000c942:    bdf8        ..      POPNE    {r3-r7,pc}
        0x0000c944:    6b70        pk      LDR      r0,[r6,#0x34]
        0x0000c946:    f0100f02    ....    TST      r0,#2
        0x0000c94a:    bf02        ..      ITTT     EQ
        0x0000c94c:    7025        %p      STRBEQ   r5,[r4,#0]
        0x0000c94e:    2001        .       MOVEQ    r0,#1
        0x0000c950:    bdf8        ..      POPEQ    {r3-r7,pc}
        0x0000c952:    6b70        pk      LDR      r0,[r6,#0x34]
        0x0000c954:    f0100f04    ....    TST      r0,#4
        0x0000c958:    bf1a        ..      ITTE     NE
        0x0000c95a:    2000        .       MOVNE    r0,#0
        0x0000c95c:    7020         p      STRBNE   r0,[r4,#0]
        0x0000c95e:    7025        %p      STRBEQ   r5,[r4,#0]
        0x0000c960:    2000        .       MOVS     r0,#0
        0x0000c962:    bdf8        ..      POP      {r3-r7,pc}
    $d
        0x0000c964:    100010fc    ....    DCD    268439804
        0x0000c968:    40004034    4@.@    DCD    1073758260
    $t
    i.am_hal_cachectrl_config
    am_hal_cachectrl_config
        0x0000c96c:    b538        8.      PUSH     {r3-r5,lr}
        0x0000c96e:    4604        .F      MOV      r4,r0
        0x0000c970:    f7fffcb4    ....    BL       am_hal_interrupt_master_disable ; 0xc2dc
        0x0000c974:    4d0f        .M      LDR      r5,[pc,#60] ; [0xc9b4] = 0x40018000
        0x0000c976:    9000        ..      STR      r0,[sp,#0]
        0x0000c978:    6828        (h      LDR      r0,[r5,#0]
        0x0000c97a:    f4207040     .@p    BIC      r0,r0,#0x300
        0x0000c97e:    6028        (`      STR      r0,[r5,#0]
        0x0000c980:    9800        ..      LDR      r0,[sp,#0]
        0x0000c982:    f7fffcaf    ....    BL       am_hal_interrupt_master_set ; 0xc2e4
        0x0000c986:    78a0        .x      LDRB     r0,[r4,#2]
        0x0000c988:    2102        .!      MOVS     r1,#2
        0x0000c98a:    ea010040    ..@.    AND      r0,r1,r0,LSL #1
        0x0000c98e:    7821        !x      LDRB     r1,[r4,#0]
        0x0000c990:    22f0        ."      MOVS     r2,#0xf0
        0x0000c992:    ea021101    ....    AND      r1,r2,r1,LSL #4
        0x0000c996:    4308        .C      ORRS     r0,r0,r1
        0x0000c998:    7861        ax      LDRB     r1,[r4,#1]
        0x0000c99a:    f44f7240    O.@r    MOV      r2,#0x300
        0x0000c99e:    ea022101    ...!    AND      r1,r2,r1,LSL #8
        0x0000c9a2:    4308        .C      ORRS     r0,r0,r1
        0x0000c9a4:    f4406080    @..`    ORR      r0,r0,#0x400
        0x0000c9a8:    f4401080    @...    ORR      r0,r0,#0x100000
        0x0000c9ac:    6028        (`      STR      r0,[r5,#0]
        0x0000c9ae:    2000        .       MOVS     r0,#0
        0x0000c9b0:    bd38        8.      POP      {r3-r5,pc}
    $d
        0x0000c9b2:    0000        ..      DCW    0
        0x0000c9b4:    40018000    ...@    DCD    1073840128
    $t
    i.am_hal_cachectrl_control
    am_hal_cachectrl_control
        0x0000c9b8:    b5f8        ..      PUSH     {r3-r7,lr}
        0x0000c9ba:    2812        .(      CMP      r0,#0x12
        0x0000c9bc:    f08081b9    ....    BCS.W    0xcd32 ; am_hal_cachectrl_control + 890
        0x0000c9c0:    e8dff000    ....    TBB      [pc,r0]
    $d
        0x0000c9c4:    140b09fe    ....    DCD    336267774
        0x0000c9c8:    1e1c1a17    ....    DCD    505158167
        0x0000c9cc:    3f332721    !'3?    DCD    1060316961
        0x0000c9d0:    fcfde793    ....    DCD    4244498323
        0x0000c9d4:    fafb        ..      DCW    64251
    $t
        0x0000c9d6:    2001        .       MOVS     r0,#1
        0x0000c9d8:    e017        ..      B        0xca0a ; am_hal_cachectrl_control + 82
        0x0000c9da:    48e0        .H      LDR      r0,[pc,#896] ; [0xcd5c] = 0x40018000
        0x0000c9dc:    6800        .h      LDR      r0,[r0,#0]
        0x0000c9de:    f0107f80    ....    TST      r0,#0x1000000
        0x0000c9e2:    bf0a        ..      ITET     EQ
        0x0000c9e4:    2007        .       MOVEQ    r0,#7
        0x0000c9e6:    2002        .       MOVNE    r0,#2
        0x0000c9e8:    bdf8        ..      POPEQ    {r3-r7,pc}
        0x0000c9ea:    e00e        ..      B        0xca0a ; am_hal_cachectrl_control + 82
        0x0000c9ec:    f44f6088    O..`    MOV      r0,#0x440
        0x0000c9f0:    e00b        ..      B        0xca0a ; am_hal_cachectrl_control + 82
        0x0000c9f2:    f44f7008    O..p    MOV      r0,#0x220
        0x0000c9f6:    e008        ..      B        0xca0a ; am_hal_cachectrl_control + 82
        0x0000c9f8:    2040        @       MOVS     r0,#0x40
        0x0000c9fa:    e006        ..      B        0xca0a ; am_hal_cachectrl_control + 82
        0x0000c9fc:    2020                MOVS     r0,#0x20
        0x0000c9fe:    e004        ..      B        0xca0a ; am_hal_cachectrl_control + 82
        0x0000ca00:    f44f6080    O..`    MOV      r0,#0x400
        0x0000ca04:    e001        ..      B        0xca0a ; am_hal_cachectrl_control + 82
        0x0000ca06:    f44f7000    O..p    MOV      r0,#0x200
        0x0000ca0a:    49d4        .I      LDR      r1,[pc,#848] ; [0xcd5c] = 0x40018000
        0x0000ca0c:    6088        .`      STR      r0,[r1,#8]
        0x0000ca0e:    2000        .       MOVS     r0,#0
        0x0000ca10:    bdf8        ..      POP      {r3-r7,pc}
        0x0000ca12:    f7fffc63    ..c.    BL       am_hal_interrupt_master_disable ; 0xc2dc
        0x0000ca16:    9000        ..      STR      r0,[sp,#0]
        0x0000ca18:    48d0        .H      LDR      r0,[pc,#832] ; [0xcd5c] = 0x40018000
        0x0000ca1a:    6801        .h      LDR      r1,[r0,#0]
        0x0000ca1c:    f0417180    A..q    ORR      r1,r1,#0x1000000
        0x0000ca20:    6001        .`      STR      r1,[r0,#0]
        0x0000ca22:    9800        ..      LDR      r0,[sp,#0]
        0x0000ca24:    f7fffc5e    ..^.    BL       am_hal_interrupt_master_set ; 0xc2e4
        0x0000ca28:    e7f1        ..      B        0xca0e ; am_hal_cachectrl_control + 86
        0x0000ca2a:    f7fffc57    ..W.    BL       am_hal_interrupt_master_disable ; 0xc2dc
        0x0000ca2e:    9000        ..      STR      r0,[sp,#0]
        0x0000ca30:    48ca        .H      LDR      r0,[pc,#808] ; [0xcd5c] = 0x40018000
        0x0000ca32:    6801        .h      LDR      r1,[r0,#0]
        0x0000ca34:    f0217180    !..q    BIC      r1,r1,#0x1000000
        0x0000ca38:    6001        .`      STR      r1,[r0,#0]
        0x0000ca3a:    9800        ..      LDR      r0,[sp,#0]
        0x0000ca3c:    f7fffc52    ..R.    BL       am_hal_interrupt_master_set ; 0xc2e4
        0x0000ca40:    e7e5        ..      B        0xca0e ; am_hal_cachectrl_control + 86
        0x0000ca42:    2000        .       MOVS     r0,#0
        0x0000ca44:    f44f5140    O.@Q    MOV      r1,#0x3000
        0x0000ca48:    4cc5        .L      LDR      r4,[pc,#788] ; [0xcd60] = 0x40018100
        0x0000ca4a:    4605        .F      MOV      r5,r0
        0x0000ca4c:    ea013600    ...6    AND      r6,r1,r0,LSL #12
        0x0000ca50:    eb040785    ....    ADD      r7,r4,r5,LSL #2
        0x0000ca54:    f7fffc42    ..B.    BL       am_hal_interrupt_master_disable ; 0xc2dc
        0x0000ca58:    9000        ..      STR      r0,[sp,#0]
        0x0000ca5a:    4638        8F      MOV      r0,r7
        0x0000ca5c:    f000faa6    ....    BL       am_hal_flash_load_ui32 ; 0xcfac
        0x0000ca60:    f420507c     .|P    BIC      r0,r0,#0x3f00
        0x0000ca64:    4330        0C      ORRS     r0,r0,r6
        0x0000ca66:    f44061e0    @..a    ORR      r1,r0,#0x700
        0x0000ca6a:    4638        8F      MOV      r0,r7
        0x0000ca6c:    f000faa2    ....    BL       am_hal_flash_store_ui32 ; 0xcfb4
        0x0000ca70:    9800        ..      LDR      r0,[sp,#0]
        0x0000ca72:    f7fffc37    ..7.    BL       am_hal_interrupt_master_set ; 0xc2e4
        0x0000ca76:    1c6d        m.      ADDS     r5,r5,#1
        0x0000ca78:    2d04        .-      CMP      r5,#4
        0x0000ca7a:    d3e9        ..      BCC      0xca50 ; am_hal_cachectrl_control + 152
        0x0000ca7c:    2007        .       MOVS     r0,#7
        0x0000ca7e:    2500        .%      MOVS     r5,#0
        0x0000ca80:    2170        p!      MOVS     r1,#0x70
        0x0000ca82:    ea011600    ....    AND      r6,r1,r0,LSL #4
        0x0000ca86:    bf00        ..      NOP      
        0x0000ca88:    eb040785    ....    ADD      r7,r4,r5,LSL #2
        0x0000ca8c:    f7fffc26    ..&.    BL       am_hal_interrupt_master_disable ; 0xc2dc
        0x0000ca90:    9000        ..      STR      r0,[sp,#0]
        0x0000ca92:    4638        8F      MOV      r0,r7
        0x0000ca94:    f000fa8a    ....    BL       am_hal_flash_load_ui32 ; 0xcfac
        0x0000ca98:    f4206077     .w`    BIC      r0,r0,#0xf70
        0x0000ca9c:    4330        0C      ORRS     r0,r0,r6
        0x0000ca9e:    f44061e0    @..a    ORR      r1,r0,#0x700
        0x0000caa2:    4638        8F      MOV      r0,r7
        0x0000caa4:    f000fa86    ....    BL       am_hal_flash_store_ui32 ; 0xcfb4
        0x0000caa8:    9800        ..      LDR      r0,[sp,#0]
        0x0000caaa:    f7fffc1b    ....    BL       am_hal_interrupt_master_set ; 0xc2e4
        0x0000caae:    1c6d        m.      ADDS     r5,r5,#1
        0x0000cab0:    2d04        .-      CMP      r5,#4
        0x0000cab2:    d3e9        ..      BCC      0xca88 ; am_hal_cachectrl_control + 208
        0x0000cab4:    2603        .&      MOVS     r6,#3
        0x0000cab6:    2500        .%      MOVS     r5,#0
        0x0000cab8:    eb040785    ....    ADD      r7,r4,r5,LSL #2
        0x0000cabc:    f7fffc0e    ....    BL       am_hal_interrupt_master_disable ; 0xc2dc
        0x0000cac0:    9000        ..      STR      r0,[sp,#0]
        0x0000cac2:    4638        8F      MOV      r0,r7
        0x0000cac4:    f000fa72    ..r.    BL       am_hal_flash_load_ui32 ; 0xcfac
        0x0000cac8:    f020000f     ...    BIC      r0,r0,#0xf
        0x0000cacc:    f4206070     .p`    BIC      r0,r0,#0xf00
        0x0000cad0:    4330        0C      ORRS     r0,r0,r6
        0x0000cad2:    f44061e0    @..a    ORR      r1,r0,#0x700
        0x0000cad6:    4638        8F      MOV      r0,r7
        0x0000cad8:    f000fa6c    ..l.    BL       am_hal_flash_store_ui32 ; 0xcfb4
        0x0000cadc:    9800        ..      LDR      r0,[sp,#0]
        0x0000cade:    f7fffc01    ....    BL       am_hal_interrupt_master_set ; 0xc2e4
        0x0000cae2:    1c6d        m.      ADDS     r5,r5,#1
        0x0000cae4:    2d04        .-      CMP      r5,#4
        0x0000cae6:    d3e7        ..      BCC      0xcab8 ; am_hal_cachectrl_control + 256
        0x0000cae8:    e791        ..      B        0xca0e ; am_hal_cachectrl_control + 86
        0x0000caea:    2001        .       MOVS     r0,#1
        0x0000caec:    f44f5140    O.@Q    MOV      r1,#0x3000
        0x0000caf0:    4c9b        .L      LDR      r4,[pc,#620] ; [0xcd60] = 0x40018100
        0x0000caf2:    2500        .%      MOVS     r5,#0
        0x0000caf4:    ea013600    ...6    AND      r6,r1,r0,LSL #12
        0x0000caf8:    eb040785    ....    ADD      r7,r4,r5,LSL #2
        0x0000cafc:    f7fffbee    ....    BL       am_hal_interrupt_master_disable ; 0xc2dc
        0x0000cb00:    9000        ..      STR      r0,[sp,#0]
        0x0000cb02:    4638        8F      MOV      r0,r7
        0x0000cb04:    f000fa52    ..R.    BL       am_hal_flash_load_ui32 ; 0xcfac
        0x0000cb08:    f420507c     .|P    BIC      r0,r0,#0x3f00
        0x0000cb0c:    4330        0C      ORRS     r0,r0,r6
        0x0000cb0e:    f44061e0    @..a    ORR      r1,r0,#0x700
        0x0000cb12:    4638        8F      MOV      r0,r7
        0x0000cb14:    f000fa4e    ..N.    BL       am_hal_flash_store_ui32 ; 0xcfb4
        0x0000cb18:    9800        ..      LDR      r0,[sp,#0]
        0x0000cb1a:    f7fffbe3    ....    BL       am_hal_interrupt_master_set ; 0xc2e4
        0x0000cb1e:    1c6d        m.      ADDS     r5,r5,#1
        0x0000cb20:    2d04        .-      CMP      r5,#4
        0x0000cb22:    d3e9        ..      BCC      0xcaf8 ; am_hal_cachectrl_control + 320
        0x0000cb24:    2005        .       MOVS     r0,#5
        0x0000cb26:    2500        .%      MOVS     r5,#0
        0x0000cb28:    2170        p!      MOVS     r1,#0x70
        0x0000cb2a:    ea011600    ....    AND      r6,r1,r0,LSL #4
        0x0000cb2e:    bf00        ..      NOP      
        0x0000cb30:    eb040785    ....    ADD      r7,r4,r5,LSL #2
        0x0000cb34:    f7fffbd2    ....    BL       am_hal_interrupt_master_disable ; 0xc2dc
        0x0000cb38:    9000        ..      STR      r0,[sp,#0]
        0x0000cb3a:    4638        8F      MOV      r0,r7
        0x0000cb3c:    f000fa36    ..6.    BL       am_hal_flash_load_ui32 ; 0xcfac
        0x0000cb40:    f4206077     .w`    BIC      r0,r0,#0xf70
        0x0000cb44:    4330        0C      ORRS     r0,r0,r6
        0x0000cb46:    f44061e0    @..a    ORR      r1,r0,#0x700
        0x0000cb4a:    4638        8F      MOV      r0,r7
        0x0000cb4c:    f000fa32    ..2.    BL       am_hal_flash_store_ui32 ; 0xcfb4
        0x0000cb50:    9800        ..      LDR      r0,[sp,#0]
        0x0000cb52:    f7fffbc7    ....    BL       am_hal_interrupt_master_set ; 0xc2e4
        0x0000cb56:    1c6d        m.      ADDS     r5,r5,#1
        0x0000cb58:    2d04        .-      CMP      r5,#4
        0x0000cb5a:    d3e9        ..      BCC      0xcb30 ; am_hal_cachectrl_control + 376
        0x0000cb5c:    2601        .&      MOVS     r6,#1
        0x0000cb5e:    2500        .%      MOVS     r5,#0
        0x0000cb60:    eb040785    ....    ADD      r7,r4,r5,LSL #2
        0x0000cb64:    f7fffbba    ....    BL       am_hal_interrupt_master_disable ; 0xc2dc
        0x0000cb68:    9000        ..      STR      r0,[sp,#0]
        0x0000cb6a:    4638        8F      MOV      r0,r7
        0x0000cb6c:    f000fa1e    ....    BL       am_hal_flash_load_ui32 ; 0xcfac
        0x0000cb70:    f020000f     ...    BIC      r0,r0,#0xf
        0x0000cb74:    f4206070     .p`    BIC      r0,r0,#0xf00
        0x0000cb78:    4330        0C      ORRS     r0,r0,r6
        0x0000cb7a:    f44061e0    @..a    ORR      r1,r0,#0x700
        0x0000cb7e:    4638        8F      MOV      r0,r7
        0x0000cb80:    f000fa18    ....    BL       am_hal_flash_store_ui32 ; 0xcfb4
        0x0000cb84:    9800        ..      LDR      r0,[sp,#0]
        0x0000cb86:    f7fffbad    ....    BL       am_hal_interrupt_master_set ; 0xc2e4
        0x0000cb8a:    1c6d        m.      ADDS     r5,r5,#1
        0x0000cb8c:    2d04        .-      CMP      r5,#4
        0x0000cb8e:    d3e7        ..      BCC      0xcb60 ; am_hal_cachectrl_control + 424
        0x0000cb90:    e73d        =.      B        0xca0e ; am_hal_cachectrl_control + 86
        0x0000cb92:    2001        .       MOVS     r0,#1
        0x0000cb94:    f44f5140    O.@Q    MOV      r1,#0x3000
        0x0000cb98:    4c71        qL      LDR      r4,[pc,#452] ; [0xcd60] = 0x40018100
        0x0000cb9a:    2500        .%      MOVS     r5,#0
        0x0000cb9c:    ea013600    ...6    AND      r6,r1,r0,LSL #12
        0x0000cba0:    eb040785    ....    ADD      r7,r4,r5,LSL #2
        0x0000cba4:    f7fffb9a    ....    BL       am_hal_interrupt_master_disable ; 0xc2dc
        0x0000cba8:    9000        ..      STR      r0,[sp,#0]
        0x0000cbaa:    4638        8F      MOV      r0,r7
        0x0000cbac:    f000f9fe    ....    BL       am_hal_flash_load_ui32 ; 0xcfac
        0x0000cbb0:    f420507c     .|P    BIC      r0,r0,#0x3f00
        0x0000cbb4:    4330        0C      ORRS     r0,r0,r6
        0x0000cbb6:    e004        ..      B        0xcbc2 ; am_hal_cachectrl_control + 522
        0x0000cbb8:    e0ad        ..      B        0xcd16 ; am_hal_cachectrl_control + 862
        0x0000cbba:    e086        ..      B        0xccca ; am_hal_cachectrl_control + 786
        0x0000cbbc:    e065        e.      B        0xcc8a ; am_hal_cachectrl_control + 722
        0x0000cbbe:    e042        B.      B        0xcc46 ; am_hal_cachectrl_control + 654
        0x0000cbc0:    e0a2        ..      B        0xcd08 ; am_hal_cachectrl_control + 848
        0x0000cbc2:    f44061e0    @..a    ORR      r1,r0,#0x700
        0x0000cbc6:    4638        8F      MOV      r0,r7
        0x0000cbc8:    f000f9f4    ....    BL       am_hal_flash_store_ui32 ; 0xcfb4
        0x0000cbcc:    9800        ..      LDR      r0,[sp,#0]
        0x0000cbce:    f7fffb89    ....    BL       am_hal_interrupt_master_set ; 0xc2e4
        0x0000cbd2:    1c6d        m.      ADDS     r5,r5,#1
        0x0000cbd4:    2d04        .-      CMP      r5,#4
        0x0000cbd6:    d3e3        ..      BCC      0xcba0 ; am_hal_cachectrl_control + 488
        0x0000cbd8:    2006        .       MOVS     r0,#6
        0x0000cbda:    2500        .%      MOVS     r5,#0
        0x0000cbdc:    2170        p!      MOVS     r1,#0x70
        0x0000cbde:    ea011600    ....    AND      r6,r1,r0,LSL #4
        0x0000cbe2:    bf00        ..      NOP      
        0x0000cbe4:    eb040785    ....    ADD      r7,r4,r5,LSL #2
        0x0000cbe8:    f7fffb78    ..x.    BL       am_hal_interrupt_master_disable ; 0xc2dc
        0x0000cbec:    9000        ..      STR      r0,[sp,#0]
        0x0000cbee:    4638        8F      MOV      r0,r7
        0x0000cbf0:    f000f9dc    ....    BL       am_hal_flash_load_ui32 ; 0xcfac
        0x0000cbf4:    f4206077     .w`    BIC      r0,r0,#0xf70
        0x0000cbf8:    4330        0C      ORRS     r0,r0,r6
        0x0000cbfa:    f44061e0    @..a    ORR      r1,r0,#0x700
        0x0000cbfe:    4638        8F      MOV      r0,r7
        0x0000cc00:    f000f9d8    ....    BL       am_hal_flash_store_ui32 ; 0xcfb4
        0x0000cc04:    9800        ..      LDR      r0,[sp,#0]
        0x0000cc06:    f7fffb6d    ..m.    BL       am_hal_interrupt_master_set ; 0xc2e4
        0x0000cc0a:    1c6d        m.      ADDS     r5,r5,#1
        0x0000cc0c:    2d04        .-      CMP      r5,#4
        0x0000cc0e:    d3e9        ..      BCC      0xcbe4 ; am_hal_cachectrl_control + 556
        0x0000cc10:    2601        .&      MOVS     r6,#1
        0x0000cc12:    2500        .%      MOVS     r5,#0
        0x0000cc14:    eb040785    ....    ADD      r7,r4,r5,LSL #2
        0x0000cc18:    f7fffb60    ..`.    BL       am_hal_interrupt_master_disable ; 0xc2dc
        0x0000cc1c:    9000        ..      STR      r0,[sp,#0]
        0x0000cc1e:    4638        8F      MOV      r0,r7
        0x0000cc20:    f000f9c4    ....    BL       am_hal_flash_load_ui32 ; 0xcfac
        0x0000cc24:    f020000f     ...    BIC      r0,r0,#0xf
        0x0000cc28:    f4206070     .p`    BIC      r0,r0,#0xf00
        0x0000cc2c:    4330        0C      ORRS     r0,r0,r6
        0x0000cc2e:    f44061e0    @..a    ORR      r1,r0,#0x700
        0x0000cc32:    4638        8F      MOV      r0,r7
        0x0000cc34:    f000f9be    ....    BL       am_hal_flash_store_ui32 ; 0xcfb4
        0x0000cc38:    9800        ..      LDR      r0,[sp,#0]
        0x0000cc3a:    f7fffb53    ..S.    BL       am_hal_interrupt_master_set ; 0xc2e4
        0x0000cc3e:    1c6d        m.      ADDS     r5,r5,#1
        0x0000cc40:    2d04        .-      CMP      r5,#4
        0x0000cc42:    d3e7        ..      BCC      0xcc14 ; am_hal_cachectrl_control + 604
        0x0000cc44:    e6e3        ..      B        0xca0e ; am_hal_cachectrl_control + 86
        0x0000cc46:    2900        .)      CMP      r1,#0
        0x0000cc48:    d073        s.      BEQ      0xcd32 ; am_hal_cachectrl_control + 890
        0x0000cc4a:    6808        .h      LDR      r0,[r1,#0]
        0x0000cc4c:    2803        .(      CMP      r0,#3
        0x0000cc4e:    d840        @.      BHI      0xccd2 ; am_hal_cachectrl_control + 794
        0x0000cc50:    f44f5140    O.@Q    MOV      r1,#0x3000
        0x0000cc54:    4f42        BO      LDR      r7,[pc,#264] ; [0xcd60] = 0x40018100
        0x0000cc56:    2400        .$      MOVS     r4,#0
        0x0000cc58:    ea013500    ...5    AND      r5,r1,r0,LSL #12
        0x0000cc5c:    eb070684    ....    ADD      r6,r7,r4,LSL #2
        0x0000cc60:    f7fffb3c    ..<.    BL       am_hal_interrupt_master_disable ; 0xc2dc
        0x0000cc64:    9000        ..      STR      r0,[sp,#0]
        0x0000cc66:    4630        0F      MOV      r0,r6
        0x0000cc68:    f000f9a0    ....    BL       am_hal_flash_load_ui32 ; 0xcfac
        0x0000cc6c:    f420507c     .|P    BIC      r0,r0,#0x3f00
        0x0000cc70:    4328        (C      ORRS     r0,r0,r5
        0x0000cc72:    f44061e0    @..a    ORR      r1,r0,#0x700
        0x0000cc76:    4630        0F      MOV      r0,r6
        0x0000cc78:    f000f99c    ....    BL       am_hal_flash_store_ui32 ; 0xcfb4
        0x0000cc7c:    9800        ..      LDR      r0,[sp,#0]
        0x0000cc7e:    f7fffb31    ..1.    BL       am_hal_interrupt_master_set ; 0xc2e4
        0x0000cc82:    1c64        d.      ADDS     r4,r4,#1
        0x0000cc84:    2c04        .,      CMP      r4,#4
        0x0000cc86:    d3e9        ..      BCC      0xcc5c ; am_hal_cachectrl_control + 676
        0x0000cc88:    e6c1        ..      B        0xca0e ; am_hal_cachectrl_control + 86
        0x0000cc8a:    b3e9        ..      CBZ      r1,0xcd08 ; am_hal_cachectrl_control + 848
        0x0000cc8c:    6808        .h      LDR      r0,[r1,#0]
        0x0000cc8e:    2807        .(      CMP      r0,#7
        0x0000cc90:    d81f        ..      BHI      0xccd2 ; am_hal_cachectrl_control + 794
        0x0000cc92:    2400        .$      MOVS     r4,#0
        0x0000cc94:    2170        p!      MOVS     r1,#0x70
        0x0000cc96:    4f32        2O      LDR      r7,[pc,#200] ; [0xcd60] = 0x40018100
        0x0000cc98:    ea011600    ....    AND      r6,r1,r0,LSL #4
        0x0000cc9c:    eb070584    ....    ADD      r5,r7,r4,LSL #2
        0x0000cca0:    f7fffb1c    ....    BL       am_hal_interrupt_master_disable ; 0xc2dc
        0x0000cca4:    9000        ..      STR      r0,[sp,#0]
        0x0000cca6:    4628        (F      MOV      r0,r5
        0x0000cca8:    f000f980    ....    BL       am_hal_flash_load_ui32 ; 0xcfac
        0x0000ccac:    f4206077     .w`    BIC      r0,r0,#0xf70
        0x0000ccb0:    4330        0C      ORRS     r0,r0,r6
        0x0000ccb2:    f44061e0    @..a    ORR      r1,r0,#0x700
        0x0000ccb6:    4628        (F      MOV      r0,r5
        0x0000ccb8:    f000f97c    ..|.    BL       am_hal_flash_store_ui32 ; 0xcfb4
        0x0000ccbc:    9800        ..      LDR      r0,[sp,#0]
        0x0000ccbe:    f7fffb11    ....    BL       am_hal_interrupt_master_set ; 0xc2e4
        0x0000ccc2:    1c64        d.      ADDS     r4,r4,#1
        0x0000ccc4:    2c04        .,      CMP      r4,#4
        0x0000ccc6:    d3e9        ..      BCC      0xcc9c ; am_hal_cachectrl_control + 740
        0x0000ccc8:    e6a1        ..      B        0xca0e ; am_hal_cachectrl_control + 86
        0x0000ccca:    b1e9        ..      CBZ      r1,0xcd08 ; am_hal_cachectrl_control + 848
        0x0000cccc:    6808        .h      LDR      r0,[r1,#0]
        0x0000ccce:    280f        .(      CMP      r0,#0xf
        0x0000ccd0:    d901        ..      BLS      0xccd6 ; am_hal_cachectrl_control + 798
        0x0000ccd2:    2001        .       MOVS     r0,#1
        0x0000ccd4:    bdf8        ..      POP      {r3-r7,pc}
        0x0000ccd6:    4f22        "O      LDR      r7,[pc,#136] ; [0xcd60] = 0x40018100
        0x0000ccd8:    2400        .$      MOVS     r4,#0
        0x0000ccda:    f000050f    ....    AND      r5,r0,#0xf
        0x0000ccde:    bf00        ..      NOP      
        0x0000cce0:    eb070684    ....    ADD      r6,r7,r4,LSL #2
        0x0000cce4:    f7fffafa    ....    BL       am_hal_interrupt_master_disable ; 0xc2dc
        0x0000cce8:    9000        ..      STR      r0,[sp,#0]
        0x0000ccea:    4630        0F      MOV      r0,r6
        0x0000ccec:    f000f95e    ..^.    BL       am_hal_flash_load_ui32 ; 0xcfac
        0x0000ccf0:    f020000f     ...    BIC      r0,r0,#0xf
        0x0000ccf4:    f4206070     .p`    BIC      r0,r0,#0xf00
        0x0000ccf8:    4328        (C      ORRS     r0,r0,r5
        0x0000ccfa:    f44061e0    @..a    ORR      r1,r0,#0x700
        0x0000ccfe:    4630        0F      MOV      r0,r6
        0x0000cd00:    f000f958    ..X.    BL       am_hal_flash_store_ui32 ; 0xcfb4
        0x0000cd04:    9800        ..      LDR      r0,[sp,#0]
        0x0000cd06:    e000        ..      B        0xcd0a ; am_hal_cachectrl_control + 850
        0x0000cd08:    e013        ..      B        0xcd32 ; am_hal_cachectrl_control + 890
        0x0000cd0a:    f7fffaeb    ....    BL       am_hal_interrupt_master_set ; 0xc2e4
        0x0000cd0e:    1c64        d.      ADDS     r4,r4,#1
        0x0000cd10:    2c04        .,      CMP      r4,#4
        0x0000cd12:    d3e5        ..      BCC      0xcce0 ; am_hal_cachectrl_control + 808
        0x0000cd14:    e67b        {.      B        0xca0e ; am_hal_cachectrl_control + 86
        0x0000cd16:    b161        a.      CBZ      r1,0xcd32 ; am_hal_cachectrl_control + 890
        0x0000cd18:    684a        Jh      LDR      r2,[r1,#4]
        0x0000cd1a:    4610        .F      MOV      r0,r2
        0x0000cd1c:    f36f101a    o...    BFC      r0,#4,#23
        0x0000cd20:    b938        8.      CBNZ     r0,0xcd32 ; am_hal_cachectrl_control + 890
        0x0000cd22:    6888        .h      LDR      r0,[r1,#8]
        0x0000cd24:    f36f101a    o...    BFC      r0,#4,#23
        0x0000cd28:    b918        ..      CBNZ     r0,0xcd32 ; am_hal_cachectrl_control + 890
        0x0000cd2a:    7808        .x      LDRB     r0,[r1,#0]
        0x0000cd2c:    b118        ..      CBZ      r0,0xcd36 ; am_hal_cachectrl_control + 894
        0x0000cd2e:    2801        .(      CMP      r0,#1
        0x0000cd30:    d00a        ..      BEQ      0xcd48 ; am_hal_cachectrl_control + 912
        0x0000cd32:    2006        .       MOVS     r0,#6
        0x0000cd34:    bdf8        ..      POP      {r3-r7,pc}
        0x0000cd36:    4809        .H      LDR      r0,[pc,#36] ; [0xcd5c] = 0x40018000
        0x0000cd38:    6102        .a      STR      r2,[r0,#0x10]
        0x0000cd3a:    688a        .h      LDR      r2,[r1,#8]
        0x0000cd3c:    6142        Ba      STR      r2,[r0,#0x14]
        0x0000cd3e:    784a        Jx      LDRB     r2,[r1,#1]
        0x0000cd40:    6801        .h      LDR      r1,[r0,#0]
        0x0000cd42:    f3620182    b...    BFI      r1,r2,#2,#1
        0x0000cd46:    e007        ..      B        0xcd58 ; am_hal_cachectrl_control + 928
        0x0000cd48:    4804        .H      LDR      r0,[pc,#16] ; [0xcd5c] = 0x40018000
        0x0000cd4a:    6182        .a      STR      r2,[r0,#0x18]
        0x0000cd4c:    688a        .h      LDR      r2,[r1,#8]
        0x0000cd4e:    61c2        .a      STR      r2,[r0,#0x1c]
        0x0000cd50:    784a        Jx      LDRB     r2,[r1,#1]
        0x0000cd52:    6801        .h      LDR      r1,[r0,#0]
        0x0000cd54:    f36201c3    b...    BFI      r1,r2,#3,#1
        0x0000cd58:    6001        .`      STR      r1,[r0,#0]
        0x0000cd5a:    e658        X.      B        0xca0e ; am_hal_cachectrl_control + 86
    $d
        0x0000cd5c:    40018000    ...@    DCD    1073840128
        0x0000cd60:    40018100    ...@    DCD    1073840384
    $t
    i.am_hal_cachectrl_enable
    am_hal_cachectrl_enable
        0x0000cd64:    4803        .H      LDR      r0,[pc,#12] ; [0xcd74] = 0x40018000
        0x0000cd66:    6801        .h      LDR      r1,[r0,#0]
        0x0000cd68:    f0410101    A...    ORR      r1,r1,#1
        0x0000cd6c:    6001        .`      STR      r1,[r0,#0]
        0x0000cd6e:    2000        .       MOVS     r0,#0
        0x0000cd70:    4770        pG      BX       lr
    $d
        0x0000cd72:    0000        ..      DCW    0
        0x0000cd74:    40018000    ...@    DCD    1073840128
    $t
    i.am_hal_clkgen_control
    am_hal_clkgen_control
        0x0000cd78:    b510        ..      PUSH     {r4,lr}
        0x0000cd7a:    460c        .F      MOV      r4,r1
        0x0000cd7c:    4939        9I      LDR      r1,[pc,#228] ; [0xce64] = 0x10001100
        0x0000cd7e:    680a        .h      LDR      r2,[r1,#0]
        0x0000cd80:    b912        ..      CBNZ     r2,0xcd88 ; am_hal_clkgen_control + 16
        0x0000cd82:    4a39        9J      LDR      r2,[pc,#228] ; [0xce68] = 0x4ffff000
        0x0000cd84:    6812        .h      LDR      r2,[r2,#0]
        0x0000cd86:    600a        .`      STR      r2,[r1,#0]
        0x0000cd88:    280a        .(      CMP      r0,#0xa
        0x0000cd8a:    d269        i.      BCS      0xce60 ; am_hal_clkgen_control + 232
        0x0000cd8c:    e8dff000    ....    TBB      [pc,r0]
    $d
        0x0000cd90:    27151b05    ...'    DCD    655694597
        0x0000cd94:    3a400c21    !.@:    DCD    977275937
        0x0000cd98:    6047        G`      DCW    24647
    $t
        0x0000cd9a:    f04f2040    O.@     MOV      r0,#0x40004000
        0x0000cd9e:    2147        G!      MOVS     r1,#0x47
        0x0000cda0:    6141        Aa      STR      r1,[r0,#0x14]
        0x0000cda2:    2100        .!      MOVS     r1,#0
        0x0000cda4:    6181        .a      STR      r1,[r0,#0x18]
        0x0000cda6:    e006        ..      B        0xcdb6 ; am_hal_clkgen_control + 62
        0x0000cda8:    f04f2040    O.@     MOV      r0,#0x40004000
        0x0000cdac:    2147        G!      MOVS     r1,#0x47
        0x0000cdae:    6141        Aa      STR      r1,[r0,#0x14]
        0x0000cdb0:    2101        .!      MOVS     r1,#1
        0x0000cdb2:    6181        .a      STR      r1,[r0,#0x18]
        0x0000cdb4:    2100        .!      MOVS     r1,#0
        0x0000cdb6:    6141        Aa      STR      r1,[r0,#0x14]
        0x0000cdb8:    e050        P.      B        0xce5c ; am_hal_clkgen_control + 228
        0x0000cdba:    f04f2040    O.@     MOV      r0,#0x40004000
        0x0000cdbe:    68c1        .h      LDR      r1,[r0,#0xc]
        0x0000cdc0:    f0210102    !...    BIC      r1,r1,#2
        0x0000cdc4:    e029        ).      B        0xce1a ; am_hal_clkgen_control + 162
        0x0000cdc6:    f04f2040    O.@     MOV      r0,#0x40004000
        0x0000cdca:    68c1        .h      LDR      r1,[r0,#0xc]
        0x0000cdcc:    f0210101    !...    BIC      r1,r1,#1
        0x0000cdd0:    e023        #.      B        0xce1a ; am_hal_clkgen_control + 162
        0x0000cdd2:    f04f2040    O.@     MOV      r0,#0x40004000
        0x0000cdd6:    68c1        .h      LDR      r1,[r0,#0xc]
        0x0000cdd8:    f0410102    A...    ORR      r1,r1,#2
        0x0000cddc:    e01d        ..      B        0xce1a ; am_hal_clkgen_control + 162
        0x0000cdde:    4823        #H      LDR      r0,[pc,#140] ; [0xce6c] = 0x40020000
        0x0000cde0:    68c1        .h      LDR      r1,[r0,#0xc]
        0x0000cde2:    b2c9        ..      UXTB     r1,r1
        0x0000cde4:    2921        !)      CMP      r1,#0x21
        0x0000cde6:    d307        ..      BCC      0xcdf8 ; am_hal_clkgen_control + 128
        0x0000cde8:    f8d01120    .. .    LDR      r1,[r0,#0x120]
        0x0000cdec:    f4217140    !.@q    BIC      r1,r1,#0x300
        0x0000cdf0:    f5017180    ...q    ADD      r1,r1,#0x100
        0x0000cdf4:    f8c01120    .. .    STR      r1,[r0,#0x120]
        0x0000cdf8:    f04f2040    O.@     MOV      r0,#0x40004000
        0x0000cdfc:    68c1        .h      LDR      r1,[r0,#0xc]
        0x0000cdfe:    f0410101    A...    ORR      r1,r1,#1
        0x0000ce02:    e00a        ..      B        0xce1a ; am_hal_clkgen_control + 162
        0x0000ce04:    f04f2040    O.@     MOV      r0,#0x40004000
        0x0000ce08:    68c1        .h      LDR      r1,[r0,#0xc]
        0x0000ce0a:    f0410180    A...    ORR      r1,r1,#0x80
        0x0000ce0e:    e004        ..      B        0xce1a ; am_hal_clkgen_control + 162
        0x0000ce10:    f04f2040    O.@     MOV      r0,#0x40004000
        0x0000ce14:    68c1        .h      LDR      r1,[r0,#0xc]
        0x0000ce16:    f0210180    !...    BIC      r1,r1,#0x80
        0x0000ce1a:    60c1        .`      STR      r1,[r0,#0xc]
        0x0000ce1c:    e01e        ..      B        0xce5c ; am_hal_clkgen_control + 228
        0x0000ce1e:    4813        .H      LDR      r0,[pc,#76] ; [0xce6c] = 0x40020000
        0x0000ce20:    68c1        .h      LDR      r1,[r0,#0xc]
        0x0000ce22:    b2c9        ..      UXTB     r1,r1
        0x0000ce24:    2921        !)      CMP      r1,#0x21
        0x0000ce26:    d309        ..      BCC      0xce3c ; am_hal_clkgen_control + 196
        0x0000ce28:    f8d01120    .. .    LDR      r1,[r0,#0x120]
        0x0000ce2c:    f4417140    A.@q    ORR      r1,r1,#0x300
        0x0000ce30:    f8c01120    .. .    STR      r1,[r0,#0x120]
        0x0000ce34:    f44f507a    O.zP    MOV      r0,#0x3e80
        0x0000ce38:    f000f878    ..x.    BL       am_hal_flash_delay ; 0xcf2c
        0x0000ce3c:    2c00        .,      CMP      r4,#0
        0x0000ce3e:    bf0c        ..      ITE      EQ
        0x0000ce40:    480b        .H      LDREQ    r0,[pc,#44] ; [0xce70] = 0x25b801
        0x0000ce42:    6820         h      LDRNE    r0,[r4,#0]
        0x0000ce44:    f0400001    @...    ORR      r0,r0,#1
        0x0000ce48:    f04f2140    O.@!    MOV      r1,#0x40004000
        0x0000ce4c:    6208        .b      STR      r0,[r1,#0x20]
        0x0000ce4e:    e005        ..      B        0xce5c ; am_hal_clkgen_control + 228
        0x0000ce50:    f04f2040    O.@     MOV      r0,#0x40004000
        0x0000ce54:    6a01        .j      LDR      r1,[r0,#0x20]
        0x0000ce56:    f0210101    !...    BIC      r1,r1,#1
        0x0000ce5a:    6201        .b      STR      r1,[r0,#0x20]
        0x0000ce5c:    2000        .       MOVS     r0,#0
        0x0000ce5e:    bd10        ..      POP      {r4,pc}
        0x0000ce60:    2006        .       MOVS     r0,#6
        0x0000ce62:    bd10        ..      POP      {r4,pc}
    $d
        0x0000ce64:    10001100    ....    DCD    268439808
        0x0000ce68:    4ffff000    ...O    DCD    1342173184
        0x0000ce6c:    40020000    ...@    DCD    1073872896
        0x0000ce70:    0025b801    ..%.    DCD    2471937
    $t
    i.am_hal_clkgen_status_get
    am_hal_clkgen_status_get
        0x0000ce74:    2800        .(      CMP      r0,#0
        0x0000ce76:    bf04        ..      ITT      EQ
        0x0000ce78:    2006        .       MOVEQ    r0,#6
        0x0000ce7a:    4770        pG      BXEQ     lr
        0x0000ce7c:    f04f2140    O.@!    MOV      r1,#0x40004000
        0x0000ce80:    698a        .i      LDR      r2,[r1,#0x18]
        0x0000ce82:    f0120f01    ....    TST      r2,#1
        0x0000ce86:    bf14        ..      ITE      NE
        0x0000ce88:    4a05        .J      LDRNE    r2,[pc,#20] ; [0xcea0] = 0x16e3600
        0x0000ce8a:    4a06        .J      LDREQ    r2,[pc,#24] ; [0xcea4] = 0x2dc6c00
        0x0000ce8c:    6002        .`      STR      r2,[r0,#0]
        0x0000ce8e:    69c9        .i      LDR      r1,[r1,#0x1c]
        0x0000ce90:    f0010201    ....    AND      r2,r1,#1
        0x0000ce94:    f3c10140    ..@.    UBFX     r1,r1,#1,#1
        0x0000ce98:    6042        B`      STR      r2,[r0,#4]
        0x0000ce9a:    7201        .r      STRB     r1,[r0,#8]
        0x0000ce9c:    2000        .       MOVS     r0,#0
        0x0000ce9e:    4770        pG      BX       lr
    $d
        0x0000cea0:    016e3600    .6n.    DCD    24000000
        0x0000cea4:    02dc6c00    .l..    DCD    48000000
    $t
    i.am_hal_ctimer_int_clear
    am_hal_ctimer_int_clear
        0x0000cea8:    b538        8.      PUSH     {r3-r5,lr}
        0x0000ceaa:    4604        .F      MOV      r4,r0
        0x0000ceac:    f7fffa16    ....    BL       am_hal_interrupt_master_disable ; 0xc2dc
        0x0000ceb0:    9000        ..      STR      r0,[sp,#0]
        0x0000ceb2:    4804        .H      LDR      r0,[pc,#16] ; [0xcec4] = 0x40008000
        0x0000ceb4:    f8c04208    ...B    STR      r4,[r0,#0x208]
        0x0000ceb8:    9800        ..      LDR      r0,[sp,#0]
        0x0000ceba:    e8bd4038    ..8@    POP      {r3-r5,lr}
        0x0000cebe:    f7ffba11    ....    B        am_hal_interrupt_master_set ; 0xc2e4
    $d
        0x0000cec2:    0000        ..      DCW    0
        0x0000cec4:    40008000    ...@    DCD    1073774592
    $t
    i.am_hal_ctimer_int_service
    am_hal_ctimer_int_service
        0x0000cec8:    2800        .(      CMP      r0,#0
        0x0000ceca:    bf08        ..      IT       EQ
        0x0000cecc:    4770        pG      BXEQ     lr
        0x0000cece:    b570        p.      PUSH     {r4-r6,lr}
        0x0000ced0:    4e09        .N      LDR      r6,[pc,#36] ; [0xcef8] = 0x100055cc
        0x0000ced2:    4604        .F      MOV      r4,r0
        0x0000ced4:    f04f4500    O..E    MOV      r5,#0x80000000
        0x0000ced8:    fab4f084    ....    CLZ      r0,r4
        0x0000cedc:    fa25f100    %...    LSR      r1,r5,r0
        0x0000cee0:    f1c0001f    ....    RSB      r0,r0,#0x1f
        0x0000cee4:    438c        .C      BICS     r4,r4,r1
        0x0000cee6:    f8560020    V. .    LDR      r0,[r6,r0,LSL #2]
        0x0000ceea:    2800        .(      CMP      r0,#0
        0x0000ceec:    bf18        ..      IT       NE
        0x0000ceee:    4780        .G      BLXNE    r0
        0x0000cef0:    2c00        .,      CMP      r4,#0
        0x0000cef2:    d1f1        ..      BNE      0xced8 ; am_hal_ctimer_int_service + 16
        0x0000cef4:    bd70        p.      POP      {r4-r6,pc}
    $d
        0x0000cef6:    0000        ..      DCW    0
        0x0000cef8:    100055cc    .U..    DCD    268457420
    $t
    i.am_hal_ctimer_int_status_get
    am_hal_ctimer_int_status_get
        0x0000cefc:    b538        8.      PUSH     {r3-r5,lr}
        0x0000cefe:    4604        .F      MOV      r4,r0
        0x0000cf00:    f7fff9ec    ....    BL       am_hal_interrupt_master_disable ; 0xc2dc
        0x0000cf04:    4908        .I      LDR      r1,[pc,#32] ; [0xcf28] = 0x40008000
        0x0000cf06:    9000        ..      STR      r0,[sp,#0]
        0x0000cf08:    2c00        .,      CMP      r4,#0
        0x0000cf0a:    bf08        ..      IT       EQ
        0x0000cf0c:    f8d14204    ...B    LDREQ    r4,[r1,#0x204]
        0x0000cf10:    d005        ..      BEQ      0xcf1e ; am_hal_ctimer_int_status_get + 34
        0x0000cf12:    f8d10204    ....    LDR      r0,[r1,#0x204]
        0x0000cf16:    f8d11200    ....    LDR      r1,[r1,#0x200]
        0x0000cf1a:    ea010400    ....    AND      r4,r1,r0
        0x0000cf1e:    9800        ..      LDR      r0,[sp,#0]
        0x0000cf20:    f7fff9e0    ....    BL       am_hal_interrupt_master_set ; 0xc2e4
        0x0000cf24:    4620         F      MOV      r0,r4
        0x0000cf26:    bd38        8.      POP      {r3-r5,pc}
    $d
        0x0000cf28:    40008000    ...@    DCD    1073774592
    $t
    i.am_hal_flash_delay
    am_hal_flash_delay
        0x0000cf2c:    f04f2140    O.@!    MOV      r1,#0x40004000
        0x0000cf30:    6b49        Ik      LDR      r1,[r1,#0x34]
        0x0000cf32:    f0110f04    ....    TST      r1,#4
        0x0000cf36:    bf1a        ..      ITTE     NE
        0x0000cf38:    0040        @.      LSLNE    r0,r0,#1
        0x0000cf3a:    210e        .!      MOVNE    r1,#0xe
        0x0000cf3c:    210b        .!      MOVEQ    r1,#0xb
        0x0000cf3e:    4288        .B      CMP      r0,r1
        0x0000cf40:    bf98        ..      IT       LS
        0x0000cf42:    4770        pG      BXLS     lr
        0x0000cf44:    1a40        @.      SUBS     r0,r0,r1
        0x0000cf46:    4901        .I      LDR      r1,[pc,#4] ; [0xcf4c] = 0x800009d
        0x0000cf48:    4708        .G      BX       r1
    $d
        0x0000cf4a:    0000        ..      DCW    0
        0x0000cf4c:    0800009d    ....    DCD    134217885
    $t
    i.am_hal_flash_delay_status_check
    am_hal_flash_delay_status_check
        0x0000cf50:    e92d47f0    -..G    PUSH     {r4-r10,lr}
        0x0000cf54:    f8dfa050    ..P.    LDR      r10,[pc,#80] ; [0xcfa8] = 0x800009d
        0x0000cf58:    f8dd8020    .. .    LDR      r8,[sp,#0x20]
        0x0000cf5c:    461c        .F      MOV      r4,r3
        0x0000cf5e:    4615        .F      MOV      r5,r2
        0x0000cf60:    460e        .F      MOV      r6,r1
        0x0000cf62:    4607        .F      MOV      r7,r0
        0x0000cf64:    f04f2940    O.@)    MOV      r9,#0x40004000
        0x0000cf68:    6830        0h      LDR      r0,[r6,#0]
        0x0000cf6a:    f1b80f00    ....    CMP      r8,#0
        0x0000cf6e:    ea000005    ....    AND      r0,r0,r5
        0x0000cf72:    d002        ..      BEQ      0xcf7a ; am_hal_flash_delay_status_check + 42
        0x0000cf74:    42a0        .B      CMP      r0,r4
        0x0000cf76:    d002        ..      BEQ      0xcf7e ; am_hal_flash_delay_status_check + 46
        0x0000cf78:    e004        ..      B        0xcf84 ; am_hal_flash_delay_status_check + 52
        0x0000cf7a:    42a0        .B      CMP      r0,r4
        0x0000cf7c:    d002        ..      BEQ      0xcf84 ; am_hal_flash_delay_status_check + 52
        0x0000cf7e:    2000        .       MOVS     r0,#0
        0x0000cf80:    e8bd87f0    ....    POP      {r4-r10,pc}
        0x0000cf84:    1e7f        ..      SUBS     r7,r7,#1
        0x0000cf86:    d30b        ..      BCC      0xcfa0 ; am_hal_flash_delay_status_check + 80
        0x0000cf88:    f8d91034    ..4.    LDR      r1,[r9,#0x34]
        0x0000cf8c:    2010        .       MOVS     r0,#0x10
        0x0000cf8e:    f0110f04    ....    TST      r1,#4
        0x0000cf92:    bf1a        ..      ITTE     NE
        0x0000cf94:    2020                MOVNE    r0,#0x20
        0x0000cf96:    210e        .!      MOVNE    r1,#0xe
        0x0000cf98:    210b        .!      MOVEQ    r1,#0xb
        0x0000cf9a:    1a40        @.      SUBS     r0,r0,r1
        0x0000cf9c:    47d0        .G      BLX      r10
        0x0000cf9e:    e7e3        ..      B        0xcf68 ; am_hal_flash_delay_status_check + 24
        0x0000cfa0:    2004        .       MOVS     r0,#4
        0x0000cfa2:    e8bd87f0    ....    POP      {r4-r10,pc}
    $d
        0x0000cfa6:    0000        ..      DCW    0
        0x0000cfa8:    0800009d    ....    DCD    134217885
    $t
    i.am_hal_flash_load_ui32
    am_hal_flash_load_ui32
        0x0000cfac:    4900        .I      LDR      r1,[pc,#0] ; [0xcfb0] = 0x8000075
        0x0000cfae:    4708        .G      BX       r1
    $d
        0x0000cfb0:    08000075    u...    DCD    134217845
    $t
    i.am_hal_flash_store_ui32
    am_hal_flash_store_ui32
        0x0000cfb4:    b500        ..      PUSH     {lr}
        0x0000cfb6:    f8dfc020    .. .    LDR      r12,[pc,#32] ; [0xcfd8] = 0x10604
        0x0000cfba:    b083        ..      SUB      sp,sp,#0xc
        0x0000cfbc:    e9dc2300    ...#    LDRD     r2,r3,[r12,#0]
        0x0000cfc0:    f8dcc008    ....    LDR      r12,[r12,#8]
        0x0000cfc4:    e9cd2300    ...#    STRD     r2,r3,[sp,#0]
        0x0000cfc8:    466a        jF      MOV      r2,sp
        0x0000cfca:    f8cdc008    ....    STR      r12,[sp,#8]
        0x0000cfce:    f0420201    B...    ORR      r2,r2,#1
        0x0000cfd2:    4790        .G      BLX      r2
        0x0000cfd4:    b003        ..      ADD      sp,sp,#0xc
        0x0000cfd6:    bd00        ..      POP      {pc}
    $d
        0x0000cfd8:    00010604    ....    DCD    67076
    $t
    i.am_hal_gpio_interrupt_clear
    am_hal_gpio_interrupt_clear
        0x0000cfdc:    2800        .(      CMP      r0,#0
        0x0000cfde:    bf04        ..      ITT      EQ
        0x0000cfe0:    2006        .       MOVEQ    r0,#6
        0x0000cfe2:    4770        pG      BXEQ     lr
        0x0000cfe4:    b538        8.      PUSH     {r3-r5,lr}
        0x0000cfe6:    4604        .F      MOV      r4,r0
        0x0000cfe8:    6880        .h      LDR      r0,[r0,#8]
        0x0000cfea:    0a80        ..      LSRS     r0,r0,#10
        0x0000cfec:    bf1c        ..      ITT      NE
        0x0000cfee:    2005        .       MOVNE    r0,#5
        0x0000cff0:    bd38        8.      POPNE    {r3-r5,pc}
        0x0000cff2:    f7fff973    ..s.    BL       am_hal_interrupt_master_disable ; 0xc2dc
        0x0000cff6:    9000        ..      STR      r0,[sp,#0]
        0x0000cff8:    480b        .H      LDR      r0,[pc,#44] ; [0xd028] = 0x40010000
        0x0000cffa:    f8d01208    ....    LDR      r1,[r0,#0x208]
        0x0000cffe:    6822        "h      LDR      r2,[r4,#0]
        0x0000d000:    4311        .C      ORRS     r1,r1,r2
        0x0000d002:    f8c01208    ....    STR      r1,[r0,#0x208]
        0x0000d006:    f8d01228    ..(.    LDR      r1,[r0,#0x228]
        0x0000d00a:    6862        bh      LDR      r2,[r4,#4]
        0x0000d00c:    4311        .C      ORRS     r1,r1,r2
        0x0000d00e:    f8c01228    ..(.    STR      r1,[r0,#0x228]
        0x0000d012:    f8d01248    ..H.    LDR      r1,[r0,#0x248]
        0x0000d016:    68a2        .h      LDR      r2,[r4,#8]
        0x0000d018:    4311        .C      ORRS     r1,r1,r2
        0x0000d01a:    f8c01248    ..H.    STR      r1,[r0,#0x248]
        0x0000d01e:    9800        ..      LDR      r0,[sp,#0]
        0x0000d020:    f7fff960    ..`.    BL       am_hal_interrupt_master_set ; 0xc2e4
        0x0000d024:    2000        .       MOVS     r0,#0
        0x0000d026:    bd38        8.      POP      {r3-r5,pc}
    $d
        0x0000d028:    40010000    ...@    DCD    1073807360
    $t
    i.am_hal_gpio_interrupt_enable
    am_hal_gpio_interrupt_enable
        0x0000d02c:    b538        8.      PUSH     {r3-r5,lr}
        0x0000d02e:    4604        .F      MOV      r4,r0
        0x0000d030:    6880        .h      LDR      r0,[r0,#8]
        0x0000d032:    0a80        ..      LSRS     r0,r0,#10
        0x0000d034:    bf1c        ..      ITT      NE
        0x0000d036:    2005        .       MOVNE    r0,#5
        0x0000d038:    bd38        8.      POPNE    {r3-r5,pc}
        0x0000d03a:    f7fff94f    ..O.    BL       am_hal_interrupt_master_disable ; 0xc2dc
        0x0000d03e:    490c        .I      LDR      r1,[pc,#48] ; [0xd070] = 0x40010000
        0x0000d040:    9000        ..      STR      r0,[sp,#0]
        0x0000d042:    f8d10200    ....    LDR      r0,[r1,#0x200]
        0x0000d046:    6822        "h      LDR      r2,[r4,#0]
        0x0000d048:    4310        .C      ORRS     r0,r0,r2
        0x0000d04a:    f8c10200    ....    STR      r0,[r1,#0x200]
        0x0000d04e:    f8d10220    .. .    LDR      r0,[r1,#0x220]
        0x0000d052:    6862        bh      LDR      r2,[r4,#4]
        0x0000d054:    4310        .C      ORRS     r0,r0,r2
        0x0000d056:    f8c10220    .. .    STR      r0,[r1,#0x220]
        0x0000d05a:    f8d10240    ..@.    LDR      r0,[r1,#0x240]
        0x0000d05e:    68a2        .h      LDR      r2,[r4,#8]
        0x0000d060:    4310        .C      ORRS     r0,r0,r2
        0x0000d062:    f8c10240    ..@.    STR      r0,[r1,#0x240]
        0x0000d066:    9800        ..      LDR      r0,[sp,#0]
        0x0000d068:    f7fff93c    ..<.    BL       am_hal_interrupt_master_set ; 0xc2e4
        0x0000d06c:    2000        .       MOVS     r0,#0
        0x0000d06e:    bd38        8.      POP      {r3-r5,pc}
    $d
        0x0000d070:    40010000    ...@    DCD    1073807360
    $t
    i.am_hal_gpio_interrupt_register
    am_hal_gpio_interrupt_register
        0x0000d074:    284a        J(      CMP      r0,#0x4a
        0x0000d076:    bf24        $.      ITT      CS
        0x0000d078:    2005        .       MOVCS    r0,#5
        0x0000d07a:    4770        pG      BXCS     lr
        0x0000d07c:    2900        .)      CMP      r1,#0
        0x0000d07e:    bf04        ..      ITT      EQ
        0x0000d080:    2006        .       MOVEQ    r0,#6
        0x0000d082:    4770        pG      BXEQ     lr
        0x0000d084:    4a02        .J      LDR      r2,[pc,#8] ; [0xd090] = 0x1000564c
        0x0000d086:    f8421020    B. .    STR      r1,[r2,r0,LSL #2]
        0x0000d08a:    2000        .       MOVS     r0,#0
        0x0000d08c:    4770        pG      BX       lr
    $d
        0x0000d08e:    0000        ..      DCW    0
        0x0000d090:    1000564c    LV..    DCD    268457548
    $t
    i.am_hal_gpio_interrupt_service
    am_hal_gpio_interrupt_service
        0x0000d094:    e92d5ff0    -.._    PUSH     {r4-r12,lr}
        0x0000d098:    f04f0800    O...    MOV      r8,#0
        0x0000d09c:    2800        .(      CMP      r0,#0
        0x0000d09e:    bf04        ..      ITT      EQ
        0x0000d0a0:    2006        .       MOVEQ    r0,#6
        0x0000d0a2:    e8bd9ff0    ....    POPEQ    {r4-r12,pc}
        0x0000d0a6:    6881        .h      LDR      r1,[r0,#8]
        0x0000d0a8:    0a89        ..      LSRS     r1,r1,#10
        0x0000d0aa:    bf1c        ..      ITT      NE
        0x0000d0ac:    2005        .       MOVNE    r0,#5
        0x0000d0ae:    e8bd9ff0    ....    POPNE    {r4-r12,pc}
        0x0000d0b2:    4605        .F      MOV      r5,r0
        0x0000d0b4:    f8dfa058    ..X.    LDR      r10,[pc,#88] ; [0xd110] = 0x1000564c
        0x0000d0b8:    2703        .'      MOVS     r7,#3
        0x0000d0ba:    2600        .&      MOVS     r6,#0
        0x0000d0bc:    f04f0901    O...    MOV      r9,#1
        0x0000d0c0:    f50a7b94    ...{    ADD      r11,r10,#0x128
        0x0000d0c4:    f8554b04    U..K    LDR      r4,[r5],#4
        0x0000d0c8:    b1e4        ..      CBZ      r4,0xd104 ; am_hal_gpio_interrupt_service + 112
        0x0000d0ca:    4260        `B      RSBS     r0,r4,#0
        0x0000d0cc:    4020         @      ANDS     r0,r0,r4
        0x0000d0ce:    fab0f080    ....    CLZ      r0,r0
        0x0000d0d2:    f1c0001f    ....    RSB      r0,r0,#0x1f
        0x0000d0d6:    fa09f100    ....    LSL      r1,r9,r0
        0x0000d0da:    1832        2.      ADDS     r2,r6,r0
        0x0000d0dc:    438c        .C      BICS     r4,r4,r1
        0x0000d0de:    f85a0022    Z.".    LDR      r0,[r10,r2,LSL #2]
        0x0000d0e2:    2800        .(      CMP      r0,#0
        0x0000d0e4:    bf08        ..      IT       EQ
        0x0000d0e6:    f04f0807    O...    MOVEQ    r8,#7
        0x0000d0ea:    d009        ..      BEQ      0xd100 ; am_hal_gpio_interrupt_service + 108
        0x0000d0ec:    f0100f01    ....    TST      r0,#1
        0x0000d0f0:    d001        ..      BEQ      0xd0f6 ; am_hal_gpio_interrupt_service + 98
        0x0000d0f2:    4780        .G      BLX      r0
        0x0000d0f4:    e004        ..      B        0xd100 ; am_hal_gpio_interrupt_service + 108
        0x0000d0f6:    f0400101    @...    ORR      r1,r0,#1
        0x0000d0fa:    f85b0022    [.".    LDR      r0,[r11,r2,LSL #2]
        0x0000d0fe:    4788        .G      BLX      r1
        0x0000d100:    2c00        .,      CMP      r4,#0
        0x0000d102:    d1e2        ..      BNE      0xd0ca ; am_hal_gpio_interrupt_service + 54
        0x0000d104:    3620         6      ADDS     r6,r6,#0x20
        0x0000d106:    1e7f        ..      SUBS     r7,r7,#1
        0x0000d108:    d1dc        ..      BNE      0xd0c4 ; am_hal_gpio_interrupt_service + 48
        0x0000d10a:    4640        @F      MOV      r0,r8
        0x0000d10c:    e8bd9ff0    ....    POP      {r4-r12,pc}
    $d
        0x0000d110:    1000564c    LV..    DCD    268457548
    $t
    i.am_hal_gpio_interrupt_status_get
    am_hal_gpio_interrupt_status_get
        0x0000d114:    2900        .)      CMP      r1,#0
        0x0000d116:    bf04        ..      ITT      EQ
        0x0000d118:    2006        .       MOVEQ    r0,#6
        0x0000d11a:    4770        pG      BXEQ     lr
        0x0000d11c:    b530        0.      PUSH     {r4,r5,lr}
        0x0000d11e:    4605        .F      MOV      r5,r0
        0x0000d120:    6888        .h      LDR      r0,[r1,#8]
        0x0000d122:    b085        ..      SUB      sp,sp,#0x14
        0x0000d124:    460c        .F      MOV      r4,r1
        0x0000d126:    0a80        ..      LSRS     r0,r0,#10
        0x0000d128:    bf1e        ..      ITTT     NE
        0x0000d12a:    2005        .       MOVNE    r0,#5
        0x0000d12c:    b005        ..      ADDNE    sp,sp,#0x14
        0x0000d12e:    bd30        0.      POPNE    {r4,r5,pc}
        0x0000d130:    f04f31ff    O..1    MOV      r1,#0xffffffff
        0x0000d134:    9100        ..      STR      r1,[sp,#0]
        0x0000d136:    9101        ..      STR      r1,[sp,#4]
        0x0000d138:    9102        ..      STR      r1,[sp,#8]
        0x0000d13a:    f7fff8cf    ....    BL       am_hal_interrupt_master_disable ; 0xc2dc
        0x0000d13e:    4910        .I      LDR      r1,[pc,#64] ; [0xd180] = 0x40010000
        0x0000d140:    9003        ..      STR      r0,[sp,#0xc]
        0x0000d142:    b145        E.      CBZ      r5,0xd156 ; am_hal_gpio_interrupt_status_get + 66
        0x0000d144:    f8d10200    ....    LDR      r0,[r1,#0x200]
        0x0000d148:    9000        ..      STR      r0,[sp,#0]
        0x0000d14a:    f8d10220    .. .    LDR      r0,[r1,#0x220]
        0x0000d14e:    9001        ..      STR      r0,[sp,#4]
        0x0000d150:    f8d10240    ..@.    LDR      r0,[r1,#0x240]
        0x0000d154:    9002        ..      STR      r0,[sp,#8]
        0x0000d156:    f8d10204    ....    LDR      r0,[r1,#0x204]
        0x0000d15a:    9a00        ..      LDR      r2,[sp,#0]
        0x0000d15c:    4010        .@      ANDS     r0,r0,r2
        0x0000d15e:    6020         `      STR      r0,[r4,#0]
        0x0000d160:    f8d10224    ..$.    LDR      r0,[r1,#0x224]
        0x0000d164:    9a01        ..      LDR      r2,[sp,#4]
        0x0000d166:    4010        .@      ANDS     r0,r0,r2
        0x0000d168:    6060        ``      STR      r0,[r4,#4]
        0x0000d16a:    f8d10244    ..D.    LDR      r0,[r1,#0x244]
        0x0000d16e:    9902        ..      LDR      r1,[sp,#8]
        0x0000d170:    4008        .@      ANDS     r0,r0,r1
        0x0000d172:    60a0        .`      STR      r0,[r4,#8]
        0x0000d174:    9803        ..      LDR      r0,[sp,#0xc]
        0x0000d176:    f7fff8b5    ....    BL       am_hal_interrupt_master_set ; 0xc2e4
        0x0000d17a:    b005        ..      ADD      sp,sp,#0x14
        0x0000d17c:    2000        .       MOVS     r0,#0
        0x0000d17e:    bd30        0.      POP      {r4,r5,pc}
    $d
        0x0000d180:    40010000    ...@    DCD    1073807360
    $t
    i.am_hal_gpio_pinconfig
    am_hal_gpio_pinconfig
        0x0000d184:    e92d4ff0    -..O    PUSH     {r4-r11,lr}
        0x0000d188:    2500        .%      MOVS     r5,#0
        0x0000d18a:    b08b        ..      SUB      sp,sp,#0x2c
        0x0000d18c:    4604        .F      MOV      r4,r0
        0x0000d18e:    284a        J(      CMP      r0,#0x4a
        0x0000d190:    bf22        ".      ITTT     CS
        0x0000d192:    2006        .       MOVCS    r0,#6
        0x0000d194:    b00b        ..      ADDCS    sp,sp,#0x2c
        0x0000d196:    e8bd8ff0    ....    POPCS    {r4-r11,pc}
        0x0000d19a:    2200        ."      MOVS     r2,#0
        0x0000d19c:    f0010c07    ....    AND      r12,r1,#7
        0x0000d1a0:    4f8b        .O      LDR      r7,[pc,#556] ; [0xd3d0] = 0x1065e
        0x0000d1a2:    f3c103c1    ....    UBFX     r3,r1,#3,#2
        0x0000d1a6:    ea4200cc    B...    ORR      r0,r2,r12,LSL #3
        0x0000d1aa:    f0110fe0    ....    TST      r1,#0xe0
        0x0000d1ae:    d021        !.      BEQ      0xd1f4 ; am_hal_gpio_pinconfig + 112
        0x0000d1b0:    f3c11642    ..B.    UBFX     r6,r1,#5,#3
        0x0000d1b4:    f1a60902    ....    SUB      r9,r6,#2
        0x0000d1b8:    f8df8218    ....    LDR      r8,[pc,#536] ; [0xd3d4] = 0x8000100
        0x0000d1bc:    f0400001    @...    ORR      r0,r0,#1
        0x0000d1c0:    f1b90f03    ....    CMP      r9,#3
        0x0000d1c4:    d809        ..      BHI      0xd1da ; am_hal_gpio_pinconfig + 86
        0x0000d1c6:    f06f097f    o...    MVN      r9,#0x7f
        0x0000d1ca:    eb091686    ....    ADD      r6,r9,r6,LSL #6
        0x0000d1ce:    4330        0C      ORRS     r0,r0,r6
        0x0000d1d0:    5d3e        >]      LDRB     r6,[r7,r4]
        0x0000d1d2:    f0160f01    ....    TST      r6,#1
        0x0000d1d6:    d10d        ..      BNE      0xd1f4 ; am_hal_gpio_pinconfig + 112
        0x0000d1d8:    e012        ..      B        0xd200 ; am_hal_gpio_pinconfig + 124
        0x0000d1da:    2e06        ..      CMP      r6,#6
        0x0000d1dc:    d004        ..      BEQ      0xd1e8 ; am_hal_gpio_pinconfig + 100
        0x0000d1de:    2e01        ..      CMP      r6,#1
        0x0000d1e0:    bf08        ..      IT       EQ
        0x0000d1e2:    2c14        .,      CMPEQ    r4,#0x14
        0x0000d1e4:    d00c        ..      BEQ      0xd200 ; am_hal_gpio_pinconfig + 124
        0x0000d1e6:    e005        ..      B        0xd1f4 ; am_hal_gpio_pinconfig + 112
        0x0000d1e8:    2c14        .,      CMP      r4,#0x14
        0x0000d1ea:    bf1e        ..      ITTT     NE
        0x0000d1ec:    487a        zH      LDRNE    r0,[pc,#488] ; [0xd3d8] = 0x8000101
        0x0000d1ee:    b00b        ..      ADDNE    sp,sp,#0x2c
        0x0000d1f0:    e8bd8ff0    ....    POPNE    {r4-r11,pc}
        0x0000d1f4:    b17b        {.      CBZ      r3,0xd216 ; am_hal_gpio_pinconfig + 146
        0x0000d1f6:    2b01        .+      CMP      r3,#1
        0x0000d1f8:    d006        ..      BEQ      0xd208 ; am_hal_gpio_pinconfig + 132
        0x0000d1fa:    2b02        .+      CMP      r3,#2
        0x0000d1fc:    d022        ".      BEQ      0xd244 ; am_hal_gpio_pinconfig + 192
        0x0000d1fe:    e028        (.      B        0xd252 ; am_hal_gpio_pinconfig + 206
        0x0000d200:    b00b        ..      ADD      sp,sp,#0x2c
        0x0000d202:    4640        @F      MOV      r0,r8
        0x0000d204:    e8bd8ff0    ....    POP      {r4-r11,pc}
        0x0000d208:    5d3b        ;]      LDRB     r3,[r7,r4]
        0x0000d20a:    f0130f02    ....    TST      r3,#2
        0x0000d20e:    bf18        ..      IT       NE
        0x0000d210:    f0400040    @.@.    ORRNE    r0,r0,#0x40
        0x0000d214:    d01d        ..      BEQ      0xd252 ; am_hal_gpio_pinconfig + 206
        0x0000d216:    4b71        qK      LDR      r3,[pc,#452] ; [0xd3dc] = 0x10614
        0x0000d218:    5d1e        .]      LDRB     r6,[r3,r4]
        0x0000d21a:    2301        .#      MOVS     r3,#1
        0x0000d21c:    fa03f30c    ....    LSL      r3,r3,r12
        0x0000d220:    4033        3@      ANDS     r3,r3,r6
        0x0000d222:    bf18        ..      IT       NE
        0x0000d224:    2302        .#      MOVNE    r3,#2
        0x0000d226:    4318        .C      ORRS     r0,r0,r3
        0x0000d228:    4b6d        mK      LDR      r3,[pc,#436] ; [0xd3e0] = 0x106a8
        0x0000d22a:    5d1b        .]      LDRB     r3,[r3,r4]
        0x0000d22c:    4563        cE      CMP      r3,r12
        0x0000d22e:    d13f        ?.      BNE      0xd2b0 ; am_hal_gpio_pinconfig + 300
        0x0000d230:    f8dfc1b0    ....    LDR      r12,[pc,#432] ; [0xd3e4] = 0x8000103
        0x0000d234:    f4113f80    ...?    TST      r1,#0x10000
        0x0000d238:    f3c14342    ..BC    UBFX     r3,r1,#17,#3
        0x0000d23c:    d00d        ..      BEQ      0xd25a ; am_hal_gpio_pinconfig + 214
        0x0000d23e:    2b06        .+      CMP      r3,#6
        0x0000d240:    d20d        ..      BCS      0xd25e ; am_hal_gpio_pinconfig + 218
        0x0000d242:    e010        ..      B        0xd266 ; am_hal_gpio_pinconfig + 226
        0x0000d244:    5d3b        ;]      LDRB     r3,[r7,r4]
        0x0000d246:    f0130f04    ....    TST      r3,#4
        0x0000d24a:    bf18        ..      IT       NE
        0x0000d24c:    f0400080    @...    ORRNE    r0,r0,#0x80
        0x0000d250:    d1e1        ..      BNE      0xd216 ; am_hal_gpio_pinconfig + 146
        0x0000d252:    b00b        ..      ADD      sp,sp,#0x2c
        0x0000d254:    4864        dH      LDR      r0,[pc,#400] ; [0xd3e8] = 0x8000102
        0x0000d256:    e8bd8ff0    ....    POP      {r4-r11,pc}
        0x0000d25a:    2b03        .+      CMP      r3,#3
        0x0000d25c:    d303        ..      BCC      0xd266 ; am_hal_gpio_pinconfig + 226
        0x0000d25e:    b00b        ..      ADD      sp,sp,#0x2c
        0x0000d260:    4660        `F      MOV      r0,r12
        0x0000d262:    e8bd8ff0    ....    POP      {r4-r11,pc}
        0x0000d266:    f3c14c00    ...L    UBFX     r12,r1,#16,#1
        0x0000d26a:    ea4f1ccc    O...    LSL      r12,r12,#7
        0x0000d26e:    f3c15601    ...V    UBFX     r6,r1,#20,#2
        0x0000d272:    ea4c1c06    L...    ORR      r12,r12,r6,LSL #4
        0x0000d276:    ea4c0603    L...    ORR      r6,r12,r3
        0x0000d27a:    f8dfc170    ..p.    LDR      r12,[pc,#368] ; [0xd3ec] = 0x106f2
        0x0000d27e:    2300        .#      MOVS     r3,#0
        0x0000d280:    eb0c0c84    ....    ADD      r12,r12,r4,LSL #2
        0x0000d284:    f81c7003    ...p    LDRB     r7,[r12,r3]
        0x0000d288:    42b7        .B      CMP      r7,r6
        0x0000d28a:    d003        ..      BEQ      0xd294 ; am_hal_gpio_pinconfig + 272
        0x0000d28c:    1c5b        [.      ADDS     r3,r3,#1
        0x0000d28e:    2b04        .+      CMP      r3,#4
        0x0000d290:    d3f8        ..      BCC      0xd284 ; am_hal_gpio_pinconfig + 256
        0x0000d292:    e001        ..      B        0xd298 ; am_hal_gpio_pinconfig + 276
        0x0000d294:    2b04        .+      CMP      r3,#4
        0x0000d296:    d303        ..      BCC      0xd2a0 ; am_hal_gpio_pinconfig + 284
        0x0000d298:    b00b        ..      ADD      sp,sp,#0x2c
        0x0000d29a:    4855        UH      LDR      r0,[pc,#340] ; [0xd3f0] = 0x8000104
        0x0000d29c:    e8bd8ff0    ....    POP      {r4-r11,pc}
        0x0000d2a0:    005b        [.      LSLS     r3,r3,#1
        0x0000d2a2:    f3c15c80    ...\    UBFX     r12,r1,#22,#1
        0x0000d2a6:    ea430ccc    C...    ORR      r12,r3,r12,LSL #3
        0x0000d2aa:    ea4c0302    L...    ORR      r3,r12,r2
        0x0000d2ae:    e022        ".      B        0xd2f6 ; am_hal_gpio_pinconfig + 370
        0x0000d2b0:    f3c13300    ...3    UBFX     r3,r1,#12,#1
        0x0000d2b4:    f3c12c81    ...,    UBFX     r12,r1,#10,#2
        0x0000d2b8:    ea400043    @.C.    ORR      r0,r0,r3,LSL #1
        0x0000d2bc:    ea4f034c    O.L.    LSL      r3,r12,#1
        0x0000d2c0:    f3c13640    ..@6    UBFX     r6,r1,#13,#1
        0x0000d2c4:    ea4303c6    C...    ORR      r3,r3,r6,LSL #3
        0x0000d2c8:    f3c13641    ..A6    UBFX     r6,r1,#13,#2
        0x0000d2cc:    ea430356    C.V.    ORR      r3,r3,r6,LSR #1
        0x0000d2d0:    f1bc0f01    ....    CMP      r12,#1
        0x0000d2d4:    d005        ..      BEQ      0xd2e2 ; am_hal_gpio_pinconfig + 350
        0x0000d2d6:    f8dfc11c    ....    LDR      r12,[pc,#284] ; [0xd3f4] = 0x10610
        0x0000d2da:    f8dcc000    ....    LDR      r12,[r12,#0]
        0x0000d2de:    4561        aE      CMP      r1,r12
        0x0000d2e0:    d100        ..      BNE      0xd2e4 ; am_hal_gpio_pinconfig + 352
        0x0000d2e2:    2501        .%      MOVS     r5,#1
        0x0000d2e4:    f4114fc0    ...O    TST      r1,#0x6000
        0x0000d2e8:    d105        ..      BNE      0xd2f6 ; am_hal_gpio_pinconfig + 370
        0x0000d2ea:    f0230301    #...    BIC      r3,r3,#1
        0x0000d2ee:    f3c13cc0    ...<    UBFX     r12,r1,#15,#1
        0x0000d2f2:    ea4c0303    L...    ORR      r3,r12,r3
        0x0000d2f6:    f3c12101    ...!    UBFX     r1,r1,#8,#2
        0x0000d2fa:    b179        y.      CBZ      r1,0xd31c ; am_hal_gpio_pinconfig + 408
        0x0000d2fc:    2901        .)      CMP      r1,#1
        0x0000d2fe:    bf08        ..      IT       EQ
        0x0000d300:    f0400004    @...    ORREQ    r0,r0,#4
        0x0000d304:    d00a        ..      BEQ      0xd31c ; am_hal_gpio_pinconfig + 408
        0x0000d306:    2902        .)      CMP      r1,#2
        0x0000d308:    bf08        ..      IT       EQ
        0x0000d30a:    f0420201    B...    ORREQ    r2,r2,#1
        0x0000d30e:    d005        ..      BEQ      0xd31c ; am_hal_gpio_pinconfig + 408
        0x0000d310:    2903        .)      CMP      r1,#3
        0x0000d312:    bf04        ..      ITT      EQ
        0x0000d314:    f0400004    @...    ORREQ    r0,r0,#4
        0x0000d318:    f0420201    B...    ORREQ    r2,r2,#1
        0x0000d31c:    f06f0103    o...    MVN      r1,#3
        0x0000d320:    ea010c54    ..T.    AND      r12,r1,r4,LSR #1
        0x0000d324:    4934        4I      LDR      r1,[pc,#208] ; [0xd3f8] = 0x4001004c
        0x0000d326:    260f        .&      MOVS     r6,#0xf
        0x0000d328:    eb0c0901    ....    ADD      r9,r12,r1
        0x0000d32c:    f0240103    $...    BIC      r1,r4,#3
        0x0000d330:    f8dfc0c8    ....    LDR      r12,[pc,#200] ; [0xd3fc] = 0x400100f8
        0x0000d334:    f1014880    ...H    ADD      r8,r1,#0x40000000
        0x0000d338:    eb01070c    ....    ADD      r7,r1,r12
        0x0000d33c:    0761        a.      LSLS     r1,r4,#29
        0x0000d33e:    ea4f6cd1    O..l    LSR      r12,r1,#27
        0x0000d342:    07a1        ..      LSLS     r1,r4,#30
        0x0000d344:    0ec9        ..      LSRS     r1,r1,#27
        0x0000d346:    fa06f60c    ....    LSL      r6,r6,r12
        0x0000d34a:    ea6f0a06    o...    MVN      r10,r6
        0x0000d34e:    26ff        .&      MOVS     r6,#0xff
        0x0000d350:    408e        .@      LSLS     r6,r6,r1
        0x0000d352:    4088        .@      LSLS     r0,r0,r1
        0x0000d354:    9000        ..      STR      r0,[sp,#0]
        0x0000d356:    fa02f001    ....    LSL      r0,r2,r1
        0x0000d35a:    f5083880    ...8    ADD      r8,r8,#0x10000
        0x0000d35e:    43f6        .C      MVNS     r6,r6
        0x0000d360:    fa03fb0c    ....    LSL      r11,r3,r12
        0x0000d364:    9002        ..      STR      r0,[sp,#8]
        0x0000d366:    f7feffb9    ....    BL       am_hal_interrupt_master_disable ; 0xc2dc
        0x0000d36a:    9003        ..      STR      r0,[sp,#0xc]
        0x0000d36c:    b16d        m.      CBZ      r5,0xd38a ; am_hal_gpio_pinconfig + 518
        0x0000d36e:    f004011f    ....    AND      r1,r4,#0x1f
        0x0000d372:    2001        .       MOVS     r0,#1
        0x0000d374:    fa00f101    ....    LSL      r1,r0,r1
        0x0000d378:    200c        .       MOVS     r0,#0xc
        0x0000d37a:    ea0000d4    ....    AND      r0,r0,r4,LSR #3
        0x0000d37e:    f1004080    ...@    ADD      r0,r0,#0x40000000
        0x0000d382:    f5003080    ...0    ADD      r0,r0,#0x10000
        0x0000d386:    f8c010c8    ....    STR      r1,[r0,#0xc8]
        0x0000d38a:    481d        .H      LDR      r0,[pc,#116] ; [0xd400] = 0x40010000
        0x0000d38c:    2173        s!      MOVS     r1,#0x73
        0x0000d38e:    6741        Ag      STR      r1,[r0,#0x74]
        0x0000d390:    f8d81000    ....    LDR      r1,[r8,#0]
        0x0000d394:    ea010206    ....    AND      r2,r1,r6
        0x0000d398:    9900        ..      LDR      r1,[sp,#0]
        0x0000d39a:    4311        .C      ORRS     r1,r1,r2
        0x0000d39c:    f8c81000    ....    STR      r1,[r8,#0]
        0x0000d3a0:    f8d91000    ....    LDR      r1,[r9,#0]
        0x0000d3a4:    ea01010a    ....    AND      r1,r1,r10
        0x0000d3a8:    ea41010b    A...    ORR      r1,r1,r11
        0x0000d3ac:    f8c91000    ....    STR      r1,[r9,#0]
        0x0000d3b0:    6839        9h      LDR      r1,[r7,#0]
        0x0000d3b2:    ea010206    ....    AND      r2,r1,r6
        0x0000d3b6:    9902        ..      LDR      r1,[sp,#8]
        0x0000d3b8:    4311        .C      ORRS     r1,r1,r2
        0x0000d3ba:    6039        9`      STR      r1,[r7,#0]
        0x0000d3bc:    2100        .!      MOVS     r1,#0
        0x0000d3be:    6741        Ag      STR      r1,[r0,#0x74]
        0x0000d3c0:    9803        ..      LDR      r0,[sp,#0xc]
        0x0000d3c2:    f7feff8f    ....    BL       am_hal_interrupt_master_set ; 0xc2e4
        0x0000d3c6:    b00b        ..      ADD      sp,sp,#0x2c
        0x0000d3c8:    2000        .       MOVS     r0,#0
        0x0000d3ca:    e8bd8ff0    ....    POP      {r4-r11,pc}
    $d
        0x0000d3ce:    0000        ..      DCW    0
        0x0000d3d0:    0001065e    ^...    DCD    67166
        0x0000d3d4:    08000100    ....    DCD    134217984
        0x0000d3d8:    08000101    ....    DCD    134217985
        0x0000d3dc:    00010614    ....    DCD    67092
        0x0000d3e0:    000106a8    ....    DCD    67240
        0x0000d3e4:    08000103    ....    DCD    134217987
        0x0000d3e8:    08000102    ....    DCD    134217986
        0x0000d3ec:    000106f2    ....    DCD    67314
        0x0000d3f0:    08000104    ....    DCD    134217988
        0x0000d3f4:    00010610    ....    DCD    67088
        0x0000d3f8:    4001004c    L..@    DCD    1073807436
        0x0000d3fc:    400100f8    ...@    DCD    1073807608
        0x0000d400:    40010000    ...@    DCD    1073807360
    $t
    i.am_hal_gpio_state_read
    am_hal_gpio_state_read
        0x0000d404:    f04f33ff    O..3    MOV      r3,#0xffffffff
        0x0000d408:    b19a        ..      CBZ      r2,0xd432 ; am_hal_gpio_state_read + 46
        0x0000d40a:    284a        J(      CMP      r0,#0x4a
        0x0000d40c:    bf22        ".      ITTT     CS
        0x0000d40e:    6013        .`      STRCS    r3,[r2,#0]
        0x0000d410:    2005        .       MOVCS    r0,#5
        0x0000d412:    4770        pG      BXCS     lr
        0x0000d414:    f000031f    ....    AND      r3,r0,#0x1f
        0x0000d418:    f04f0c0c    O...    MOV      r12,#0xc
        0x0000d41c:    ea0c00d0    ....    AND      r0,r12,r0,LSR #3
        0x0000d420:    f1004080    ...@    ADD      r0,r0,#0x40000000
        0x0000d424:    f5003080    ...0    ADD      r0,r0,#0x10000
        0x0000d428:    b129        ).      CBZ      r1,0xd436 ; am_hal_gpio_state_read + 50
        0x0000d42a:    2901        .)      CMP      r1,#1
        0x0000d42c:    d009        ..      BEQ      0xd442 ; am_hal_gpio_state_read + 62
        0x0000d42e:    2902        .)      CMP      r1,#2
        0x0000d430:    d00d        ..      BEQ      0xd44e ; am_hal_gpio_state_read + 74
        0x0000d432:    2006        .       MOVS     r0,#6
        0x0000d434:    4770        pG      BX       lr
        0x0000d436:    f8d00080    ....    LDR      r0,[r0,#0x80]
        0x0000d43a:    40d8        .@      LSRS     r0,r0,r3
        0x0000d43c:    f0000001    ....    AND      r0,r0,#1
        0x0000d440:    e00a        ..      B        0xd458 ; am_hal_gpio_state_read + 84
        0x0000d442:    f8d0008c    ....    LDR      r0,[r0,#0x8c]
        0x0000d446:    40d8        .@      LSRS     r0,r0,r3
        0x0000d448:    f0000001    ....    AND      r0,r0,#1
        0x0000d44c:    e004        ..      B        0xd458 ; am_hal_gpio_state_read + 84
        0x0000d44e:    f8d000b0    ....    LDR      r0,[r0,#0xb0]
        0x0000d452:    40d8        .@      LSRS     r0,r0,r3
        0x0000d454:    f0000001    ....    AND      r0,r0,#1
        0x0000d458:    6010        .`      STR      r0,[r2,#0]
        0x0000d45a:    2000        .       MOVS     r0,#0
        0x0000d45c:    4770        pG      BX       lr
    i.am_hal_gpio_state_write
    am_hal_gpio_state_write
        0x0000d45e:    b5f8        ..      PUSH     {r3-r7,lr}
        0x0000d460:    2700        .'      MOVS     r7,#0
        0x0000d462:    460d        .F      MOV      r5,r1
        0x0000d464:    4606        .F      MOV      r6,r0
        0x0000d466:    284a        J(      CMP      r0,#0x4a
        0x0000d468:    bf24        $.      ITT      CS
        0x0000d46a:    2005        .       MOVCS    r0,#5
        0x0000d46c:    bdf8        ..      POPCS    {r3-r7,pc}
        0x0000d46e:    2d05        .-      CMP      r5,#5
        0x0000d470:    bf84        ..      ITT      HI
        0x0000d472:    2006        .       MOVHI    r0,#6
        0x0000d474:    bdf8        ..      POPHI    {r3-r7,pc}
        0x0000d476:    f006001f    ....    AND      r0,r6,#0x1f
        0x0000d47a:    2101        .!      MOVS     r1,#1
        0x0000d47c:    fa01f400    ....    LSL      r4,r1,r0
        0x0000d480:    f7feff2c    ..,.    BL       am_hal_interrupt_master_disable ; 0xc2dc
        0x0000d484:    9000        ..      STR      r0,[sp,#0]
        0x0000d486:    200c        .       MOVS     r0,#0xc
        0x0000d488:    ea0000d6    ....    AND      r0,r0,r6,LSR #3
        0x0000d48c:    f1004080    ...@    ADD      r0,r0,#0x40000000
        0x0000d490:    f5003080    ...0    ADD      r0,r0,#0x10000
        0x0000d494:    2d06        .-      CMP      r5,#6
        0x0000d496:    d21c        ..      BCS      0xd4d2 ; am_hal_gpio_state_write + 116
        0x0000d498:    e8dff005    ....    TBB      [pc,r5]
    $d
        0x0000d49c:    12090306    ....    DCD    302580486
        0x0000d4a0:    150f        ..      DCW    5391
    $t
        0x0000d4a2:    f8c04098    ...@    STR      r4,[r0,#0x98]
        0x0000d4a6:    e015        ..      B        0xd4d4 ; am_hal_gpio_state_write + 118
        0x0000d4a8:    f8c040a4    ...@    STR      r4,[r0,#0xa4]
        0x0000d4ac:    e012        ..      B        0xd4d4 ; am_hal_gpio_state_write + 118
        0x0000d4ae:    f8d0108c    ....    LDR      r1,[r0,#0x8c]
        0x0000d4b2:    4061        a@      EORS     r1,r1,r4
        0x0000d4b4:    f8c0108c    ....    STR      r1,[r0,#0x8c]
        0x0000d4b8:    e00c        ..      B        0xd4d4 ; am_hal_gpio_state_write + 118
        0x0000d4ba:    f8c040bc    ...@    STR      r4,[r0,#0xbc]
        0x0000d4be:    e009        ..      B        0xd4d4 ; am_hal_gpio_state_write + 118
        0x0000d4c0:    f8c040c8    ...@    STR      r4,[r0,#0xc8]
        0x0000d4c4:    e006        ..      B        0xd4d4 ; am_hal_gpio_state_write + 118
        0x0000d4c6:    f8d010c8    ....    LDR      r1,[r0,#0xc8]
        0x0000d4ca:    4061        a@      EORS     r1,r1,r4
        0x0000d4cc:    f8c010c8    ....    STR      r1,[r0,#0xc8]
        0x0000d4d0:    e000        ..      B        0xd4d4 ; am_hal_gpio_state_write + 118
        0x0000d4d2:    2706        .'      MOVS     r7,#6
        0x0000d4d4:    9800        ..      LDR      r0,[sp,#0]
        0x0000d4d6:    f7feff05    ....    BL       am_hal_interrupt_master_set ; 0xc2e4
        0x0000d4da:    4638        8F      MOV      r0,r7
        0x0000d4dc:    bdf8        ..      POP      {r3-r7,pc}
        0x0000d4de:    0000        ..      MOVS     r0,r0
    i.am_hal_itm_disable
    am_hal_itm_disable
        0x0000d4e0:    e92d41f0    -..A    PUSH     {r4-r8,lr}
        0x0000d4e4:    4e20         N      LDR      r6,[pc,#128] ; [0xd568] = 0x40020000
        0x0000d4e6:    f8d60250    ..P.    LDR      r0,[r6,#0x250]
        0x0000d4ea:    4f20         O      LDR      r7,[pc,#128] ; [0xd56c] = 0xc5acce55
        0x0000d4ec:    f8df8080    ....    LDR      r8,[pc,#128] ; [0xd570] = 0xe0000fb0
        0x0000d4f0:    4c20         L      LDR      r4,[pc,#128] ; [0xd574] = 0xe0000e80
        0x0000d4f2:    4d21        !M      LDR      r5,[pc,#132] ; [0xd578] = 0xe000edfc
        0x0000d4f4:    b988        ..      CBNZ     r0,0xd51a ; am_hal_itm_disable + 58
        0x0000d4f6:    6828        (h      LDR      r0,[r5,#0]
        0x0000d4f8:    f0407080    @..p    ORR      r0,r0,#0x1000000
        0x0000d4fc:    6028        (`      STR      r0,[r5,#0]
        0x0000d4fe:    6828        (h      LDR      r0,[r5,#0]
        0x0000d500:    f0107f80    ....    TST      r0,#0x1000000
        0x0000d504:    d0fb        ..      BEQ      0xd4fe ; am_hal_itm_disable + 30
        0x0000d506:    f8c87000    ...p    STR      r7,[r8,#0]
        0x0000d50a:    491c        .I      LDR      r1,[pc,#112] ; [0xd57c] = 0xe0000e40
        0x0000d50c:    200f        .       MOVS     r0,#0xf
        0x0000d50e:    6008        .`      STR      r0,[r1,#0]
        0x0000d510:    1748        H.      ASRS     r0,r1,#29
        0x0000d512:    491b        .I      LDR      r1,[pc,#108] ; [0xd580] = 0xe0000e00
        0x0000d514:    6008        .`      STR      r0,[r1,#0]
        0x0000d516:    481b        .H      LDR      r0,[pc,#108] ; [0xd584] = 0x150511
        0x0000d518:    6020         `      STR      r0,[r4,#0]
        0x0000d51a:    6820         h      LDR      r0,[r4,#0]
        0x0000d51c:    f4100f00    ....    TST      r0,#0x800000
        0x0000d520:    d1fb        ..      BNE      0xd51a ; am_hal_itm_disable + 58
        0x0000d522:    f44f7048    O.Hp    MOV      r0,#0x320
        0x0000d526:    f7fffd01    ....    BL       am_hal_flash_delay ; 0xcf2c
        0x0000d52a:    f8c87000    ...p    STR      r7,[r8,#0]
        0x0000d52e:    4816        .H      LDR      r0,[pc,#88] ; [0xd588] = 0x800001
        0x0000d530:    2200        ."      MOVS     r2,#0
        0x0000d532:    6821        !h      LDR      r1,[r4,#0]
        0x0000d534:    f0210101    !...    BIC      r1,r1,#1
        0x0000d538:    6021        !`      STR      r1,[r4,#0]
        0x0000d53a:    6821        !h      LDR      r1,[r4,#0]
        0x0000d53c:    4201        .B      TST      r1,r0
        0x0000d53e:    d1fc        ..      BNE      0xd53a ; am_hal_itm_disable + 90
        0x0000d540:    1c52        R.      ADDS     r2,r2,#1
        0x0000d542:    2a64        d*      CMP      r2,#0x64
        0x0000d544:    dbf5        ..      BLT      0xd532 ; am_hal_itm_disable + 82
        0x0000d546:    6828        (h      LDR      r0,[r5,#0]
        0x0000d548:    f0207080     ..p    BIC      r0,r0,#0x1000000
        0x0000d54c:    6028        (`      STR      r0,[r5,#0]
        0x0000d54e:    6828        (h      LDR      r0,[r5,#0]
        0x0000d550:    f0107f80    ....    TST      r0,#0x1000000
        0x0000d554:    d1fb        ..      BNE      0xd54e ; am_hal_itm_disable + 110
        0x0000d556:    2000        .       MOVS     r0,#0
        0x0000d558:    f8c60250    ..P.    STR      r0,[r6,#0x250]
        0x0000d55c:    f8d60250    ..P.    LDR      r0,[r6,#0x250]
        0x0000d560:    2800        .(      CMP      r0,#0
        0x0000d562:    d1fb        ..      BNE      0xd55c ; am_hal_itm_disable + 124
        0x0000d564:    e8bd81f0    ....    POP      {r4-r8,pc}
    $d
        0x0000d568:    40020000    ...@    DCD    1073872896
        0x0000d56c:    c5acce55    U...    DCD    3316436565
        0x0000d570:    e0000fb0    ....    DCD    3758100400
        0x0000d574:    e0000e80    ....    DCD    3758100096
        0x0000d578:    e000edfc    ....    DCD    3758157308
        0x0000d57c:    e0000e40    @...    DCD    3758100032
        0x0000d580:    e0000e00    ....    DCD    3758099968
        0x0000d584:    00150511    ....    DCD    1377553
        0x0000d588:    00800001    ....    DCD    8388609
    $t
    i.am_hal_itm_enable
    am_hal_itm_enable
        0x0000d58c:    480a        .H      LDR      r0,[pc,#40] ; [0xd5b8] = 0xe000edfc
        0x0000d58e:    6801        .h      LDR      r1,[r0,#0]
        0x0000d590:    f0417180    A..q    ORR      r1,r1,#0x1000000
        0x0000d594:    6001        .`      STR      r1,[r0,#0]
        0x0000d596:    6801        .h      LDR      r1,[r0,#0]
        0x0000d598:    f0117f80    ....    TST      r1,#0x1000000
        0x0000d59c:    d0fb        ..      BEQ      0xd596 ; am_hal_itm_enable + 10
        0x0000d59e:    4908        .I      LDR      r1,[pc,#32] ; [0xd5c0] = 0xe0000fb0
        0x0000d5a0:    4806        .H      LDR      r0,[pc,#24] ; [0xd5bc] = 0xc5acce55
        0x0000d5a2:    6008        .`      STR      r0,[r1,#0]
        0x0000d5a4:    4907        .I      LDR      r1,[pc,#28] ; [0xd5c4] = 0xe0000e40
        0x0000d5a6:    200f        .       MOVS     r0,#0xf
        0x0000d5a8:    6008        .`      STR      r0,[r1,#0]
        0x0000d5aa:    1748        H.      ASRS     r0,r1,#29
        0x0000d5ac:    4906        .I      LDR      r1,[pc,#24] ; [0xd5c8] = 0xe0000e00
        0x0000d5ae:    6008        .`      STR      r0,[r1,#0]
        0x0000d5b0:    4907        .I      LDR      r1,[pc,#28] ; [0xd5d0] = 0xe0000e80
        0x0000d5b2:    4806        .H      LDR      r0,[pc,#24] ; [0xd5cc] = 0x150511
        0x0000d5b4:    6008        .`      STR      r0,[r1,#0]
        0x0000d5b6:    4770        pG      BX       lr
    $d
        0x0000d5b8:    e000edfc    ....    DCD    3758157308
        0x0000d5bc:    c5acce55    U...    DCD    3316436565
        0x0000d5c0:    e0000fb0    ....    DCD    3758100400
        0x0000d5c4:    e0000e40    @...    DCD    3758100032
        0x0000d5c8:    e0000e00    ....    DCD    3758099968
        0x0000d5cc:    00150511    ....    DCD    1377553
        0x0000d5d0:    e0000e80    ....    DCD    3758100096
    $t
    i.am_hal_itm_print
    am_hal_itm_print
        0x0000d5d4:    7802        .x      LDRB     r2,[r0,#0]
        0x0000d5d6:    2100        .!      MOVS     r1,#0
        0x0000d5d8:    2a00        .*      CMP      r2,#0
        0x0000d5da:    bf08        ..      IT       EQ
        0x0000d5dc:    4770        pG      BXEQ     lr
        0x0000d5de:    1c49        I.      ADDS     r1,r1,#1
        0x0000d5e0:    5c42        B\      LDRB     r2,[r0,r1]
        0x0000d5e2:    2a00        .*      CMP      r2,#0
        0x0000d5e4:    d1fb        ..      BNE      0xd5de ; am_hal_itm_print + 10
        0x0000d5e6:    2900        .)      CMP      r1,#0
        0x0000d5e8:    bf08        ..      IT       EQ
        0x0000d5ea:    4770        pG      BXEQ     lr
        0x0000d5ec:    f810cb01    ....    LDRB     r12,[r0],#1
        0x0000d5f0:    f04f4260    O.`B    MOV      r2,#0xe0000000
        0x0000d5f4:    6813        .h      LDR      r3,[r2,#0]
        0x0000d5f6:    2b00        .+      CMP      r3,#0
        0x0000d5f8:    d0fc        ..      BEQ      0xd5f4 ; am_hal_itm_print + 32
        0x0000d5fa:    f882c000    ....    STRB     r12,[r2,#0]
        0x0000d5fe:    1e49        I.      SUBS     r1,r1,#1
        0x0000d600:    d1f4        ..      BNE      0xd5ec ; am_hal_itm_print + 24
        0x0000d602:    4770        pG      BX       lr
    i.am_hal_mcuctrl_info_get
    am_hal_mcuctrl_info_get
        0x0000d604:    b129        ).      CBZ      r1,0xd612 ; am_hal_mcuctrl_info_get + 14
        0x0000d606:    4a45        EJ      LDR      r2,[pc,#276] ; [0xd71c] = 0x40020000
        0x0000d608:    b128        (.      CBZ      r0,0xd616 ; am_hal_mcuctrl_info_get + 18
        0x0000d60a:    2801        .(      CMP      r0,#1
        0x0000d60c:    d017        ..      BEQ      0xd63e ; am_hal_mcuctrl_info_get + 58
        0x0000d60e:    2802        .(      CMP      r0,#2
        0x0000d610:    d069        i.      BEQ      0xd6e6 ; am_hal_mcuctrl_info_get + 226
        0x0000d612:    2006        .       MOVS     r0,#6
        0x0000d614:    4770        pG      BX       lr
        0x0000d616:    6990        .i      LDR      r0,[r2,#0x18]
        0x0000d618:    f3c01380    ....    UBFX     r3,r0,#6,#1
        0x0000d61c:    700b        .p      STRB     r3,[r1,#0]
        0x0000d61e:    f3c00080    ....    UBFX     r0,r0,#2,#1
        0x0000d622:    7048        Hp      STRB     r0,[r1,#1]
        0x0000d624:    f8d201a0    ....    LDR      r0,[r2,#0x1a0]
        0x0000d628:    f3c06081    ...`    UBFX     r0,r0,#26,#2
        0x0000d62c:    7108        .q      STRB     r0,[r1,#4]
        0x0000d62e:    6950        Pi      LDR      r0,[r2,#0x14]
        0x0000d630:    f3c00240    ..@.    UBFX     r2,r0,#1,#1
        0x0000d634:    708a        .p      STRB     r2,[r1,#2]
        0x0000d636:    f0000001    ....    AND      r0,r0,#1
        0x0000d63a:    70c8        .p      STRB     r0,[r1,#3]
        0x0000d63c:    e06b        k.      B        0xd716 ; am_hal_mcuctrl_info_get + 274
        0x0000d63e:    6810        .h      LDR      r0,[r2,#0]
        0x0000d640:    6008        .`      STR      r0,[r1,#0]
        0x0000d642:    6853        Sh      LDR      r3,[r2,#4]
        0x0000d644:    604b        K`      STR      r3,[r1,#4]
        0x0000d646:    6893        .h      LDR      r3,[r2,#8]
        0x0000d648:    608b        .`      STR      r3,[r1,#8]
        0x0000d64a:    68d3        .h      LDR      r3,[r2,#0xc]
        0x0000d64c:    60cb        .`      STR      r3,[r1,#0xc]
        0x0000d64e:    6913        .i      LDR      r3,[r2,#0x10]
        0x0000d650:    610b        .a      STR      r3,[r1,#0x10]
        0x0000d652:    6952        Ri      LDR      r2,[r2,#0x14]
        0x0000d654:    614a        Ja      STR      r2,[r1,#0x14]
        0x0000d656:    f0000201    ....    AND      r2,r0,#1
        0x0000d65a:    618a        .a      STR      r2,[r1,#0x18]
        0x0000d65c:    223c        <"      MOVS     r2,#0x3c
        0x0000d65e:    ea024390    ...C    AND      r3,r2,r0,LSR #18
        0x0000d662:    f8dfc0bc    ....    LDR      r12,[pc,#188] ; [0xd720] = 0x10824
        0x0000d666:    ea023090    ...0    AND      r0,r2,r0,LSR #14
        0x0000d66a:    f10c0240    ..@.    ADD      r2,r12,#0x40
        0x0000d66e:    f85c3003    \..0    LDR      r3,[r12,r3]
        0x0000d672:    61cb        .a      STR      r3,[r1,#0x1c]
        0x0000d674:    5810        .X      LDR      r0,[r2,r0]
        0x0000d676:    6208        .b      STR      r0,[r1,#0x20]
        0x0000d678:    482a        *H      LDR      r0,[pc,#168] ; [0xd724] = 0xf0000fe0
        0x0000d67a:    6800        .h      LDR      r0,[r0,#0]
        0x0000d67c:    4a2a        *J      LDR      r2,[pc,#168] ; [0xd728] = 0xf0000fe4
        0x0000d67e:    b2c0        ..      UXTB     r0,r0
        0x0000d680:    6248        Hb      STR      r0,[r1,#0x24]
        0x0000d682:    6813        .h      LDR      r3,[r2,#0]
        0x0000d684:    f003030f    ....    AND      r3,r3,#0xf
        0x0000d688:    ea402003    @..     ORR      r0,r0,r3,LSL #8
        0x0000d68c:    6248        Hb      STR      r0,[r1,#0x24]
        0x0000d68e:    6810        .h      LDR      r0,[r2,#0]
        0x0000d690:    1d12        ..      ADDS     r2,r2,#4
        0x0000d692:    f3c01003    ....    UBFX     r0,r0,#4,#4
        0x0000d696:    6288        .b      STR      r0,[r1,#0x28]
        0x0000d698:    6813        .h      LDR      r3,[r2,#0]
        0x0000d69a:    f003030f    ....    AND      r3,r3,#0xf
        0x0000d69e:    ea401003    @...    ORR      r0,r0,r3,LSL #4
        0x0000d6a2:    6288        .b      STR      r0,[r1,#0x28]
        0x0000d6a4:    6810        .h      LDR      r0,[r2,#0]
        0x0000d6a6:    f3c01003    ....    UBFX     r0,r0,#4,#4
        0x0000d6aa:    0100        ..      LSLS     r0,r0,#4
        0x0000d6ac:    1d12        ..      ADDS     r2,r2,#4
        0x0000d6ae:    62c8        .b      STR      r0,[r1,#0x2c]
        0x0000d6b0:    6812        .h      LDR      r2,[r2,#0]
        0x0000d6b2:    f3c21203    ....    UBFX     r2,r2,#4,#4
        0x0000d6b6:    4310        .C      ORRS     r0,r0,r2
        0x0000d6b8:    62c8        .b      STR      r0,[r1,#0x2c]
        0x0000d6ba:    481c        .H      LDR      r0,[pc,#112] ; [0xd72c] = 0xf0000ffc
        0x0000d6bc:    6800        .h      LDR      r0,[r0,#0]
        0x0000d6be:    4a1c        .J      LDR      r2,[pc,#112] ; [0xd730] = 0xf0000ff8
        0x0000d6c0:    0600        ..      LSLS     r0,r0,#24
        0x0000d6c2:    6308        .c      STR      r0,[r1,#0x30]
        0x0000d6c4:    6812        .h      LDR      r2,[r2,#0]
        0x0000d6c6:    b2d2        ..      UXTB     r2,r2
        0x0000d6c8:    ea404002    @..@    ORR      r0,r0,r2,LSL #16
        0x0000d6cc:    4a19        .J      LDR      r2,[pc,#100] ; [0xd734] = 0xf0000ff4
        0x0000d6ce:    6308        .c      STR      r0,[r1,#0x30]
        0x0000d6d0:    6812        .h      LDR      r2,[r2,#0]
        0x0000d6d2:    b2d2        ..      UXTB     r2,r2
        0x0000d6d4:    ea402002    @..     ORR      r0,r0,r2,LSL #8
        0x0000d6d8:    4a17        .J      LDR      r2,[pc,#92] ; [0xd738] = 0xf0000ff0
        0x0000d6da:    6308        .c      STR      r0,[r1,#0x30]
        0x0000d6dc:    6812        .h      LDR      r2,[r2,#0]
        0x0000d6de:    b2d2        ..      UXTB     r2,r2
        0x0000d6e0:    4310        .C      ORRS     r0,r0,r2
        0x0000d6e2:    6308        .c      STR      r0,[r1,#0x30]
        0x0000d6e4:    e017        ..      B        0xd716 ; am_hal_mcuctrl_info_get + 274
        0x0000d6e6:    f8d201cc    ....    LDR      r0,[r2,#0x1cc]
        0x0000d6ea:    f0000301    ....    AND      r3,r0,#1
        0x0000d6ee:    700b        .p      STRB     r3,[r1,#0]
        0x0000d6f0:    f3c00340    ..@.    UBFX     r3,r0,#1,#1
        0x0000d6f4:    720b        .r      STRB     r3,[r1,#8]
        0x0000d6f6:    f3c00080    ....    UBFX     r0,r0,#2,#1
        0x0000d6fa:    7408        .t      STRB     r0,[r1,#0x10]
        0x0000d6fc:    f8d201c4    ....    LDR      r0,[r2,#0x1c4]
        0x0000d700:    60c8        .`      STR      r0,[r1,#0xc]
        0x0000d702:    6848        Hh      LDR      r0,[r1,#4]
        0x0000d704:    f8d231c0    ...1    LDR      r3,[r2,#0x1c0]
        0x0000d708:    4318        .C      ORRS     r0,r0,r3
        0x0000d70a:    6048        H`      STR      r0,[r1,#4]
        0x0000d70c:    6948        Hi      LDR      r0,[r1,#0x14]
        0x0000d70e:    f8d221c8    ...!    LDR      r2,[r2,#0x1c8]
        0x0000d712:    4310        .C      ORRS     r0,r0,r2
        0x0000d714:    6148        Ha      STR      r0,[r1,#0x14]
        0x0000d716:    2000        .       MOVS     r0,#0
        0x0000d718:    4770        pG      BX       lr
    $d
        0x0000d71a:    0000        ..      DCW    0
        0x0000d71c:    40020000    ...@    DCD    1073872896
        0x0000d720:    00010824    $...    DCD    67620
        0x0000d724:    f0000fe0    ....    DCD    4026535904
        0x0000d728:    f0000fe4    ....    DCD    4026535908
        0x0000d72c:    f0000ffc    ....    DCD    4026535932
        0x0000d730:    f0000ff8    ....    DCD    4026535928
        0x0000d734:    f0000ff4    ....    DCD    4026535924
        0x0000d738:    f0000ff0    ....    DCD    4026535920
    $t
    i.am_hal_pwrctrl_low_power_init
    am_hal_pwrctrl_low_power_init
        0x0000d73c:    b5f8        ..      PUSH     {r3-r7,lr}
        0x0000d73e:    4851        QH      LDR      r0,[pc,#324] ; [0xd884] = 0x10001100
        0x0000d740:    6801        .h      LDR      r1,[r0,#0]
        0x0000d742:    b911        ..      CBNZ     r1,0xd74a ; am_hal_pwrctrl_low_power_init + 14
        0x0000d744:    4950        PI      LDR      r1,[pc,#320] ; [0xd888] = 0x4ffff000
        0x0000d746:    6809        .h      LDR      r1,[r1,#0]
        0x0000d748:    6001        .`      STR      r1,[r0,#0]
        0x0000d74a:    4c50        PL      LDR      r4,[pc,#320] ; [0xd88c] = 0x40020000
        0x0000d74c:    68e0        .h      LDR      r0,[r4,#0xc]
        0x0000d74e:    2601        .&      MOVS     r6,#1
        0x0000d750:    b2c0        ..      UXTB     r0,r0
        0x0000d752:    2821        !(      CMP      r0,#0x21
        0x0000d754:    d302        ..      BCC      0xd75c ; am_hal_pwrctrl_low_power_init + 32
        0x0000d756:    484e        NH      LDR      r0,[pc,#312] ; [0xd890] = 0x10001098
        0x0000d758:    7801        .x      LDRB     r1,[r0,#0]
        0x0000d75a:    b199        ..      CBZ      r1,0xd784 ; am_hal_pwrctrl_low_power_init + 72
        0x0000d75c:    68e0        .h      LDR      r0,[r4,#0xc]
        0x0000d75e:    b2c0        ..      UXTB     r0,r0
        0x0000d760:    2812        .(      CMP      r0,#0x12
        0x0000d762:    d305        ..      BCC      0xd770 ; am_hal_pwrctrl_low_power_init + 52
        0x0000d764:    f8d4035c    ..\.    LDR      r0,[r4,#0x35c]
        0x0000d768:    f0207080     ..p    BIC      r0,r0,#0x1000000
        0x0000d76c:    f8c4035c    ..\.    STR      r0,[r4,#0x35c]
        0x0000d770:    2100        .!      MOVS     r1,#0
        0x0000d772:    200c        .       MOVS     r0,#0xc
        0x0000d774:    f7fff920    .. .    BL       am_hal_cachectrl_control ; 0xc9b8
        0x0000d778:    4d46        FM      LDR      r5,[pc,#280] ; [0xd894] = 0x40021000
        0x0000d77a:    69a8        .i      LDR      r0,[r5,#0x18]
        0x0000d77c:    f4107f80    ....    TST      r0,#0x100
        0x0000d780:    d047        G.      BEQ      0xd812 ; am_hal_pwrctrl_low_power_init + 214
        0x0000d782:    e07d        }.      B        0xd880 ; am_hal_pwrctrl_low_power_init + 324
        0x0000d784:    7006        .p      STRB     r6,[r0,#0]
        0x0000d786:    f8d40350    ..P.    LDR      r0,[r4,#0x350]
        0x0000d78a:    f3c05085    ...P    UBFX     r0,r0,#22,#6
        0x0000d78e:    280c        .(      CMP      r0,#0xc
        0x0000d790:    bf8c        ..      ITE      HI
        0x0000d792:    380c        .8      SUBHI    r0,r0,#0xc
        0x0000d794:    2000        .       MOVLS    r0,#0
        0x0000d796:    f8d41350    ..P.    LDR      r1,[r4,#0x350]
        0x0000d79a:    f360519b    `..Q    BFI      r1,r0,#22,#6
        0x0000d79e:    f8c41350    ..P.    STR      r1,[r4,#0x350]
        0x0000d7a2:    f8d40354    ..T.    LDR      r0,[r4,#0x354]
        0x0000d7a6:    f4200070     .p.    BIC      r0,r0,#0xf00000
        0x0000d7aa:    f5000000    ....    ADD      r0,r0,#0x800000
        0x0000d7ae:    f8c40354    ..T.    STR      r0,[r4,#0x354]
        0x0000d7b2:    f8d40354    ..T.    LDR      r0,[r4,#0x354]
        0x0000d7b6:    f4202070     .p     BIC      r0,r0,#0xf0000
        0x0000d7ba:    f50020a0    ...     ADD      r0,r0,#0x50000
        0x0000d7be:    f8c40354    ..T.    STR      r0,[r4,#0x354]
        0x0000d7c2:    f8d4035c    ..\.    LDR      r0,[r4,#0x35c]
        0x0000d7c6:    f020000f     ...    BIC      r0,r0,#0xf
        0x0000d7ca:    3008        .0      ADDS     r0,r0,#8
        0x0000d7cc:    f8c4035c    ..\.    STR      r0,[r4,#0x35c]
        0x0000d7d0:    f8d40358    ..X.    LDR      r0,[r4,#0x358]
        0x0000d7d4:    f02040f0     ..@    BIC      r0,r0,#0x78000000
        0x0000d7d8:    f1005040    ..@P    ADD      r0,r0,#0x30000000
        0x0000d7dc:    f8c40358    ..X.    STR      r0,[r4,#0x358]
        0x0000d7e0:    f8d4035c    ..\.    LDR      r0,[r4,#0x35c]
        0x0000d7e4:    f4400000    @...    ORR      r0,r0,#0x800000
        0x0000d7e8:    f8c4035c    ..\.    STR      r0,[r4,#0x35c]
        0x0000d7ec:    f8d4035c    ..\.    LDR      r0,[r4,#0x35c]
        0x0000d7f0:    f0207080     ..p    BIC      r0,r0,#0x1000000
        0x0000d7f4:    f8c4035c    ..\.    STR      r0,[r4,#0x35c]
        0x0000d7f8:    f8d40354    ..T.    LDR      r0,[r4,#0x354]
        0x0000d7fc:    f0405040    @.@P    ORR      r0,r0,#0x30000000
        0x0000d800:    f8c40354    ..T.    STR      r0,[r4,#0x354]
        0x0000d804:    f8d40354    ..T.    LDR      r0,[r4,#0x354]
        0x0000d808:    f040001f    @...    ORR      r0,r0,#0x1f
        0x0000d80c:    f8c40354    ..T.    STR      r0,[r4,#0x354]
        0x0000d810:    e7a4        ..      B        0xd75c ; am_hal_pwrctrl_low_power_init + 32
        0x0000d812:    68e0        .h      LDR      r0,[r4,#0xc]
        0x0000d814:    b2c0        ..      UXTB     r0,r0
        0x0000d816:    2812        .(      CMP      r0,#0x12
        0x0000d818:    d31a        ..      BCC      0xd850 ; am_hal_pwrctrl_low_power_init + 276
        0x0000d81a:    f7fefd5f    .._.    BL       am_hal_interrupt_master_disable ; 0xc2dc
        0x0000d81e:    9000        ..      STR      r0,[sp,#0]
        0x0000d820:    f8d40368    ..h.    LDR      r0,[r4,#0x368]
        0x0000d824:    f420607c     .|`    BIC      r0,r0,#0xfc0
        0x0000d828:    f50060c8    ...`    ADD      r0,r0,#0x640
        0x0000d82c:    f8c40368    ..h.    STR      r0,[r4,#0x368]
        0x0000d830:    f8d40368    ..h.    LDR      r0,[r4,#0x368]
        0x0000d834:    f020003f     .?.    BIC      r0,r0,#0x3f
        0x0000d838:    300c        .0      ADDS     r0,r0,#0xc
        0x0000d83a:    f8c40368    ..h.    STR      r0,[r4,#0x368]
        0x0000d83e:    f04f2040    O.@     MOV      r0,#0x40004000
        0x0000d842:    6bc1        .k      LDR      r1,[r0,#0x3c]
        0x0000d844:    f4210180    !...    BIC      r1,r1,#0x400000
        0x0000d848:    63c1        .c      STR      r1,[r0,#0x3c]
        0x0000d84a:    9800        ..      LDR      r0,[sp,#0]
        0x0000d84c:    f7fefd4a    ..J.    BL       am_hal_interrupt_master_set ; 0xc2e4
        0x0000d850:    69a0        .i      LDR      r0,[r4,#0x18]
        0x0000d852:    f0400001    @...    ORR      r0,r0,#1
        0x0000d856:    61a0        .a      STR      r0,[r4,#0x18]
        0x0000d858:    2307        .#      MOVS     r3,#7
        0x0000d85a:    461a        .F      MOV      r2,r3
        0x0000d85c:    490e        .I      LDR      r1,[pc,#56] ; [0xd898] = 0x40020018
        0x0000d85e:    f2427010    B..p    MOV      r0,#0x2710
        0x0000d862:    9600        ..      STR      r6,[sp,#0]
        0x0000d864:    f7fffb74    ..t.    BL       am_hal_flash_delay_status_check ; 0xcf50
        0x0000d868:    2800        .(      CMP      r0,#0
        0x0000d86a:    bf1c        ..      ITT      NE
        0x0000d86c:    2004        .       MOVNE    r0,#4
        0x0000d86e:    bdf8        ..      POPNE    {r3-r7,pc}
        0x0000d870:    6828        (h      LDR      r0,[r5,#0]
        0x0000d872:    f0400001    @...    ORR      r0,r0,#1
        0x0000d876:    6028        (`      STR      r0,[r5,#0]
        0x0000d878:    6a68        hj      LDR      r0,[r5,#0x24]
        0x0000d87a:    f0400040    @.@.    ORR      r0,r0,#0x40
        0x0000d87e:    6268        hb      STR      r0,[r5,#0x24]
        0x0000d880:    2000        .       MOVS     r0,#0
        0x0000d882:    bdf8        ..      POP      {r3-r7,pc}
    $d
        0x0000d884:    10001100    ....    DCD    268439808
        0x0000d888:    4ffff000    ...O    DCD    1342173184
        0x0000d88c:    40020000    ...@    DCD    1073872896
        0x0000d890:    10001098    ....    DCD    268439704
        0x0000d894:    40021000    ...@    DCD    1073876992
        0x0000d898:    40020018    ...@    DCD    1073872920
    $t
    i.am_hal_pwrctrl_memory_enable
    am_hal_pwrctrl_memory_enable
        0x0000d89c:    e92d41f0    -..A    PUSH     {r4-r8,lr}
        0x0000d8a0:    4917        .I      LDR      r1,[pc,#92] ; [0xd900] = 0x10970
        0x0000d8a2:    eb000240    ..@.    ADD      r2,r0,r0,LSL #1
        0x0000d8a6:    eb0106c2    ....    ADD      r6,r1,r2,LSL #3
        0x0000d8aa:    f8515032    Q.2P    LDR      r5,[r1,r2,LSL #3]
        0x0000d8ae:    e9d61703    ....    LDRD     r1,r7,[r6,#0xc]
        0x0000d8b2:    4c14        .L      LDR      r4,[pc,#80] ; [0xd904] = 0x40021000
        0x0000d8b4:    43e8        .C      MVNS     r0,r5
        0x0000d8b6:    d009        ..      BEQ      0xd8cc ; am_hal_pwrctrl_memory_enable + 48
        0x0000d8b8:    6922        "i      LDR      r2,[r4,#0x10]
        0x0000d8ba:    4008        .@      ANDS     r0,r0,r1
        0x0000d8bc:    1461        a.      ASRS     r1,r4,#17
        0x0000d8be:    ea610000    a...    ORN      r0,r1,r0
        0x0000d8c2:    4010        .@      ANDS     r0,r0,r2
        0x0000d8c4:    6120         a      STR      r0,[r4,#0x10]
        0x0000d8c6:    2010        .       MOVS     r0,#0x10
        0x0000d8c8:    f7fffb30    ..0.    BL       am_hal_flash_delay ; 0xcf2c
        0x0000d8cc:    b175        u.      CBZ      r5,0xd8ec ; am_hal_pwrctrl_memory_enable + 80
        0x0000d8ce:    6920         i      LDR      r0,[r4,#0x10]
        0x0000d8d0:    4328        (C      ORRS     r0,r0,r5
        0x0000d8d2:    6120         a      STR      r0,[r4,#0x10]
        0x0000d8d4:    2500        .%      MOVS     r5,#0
        0x0000d8d6:    20a0        .       MOVS     r0,#0xa0
        0x0000d8d8:    f7fffb28    ..(.    BL       am_hal_flash_delay ; 0xcf2c
        0x0000d8dc:    6960        `i      LDR      r0,[r4,#0x14]
        0x0000d8de:    6871        qh      LDR      r1,[r6,#4]
        0x0000d8e0:    4038        8@      ANDS     r0,r0,r7
        0x0000d8e2:    4288        .B      CMP      r0,r1
        0x0000d8e4:    bf1c        ..      ITT      NE
        0x0000d8e6:    350a        .5      ADDNE    r5,r5,#0xa
        0x0000d8e8:    2d14        .-      CMPNE    r5,#0x14
        0x0000d8ea:    d3f4        ..      BCC      0xd8d6 ; am_hal_pwrctrl_memory_enable + 58
        0x0000d8ec:    6960        `i      LDR      r0,[r4,#0x14]
        0x0000d8ee:    6871        qh      LDR      r1,[r6,#4]
        0x0000d8f0:    4038        8@      ANDS     r0,r0,r7
        0x0000d8f2:    4288        .B      CMP      r0,r1
        0x0000d8f4:    bf0c        ..      ITE      EQ
        0x0000d8f6:    2000        .       MOVEQ    r0,#0
        0x0000d8f8:    2001        .       MOVNE    r0,#1
        0x0000d8fa:    e8bd81f0    ....    POP      {r4-r8,pc}
    $d
        0x0000d8fe:    0000        ..      DCW    0
        0x0000d900:    00010970    p...    DCD    67952
        0x0000d904:    40021000    ...@    DCD    1073876992
    $t
    i.am_hal_rtc_osc_disable
    am_hal_rtc_osc_disable
        0x0000d908:    f04f2040    O.@     MOV      r0,#0x40004000
        0x0000d90c:    f8d01250    ..P.    LDR      r1,[r0,#0x250]
        0x0000d910:    f0410110    A...    ORR      r1,r1,#0x10
        0x0000d914:    f8c01250    ..P.    STR      r1,[r0,#0x250]
        0x0000d918:    4770        pG      BX       lr
        0x0000d91a:    0000        ..      MOVS     r0,r0
    i.am_hal_stimer_compare_delta_set
    am_hal_stimer_compare_delta_set
        0x0000d91c:    2807        .(      CMP      r0,#7
        0x0000d91e:    bf84        ..      ITT      HI
        0x0000d920:    2005        .       MOVHI    r0,#5
        0x0000d922:    4770        pG      BXHI     lr
        0x0000d924:    e92d47f0    -..G    PUSH     {r4-r10,lr}
        0x0000d928:    b084        ..      SUB      sp,sp,#0x10
        0x0000d92a:    460e        .F      MOV      r6,r1
        0x0000d92c:    4605        .F      MOV      r5,r0
        0x0000d92e:    f7fefcd5    ....    BL       am_hal_interrupt_master_disable ; 0xc2dc
        0x0000d932:    4f1e        .O      LDR      r7,[pc,#120] ; [0xd9ac] = 0x40008000
        0x0000d934:    9000        ..      STR      r0,[sp,#0]
        0x0000d936:    f8d7a140    ..@.    LDR      r10,[r7,#0x140]
        0x0000d93a:    f8d71140    ..@.    LDR      r1,[r7,#0x140]
        0x0000d93e:    15b8        ..      ASRS     r0,r7,#22
        0x0000d940:    fa00f905    ....    LSL      r9,r0,r5
        0x0000d944:    ea210009    !...    BIC      r0,r1,r9
        0x0000d948:    f8c70140    ..@.    STR      r0,[r7,#0x140]
        0x0000d94c:    2401        .$      MOVS     r4,#1
        0x0000d94e:    f8df8060    ..`.    LDR      r8,[pc,#96] ; [0xd9b0] = 0x40008144
        0x0000d952:    00a8        ..      LSLS     r0,r5,#2
        0x0000d954:    19c5        ..      ADDS     r5,r0,r7
        0x0000d956:    4640        @F      MOV      r0,r8
        0x0000d958:    a901        ..      ADD      r1,sp,#4
        0x0000d95a:    f7fefcad    ....    BL       am_hal_triple_read ; 0xc2b8
        0x0000d95e:    e9dd0101    ....    LDRD     r0,r1,[sp,#4]
        0x0000d962:    4288        .B      CMP      r0,r1
        0x0000d964:    bf0c        ..      ITE      EQ
        0x0000d966:    4608        .F      MOVEQ    r0,r1
        0x0000d968:    9803        ..      LDRNE    r0,[sp,#0xc]
        0x0000d96a:    4430        0D      ADD      r0,r0,r6
        0x0000d96c:    f100020a    ....    ADD      r2,r0,#0xa
        0x0000d970:    f8c56150    ..Pa    STR      r6,[r5,#0x150]
        0x0000d974:    f8d51150    ..P.    LDR      r1,[r5,#0x150]
        0x0000d978:    1a08        ..      SUBS     r0,r1,r0
        0x0000d97a:    d402        ..      BMI      0xd982 ; am_hal_stimer_compare_delta_set + 102
        0x0000d97c:    1a88        ..      SUBS     r0,r1,r2
        0x0000d97e:    2800        .(      CMP      r0,#0
        0x0000d980:    dd03        ..      BLE      0xd98a ; am_hal_stimer_compare_delta_set + 110
        0x0000d982:    4620         F      MOV      r0,r4
        0x0000d984:    1c64        d.      ADDS     r4,r4,#1
        0x0000d986:    2804        .(      CMP      r0,#4
        0x0000d988:    d3e5        ..      BCC      0xd956 ; am_hal_stimer_compare_delta_set + 58
        0x0000d98a:    f8d70140    ..@.    LDR      r0,[r7,#0x140]
        0x0000d98e:    ea09010a    ....    AND      r1,r9,r10
        0x0000d992:    4308        .C      ORRS     r0,r0,r1
        0x0000d994:    f8c70140    ..@.    STR      r0,[r7,#0x140]
        0x0000d998:    9800        ..      LDR      r0,[sp,#0]
        0x0000d99a:    f7fefca3    ....    BL       am_hal_interrupt_master_set ; 0xc2e4
        0x0000d99e:    2c04        .,      CMP      r4,#4
        0x0000d9a0:    bf2c        ,.      ITE      CS
        0x0000d9a2:    2001        .       MOVCS    r0,#1
        0x0000d9a4:    2000        .       MOVCC    r0,#0
        0x0000d9a6:    b004        ..      ADD      sp,sp,#0x10
        0x0000d9a8:    e8bd87f0    ....    POP      {r4-r10,pc}
    $d
        0x0000d9ac:    40008000    ...@    DCD    1073774592
        0x0000d9b0:    40008144    D..@    DCD    1073774916
    $t
    i.am_hal_stimer_config
    am_hal_stimer_config
        0x0000d9b4:    4903        .I      LDR      r1,[pc,#12] ; [0xd9c4] = 0x40008000
        0x0000d9b6:    f8d12140    ..@!    LDR      r2,[r1,#0x140]
        0x0000d9ba:    f8c10140    ..@.    STR      r0,[r1,#0x140]
        0x0000d9be:    4610        .F      MOV      r0,r2
        0x0000d9c0:    4770        pG      BX       lr
    $d
        0x0000d9c2:    0000        ..      DCW    0
        0x0000d9c4:    40008000    ...@    DCD    1073774592
    $t
    i.am_hal_stimer_counter_get
    am_hal_stimer_counter_get
        0x0000d9c8:    b500        ..      PUSH     {lr}
        0x0000d9ca:    b083        ..      SUB      sp,sp,#0xc
        0x0000d9cc:    4805        .H      LDR      r0,[pc,#20] ; [0xd9e4] = 0x40008144
        0x0000d9ce:    4669        iF      MOV      r1,sp
        0x0000d9d0:    f7fefc72    ..r.    BL       am_hal_triple_read ; 0xc2b8
        0x0000d9d4:    e9dd0100    ....    LDRD     r0,r1,[sp,#0]
        0x0000d9d8:    4288        .B      CMP      r0,r1
        0x0000d9da:    bf0c        ..      ITE      EQ
        0x0000d9dc:    4608        .F      MOVEQ    r0,r1
        0x0000d9de:    9802        ..      LDRNE    r0,[sp,#8]
        0x0000d9e0:    b003        ..      ADD      sp,sp,#0xc
        0x0000d9e2:    bd00        ..      POP      {pc}
    $d
        0x0000d9e4:    40008144    D..@    DCD    1073774916
    $t
    i.am_hal_stimer_int_clear
    am_hal_stimer_int_clear
        0x0000d9e8:    4901        .I      LDR      r1,[pc,#4] ; [0xd9f0] = 0x40008000
        0x0000d9ea:    f8c10308    ....    STR      r0,[r1,#0x308]
        0x0000d9ee:    4770        pG      BX       lr
    $d
        0x0000d9f0:    40008000    ...@    DCD    1073774592
    $t
    i.am_hal_stimer_int_enable
    am_hal_stimer_int_enable
        0x0000d9f4:    4903        .I      LDR      r1,[pc,#12] ; [0xda04] = 0x40008000
        0x0000d9f6:    f8d12300    ...#    LDR      r2,[r1,#0x300]
        0x0000d9fa:    4310        .C      ORRS     r0,r0,r2
        0x0000d9fc:    f8c10300    ....    STR      r0,[r1,#0x300]
        0x0000da00:    4770        pG      BX       lr
    $d
        0x0000da02:    0000        ..      DCW    0
        0x0000da04:    40008000    ...@    DCD    1073774592
    $t
    i.am_hal_stimer_int_status_get
    am_hal_stimer_int_status_get
        0x0000da08:    4904        .I      LDR      r1,[pc,#16] ; [0xda1c] = 0x40008000
        0x0000da0a:    0002        ..      MOVS     r2,r0
        0x0000da0c:    f8d10304    ....    LDR      r0,[r1,#0x304]
        0x0000da10:    bf1c        ..      ITT      NE
        0x0000da12:    f8d11300    ....    LDRNE    r1,[r1,#0x300]
        0x0000da16:    4008        .@      ANDNE    r0,r0,r1
        0x0000da18:    4770        pG      BX       lr
    $d
        0x0000da1a:    0000        ..      DCW    0
        0x0000da1c:    40008000    ...@    DCD    1073774592
    $t
    i.am_hal_sysctrl_fpu_enable
    am_hal_sysctrl_fpu_enable
        0x0000da20:    4902        .I      LDR      r1,[pc,#8] ; [0xda2c] = 0xe000ed88
        0x0000da22:    f44f0070    O.p.    MOV      r0,#0xf00000
        0x0000da26:    6008        .`      STR      r0,[r1,#0]
        0x0000da28:    4770        pG      BX       lr
    $d
        0x0000da2a:    0000        ..      DCW    0
        0x0000da2c:    e000ed88    ....    DCD    3758157192
    $t
    i.am_hal_sysctrl_fpu_stacking_enable
    am_hal_sysctrl_fpu_stacking_enable
        0x0000da30:    b538        8.      PUSH     {r3-r5,lr}
        0x0000da32:    4604        .F      MOV      r4,r0
        0x0000da34:    f7fefc52    ..R.    BL       am_hal_interrupt_master_disable ; 0xc2dc
        0x0000da38:    9000        ..      STR      r0,[sp,#0]
        0x0000da3a:    4808        .H      LDR      r0,[pc,#32] ; [0xda5c] = 0xe000ef34
        0x0000da3c:    6801        .h      LDR      r1,[r0,#0]
        0x0000da3e:    2c00        .,      CMP      r4,#0
        0x0000da40:    f0214140    !.@A    BIC      r1,r1,#0xc0000000
        0x0000da44:    bf14        ..      ITE      NE
        0x0000da46:    f04f4240    O.@B    MOVNE    r2,#0xc0000000
        0x0000da4a:    f04f4200    O..B    MOVEQ    r2,#0x80000000
        0x0000da4e:    4311        .C      ORRS     r1,r1,r2
        0x0000da50:    6001        .`      STR      r1,[r0,#0]
        0x0000da52:    9800        ..      LDR      r0,[sp,#0]
        0x0000da54:    e8bd4038    ..8@    POP      {r3-r5,lr}
        0x0000da58:    f7febc44    ..D.    B        am_hal_interrupt_master_set ; 0xc2e4
    $d
        0x0000da5c:    e000ef34    4...    DCD    3758157620
    $t
    i.am_hal_sysctrl_sleep
    am_hal_sysctrl_sleep
        0x0000da60:    e92d41f0    -..A    PUSH     {r4-r8,lr}
        0x0000da64:    b082        ..      SUB      sp,sp,#8
        0x0000da66:    4605        .F      MOV      r5,r0
        0x0000da68:    f7fefc38    ..8.    BL       am_hal_interrupt_master_disable ; 0xc2dc
        0x0000da6c:    4f33        3O      LDR      r7,[pc,#204] ; [0xdb3c] = 0x1000109c
        0x0000da6e:    9001        ..      STR      r0,[sp,#4]
        0x0000da70:    6838        8h      LDR      r0,[r7,#0]
        0x0000da72:    1c40        @.      ADDS     r0,r0,#1
        0x0000da74:    6038        8`      STR      r0,[r7,#0]
        0x0000da76:    f04f2040    O.@     MOV      r0,#0x40004000
        0x0000da7a:    6b40        @k      LDR      r0,[r0,#0x34]
        0x0000da7c:    f0100f04    ....    TST      r0,#4
        0x0000da80:    bf08        ..      IT       EQ
        0x0000da82:    f04f0800    O...    MOVEQ    r8,#0
        0x0000da86:    d00b        ..      BEQ      0xdaa0 ; am_hal_sysctrl_sleep + 64
        0x0000da88:    f04f0801    O...    MOV      r8,#1
        0x0000da8c:    4668        hF      MOV      r0,sp
        0x0000da8e:    f7feff0f    ....    BL       am_hal_burst_mode_disable ; 0xc8b0
        0x0000da92:    2800        .(      CMP      r0,#0
        0x0000da94:    bf04        ..      ITT      EQ
        0x0000da96:    f89d0000    ....    LDRBEQ   r0,[sp,#0]
        0x0000da9a:    2801        .(      CMPEQ    r0,#1
        0x0000da9c:    d000        ..      BEQ      0xdaa0 ; am_hal_sysctrl_sleep + 64
        0x0000da9e:    e7fe        ..      B        0xda9e ; am_hal_sysctrl_sleep + 62
        0x0000daa0:    4c27        'L      LDR      r4,[pc,#156] ; [0xdb40] = 0xe000ed10
        0x0000daa2:    b12d        -.      CBZ      r5,0xdab0 ; am_hal_sysctrl_sleep + 80
        0x0000daa4:    4d27        'M      LDR      r5,[pc,#156] ; [0xdb44] = 0x40020000
        0x0000daa6:    f8d50250    ..P.    LDR      r0,[r5,#0x250]
        0x0000daaa:    f0100f01    ....    TST      r0,#1
        0x0000daae:    d003        ..      BEQ      0xdab8 ; am_hal_sysctrl_sleep + 88
        0x0000dab0:    6820         h      LDR      r0,[r4,#0]
        0x0000dab2:    f0200004     ...    BIC      r0,r0,#4
        0x0000dab6:    e02c        ,.      B        0xdb12 ; am_hal_sysctrl_sleep + 178
        0x0000dab8:    4823        #H      LDR      r0,[pc,#140] ; [0xdb48] = 0x10001100
        0x0000daba:    6801        .h      LDR      r1,[r0,#0]
        0x0000dabc:    b911        ..      CBNZ     r1,0xdac4 ; am_hal_sysctrl_sleep + 100
        0x0000dabe:    4923        #I      LDR      r1,[pc,#140] ; [0xdb4c] = 0x4ffff000
        0x0000dac0:    6809        .h      LDR      r1,[r1,#0]
        0x0000dac2:    6001        .`      STR      r1,[r0,#0]
        0x0000dac4:    f8d56350    ..Pc    LDR      r6,[r5,#0x350]
        0x0000dac8:    f3c64005    ...@    UBFX     r0,r6,#16,#6
        0x0000dacc:    f1000009    ....    ADD      r0,r0,#9
        0x0000dad0:    283f        ?(      CMP      r0,#0x3f
        0x0000dad2:    bf88        ..      IT       HI
        0x0000dad4:    203f        ?       MOVHI    r0,#0x3f
        0x0000dad6:    f44f117c    O.|.    MOV      r1,#0x3f0000
        0x0000dada:    ea014100    ...A    AND      r1,r1,r0,LSL #16
        0x0000dade:    f3c60009    ....    UBFX     r0,r6,#0,#10
        0x0000dae2:    3018        .0      ADDS     r0,r0,#0x18
        0x0000dae4:    f5b06f80    ...o    CMP      r0,#0x400
        0x0000dae8:    bf28        (.      IT       CS
        0x0000daea:    f24030ff    @..0    MOVCS    r0,#0x3ff
        0x0000daee:    f3c00009    ....    UBFX     r0,r0,#0,#10
        0x0000daf2:    4a17        .J      LDR      r2,[pc,#92] ; [0xdb50] = 0x3f03ff
        0x0000daf4:    ea260202    &...    BIC      r2,r6,r2
        0x0000daf8:    4311        .C      ORRS     r1,r1,r2
        0x0000dafa:    4308        .C      ORRS     r0,r0,r1
        0x0000dafc:    f8c50350    ..P.    STR      r0,[r5,#0x350]
        0x0000db00:    f44f70a0    O..p    MOV      r0,#0x140
        0x0000db04:    f7fffa12    ....    BL       am_hal_flash_delay ; 0xcf2c
        0x0000db08:    f8c56350    ..Pc    STR      r6,[r5,#0x350]
        0x0000db0c:    6820         h      LDR      r0,[r4,#0]
        0x0000db0e:    f0400004    @...    ORR      r0,r0,#4
        0x0000db12:    6020         `      STR      r0,[r4,#0]
        0x0000db14:    f3bf8f4f    ..O.    DSB      
        0x0000db18:    480e        .H      LDR      r0,[pc,#56] ; [0xdb54] = 0x5fff0000
        0x0000db1a:    6800        .h      LDR      r0,[r0,#0]
        0x0000db1c:    6078        x`      STR      r0,[r7,#4]
        0x0000db1e:    bf30        0.      WFI      
        0x0000db20:    f3bf8f6f    ..o.    ISB      
        0x0000db24:    f1b80f00    ....    CMP      r8,#0
        0x0000db28:    bf1c        ..      ITT      NE
        0x0000db2a:    4668        hF      MOVNE    r0,sp
        0x0000db2c:    f7fefeee    ....    BLNE     am_hal_burst_mode_enable ; 0xc90c
        0x0000db30:    9801        ..      LDR      r0,[sp,#4]
        0x0000db32:    f7fefbd7    ....    BL       am_hal_interrupt_master_set ; 0xc2e4
        0x0000db36:    b002        ..      ADD      sp,sp,#8
        0x0000db38:    e8bd81f0    ....    POP      {r4-r8,pc}
    $d
        0x0000db3c:    1000109c    ....    DCD    268439708
        0x0000db40:    e000ed10    ....    DCD    3758157072
        0x0000db44:    40020000    ...@    DCD    1073872896
        0x0000db48:    10001100    ....    DCD    268439808
        0x0000db4c:    4ffff000    ...O    DCD    1342173184
        0x0000db50:    003f03ff    ..?.    DCD    4129791
        0x0000db54:    5fff0000    ..._    DCD    1610547200
    $t
    i.am_hal_tpiu_enable
    am_hal_tpiu_enable
        0x0000db58:    e92d41f0    -..A    PUSH     {r4-r8,lr}
        0x0000db5c:    4c1d        .L      LDR      r4,[pc,#116] ; [0xdbd4] = 0xe0040000
        0x0000db5e:    b084        ..      SUB      sp,sp,#0x10
        0x0000db60:    2600        .&      MOVS     r6,#0
        0x0000db62:    6805        .h      LDR      r5,[r0,#0]
        0x0000db64:    f8c46304    ...c    STR      r6,[r4,#0x304]
        0x0000db68:    4f1b        .O      LDR      r7,[pc,#108] ; [0xdbd8] = 0xe0040f00
        0x0000db6a:    f8df8070    ..p.    LDR      r8,[pc,#112] ; [0xdbdc] = 0x40020000
        0x0000db6e:    2101        .!      MOVS     r1,#1
        0x0000db70:    b31d        ..      CBZ      r5,0xdbba ; am_hal_tpiu_enable + 98
        0x0000db72:    6061        a`      STR      r1,[r4,#4]
        0x0000db74:    491a        .I      LDR      r1,[pc,#104] ; [0xdbe0] = 0x1da381
        0x0000db76:    f5a54061    ..a@    SUB      r0,r5,#0xe100
        0x0000db7a:    4288        .B      CMP      r0,r1
        0x0000db7c:    bf28        (.      IT       CS
        0x0000db7e:    4d19        .M      LDRCS    r5,[pc,#100] ; [0xdbe4] = 0xf4240
        0x0000db80:    4668        hF      MOV      r0,sp
        0x0000db82:    f7fff977    ..w.    BL       am_hal_clkgen_status_get ; 0xce74
        0x0000db86:    9800        ..      LDR      r0,[sp,#0]
        0x0000db88:    f1b03fff    ...?    CMP      r0,#0xffffffff
        0x0000db8c:    bf1d        ..      ITTTE    NE
        0x0000db8e:    08c0        ..      LSRNE    r0,r0,#3
        0x0000db90:    fbb0f0f5    ....    UDIVNE   r0,r0,r5
        0x0000db94:    1e40        @.      SUBNE    r0,r0,#1
        0x0000db96:    2005        .       MOVEQ    r0,#5
        0x0000db98:    b280        ..      UXTH     r0,r0
        0x0000db9a:    6120         a      STR      r0,[r4,#0x10]
        0x0000db9c:    2002        .       MOVS     r0,#2
        0x0000db9e:    f8c400f0    ....    STR      r0,[r4,#0xf0]
        0x0000dba2:    603e        >`      STR      r6,[r7,#0]
        0x0000dba4:    f2402001    @..     MOV      r0,#0x201
        0x0000dba8:    f8c80250    ..P.    STR      r0,[r8,#0x250]
        0x0000dbac:    f44f7048    O.Hp    MOV      r0,#0x320
        0x0000dbb0:    f7fff9bc    ....    BL       am_hal_flash_delay ; 0xcf2c
        0x0000dbb4:    b004        ..      ADD      sp,sp,#0x10
        0x0000dbb6:    e8bd81f0    ....    POP      {r4-r8,pc}
        0x0000dbba:    6902        .i      LDR      r2,[r0,#0x10]
        0x0000dbbc:    6122        "a      STR      r2,[r4,#0x10]
        0x0000dbbe:    6882        .h      LDR      r2,[r0,#8]
        0x0000dbc0:    f8c420f0    ...     STR      r2,[r4,#0xf0]
        0x0000dbc4:    7b02        .{      LDRB     r2,[r0,#0xc]
        0x0000dbc6:    1e52        R.      SUBS     r2,r2,#1
        0x0000dbc8:    4091        .@      LSLS     r1,r1,r2
        0x0000dbca:    6061        a`      STR      r1,[r4,#4]
        0x0000dbcc:    603e        >`      STR      r6,[r7,#0]
        0x0000dbce:    6840        @h      LDR      r0,[r0,#4]
        0x0000dbd0:    e7ea        ..      B        0xdba8 ; am_hal_tpiu_enable + 80
    $d
        0x0000dbd2:    0000        ..      DCW    0
        0x0000dbd4:    e0040000    ....    DCD    3758358528
        0x0000dbd8:    e0040f00    ....    DCD    3758362368
        0x0000dbdc:    40020000    ...@    DCD    1073872896
        0x0000dbe0:    001da381    ....    DCD    1942401
        0x0000dbe4:    000f4240    @B..    DCD    1000000
    $t
    i.am_stimer_cmpr0_isr
    am_stimer_cmpr0_isr
        0x0000dbe8:    b510        ..      PUSH     {r4,lr}
        0x0000dbea:    2000        .       MOVS     r0,#0
        0x0000dbec:    f7ffff0c    ....    BL       am_hal_stimer_int_status_get ; 0xda08
        0x0000dbf0:    f0100f01    ....    TST      r0,#1
        0x0000dbf4:    bf08        ..      IT       EQ
        0x0000dbf6:    bd10        ..      POPEQ    {r4,pc}
        0x0000dbf8:    2001        .       MOVS     r0,#1
        0x0000dbfa:    f7fffef5    ....    BL       am_hal_stimer_int_clear ; 0xd9e8
        0x0000dbfe:    e8bd4010    ...@    POP      {r4,lr}
        0x0000dc02:    2000        .       MOVS     r0,#0
        0x0000dc04:    f001bf76    ..v.    B.W      xPortStimerTickHandler ; 0xfaf4
    i.am_stimer_cmpr1_isr
    am_stimer_cmpr1_isr
        0x0000dc08:    b510        ..      PUSH     {r4,lr}
        0x0000dc0a:    2000        .       MOVS     r0,#0
        0x0000dc0c:    f7fffefc    ....    BL       am_hal_stimer_int_status_get ; 0xda08
        0x0000dc10:    f0100f02    ....    TST      r0,#2
        0x0000dc14:    bf08        ..      IT       EQ
        0x0000dc16:    bd10        ..      POPEQ    {r4,pc}
        0x0000dc18:    2002        .       MOVS     r0,#2
        0x0000dc1a:    f7fffee5    ....    BL       am_hal_stimer_int_clear ; 0xd9e8
        0x0000dc1e:    4804        .H      LDR      r0,[pc,#16] ; [0xdc30] = 0x1000100c
        0x0000dc20:    6981        .i      LDR      r1,[r0,#0x18]
        0x0000dc22:    1c49        I.      ADDS     r1,r1,#1
        0x0000dc24:    6181        .a      STR      r1,[r0,#0x18]
        0x0000dc26:    e8bd4010    ...@    POP      {r4,lr}
        0x0000dc2a:    2001        .       MOVS     r0,#1
        0x0000dc2c:    f001bf62    ..b.    B.W      xPortStimerTickHandler ; 0xfaf4
    $d
        0x0000dc30:    1000100c    ....    DCD    268439564
    $t
    i.am_util_delay_ms
    am_util_delay_ms
        0x0000dc34:    b510        ..      PUSH     {r4,lr}
        0x0000dc36:    b084        ..      SUB      sp,sp,#0x10
        0x0000dc38:    4604        .F      MOV      r4,r0
        0x0000dc3a:    4668        hF      MOV      r0,sp
        0x0000dc3c:    f7fff91a    ....    BL       am_hal_clkgen_status_get ; 0xce74
        0x0000dc40:    9800        ..      LDR      r0,[sp,#0]
        0x0000dc42:    f64031b8    @..1    MOV      r1,#0xbb8
        0x0000dc46:    fbb0f0f1    ....    UDIV     r0,r0,r1
        0x0000dc4a:    4360        `C      MULS     r0,r4,r0
        0x0000dc4c:    f7fff96e    ..n.    BL       am_hal_flash_delay ; 0xcf2c
        0x0000dc50:    b004        ..      ADD      sp,sp,#0x10
        0x0000dc52:    bd10        ..      POP      {r4,pc}
    i.am_util_faultisr_collect_data
    am_util_faultisr_collect_data
        0x0000dc54:    b092        ..      SUB      sp,sp,#0x48
        0x0000dc56:    4604        .F      MOV      r4,r0
        0x0000dc58:    2000        .       MOVS     r0,#0
        0x0000dc5a:    9000        ..      STR      r0,[sp,#0]
        0x0000dc5c:    9001        ..      STR      r0,[sp,#4]
        0x0000dc5e:    9002        ..      STR      r0,[sp,#8]
        0x0000dc60:    9003        ..      STR      r0,[sp,#0xc]
        0x0000dc62:    9004        ..      STR      r0,[sp,#0x10]
        0x0000dc64:    9005        ..      STR      r0,[sp,#0x14]
        0x0000dc66:    9010        ..      STR      r0,[sp,#0x40]
        0x0000dc68:    4864        dH      LDR      r0,[pc,#400] ; [0xddfc] = 0xe000ed28
        0x0000dc6a:    6800        .h      LDR      r0,[r0,#0]
        0x0000dc6c:    9010        ..      STR      r0,[sp,#0x40]
        0x0000dc6e:    9810        ..      LDR      r0,[sp,#0x40]
        0x0000dc70:    f88d0044    ..D.    STRB     r0,[sp,#0x44]
        0x0000dc74:    9810        ..      LDR      r0,[sp,#0x40]
        0x0000dc76:    0a00        ..      LSRS     r0,r0,#8
        0x0000dc78:    f88d0045    ..E.    STRB     r0,[sp,#0x45]
        0x0000dc7c:    9810        ..      LDR      r0,[sp,#0x40]
        0x0000dc7e:    0c00        ..      LSRS     r0,r0,#16
        0x0000dc80:    f8ad0046    ..F.    STRH     r0,[sp,#0x46]
        0x0000dc84:    485e        ^H      LDR      r0,[pc,#376] ; [0xde00] = 0xe000ed38
        0x0000dc86:    6800        .h      LDR      r0,[r0,#0]
        0x0000dc88:    900f        ..      STR      r0,[sp,#0x3c]
        0x0000dc8a:    f89d0045    ..E.    LDRB     r0,[sp,#0x45]
        0x0000dc8e:    f0100f02    ....    TST      r0,#2
        0x0000dc92:    bf08        ..      IT       EQ
        0x0000dc94:    f04f30ff    O..0    MOVEQ    r0,#0xffffffff
        0x0000dc98:    d003        ..      BEQ      0xdca2 ; am_util_faultisr_collect_data + 78
        0x0000dc9a:    4621        !F      MOV      r1,r4
        0x0000dc9c:    2006        .       MOVS     r0,#6
        0x0000dc9e:    f7fefb06    ....    BL       getStackedReg ; 0xc2ae
        0x0000dca2:    900e        ..      STR      r0,[sp,#0x38]
        0x0000dca4:    4621        !F      MOV      r1,r4
        0x0000dca6:    2000        .       MOVS     r0,#0
        0x0000dca8:    f7fefb01    ....    BL       getStackedReg ; 0xc2ae
        0x0000dcac:    9006        ..      STR      r0,[sp,#0x18]
        0x0000dcae:    4621        !F      MOV      r1,r4
        0x0000dcb0:    2001        .       MOVS     r0,#1
        0x0000dcb2:    f7fefafc    ....    BL       getStackedReg ; 0xc2ae
        0x0000dcb6:    9007        ..      STR      r0,[sp,#0x1c]
        0x0000dcb8:    4621        !F      MOV      r1,r4
        0x0000dcba:    2002        .       MOVS     r0,#2
        0x0000dcbc:    f7fefaf7    ....    BL       getStackedReg ; 0xc2ae
        0x0000dcc0:    9008        ..      STR      r0,[sp,#0x20]
        0x0000dcc2:    4621        !F      MOV      r1,r4
        0x0000dcc4:    2003        .       MOVS     r0,#3
        0x0000dcc6:    f7fefaf2    ....    BL       getStackedReg ; 0xc2ae
        0x0000dcca:    9009        ..      STR      r0,[sp,#0x24]
        0x0000dccc:    4621        !F      MOV      r1,r4
        0x0000dcce:    2004        .       MOVS     r0,#4
        0x0000dcd0:    f7fefaed    ....    BL       getStackedReg ; 0xc2ae
        0x0000dcd4:    900a        ..      STR      r0,[sp,#0x28]
        0x0000dcd6:    4621        !F      MOV      r1,r4
        0x0000dcd8:    2005        .       MOVS     r0,#5
        0x0000dcda:    f7fefae8    ....    BL       getStackedReg ; 0xc2ae
        0x0000dcde:    900b        ..      STR      r0,[sp,#0x2c]
        0x0000dce0:    4621        !F      MOV      r1,r4
        0x0000dce2:    2006        .       MOVS     r0,#6
        0x0000dce4:    f7fefae3    ....    BL       getStackedReg ; 0xc2ae
        0x0000dce8:    900c        ..      STR      r0,[sp,#0x30]
        0x0000dcea:    4621        !F      MOV      r1,r4
        0x0000dcec:    2007        .       MOVS     r0,#7
        0x0000dcee:    f7fefade    ....    BL       getStackedReg ; 0xc2ae
        0x0000dcf2:    900d        ..      STR      r0,[sp,#0x34]
        0x0000dcf4:    4669        iF      MOV      r1,sp
        0x0000dcf6:    2002        .       MOVS     r0,#2
        0x0000dcf8:    f7fffc84    ....    BL       am_hal_mcuctrl_info_get ; 0xd604
        0x0000dcfc:    a041        A.      ADR      r0,{pc}+0x108 ; 0xde04
        0x0000dcfe:    f000fa05    ....    BL       am_util_stdio_printf ; 0xe10c
        0x0000dd02:    9906        ..      LDR      r1,[sp,#0x18]
        0x0000dd04:    a046        F.      ADR      r0,{pc}+0x11c ; 0xde20
        0x0000dd06:    f000fa01    ....    BL       am_util_stdio_printf ; 0xe10c
        0x0000dd0a:    9907        ..      LDR      r1,[sp,#0x1c]
        0x0000dd0c:    a049        I.      ADR      r0,{pc}+0x128 ; 0xde34
        0x0000dd0e:    f000f9fd    ....    BL       am_util_stdio_printf ; 0xe10c
        0x0000dd12:    9908        ..      LDR      r1,[sp,#0x20]
        0x0000dd14:    a04c        L.      ADR      r0,{pc}+0x134 ; 0xde48
        0x0000dd16:    f000f9f9    ....    BL       am_util_stdio_printf ; 0xe10c
        0x0000dd1a:    9909        ..      LDR      r1,[sp,#0x24]
        0x0000dd1c:    a04f        O.      ADR      r0,{pc}+0x140 ; 0xde5c
        0x0000dd1e:    f000f9f5    ....    BL       am_util_stdio_printf ; 0xe10c
        0x0000dd22:    990a        ..      LDR      r1,[sp,#0x28]
        0x0000dd24:    a052        R.      ADR      r0,{pc}+0x14c ; 0xde70
        0x0000dd26:    f000f9f1    ....    BL       am_util_stdio_printf ; 0xe10c
        0x0000dd2a:    990b        ..      LDR      r1,[sp,#0x2c]
        0x0000dd2c:    a055        U.      ADR      r0,{pc}+0x158 ; 0xde84
        0x0000dd2e:    f000f9ed    ....    BL       am_util_stdio_printf ; 0xe10c
        0x0000dd32:    990c        ..      LDR      r1,[sp,#0x30]
        0x0000dd34:    a058        X.      ADR      r0,{pc}+0x164 ; 0xde98
        0x0000dd36:    f000f9e9    ....    BL       am_util_stdio_printf ; 0xe10c
        0x0000dd3a:    990d        ..      LDR      r1,[sp,#0x34]
        0x0000dd3c:    a05b        [.      ADR      r0,{pc}+0x170 ; 0xdeac
        0x0000dd3e:    f000f9e5    ....    BL       am_util_stdio_printf ; 0xe10c
        0x0000dd42:    a05f        _.      ADR      r0,{pc}+0x17e ; 0xdec0
        0x0000dd44:    f000f9e2    ....    BL       am_util_stdio_printf ; 0xe10c
        0x0000dd48:    990e        ..      LDR      r1,[sp,#0x38]
        0x0000dd4a:    a063        c.      ADR      r0,{pc}+0x18e ; 0xded8
        0x0000dd4c:    f000f9de    ....    BL       am_util_stdio_printf ; 0xe10c
        0x0000dd50:    990f        ..      LDR      r1,[sp,#0x3c]
        0x0000dd52:    a068        h.      ADR      r0,{pc}+0x1a2 ; 0xdef4
        0x0000dd54:    f000f9da    ....    BL       am_util_stdio_printf ; 0xe10c
        0x0000dd58:    f89d1044    ..D.    LDRB     r1,[sp,#0x44]
        0x0000dd5c:    a06f        o.      ADR      r0,{pc}+0x1c0 ; 0xdf1c
        0x0000dd5e:    f000f9d5    ....    BL       am_util_stdio_printf ; 0xe10c
        0x0000dd62:    f89d1045    ..E.    LDRB     r1,[sp,#0x45]
        0x0000dd66:    a079        y.      ADR      r0,{pc}+0x1e6 ; 0xdf4c
        0x0000dd68:    f000f9d0    ....    BL       am_util_stdio_printf ; 0xe10c
        0x0000dd6c:    f8bd1046    ..F.    LDRH     r1,[sp,#0x46]
        0x0000dd70:    a081        ..      ADR      r0,{pc}+0x208 ; 0xdf78
        0x0000dd72:    f000f9cb    ....    BL       am_util_stdio_printf ; 0xe10c
        0x0000dd76:    2480        .$      MOVS     r4,#0x80
        0x0000dd78:    f89d0045    ..E.    LDRB     r0,[sp,#0x45]
        0x0000dd7c:    4020         @      ANDS     r0,r0,r4
        0x0000dd7e:    2810        .(      CMP      r0,#0x10
        0x0000dd80:    bf08        ..      IT       EQ
        0x0000dd82:    a088        ..      ADREQ    r0,{pc}+0x222 ; 0xdfa4
        0x0000dd84:    d01d        ..      BEQ      0xddc2 ; am_util_faultisr_collect_data + 366
        0x0000dd86:    dc10        ..      BGT      0xddaa ; am_util_faultisr_collect_data + 342
        0x0000dd88:    2801        .(      CMP      r0,#1
        0x0000dd8a:    bf08        ..      IT       EQ
        0x0000dd8c:    a08c        ..      ADREQ    r0,{pc}+0x234 ; 0xdfc0
        0x0000dd8e:    d018        ..      BEQ      0xddc2 ; am_util_faultisr_collect_data + 366
        0x0000dd90:    2802        .(      CMP      r0,#2
        0x0000dd92:    bf08        ..      IT       EQ
        0x0000dd94:    a091        ..      ADREQ    r0,{pc}+0x248 ; 0xdfdc
        0x0000dd96:    d014        ..      BEQ      0xddc2 ; am_util_faultisr_collect_data + 366
        0x0000dd98:    2804        .(      CMP      r0,#4
        0x0000dd9a:    bf08        ..      IT       EQ
        0x0000dd9c:    a097        ..      ADREQ    r0,{pc}+0x260 ; 0xdffc
        0x0000dd9e:    d010        ..      BEQ      0xddc2 ; am_util_faultisr_collect_data + 366
        0x0000dda0:    2808        .(      CMP      r0,#8
        0x0000dda2:    bf08        ..      IT       EQ
        0x0000dda4:    a09d        ..      ADREQ    r0,{pc}+0x278 ; 0xe01c
        0x0000dda6:    d00c        ..      BEQ      0xddc2 ; am_util_faultisr_collect_data + 366
        0x0000dda8:    e00d        ..      B        0xddc6 ; am_util_faultisr_collect_data + 370
        0x0000ddaa:    2820         (      CMP      r0,#0x20
        0x0000ddac:    bf08        ..      IT       EQ
        0x0000ddae:    a0a3        ..      ADREQ    r0,{pc}+0x28e ; 0xe03c
        0x0000ddb0:    d007        ..      BEQ      0xddc2 ; am_util_faultisr_collect_data + 366
        0x0000ddb2:    2840        @(      CMP      r0,#0x40
        0x0000ddb4:    bf08        ..      IT       EQ
        0x0000ddb6:    a0a8        ..      ADREQ    r0,{pc}+0x2a2 ; 0xe058
        0x0000ddb8:    d003        ..      BEQ      0xddc2 ; am_util_faultisr_collect_data + 366
        0x0000ddba:    2880        .(      CMP      r0,#0x80
        0x0000ddbc:    bf08        ..      IT       EQ
        0x0000ddbe:    a0ae        ..      ADREQ    r0,{pc}+0x2ba ; 0xe078
        0x0000ddc0:    d101        ..      BNE      0xddc6 ; am_util_faultisr_collect_data + 370
        0x0000ddc2:    f000f9a3    ....    BL       am_util_stdio_printf ; 0xe10c
        0x0000ddc6:    0864        d.      LSRS     r4,r4,#1
        0x0000ddc8:    d1d6        ..      BNE      0xdd78 ; am_util_faultisr_collect_data + 292
        0x0000ddca:    a0b3        ..      ADR      r0,{pc}+0x2ce ; 0xe098
        0x0000ddcc:    f000f99e    ....    BL       am_util_stdio_printf ; 0xe10c
        0x0000ddd0:    f89d0000    ....    LDRB     r0,[sp,#0]
        0x0000ddd4:    b118        ..      CBZ      r0,0xddde ; am_util_faultisr_collect_data + 394
        0x0000ddd6:    a0b5        ..      ADR      r0,{pc}+0x2d6 ; 0xe0ac
        0x0000ddd8:    9901        ..      LDR      r1,[sp,#4]
        0x0000ddda:    f000f997    ....    BL       am_util_stdio_printf ; 0xe10c
        0x0000ddde:    f89d0008    ....    LDRB     r0,[sp,#8]
        0x0000dde2:    b118        ..      CBZ      r0,0xddec ; am_util_faultisr_collect_data + 408
        0x0000dde4:    a0b9        ..      ADR      r0,{pc}+0x2e8 ; 0xe0cc
        0x0000dde6:    9903        ..      LDR      r1,[sp,#0xc]
        0x0000dde8:    f000f990    ....    BL       am_util_stdio_printf ; 0xe10c
        0x0000ddec:    f89d0010    ....    LDRB     r0,[sp,#0x10]
        0x0000ddf0:    b118        ..      CBZ      r0,0xddfa ; am_util_faultisr_collect_data + 422
        0x0000ddf2:    a0be        ..      ADR      r0,{pc}+0x2fa ; 0xe0ec
        0x0000ddf4:    9905        ..      LDR      r1,[sp,#0x14]
        0x0000ddf6:    f000f989    ....    BL       am_util_stdio_printf ; 0xe10c
        0x0000ddfa:    e7fe        ..      B        0xddfa ; am_util_faultisr_collect_data + 422
    $d
        0x0000ddfc:    e000ed28    (...    DCD    3758157096
        0x0000de00:    e000ed38    8...    DCD    3758157112
        0x0000de04:    64726148    Hard    DCD    1685217608
        0x0000de08:    75614620     Fau    DCD    1969309216
        0x0000de0c:    7320746c    lt s    DCD    1931506796
        0x0000de10:    6b636174    tack    DCD    1801675124
        0x0000de14:    64206465    ed d    DCD    1679844453
        0x0000de18:    3a617461    ata:    DCD    979465313
        0x0000de1c:    0000000a    ....    DCD    10
        0x0000de20:    20202020            DCD    538976288
        0x0000de24:    20203052    R0      DCD    538980434
        0x0000de28:    7830203d    = 0x    DCD    2016419901
        0x0000de2c:    58383025    %08X    DCD    1480077349
        0x0000de30:    0000000a    ....    DCD    10
        0x0000de34:    20202020            DCD    538976288
        0x0000de38:    20203152    R1      DCD    538980690
        0x0000de3c:    7830203d    = 0x    DCD    2016419901
        0x0000de40:    58383025    %08X    DCD    1480077349
        0x0000de44:    0000000a    ....    DCD    10
        0x0000de48:    20202020            DCD    538976288
        0x0000de4c:    20203252    R2      DCD    538980946
        0x0000de50:    7830203d    = 0x    DCD    2016419901
        0x0000de54:    58383025    %08X    DCD    1480077349
        0x0000de58:    0000000a    ....    DCD    10
        0x0000de5c:    20202020            DCD    538976288
        0x0000de60:    20203352    R3      DCD    538981202
        0x0000de64:    7830203d    = 0x    DCD    2016419901
        0x0000de68:    58383025    %08X    DCD    1480077349
        0x0000de6c:    0000000a    ....    DCD    10
        0x0000de70:    20202020            DCD    538976288
        0x0000de74:    20323152    R12     DCD    540160338
        0x0000de78:    7830203d    = 0x    DCD    2016419901
        0x0000de7c:    58383025    %08X    DCD    1480077349
        0x0000de80:    0000000a    ....    DCD    10
        0x0000de84:    20202020            DCD    538976288
        0x0000de88:    2020524c    LR      DCD    538989132
        0x0000de8c:    7830203d    = 0x    DCD    2016419901
        0x0000de90:    58383025    %08X    DCD    1480077349
        0x0000de94:    0000000a    ....    DCD    10
        0x0000de98:    20202020            DCD    538976288
        0x0000de9c:    20204350    PC      DCD    538985296
        0x0000dea0:    7830203d    = 0x    DCD    2016419901
        0x0000dea4:    58383025    %08X    DCD    1480077349
        0x0000dea8:    0000000a    ....    DCD    10
        0x0000deac:    20202020            DCD    538976288
        0x0000deb0:    20525350    PSR     DCD    542266192
        0x0000deb4:    7830203d    = 0x    DCD    2016419901
        0x0000deb8:    58383025    %08X    DCD    1480077349
        0x0000debc:    0000000a    ....    DCD    10
        0x0000dec0:    6568744f    Othe    DCD    1701344335
        0x0000dec4:    61482072    r Ha    DCD    1632116850
        0x0000dec8:    46206472    rd F    DCD    1176527986
        0x0000decc:    746c7561    ault    DCD    1953264993
        0x0000ded0:    74616420     dat    DCD    1952539680
        0x0000ded4:    000a3a61    a:..    DCD    670305
        0x0000ded8:    20202020            DCD    538976288
        0x0000dedc:    6c756146    Faul    DCD    1819631942
        0x0000dee0:    64612074    t ad    DCD    1684086900
        0x0000dee4:    73657264    dres    DCD    1936028260
        0x0000dee8:    203d2073    s =     DCD    540876915
        0x0000deec:    30257830    0x%0    DCD    807761968
        0x0000def0:    000a5838    8X..    DCD    677944
        0x0000def4:    20202020            DCD    538976288
        0x0000def8:    52414642    BFAR    DCD    1380009538
        0x0000defc:    75422820     (Bu    DCD    1967269920
        0x0000df00:    61462073    s Fa    DCD    1631985779
        0x0000df04:    20746c75    ult     DCD    544500853
        0x0000df08:    72646441    Addr    DCD    1919181889
        0x0000df0c:    67655220     Reg    DCD    1734693408
        0x0000df10:    203d2029    ) =     DCD    540876841
        0x0000df14:    30257830    0x%0    DCD    807761968
        0x0000df18:    000a5838    8X..    DCD    677944
        0x0000df1c:    20202020            DCD    538976288
        0x0000df20:    52534d4d    MMSR    DCD    1381190989
        0x0000df24:    654d2820     (Me    DCD    1699555360
        0x0000df28:    674d206d    m Mg    DCD    1733107821
        0x0000df2c:    4620746d    mt F    DCD    1176532077
        0x0000df30:    746c7561    ault    DCD    1953264993
        0x0000df34:    61745320     Sta    DCD    1635013408
        0x0000df38:    20737574    tus     DCD    544437620
        0x0000df3c:    29676552    Reg)    DCD    694642002
        0x0000df40:    30203d20     = 0    DCD    807419168
        0x0000df44:    32302578    x%02    DCD    842016120
        0x0000df48:    00000a58    X...    DCD    2648
        0x0000df4c:    20202020            DCD    538976288
        0x0000df50:    52534642    BFSR    DCD    1381189186
        0x0000df54:    75422820     (Bu    DCD    1967269920
        0x0000df58:    61462073    s Fa    DCD    1631985779
        0x0000df5c:    20746c75    ult     DCD    544500853
        0x0000df60:    74617453    Stat    DCD    1952543827
        0x0000df64:    52207375    us R    DCD    1377858421
        0x0000df68:    20296765    eg)     DCD    539584357
        0x0000df6c:    7830203d    = 0x    DCD    2016419901
        0x0000df70:    58323025    %02X    DCD    1479684133
        0x0000df74:    0000000a    ....    DCD    10
        0x0000df78:    20202020            DCD    538976288
        0x0000df7c:    52534655    UFSR    DCD    1381189205
        0x0000df80:    73552820     (Us    DCD    1934960672
        0x0000df84:    20656761    age     DCD    543516513
        0x0000df88:    6c756146    Faul    DCD    1819631942
        0x0000df8c:    74532074    t St    DCD    1951604852
        0x0000df90:    73757461    atus    DCD    1937077345
        0x0000df94:    67655220     Reg    DCD    1734693408
        0x0000df98:    203d2029    ) =     DCD    540876841
        0x0000df9c:    30257830    0x%0    DCD    807761968
        0x0000dfa0:    000a5834    4X..    DCD    677940
        0x0000dfa4:    20202020            DCD    538976288
        0x0000dfa8:    20202020            DCD    538976288
        0x0000dfac:    52534642    BFSR    DCD    1381189186
        0x0000dfb0:    74696220     bit    DCD    1953063456
        0x0000dfb4:    53203a34    4: S    DCD    1394620980
        0x0000dfb8:    52454b54    TKER    DCD    1380272980
        0x0000dfbc:    00000a52    R...    DCD    2642
        0x0000dfc0:    20202020            DCD    538976288
        0x0000dfc4:    20202020            DCD    538976288
        0x0000dfc8:    52534642    BFSR    DCD    1381189186
        0x0000dfcc:    74696220     bit    DCD    1953063456
        0x0000dfd0:    49203a30    0: I    DCD    1226848816
        0x0000dfd4:    45535542    BUSE    DCD    1163089218
        0x0000dfd8:    000a5252    RR..    DCD    676434
        0x0000dfdc:    20202020            DCD    538976288
        0x0000dfe0:    20202020            DCD    538976288
        0x0000dfe4:    52534642    BFSR    DCD    1381189186
        0x0000dfe8:    74696220     bit    DCD    1953063456
        0x0000dfec:    50203a31    1: P    DCD    1344289329
        0x0000dff0:    49434552    RECI    DCD    1229145426
        0x0000dff4:    52454553    SEER    DCD    1380271443
        0x0000dff8:    00000a52    R...    DCD    2642
        0x0000dffc:    20202020            DCD    538976288
        0x0000e000:    20202020            DCD    538976288
        0x0000e004:    52534642    BFSR    DCD    1381189186
        0x0000e008:    74696220     bit    DCD    1953063456
        0x0000e00c:    49203a32    2: I    DCD    1226848818
        0x0000e010:    4552504d    MPRE    DCD    1163022413
        0x0000e014:    45534943    CISE    DCD    1163086147
        0x0000e018:    000a5252    RR..    DCD    676434
        0x0000e01c:    20202020            DCD    538976288
        0x0000e020:    20202020            DCD    538976288
        0x0000e024:    52534642    BFSR    DCD    1381189186
        0x0000e028:    74696220     bit    DCD    1953063456
        0x0000e02c:    55203a33    3: U    DCD    1428175411
        0x0000e030:    4b54534e    NSTK    DCD    1263817550
        0x0000e034:    0a525245    ERR.    DCD    173167173
        0x0000e038:    00000000    ....    DCD    0
        0x0000e03c:    20202020            DCD    538976288
        0x0000e040:    20202020            DCD    538976288
        0x0000e044:    52534642    BFSR    DCD    1381189186
        0x0000e048:    74696220     bit    DCD    1953063456
        0x0000e04c:    4c203a35    5: L    DCD    1277180469
        0x0000e050:    52455053    SPER    DCD    1380274259
        0x0000e054:    00000a52    R...    DCD    2642
        0x0000e058:    20202020            DCD    538976288
        0x0000e05c:    20202020            DCD    538976288
        0x0000e060:    52534642    BFSR    DCD    1381189186
        0x0000e064:    74696220     bit    DCD    1953063456
        0x0000e068:    52203a36    6: R    DCD    1377843766
        0x0000e06c:    52455345    ESER    DCD    1380275013
        0x0000e070:    0a444556    VED.    DCD    172246358
        0x0000e074:    00000000    ....    DCD    0
        0x0000e078:    20202020            DCD    538976288
        0x0000e07c:    20202020            DCD    538976288
        0x0000e080:    52534642    BFSR    DCD    1381189186
        0x0000e084:    74696220     bit    DCD    1953063456
        0x0000e088:    42203a37    7: B    DCD    1109408311
        0x0000e08c:    56524146    FARV    DCD    1448231238
        0x0000e090:    44494c41    ALID    DCD    1145654337
        0x0000e094:    0000000a    ....    DCD    10
        0x0000e098:    2055434d    MCU     DCD    542458701
        0x0000e09c:    6c756146    Faul    DCD    1819631942
        0x0000e0a0:    61642074    t da    DCD    1633951860
        0x0000e0a4:    0a3a6174    ta:.    DCD    171598196
        0x0000e0a8:    00000000    ....    DCD    0
        0x0000e0ac:    49202020       I    DCD    1226842144
        0x0000e0b0:    45444f43    CODE    DCD    1162104643
        0x0000e0b4:    75614620     Fau    DCD    1969309216
        0x0000e0b8:    4120746c    lt A    DCD    1092645996
        0x0000e0bc:    65726464    ddre    DCD    1701995620
        0x0000e0c0:    203a7373    ss:     DCD    540701555
        0x0000e0c4:    30257830    0x%0    DCD    807761968
        0x0000e0c8:    000a5838    8X..    DCD    677944
        0x0000e0cc:    44202020       D    DCD    1142956064
        0x0000e0d0:    45444f43    CODE    DCD    1162104643
        0x0000e0d4:    75614620     Fau    DCD    1969309216
        0x0000e0d8:    4120746c    lt A    DCD    1092645996
        0x0000e0dc:    65726464    ddre    DCD    1701995620
        0x0000e0e0:    203a7373    ss:     DCD    540701555
        0x0000e0e4:    30257830    0x%0    DCD    807761968
        0x0000e0e8:    000a5838    8X..    DCD    677944
        0x0000e0ec:    53202020       S    DCD    1394614304
        0x0000e0f0:    46205359    YS F    DCD    1176523609
        0x0000e0f4:    746c7561    ault    DCD    1953264993
        0x0000e0f8:    64644120     Add    DCD    1684291872
        0x0000e0fc:    73736572    ress    DCD    1936942450
        0x0000e100:    7830203a    : 0x    DCD    2016419898
        0x0000e104:    58383025    %08X    DCD    1480077349
        0x0000e108:    0000000a    ....    DCD    10
    $t
    i.am_util_stdio_printf
    am_util_stdio_printf
        0x0000e10c:    b40f        ..      PUSH     {r0-r3}
        0x0000e10e:    b570        p.      PUSH     {r4-r6,lr}
        0x0000e110:    4c09        .L      LDR      r4,[pc,#36] ; [0xe138] = 0x10001028
        0x0000e112:    6860        `h      LDR      r0,[r4,#4]
        0x0000e114:    2800        .(      CMP      r0,#0
        0x0000e116:    bf04        ..      ITT      EQ
        0x0000e118:    bc70        p.      POPEQ    {r4-r6}
        0x0000e11a:    f85dfb14    ]...    LDREQ    pc,[sp],#0x14
        0x0000e11e:    aa05        ..      ADD      r2,sp,#0x14
        0x0000e120:    4806        .H      LDR      r0,[pc,#24] ; [0xe13c] = 0x10001104
        0x0000e122:    9904        ..      LDR      r1,[sp,#0x10]
        0x0000e124:    f000f812    ....    BL       am_util_stdio_vsprintf ; 0xe14c
        0x0000e128:    4605        .F      MOV      r5,r0
        0x0000e12a:    6861        ah      LDR      r1,[r4,#4]
        0x0000e12c:    4803        .H      LDR      r0,[pc,#12] ; [0xe13c] = 0x10001104
        0x0000e12e:    4788        .G      BLX      r1
        0x0000e130:    4628        (F      MOV      r0,r5
        0x0000e132:    bc70        p.      POP      {r4-r6}
        0x0000e134:    f85dfb14    ]...    LDR      pc,[sp],#0x14
    $d
        0x0000e138:    10001028    (...    DCD    268439592
        0x0000e13c:    10001104    ....    DCD    268439812
    $t
    i.am_util_stdio_printf_init
    am_util_stdio_printf_init
        0x0000e140:    4901        .I      LDR      r1,[pc,#4] ; [0xe148] = 0x10001028
        0x0000e142:    6048        H`      STR      r0,[r1,#4]
        0x0000e144:    4770        pG      BX       lr
    $d
        0x0000e146:    0000        ..      DCW    0
        0x0000e148:    10001028    (...    DCD    268439592
    $t
    i.am_util_stdio_vsprintf
    am_util_stdio_vsprintf
        0x0000e14c:    e92d4ff7    -..O    PUSH     {r0-r2,r4-r11,lr}
        0x0000e150:    4604        .F      MOV      r4,r0
        0x0000e152:    7808        .x      LDRB     r0,[r1,#0]
        0x0000e154:    2500        .%      MOVS     r5,#0
        0x0000e156:    b088        ..      SUB      sp,sp,#0x20
        0x0000e158:    2800        .(      CMP      r0,#0
        0x0000e15a:    f0008385    ....    BEQ.W    0xe868 ; am_util_stdio_vsprintf + 1820
        0x0000e15e:    bf00        ..      NOP      
        0x0000e160:    b2c0        ..      UXTB     r0,r0
        0x0000e162:    f04f0906    O...    MOV      r9,#6
        0x0000e166:    2825        %(      CMP      r0,#0x25
        0x0000e168:    d010        ..      BEQ      0xe18c ; am_util_stdio_vsprintf + 64
        0x0000e16a:    b15c        \.      CBZ      r4,0xe184 ; am_util_stdio_vsprintf + 56
        0x0000e16c:    280a        .(      CMP      r0,#0xa
        0x0000e16e:    d106        ..      BNE      0xe17e ; am_util_stdio_vsprintf + 50
        0x0000e170:    48fe        .H      LDR      r0,[pc,#1016] ; [0xe56c] = 0x10001028
        0x0000e172:    7800        .x      LDRB     r0,[r0,#0]
        0x0000e174:    b118        ..      CBZ      r0,0xe17e ; am_util_stdio_vsprintf + 50
        0x0000e176:    200d        .       MOVS     r0,#0xd
        0x0000e178:    f8040b01    ....    STRB     r0,[r4],#1
        0x0000e17c:    1c6d        m.      ADDS     r5,r5,#1
        0x0000e17e:    7808        .x      LDRB     r0,[r1,#0]
        0x0000e180:    f8040b01    ....    STRB     r0,[r4],#1
        0x0000e184:    1c49        I.      ADDS     r1,r1,#1
        0x0000e186:    1c6d        m.      ADDS     r5,r5,#1
        0x0000e188:    f000bb6a    ..j.    B.W      0xe860 ; am_util_stdio_vsprintf + 1812
        0x0000e18c:    2020                MOVS     r0,#0x20
        0x0000e18e:    9001        ..      STR      r0,[sp,#4]
        0x0000e190:    2700        .'      MOVS     r7,#0
        0x0000e192:    f8110f01    ....    LDRB     r0,[r1,#1]!
        0x0000e196:    46bc        .F      MOV      r12,r7
        0x0000e198:    2830        0(      CMP      r0,#0x30
        0x0000e19a:    d101        ..      BNE      0xe1a0 ; am_util_stdio_vsprintf + 84
        0x0000e19c:    1c49        I.      ADDS     r1,r1,#1
        0x0000e19e:    9001        ..      STR      r0,[sp,#4]
        0x0000e1a0:    2600        .&      MOVS     r6,#0
        0x0000e1a2:    f891a000    ....    LDRB     r10,[r1,#0]
        0x0000e1a6:    460a        .F      MOV      r2,r1
        0x0000e1a8:    f10d0808    ....    ADD      r8,sp,#8
        0x0000e1ac:    4630        0F      MOV      r0,r6
        0x0000e1ae:    4633        3F      MOV      r3,r6
        0x0000e1b0:    f1ba0f2d    ..-.    CMP      r10,#0x2d
        0x0000e1b4:    d102        ..      BNE      0xe1bc ; am_util_stdio_vsprintf + 112
        0x0000e1b6:    2601        .&      MOVS     r6,#1
        0x0000e1b8:    1c4a        J.      ADDS     r2,r1,#1
        0x0000e1ba:    4633        3F      MOV      r3,r6
        0x0000e1bc:    f892a000    ....    LDRB     r10,[r2,#0]
        0x0000e1c0:    f1aa0a30    ..0.    SUB      r10,r10,#0x30
        0x0000e1c4:    f1ba0f09    ....    CMP      r10,#9
        0x0000e1c8:    d80f        ..      BHI      0xe1ea ; am_util_stdio_vsprintf + 158
        0x0000e1ca:    bf00        ..      NOP      
        0x0000e1cc:    eb000080    ....    ADD      r0,r0,r0,LSL #2
        0x0000e1d0:    0040        @.      LSLS     r0,r0,#1
        0x0000e1d2:    f812ab01    ....    LDRB     r10,[r2],#1
        0x0000e1d6:    3830        08      SUBS     r0,r0,#0x30
        0x0000e1d8:    4450        PD      ADD      r0,r0,r10
        0x0000e1da:    f892a000    ....    LDRB     r10,[r2,#0]
        0x0000e1de:    1c5b        [.      ADDS     r3,r3,#1
        0x0000e1e0:    f1aa0a30    ..0.    SUB      r10,r10,#0x30
        0x0000e1e4:    f1ba0f09    ....    CMP      r10,#9
        0x0000e1e8:    d9f0        ..      BLS      0xe1cc ; am_util_stdio_vsprintf + 128
        0x0000e1ea:    f1b80f00    ....    CMP      r8,#0
        0x0000e1ee:    bf18        ..      IT       NE
        0x0000e1f0:    9302        ..      STRNE    r3,[sp,#8]
        0x0000e1f2:    2e00        ..      CMP      r6,#0
        0x0000e1f4:    bf18        ..      IT       NE
        0x0000e1f6:    4240        @B      RSBNE    r0,r0,#0
        0x0000e1f8:    9000        ..      STR      r0,[sp,#0]
        0x0000e1fa:    9802        ..      LDR      r0,[sp,#8]
        0x0000e1fc:    180e        ..      ADDS     r6,r1,r0
        0x0000e1fe:    7830        0x      LDRB     r0,[r6,#0]
        0x0000e200:    2873        s(      CMP      r0,#0x73
        0x0000e202:    d037        7.      BEQ      0xe274 ; am_util_stdio_vsprintf + 296
        0x0000e204:    9900        ..      LDR      r1,[sp,#0]
        0x0000e206:    2900        .)      CMP      r1,#0
        0x0000e208:    bfbc        ..      ITT      LT
        0x0000e20a:    4249        IB      RSBLT    r1,r1,#0
        0x0000e20c:    9100        ..      STRLT    r1,[sp,#0]
        0x0000e20e:    282e        .(      CMP      r0,#0x2e
        0x0000e210:    d003        ..      BEQ      0xe21a ; am_util_stdio_vsprintf + 206
        0x0000e212:    7830        0x      LDRB     r0,[r6,#0]
        0x0000e214:    286c        l(      CMP      r0,#0x6c
        0x0000e216:    d12d        -.      BNE      0xe274 ; am_util_stdio_vsprintf + 296
        0x0000e218:    e025        %.      B        0xe266 ; am_util_stdio_vsprintf + 282
        0x0000e21a:    1c72        r.      ADDS     r2,r6,#1
        0x0000e21c:    2300        .#      MOVS     r3,#0
        0x0000e21e:    7811        .x      LDRB     r1,[r2,#0]
        0x0000e220:    4616        .F      MOV      r6,r2
        0x0000e222:    4699        .F      MOV      r9,r3
        0x0000e224:    4618        .F      MOV      r0,r3
        0x0000e226:    292d        -)      CMP      r1,#0x2d
        0x0000e228:    d102        ..      BNE      0xe230 ; am_util_stdio_vsprintf + 228
        0x0000e22a:    2301        .#      MOVS     r3,#1
        0x0000e22c:    1c56        V.      ADDS     r6,r2,#1
        0x0000e22e:    4618        .F      MOV      r0,r3
        0x0000e230:    7831        1x      LDRB     r1,[r6,#0]
        0x0000e232:    3930        09      SUBS     r1,r1,#0x30
        0x0000e234:    2909        .)      CMP      r1,#9
        0x0000e236:    d80b        ..      BHI      0xe250 ; am_util_stdio_vsprintf + 260
        0x0000e238:    eb090189    ....    ADD      r1,r9,r9,LSL #2
        0x0000e23c:    0049        I.      LSLS     r1,r1,#1
        0x0000e23e:    f8169b01    ....    LDRB     r9,[r6],#1
        0x0000e242:    3930        09      SUBS     r1,r1,#0x30
        0x0000e244:    4489        .D      ADD      r9,r9,r1
        0x0000e246:    7831        1x      LDRB     r1,[r6,#0]
        0x0000e248:    1c40        @.      ADDS     r0,r0,#1
        0x0000e24a:    3930        09      SUBS     r1,r1,#0x30
        0x0000e24c:    2909        .)      CMP      r1,#9
        0x0000e24e:    d9f3        ..      BLS      0xe238 ; am_util_stdio_vsprintf + 236
        0x0000e250:    f1b80f00    ....    CMP      r8,#0
        0x0000e254:    bf18        ..      IT       NE
        0x0000e256:    9002        ..      STRNE    r0,[sp,#8]
        0x0000e258:    2b00        .+      CMP      r3,#0
        0x0000e25a:    bf18        ..      IT       NE
        0x0000e25c:    f1c90900    ....    RSBNE    r9,r9,#0
        0x0000e260:    9802        ..      LDR      r0,[sp,#8]
        0x0000e262:    1816        ..      ADDS     r6,r2,r0
        0x0000e264:    e7d5        ..      B        0xe212 ; am_util_stdio_vsprintf + 198
        0x0000e266:    f8160f01    ....    LDRB     r0,[r6,#1]!
        0x0000e26a:    286c        l(      CMP      r0,#0x6c
        0x0000e26c:    bf04        ..      ITT      EQ
        0x0000e26e:    f04f0c01    O...    MOVEQ    r12,#1
        0x0000e272:    1c76        v.      ADDEQ    r6,r6,#1
        0x0000e274:    7830        0x      LDRB     r0,[r6,#0]
        0x0000e276:    2866        f(      CMP      r0,#0x66
        0x0000e278:    f000822a    ..*.    BEQ.W    0xe6d0 ; am_util_stdio_vsprintf + 1412
        0x0000e27c:    dc0a        ..      BGT      0xe294 ; am_util_stdio_vsprintf + 328
        0x0000e27e:    2846        F(      CMP      r0,#0x46
        0x0000e280:    f0008226    ..&.    BEQ.W    0xe6d0 ; am_util_stdio_vsprintf + 1412
        0x0000e284:    2858        X(      CMP      r0,#0x58
        0x0000e286:    d07d        }.      BEQ      0xe384 ; am_util_stdio_vsprintf + 568
        0x0000e288:    2863        c(      CMP      r0,#0x63
        0x0000e28a:    d014        ..      BEQ      0xe2b6 ; am_util_stdio_vsprintf + 362
        0x0000e28c:    2864        d(      CMP      r0,#0x64
        0x0000e28e:    f00081b5    ....    BEQ.W    0xe5fc ; am_util_stdio_vsprintf + 1200
        0x0000e292:    e00b        ..      B        0xe2ac ; am_util_stdio_vsprintf + 352
        0x0000e294:    2869        i(      CMP      r0,#0x69
        0x0000e296:    f00081b1    ....    BEQ.W    0xe5fc ; am_util_stdio_vsprintf + 1200
        0x0000e29a:    2873        s(      CMP      r0,#0x73
        0x0000e29c:    d016        ..      BEQ      0xe2cc ; am_util_stdio_vsprintf + 384
        0x0000e29e:    2875        u(      CMP      r0,#0x75
        0x0000e2a0:    f000810c    ....    BEQ.W    0xe4bc ; am_util_stdio_vsprintf + 880
        0x0000e2a4:    2878        x(      CMP      r0,#0x78
        0x0000e2a6:    bf08        ..      IT       EQ
        0x0000e2a8:    2701        .'      MOVEQ    r7,#1
        0x0000e2aa:    d06e        n.      BEQ      0xe38a ; am_util_stdio_vsprintf + 574
        0x0000e2ac:    2c00        .,      CMP      r4,#0
        0x0000e2ae:    bf18        ..      IT       NE
        0x0000e2b0:    f8040b01    ....    STRBNE   r0,[r4],#1
        0x0000e2b4:    e007        ..      B        0xe2c6 ; am_util_stdio_vsprintf + 378
        0x0000e2b6:    980a        ..      LDR      r0,[sp,#0x28]
        0x0000e2b8:    2c00        .,      CMP      r4,#0
        0x0000e2ba:    f8101b04    ....    LDRB     r1,[r0],#4
        0x0000e2be:    900a        ..      STR      r0,[sp,#0x28]
        0x0000e2c0:    bf18        ..      IT       NE
        0x0000e2c2:    f8041b01    ....    STRBNE   r1,[r4],#1
        0x0000e2c6:    1c6d        m.      ADDS     r5,r5,#1
        0x0000e2c8:    f000bac9    ....    B.W      0xe85e ; am_util_stdio_vsprintf + 1810
        0x0000e2cc:    990a        ..      LDR      r1,[sp,#0x28]
        0x0000e2ce:    2200        ."      MOVS     r2,#0
        0x0000e2d0:    f8510b04    Q...    LDR      r0,[r1],#4
        0x0000e2d4:    910a        ..      STR      r1,[sp,#0x28]
        0x0000e2d6:    b140        @.      CBZ      r0,0xe2ea ; am_util_stdio_vsprintf + 414
        0x0000e2d8:    7803        .x      LDRB     r3,[r0,#0]
        0x0000e2da:    1c41        A.      ADDS     r1,r0,#1
        0x0000e2dc:    b12b        +.      CBZ      r3,0xe2ea ; am_util_stdio_vsprintf + 414
        0x0000e2de:    bf00        ..      NOP      
        0x0000e2e0:    f8113b01    ...;    LDRB     r3,[r1],#1
        0x0000e2e4:    1c52        R.      ADDS     r2,r2,#1
        0x0000e2e6:    2b00        .+      CMP      r3,#0
        0x0000e2e8:    d1fa        ..      BNE      0xe2e0 ; am_util_stdio_vsprintf + 404
        0x0000e2ea:    9900        ..      LDR      r1,[sp,#0]
        0x0000e2ec:    2900        .)      CMP      r1,#0
        0x0000e2ee:    dd1e        ..      BLE      0xe32e ; am_util_stdio_vsprintf + 482
        0x0000e2f0:    428a        .B      CMP      r2,r1
        0x0000e2f2:    d21c        ..      BCS      0xe32e ; am_util_stdio_vsprintf + 482
        0x0000e2f4:    1a8b        ..      SUBS     r3,r1,r2
        0x0000e2f6:    9f01        ..      LDR      r7,[sp,#4]
        0x0000e2f8:    4621        !F      MOV      r1,r4
        0x0000e2fa:    f04f0c00    O...    MOV      r12,#0
        0x0000e2fe:    2b00        .+      CMP      r3,#0
        0x0000e300:    bfc4        ..      ITT      GT
        0x0000e302:    1e5b        [.      SUBGT    r3,r3,#1
        0x0000e304:    f1b33fff    ...?    CMPGT    r3,#0xffffffff
        0x0000e308:    dd09        ..      BLE      0xe31e ; am_util_stdio_vsprintf + 466
        0x0000e30a:    2900        .)      CMP      r1,#0
        0x0000e30c:    bf18        ..      IT       NE
        0x0000e30e:    f8017b01    ...{    STRBNE   r7,[r1],#1
        0x0000e312:    1e5b        [.      SUBS     r3,r3,#1
        0x0000e314:    f10c0c01    ....    ADD      r12,r12,#1
        0x0000e318:    f1b33fff    ...?    CMP      r3,#0xffffffff
        0x0000e31c:    dcf5        ..      BGT      0xe30a ; am_util_stdio_vsprintf + 446
        0x0000e31e:    2c00        .,      CMP      r4,#0
        0x0000e320:    bf14        ..      ITE      NE
        0x0000e322:    4661        aF      MOVNE    r1,r12
        0x0000e324:    2100        .!      MOVEQ    r1,#0
        0x0000e326:    440c        .D      ADD      r4,r4,r1
        0x0000e328:    2100        .!      MOVS     r1,#0
        0x0000e32a:    4465        eD      ADD      r5,r5,r12
        0x0000e32c:    9100        ..      STR      r1,[sp,#0]
        0x0000e32e:    7801        .x      LDRB     r1,[r0,#0]
        0x0000e330:    b139        9.      CBZ      r1,0xe342 ; am_util_stdio_vsprintf + 502
        0x0000e332:    b10c        ..      CBZ      r4,0xe338 ; am_util_stdio_vsprintf + 492
        0x0000e334:    f8041b01    ....    STRB     r1,[r4],#1
        0x0000e338:    f8101f01    ....    LDRB     r1,[r0,#1]!
        0x0000e33c:    1c6d        m.      ADDS     r5,r5,#1
        0x0000e33e:    2900        .)      CMP      r1,#0
        0x0000e340:    d1f7        ..      BNE      0xe332 ; am_util_stdio_vsprintf + 486
        0x0000e342:    9800        ..      LDR      r0,[sp,#0]
        0x0000e344:    2800        .(      CMP      r0,#0
        0x0000e346:    bf1c        ..      ITT      NE
        0x0000e348:    4240        @B      RSBNE    r0,r0,#0
        0x0000e34a:    4282        .B      CMPNE    r2,r0
        0x0000e34c:    f0808287    ....    BCS.W    0xe85e ; am_util_stdio_vsprintf + 1810
        0x0000e350:    1a82        ..      SUBS     r2,r0,r2
        0x0000e352:    2000        .       MOVS     r0,#0
        0x0000e354:    9b01        ..      LDR      r3,[sp,#4]
        0x0000e356:    4621        !F      MOV      r1,r4
        0x0000e358:    2a00        .*      CMP      r2,#0
        0x0000e35a:    bfc4        ..      ITT      GT
        0x0000e35c:    1e52        R.      SUBGT    r2,r2,#1
        0x0000e35e:    f1b23fff    ...?    CMPGT    r2,#0xffffffff
        0x0000e362:    dd08        ..      BLE      0xe376 ; am_util_stdio_vsprintf + 554
        0x0000e364:    2900        .)      CMP      r1,#0
        0x0000e366:    bf18        ..      IT       NE
        0x0000e368:    f8013b01    ...;    STRBNE   r3,[r1],#1
        0x0000e36c:    1c40        @.      ADDS     r0,r0,#1
        0x0000e36e:    1e52        R.      SUBS     r2,r2,#1
        0x0000e370:    f1b23fff    ...?    CMP      r2,#0xffffffff
        0x0000e374:    dcf6        ..      BGT      0xe364 ; am_util_stdio_vsprintf + 536
        0x0000e376:    2c00        .,      CMP      r4,#0
        0x0000e378:    bf14        ..      ITE      NE
        0x0000e37a:    4601        .F      MOVNE    r1,r0
        0x0000e37c:    2100        .!      MOVEQ    r1,#0
        0x0000e37e:    440c        .D      ADD      r4,r4,r1
        0x0000e380:    4405        .D      ADD      r5,r5,r0
        0x0000e382:    e000        ..      B        0xe386 ; am_util_stdio_vsprintf + 570
        0x0000e384:    e001        ..      B        0xe38a ; am_util_stdio_vsprintf + 574
        0x0000e386:    f000ba6a    ..j.    B.W      0xe85e ; am_util_stdio_vsprintf + 1810
        0x0000e38a:    f1bc0f00    ....    CMP      r12,#0
        0x0000e38e:    d007        ..      BEQ      0xe3a0 ; am_util_stdio_vsprintf + 596
        0x0000e390:    980a        ..      LDR      r0,[sp,#0x28]
        0x0000e392:    1dc0        ..      ADDS     r0,r0,#7
        0x0000e394:    f0200207     ...    BIC      r2,r0,#7
        0x0000e398:    e8f20102    ....    LDRD     r0,r1,[r2],#8
        0x0000e39c:    920a        ..      STR      r2,[sp,#0x28]
        0x0000e39e:    e004        ..      B        0xe3aa ; am_util_stdio_vsprintf + 606
        0x0000e3a0:    990a        ..      LDR      r1,[sp,#0x28]
        0x0000e3a2:    f8510b04    Q...    LDR      r0,[r1],#4
        0x0000e3a6:    910a        ..      STR      r1,[sp,#0x28]
        0x0000e3a8:    2100        .!      MOVS     r1,#0
        0x0000e3aa:    9a00        ..      LDR      r2,[sp,#0]
        0x0000e3ac:    b38a        ..      CBZ      r2,0xe412 ; am_util_stdio_vsprintf + 710
        0x0000e3ae:    460b        .F      MOV      r3,r1
        0x0000e3b0:    4602        .F      MOV      r2,r0
        0x0000e3b2:    ea500c03    P...    ORRS     r12,r0,r3
        0x0000e3b6:    bf0c        ..      ITE      EQ
        0x0000e3b8:    f04f0c01    O...    MOVEQ    r12,#1
        0x0000e3bc:    f04f0c00    O...    MOVNE    r12,#0
        0x0000e3c0:    d008        ..      BEQ      0xe3d4 ; am_util_stdio_vsprintf + 648
        0x0000e3c2:    0912        ..      LSRS     r2,r2,#4
        0x0000e3c4:    ea427203    B..r    ORR      r2,r2,r3,LSL #28
        0x0000e3c8:    091b        ..      LSRS     r3,r3,#4
        0x0000e3ca:    f10c0c01    ....    ADD      r12,r12,#1
        0x0000e3ce:    ea520803    R...    ORRS     r8,r2,r3
        0x0000e3d2:    d1f6        ..      BNE      0xe3c2 ; am_util_stdio_vsprintf + 630
        0x0000e3d4:    9a00        ..      LDR      r2,[sp,#0]
        0x0000e3d6:    9b01        ..      LDR      r3,[sp,#4]
        0x0000e3d8:    eba2020c    ....    SUB      r2,r2,r12
        0x0000e3dc:    46a4        .F      MOV      r12,r4
        0x0000e3de:    f04f0800    O...    MOV      r8,#0
        0x0000e3e2:    2a00        .*      CMP      r2,#0
        0x0000e3e4:    bfc4        ..      ITT      GT
        0x0000e3e6:    1e52        R.      SUBGT    r2,r2,#1
        0x0000e3e8:    f1b23fff    ...?    CMPGT    r2,#0xffffffff
        0x0000e3ec:    dd0b        ..      BLE      0xe406 ; am_util_stdio_vsprintf + 698
        0x0000e3ee:    bf00        ..      NOP      
        0x0000e3f0:    f1bc0f00    ....    CMP      r12,#0
        0x0000e3f4:    bf18        ..      IT       NE
        0x0000e3f6:    f80c3b01    ...;    STRBNE   r3,[r12],#1
        0x0000e3fa:    1e52        R.      SUBS     r2,r2,#1
        0x0000e3fc:    f1080801    ....    ADD      r8,r8,#1
        0x0000e400:    f1b23fff    ...?    CMP      r2,#0xffffffff
        0x0000e404:    dcf4        ..      BGT      0xe3f0 ; am_util_stdio_vsprintf + 676
        0x0000e406:    2c00        .,      CMP      r4,#0
        0x0000e408:    bf14        ..      ITE      NE
        0x0000e40a:    4642        BF      MOVNE    r2,r8
        0x0000e40c:    2200        ."      MOVEQ    r2,#0
        0x0000e40e:    4414        .D      ADD      r4,r4,r2
        0x0000e410:    4445        ED      ADD      r5,r5,r8
        0x0000e412:    46a0        .F      MOV      r8,r4
        0x0000e414:    f04f0c00    O...    MOV      r12,#0
        0x0000e418:    ea500201    P...    ORRS     r2,r0,r1
        0x0000e41c:    d106        ..      BNE      0xe42c ; am_util_stdio_vsprintf + 736
        0x0000e41e:    bf00        ..      NOP      
        0x0000e420:    f04f0230    O.0.    MOV      r2,#0x30
        0x0000e424:    f88d200c    ...     STRB     r2,[sp,#0xc]
        0x0000e428:    f04f0c01    O...    MOV      r12,#1
        0x0000e42c:    bf18        ..      IT       NE
        0x0000e42e:    ab03        ..      ADDNE    r3,sp,#0xc
        0x0000e430:    d017        ..      BEQ      0xe462 ; am_util_stdio_vsprintf + 790
        0x0000e432:    bf00        ..      NOP      
        0x0000e434:    f000020f    ....    AND      r2,r0,#0xf
        0x0000e438:    2a09        .*      CMP      r2,#9
        0x0000e43a:    d906        ..      BLS      0xe44a ; am_util_stdio_vsprintf + 766
        0x0000e43c:    2f00        ./      CMP      r7,#0
        0x0000e43e:    bf14        ..      ITE      NE
        0x0000e440:    f04f0927    O.'.    MOVNE    r9,#0x27
        0x0000e444:    f04f0907    O...    MOVEQ    r9,#7
        0x0000e448:    444a        JD      ADD      r2,r2,r9
        0x0000e44a:    3230        02      ADDS     r2,r2,#0x30
        0x0000e44c:    0900        ..      LSRS     r0,r0,#4
        0x0000e44e:    f803200c    ...     STRB     r2,[r3,r12]
        0x0000e452:    ea407001    @..p    ORR      r0,r0,r1,LSL #28
        0x0000e456:    0909        ..      LSRS     r1,r1,#4
        0x0000e458:    f10c0c01    ....    ADD      r12,r12,#1
        0x0000e45c:    ea500201    P...    ORRS     r2,r0,r1
        0x0000e460:    d1e8        ..      BNE      0xe434 ; am_util_stdio_vsprintf + 744
        0x0000e462:    f1b80f00    ....    CMP      r8,#0
        0x0000e466:    d022        ".      BEQ      0xe4ae ; am_util_stdio_vsprintf + 866
        0x0000e468:    f1ac0301    ....    SUB      r3,r12,#1
        0x0000e46c:    f1bc0200    ....    SUBS     r2,r12,#0
        0x0000e470:    dd1a        ..      BLE      0xe4a8 ; am_util_stdio_vsprintf + 860
        0x0000e472:    a803        ..      ADD      r0,sp,#0xc
        0x0000e474:    4418        .D      ADD      r0,r0,r3
        0x0000e476:    1c41        A.      ADDS     r1,r0,#1
        0x0000e478:    f1a80001    ....    SUB      r0,r8,#1
        0x0000e47c:    f0130f01    ....    TST      r3,#1
        0x0000e480:    d103        ..      BNE      0xe48a ; am_util_stdio_vsprintf + 830
        0x0000e482:    f8117d01    ...}    LDRB     r7,[r1,#-1]!
        0x0000e486:    f8007f01    ....    STRB     r7,[r0,#1]!
        0x0000e48a:    1052        R.      ASRS     r2,r2,#1
        0x0000e48c:    d009        ..      BEQ      0xe4a2 ; am_util_stdio_vsprintf + 854
        0x0000e48e:    bf00        ..      NOP      
        0x0000e490:    f8117c01    ...|    LDRB     r7,[r1,#-1]
        0x0000e494:    7047        Gp      STRB     r7,[r0,#1]
        0x0000e496:    f8117d02    ...}    LDRB     r7,[r1,#-2]!
        0x0000e49a:    f8007f02    ....    STRB     r7,[r0,#2]!
        0x0000e49e:    1e52        R.      SUBS     r2,r2,#1
        0x0000e4a0:    d1f6        ..      BNE      0xe490 ; am_util_stdio_vsprintf + 836
        0x0000e4a2:    18e0        ..      ADDS     r0,r4,r3
        0x0000e4a4:    f1000801    ....    ADD      r8,r0,#1
        0x0000e4a8:    2000        .       MOVS     r0,#0
        0x0000e4aa:    f8880000    ....    STRB     r0,[r8,#0]
        0x0000e4ae:    2c00        .,      CMP      r4,#0
        0x0000e4b0:    bf18        ..      IT       NE
        0x0000e4b2:    4464        dD      ADDNE    r4,r4,r12
        0x0000e4b4:    4465        eD      ADD      r5,r5,r12
        0x0000e4b6:    f000b9d2    ....    B.W      0xe85e ; am_util_stdio_vsprintf + 1810
        0x0000e4ba:    bf00        ..      NOP      
        0x0000e4bc:    980a        ..      LDR      r0,[sp,#0x28]
        0x0000e4be:    f1bc0f00    ....    CMP      r12,#0
        0x0000e4c2:    d006        ..      BEQ      0xe4d2 ; am_util_stdio_vsprintf + 902
        0x0000e4c4:    1dc0        ..      ADDS     r0,r0,#7
        0x0000e4c6:    f0200107     ...    BIC      r1,r0,#7
        0x0000e4ca:    e8f1e002    ....    LDRD     lr,r0,[r1],#8
        0x0000e4ce:    910a        ..      STR      r1,[sp,#0x28]
        0x0000e4d0:    e003        ..      B        0xe4da ; am_util_stdio_vsprintf + 910
        0x0000e4d2:    f850eb04    P...    LDR      lr,[r0],#4
        0x0000e4d6:    900a        ..      STR      r0,[sp,#0x28]
        0x0000e4d8:    2000        .       MOVS     r0,#0
        0x0000e4da:    9003        ..      STR      r0,[sp,#0xc]
        0x0000e4dc:    9800        ..      LDR      r0,[sp,#0]
        0x0000e4de:    2800        .(      CMP      r0,#0
        0x0000e4e0:    d07e        ~.      BEQ      0xe5e0 ; am_util_stdio_vsprintf + 1172
        0x0000e4e2:    9903        ..      LDR      r1,[sp,#0xc]
        0x0000e4e4:    4670        pF      MOV      r0,lr
        0x0000e4e6:    ea5e0201    ^...    ORRS     r2,lr,r1
        0x0000e4ea:    bf0e        ..      ITEE     EQ
        0x0000e4ec:    2301        .#      MOVEQ    r3,#1
        0x0000e4ee:    2300        .#      MOVNE    r3,#0
        0x0000e4f0:    f04f0c00    O...    MOVNE    r12,#0
        0x0000e4f4:    d05e        ^.      BEQ      0xe5b4 ; am_util_stdio_vsprintf + 1128
        0x0000e4f6:    b3c1        ..      CBZ      r1,0xe56a ; am_util_stdio_vsprintf + 1054
        0x0000e4f8:    084a        J.      LSRS     r2,r1,#1
        0x0000e4fa:    ea4f0990    O...    LSR      r9,r0,#2
        0x0000e4fe:    ea4f0730    O.0.    RRX      r7,r0
        0x0000e502:    ea497881    I..x    ORR      r8,r9,r1,LSL #30
        0x0000e506:    eb170708    ....    ADDS     r7,r7,r8
        0x0000e50a:    eb420291    B...    ADC      r2,r2,r1,LSR #2
        0x0000e50e:    ea4f1917    O...    LSR      r9,r7,#4
        0x0000e512:    ea497802    I..x    ORR      r8,r9,r2,LSL #28
        0x0000e516:    eb180707    ....    ADDS     r7,r8,r7
        0x0000e51a:    eb421812    B...    ADC      r8,r2,r2,LSR #4
        0x0000e51e:    ea4f2917    O..)    LSR      r9,r7,#8
        0x0000e522:    ea496208    I..b    ORR      r2,r9,r8,LSL #24
        0x0000e526:    19d2        ..      ADDS     r2,r2,r7
        0x0000e528:    eb482718    H..'    ADC      r7,r8,r8,LSR #8
        0x0000e52c:    ea4f4912    O..I    LSR      r9,r2,#16
        0x0000e530:    ea494807    I..H    ORR      r8,r9,r7,LSL #16
        0x0000e534:    eb180802    ....    ADDS     r8,r8,r2
        0x0000e538:    eb474217    G..B    ADC      r2,r7,r7,LSR #16
        0x0000e53c:    eb180702    ....    ADDS     r7,r8,r2
        0x0000e540:    eb42020c    B...    ADC      r2,r2,r12
        0x0000e544:    08ff        ..      LSRS     r7,r7,#3
        0x0000e546:    ea477742    G.Bw    ORR      r7,r7,r2,LSL #29
        0x0000e54a:    f04f080a    O...    MOV      r8,#0xa
        0x0000e54e:    fba7ab08    ....    UMULL    r10,r11,r7,r8
        0x0000e552:    08d2        ..      LSRS     r2,r2,#3
        0x0000e554:    fb02b808    ....    MLA      r8,r2,r8,r11
        0x0000e558:    f04f0900    O...    MOV      r9,#0
        0x0000e55c:    fb078909    ....    MLA      r9,r7,r9,r8
        0x0000e560:    ebb0080a    ....    SUBS     r8,r0,r10
        0x0000e564:    eb610009    a...    SBC      r0,r1,r9
        0x0000e568:    e002        ..      B        0xe570 ; am_util_stdio_vsprintf + 1060
        0x0000e56a:    e00c        ..      B        0xe586 ; am_util_stdio_vsprintf + 1082
    $d
        0x0000e56c:    10001028    (...    DCD    268439592
    $t
        0x0000e570:    f1180106    ....    ADDS     r1,r8,#6
        0x0000e574:    f1400800    @...    ADC      r8,r0,#0
        0x0000e578:    0909        ..      LSRS     r1,r1,#4
        0x0000e57a:    ea417008    A..p    ORR      r0,r1,r8,LSL #28
        0x0000e57e:    19c0        ..      ADDS     r0,r0,r7
        0x0000e580:    eb421118    B...    ADC      r1,r2,r8,LSR #4
        0x0000e584:    e012        ..      B        0xe5ac ; am_util_stdio_vsprintf + 1120
        0x0000e586:    0841        A.      LSRS     r1,r0,#1
        0x0000e588:    eb010190    ....    ADD      r1,r1,r0,LSR #2
        0x0000e58c:    eb011111    ....    ADD      r1,r1,r1,LSR #4
        0x0000e590:    eb012111    ...!    ADD      r1,r1,r1,LSR #8
        0x0000e594:    eb014111    ...A    ADD      r1,r1,r1,LSR #16
        0x0000e598:    08c9        ..      LSRS     r1,r1,#3
        0x0000e59a:    424a        JB      RSBS     r2,r1,#0
        0x0000e59c:    eb020282    ....    ADD      r2,r2,r2,LSL #2
        0x0000e5a0:    eb000042    ..B.    ADD      r0,r0,r2,LSL #1
        0x0000e5a4:    1d80        ..      ADDS     r0,r0,#6
        0x0000e5a6:    eb011010    ....    ADD      r0,r1,r0,LSR #4
        0x0000e5aa:    4661        aF      MOV      r1,r12
        0x0000e5ac:    1c5b        [.      ADDS     r3,r3,#1
        0x0000e5ae:    ea500201    P...    ORRS     r2,r0,r1
        0x0000e5b2:    d1a0        ..      BNE      0xe4f6 ; am_util_stdio_vsprintf + 938
        0x0000e5b4:    9800        ..      LDR      r0,[sp,#0]
        0x0000e5b6:    2100        .!      MOVS     r1,#0
        0x0000e5b8:    1ac2        ..      SUBS     r2,r0,r3
        0x0000e5ba:    9b01        ..      LDR      r3,[sp,#4]
        0x0000e5bc:    4620         F      MOV      r0,r4
        0x0000e5be:    2a00        .*      CMP      r2,#0
        0x0000e5c0:    bfc4        ..      ITT      GT
        0x0000e5c2:    1e52        R.      SUBGT    r2,r2,#1
        0x0000e5c4:    f1b23fff    ...?    CMPGT    r2,#0xffffffff
        0x0000e5c8:    dd08        ..      BLE      0xe5dc ; am_util_stdio_vsprintf + 1168
        0x0000e5ca:    2800        .(      CMP      r0,#0
        0x0000e5cc:    bf18        ..      IT       NE
        0x0000e5ce:    f8003b01    ...;    STRBNE   r3,[r0],#1
        0x0000e5d2:    1c49        I.      ADDS     r1,r1,#1
        0x0000e5d4:    1e52        R.      SUBS     r2,r2,#1
        0x0000e5d6:    f1b23fff    ...?    CMP      r2,#0xffffffff
        0x0000e5da:    dcf6        ..      BGT      0xe5ca ; am_util_stdio_vsprintf + 1150
        0x0000e5dc:    2c00        .,      CMP      r4,#0
        0x0000e5de:    e000        ..      B        0xe5e2 ; am_util_stdio_vsprintf + 1174
        0x0000e5e0:    e004        ..      B        0xe5ec ; am_util_stdio_vsprintf + 1184
        0x0000e5e2:    bf14        ..      ITE      NE
        0x0000e5e4:    4608        .F      MOVNE    r0,r1
        0x0000e5e6:    2000        .       MOVEQ    r0,#0
        0x0000e5e8:    4404        .D      ADD      r4,r4,r0
        0x0000e5ea:    440d        .D      ADD      r5,r5,r1
        0x0000e5ec:    4622        "F      MOV      r2,r4
        0x0000e5ee:    4670        pF      MOV      r0,lr
        0x0000e5f0:    9903        ..      LDR      r1,[sp,#0xc]
        0x0000e5f2:    f000fdad    ....    BL       uint64_to_str ; 0xf150
        0x0000e5f6:    bbdc        ..      CBNZ     r4,0xe670 ; am_util_stdio_vsprintf + 1316
        0x0000e5f8:    4405        .D      ADD      r5,r5,r0
        0x0000e5fa:    e130        0.      B        0xe85e ; am_util_stdio_vsprintf + 1810
        0x0000e5fc:    980a        ..      LDR      r0,[sp,#0x28]
        0x0000e5fe:    f1bc0f00    ....    CMP      r12,#0
        0x0000e602:    d006        ..      BEQ      0xe612 ; am_util_stdio_vsprintf + 1222
        0x0000e604:    1dc0        ..      ADDS     r0,r0,#7
        0x0000e606:    f0200007     ...    BIC      r0,r0,#7
        0x0000e60a:    e8f08702    ....    LDRD     r8,r7,[r0],#8
        0x0000e60e:    900a        ..      STR      r0,[sp,#0x28]
        0x0000e610:    e004        ..      B        0xe61c ; am_util_stdio_vsprintf + 1232
        0x0000e612:    f8508b04    P...    LDR      r8,[r0],#4
        0x0000e616:    900a        ..      STR      r0,[sp,#0x28]
        0x0000e618:    ea4f77e8    O..w    ASR      r7,r8,#31
        0x0000e61c:    2f00        ./      CMP      r7,#0
        0x0000e61e:    bfa8        ..      IT       GE
        0x0000e620:    f04f0900    O...    MOVGE    r9,#0
        0x0000e624:    da06        ..      BGE      0xe634 ; am_util_stdio_vsprintf + 1256
        0x0000e626:    2000        .       MOVS     r0,#0
        0x0000e628:    f1d80800    ....    RSBS     r8,r8,#0
        0x0000e62c:    eb600707    `...    SBC      r7,r0,r7
        0x0000e630:    f04f0901    O...    MOV      r9,#1
        0x0000e634:    9800        ..      LDR      r0,[sp,#0]
        0x0000e636:    b3d8        ..      CBZ      r0,0xe6b0 ; am_util_stdio_vsprintf + 1380
        0x0000e638:    4640        @F      MOV      r0,r8
        0x0000e63a:    0039        9.      MOVS     r1,r7
        0x0000e63c:    d503        ..      BPL      0xe646 ; am_util_stdio_vsprintf + 1274
        0x0000e63e:    2200        ."      MOVS     r2,#0
        0x0000e640:    4240        @B      RSBS     r0,r0,#0
        0x0000e642:    eb620107    b...    SBC      r1,r2,r7
        0x0000e646:    f000f9ff    ....    BL       ndigits_in_u64 ; 0xea48
        0x0000e64a:    9900        ..      LDR      r1,[sp,#0]
        0x0000e64c:    1a0a        ..      SUBS     r2,r1,r0
        0x0000e64e:    f1b90f00    ....    CMP      r9,#0
        0x0000e652:    d008        ..      BEQ      0xe666 ; am_util_stdio_vsprintf + 1306
        0x0000e654:    9801        ..      LDR      r0,[sp,#4]
        0x0000e656:    1e52        R.      SUBS     r2,r2,#1
        0x0000e658:    2830        0(      CMP      r0,#0x30
        0x0000e65a:    d104        ..      BNE      0xe666 ; am_util_stdio_vsprintf + 1306
        0x0000e65c:    b114        ..      CBZ      r4,0xe664 ; am_util_stdio_vsprintf + 1304
        0x0000e65e:    202d        -       MOVS     r0,#0x2d
        0x0000e660:    f8040b01    ....    STRB     r0,[r4],#1
        0x0000e664:    1c6d        m.      ADDS     r5,r5,#1
        0x0000e666:    2100        .!      MOVS     r1,#0
        0x0000e668:    4620         F      MOV      r0,r4
        0x0000e66a:    9b01        ..      LDR      r3,[sp,#4]
        0x0000e66c:    2a00        .*      CMP      r2,#0
        0x0000e66e:    e000        ..      B        0xe672 ; am_util_stdio_vsprintf + 1318
        0x0000e670:    e02c        ,.      B        0xe6cc ; am_util_stdio_vsprintf + 1408
        0x0000e672:    bfc4        ..      ITT      GT
        0x0000e674:    1e52        R.      SUBGT    r2,r2,#1
        0x0000e676:    f1b23fff    ...?    CMPGT    r2,#0xffffffff
        0x0000e67a:    dd08        ..      BLE      0xe68e ; am_util_stdio_vsprintf + 1346
        0x0000e67c:    2800        .(      CMP      r0,#0
        0x0000e67e:    bf18        ..      IT       NE
        0x0000e680:    f8003b01    ...;    STRBNE   r3,[r0],#1
        0x0000e684:    1c49        I.      ADDS     r1,r1,#1
        0x0000e686:    1e52        R.      SUBS     r2,r2,#1
        0x0000e688:    f1b23fff    ...?    CMP      r2,#0xffffffff
        0x0000e68c:    dcf6        ..      BGT      0xe67c ; am_util_stdio_vsprintf + 1328
        0x0000e68e:    2c00        .,      CMP      r4,#0
        0x0000e690:    bf14        ..      ITE      NE
        0x0000e692:    4608        .F      MOVNE    r0,r1
        0x0000e694:    2000        .       MOVEQ    r0,#0
        0x0000e696:    4404        .D      ADD      r4,r4,r0
        0x0000e698:    440d        .D      ADD      r5,r5,r1
        0x0000e69a:    f1b90f00    ....    CMP      r9,#0
        0x0000e69e:    d00e        ..      BEQ      0xe6be ; am_util_stdio_vsprintf + 1394
        0x0000e6a0:    9801        ..      LDR      r0,[sp,#4]
        0x0000e6a2:    2820         (      CMP      r0,#0x20
        0x0000e6a4:    d10b        ..      BNE      0xe6be ; am_util_stdio_vsprintf + 1394
        0x0000e6a6:    b14c        L.      CBZ      r4,0xe6bc ; am_util_stdio_vsprintf + 1392
        0x0000e6a8:    202d        -       MOVS     r0,#0x2d
        0x0000e6aa:    f8040b01    ....    STRB     r0,[r4],#1
        0x0000e6ae:    e005        ..      B        0xe6bc ; am_util_stdio_vsprintf + 1392
        0x0000e6b0:    e7ff        ..      B        0xe6b2 ; am_util_stdio_vsprintf + 1382
        0x0000e6b2:    f1b90f00    ....    CMP      r9,#0
        0x0000e6b6:    d002        ..      BEQ      0xe6be ; am_util_stdio_vsprintf + 1394
        0x0000e6b8:    2c00        .,      CMP      r4,#0
        0x0000e6ba:    d1f5        ..      BNE      0xe6a8 ; am_util_stdio_vsprintf + 1372
        0x0000e6bc:    1c6d        m.      ADDS     r5,r5,#1
        0x0000e6be:    4622        "F      MOV      r2,r4
        0x0000e6c0:    4640        @F      MOV      r0,r8
        0x0000e6c2:    4639        9F      MOV      r1,r7
        0x0000e6c4:    f000fd44    ..D.    BL       uint64_to_str ; 0xf150
        0x0000e6c8:    2c00        .,      CMP      r4,#0
        0x0000e6ca:    d095        ..      BEQ      0xe5f8 ; am_util_stdio_vsprintf + 1196
        0x0000e6cc:    4404        .D      ADD      r4,r4,r0
        0x0000e6ce:    e793        ..      B        0xe5f8 ; am_util_stdio_vsprintf + 1196
        0x0000e6d0:    2c00        .,      CMP      r4,#0
        0x0000e6d2:    d07d        }.      BEQ      0xe7d0 ; am_util_stdio_vsprintf + 1668
        0x0000e6d4:    980a        ..      LDR      r0,[sp,#0x28]
        0x0000e6d6:    1dc0        ..      ADDS     r0,r0,#7
        0x0000e6d8:    f0200007     ...    BIC      r0,r0,#7
        0x0000e6dc:    ecb00b02    ....    VLDM     r0!,{d0}
        0x0000e6e0:    900a        ..      STR      r0,[sp,#0x28]
        0x0000e6e2:    ec510b10    Q...    VMOV     r0,r1,d0
        0x0000e6e6:    f001ff01    ....    BL       __aeabi_d2f ; 0x104ec
        0x0000e6ea:    ee000a10    ....    VMOV     s0,r0
        0x0000e6ee:    f04f0a14    O...    MOV      r10,#0x14
        0x0000e6f2:    4627        'F      MOV      r7,r4
        0x0000e6f4:    eeb50ac0    ....    VCMPE.F32 s0,#0.0
        0x0000e6f8:    f8c4a000    ....    STR      r10,[r4,#0]
        0x0000e6fc:    eef1fa10    ....    VMRS     APSR_nzcv,FPSCR
        0x0000e700:    d103        ..      BNE      0xe70a ; am_util_stdio_vsprintf + 1470
        0x0000e702:    485f        _H      LDR      r0,[pc,#380] ; [0xe880] = 0x302e30
        0x0000e704:    6020         `      STR      r0,[r4,#0]
        0x0000e706:    2003        .       MOVS     r0,#3
        0x0000e708:    e0a7        ..      B        0xe85a ; am_util_stdio_vsprintf + 1806
        0x0000e70a:    ee100a10    ....    VMOV     r0,s0
        0x0000e70e:    f04f0800    O...    MOV      r8,#0
        0x0000e712:    46a3        .F      MOV      r11,r4
        0x0000e714:    f3c051c7    ...Q    UBFX     r1,r0,#23,#8
        0x0000e718:    f020427f     ..B    BIC      r2,r0,#0xff000000
        0x0000e71c:    397f        .9      SUBS     r1,r1,#0x7f
        0x0000e71e:    f4420200    B...    ORR      r2,r2,#0x800000
        0x0000e722:    4643        CF      MOV      r3,r8
        0x0000e724:    291f        .)      CMP      r1,#0x1f
        0x0000e726:    da7d        }.      BGE      0xe824 ; am_util_stdio_vsprintf + 1752
        0x0000e728:    f1110f17    ....    CMN      r1,#0x17
        0x0000e72c:    db7b        {.      BLT      0xe826 ; am_util_stdio_vsprintf + 1754
        0x0000e72e:    2917        .)      CMP      r1,#0x17
        0x0000e730:    bfa4        ..      ITT      GE
        0x0000e732:    3917        .9      SUBGE    r1,r1,#0x17
        0x0000e734:    fa02f301    ....    LSLGE    r3,r2,r1
        0x0000e738:    da0e        ..      BGE      0xe758 ; am_util_stdio_vsprintf + 1548
        0x0000e73a:    2900        .)      CMP      r1,#0
        0x0000e73c:    bfbc        ..      ITT      LT
        0x0000e73e:    43c9        .C      MVNLT    r1,r1
        0x0000e740:    fa22f801    "...    LSRLT    r8,r2,r1
        0x0000e744:    db08        ..      BLT      0xe758 ; am_util_stdio_vsprintf + 1548
        0x0000e746:    f1c10317    ....    RSB      r3,r1,#0x17
        0x0000e74a:    fa42f303    B...    ASR      r3,r2,r3
        0x0000e74e:    1c49        I.      ADDS     r1,r1,#1
        0x0000e750:    fa02f101    ....    LSL      r1,r2,r1
        0x0000e754:    f021487f    !..H    BIC      r8,r1,#0xff000000
        0x0000e758:    2800        .(      CMP      r0,#0
        0x0000e75a:    da03        ..      BGE      0xe764 ; am_util_stdio_vsprintf + 1560
        0x0000e75c:    202d        -       MOVS     r0,#0x2d
        0x0000e75e:    7038        8p      STRB     r0,[r7,#0]
        0x0000e760:    f10b0701    ....    ADD      r7,r11,#1
        0x0000e764:    2b00        .+      CMP      r3,#0
        0x0000e766:    bf04        ..      ITT      EQ
        0x0000e768:    2030        0       MOVEQ    r0,#0x30
        0x0000e76a:    f8070b01    ....    STRBEQ   r0,[r7],#1
        0x0000e76e:    d015        ..      BEQ      0xe79c ; am_util_stdio_vsprintf + 1616
        0x0000e770:    dd06        ..      BLE      0xe780 ; am_util_stdio_vsprintf + 1588
        0x0000e772:    463a        :F      MOV      r2,r7
        0x0000e774:    4618        .F      MOV      r0,r3
        0x0000e776:    ea4f71e3    O..q    ASR      r1,r3,#31
        0x0000e77a:    f000fce9    ....    BL       uint64_to_str ; 0xf150
        0x0000e77e:    e007        ..      B        0xe790 ; am_util_stdio_vsprintf + 1604
        0x0000e780:    202d        -       MOVS     r0,#0x2d
        0x0000e782:    f8070b01    ....    STRB     r0,[r7],#1
        0x0000e786:    4258        XB      RSBS     r0,r3,#0
        0x0000e788:    463a        :F      MOV      r2,r7
        0x0000e78a:    17c1        ..      ASRS     r1,r0,#31
        0x0000e78c:    f000fce0    ....    BL       uint64_to_str ; 0xf150
        0x0000e790:    7838        8x      LDRB     r0,[r7,#0]
        0x0000e792:    b118        ..      CBZ      r0,0xe79c ; am_util_stdio_vsprintf + 1616
        0x0000e794:    f8170f01    ....    LDRB     r0,[r7,#1]!
        0x0000e798:    2800        .(      CMP      r0,#0
        0x0000e79a:    d1fb        ..      BNE      0xe794 ; am_util_stdio_vsprintf + 1608
        0x0000e79c:    202e        .       MOVS     r0,#0x2e
        0x0000e79e:    1c7a        z.      ADDS     r2,r7,#1
        0x0000e7a0:    7038        8p      STRB     r0,[r7,#0]
        0x0000e7a2:    f1b80f00    ....    CMP      r8,#0
        0x0000e7a6:    d041        A.      BEQ      0xe82c ; am_util_stdio_vsprintf + 1760
        0x0000e7a8:    eba2000b    ....    SUB      r0,r2,r11
        0x0000e7ac:    ebaa0000    ....    SUB      r0,r10,r0
        0x0000e7b0:    f1a00c01    ....    SUB      r12,r0,#1
        0x0000e7b4:    45cc        .E      CMP      r12,r9
        0x0000e7b6:    bfc8        ..      IT       GT
        0x0000e7b8:    46cc        .F      MOVGT    r12,r9
        0x0000e7ba:    f1bc0f00    ....    CMP      r12,#0
        0x0000e7be:    dd11        ..      BLE      0xe7e4 ; am_util_stdio_vsprintf + 1688
        0x0000e7c0:    4617        .F      MOV      r7,r2
        0x0000e7c2:    4660        `F      MOV      r0,r12
        0x0000e7c4:    f05f0330    _.0.    MOVS.W   r3,#0x30
        0x0000e7c8:    eb080188    ....    ADD      r1,r8,r8,LSL #2
        0x0000e7cc:    0049        I.      LSLS     r1,r1,#1
        0x0000e7ce:    e000        ..      B        0xe7d2 ; am_util_stdio_vsprintf + 1670
        0x0000e7d0:    e045        E.      B        0xe85e ; am_util_stdio_vsprintf + 1810
        0x0000e7d2:    eb036821    ..!h    ADD      r8,r3,r1,ASR #24
        0x0000e7d6:    f8078b01    ....    STRB     r8,[r7],#1
        0x0000e7da:    f021487f    !..H    BIC      r8,r1,#0xff000000
        0x0000e7de:    1e40        @.      SUBS     r0,r0,#1
        0x0000e7e0:    d1f2        ..      BNE      0xe7c8 ; am_util_stdio_vsprintf + 1660
        0x0000e7e2:    4462        bD      ADD      r2,r2,r12
        0x0000e7e4:    eb080088    ....    ADD      r0,r8,r8,LSL #2
        0x0000e7e8:    0041        A.      LSLS     r1,r0,#1
        0x0000e7ea:    2005        .       MOVS     r0,#5
        0x0000e7ec:    ebb06f21    ..!o    CMP      r0,r1,ASR #24
        0x0000e7f0:    dc24        $.      BGT      0xe83c ; am_util_stdio_vsprintf + 1776
        0x0000e7f2:    1e50        P.      SUBS     r0,r2,#1
        0x0000e7f4:    ebab0300    ....    SUB      r3,r11,r0
        0x0000e7f8:    2101        .!      MOVS     r1,#1
        0x0000e7fa:    f1c30301    ....    RSB      r3,r3,#1
        0x0000e7fe:    2b01        .+      CMP      r3,#1
        0x0000e800:    bfa8        ..      IT       GE
        0x0000e802:    2730        0'      MOVGE    r7,#0x30
        0x0000e804:    db1a        ..      BLT      0xe83c ; am_util_stdio_vsprintf + 1776
        0x0000e806:    bf00        ..      NOP      
        0x0000e808:    f890c000    ....    LDRB     r12,[r0,#0]
        0x0000e80c:    f1bc0f2e    ....    CMP      r12,#0x2e
        0x0000e810:    d010        ..      BEQ      0xe834 ; am_util_stdio_vsprintf + 1768
        0x0000e812:    f1bc0f39    ..9.    CMP      r12,#0x39
        0x0000e816:    bf08        ..      IT       EQ
        0x0000e818:    7007        .p      STRBEQ   r7,[r0,#0]
        0x0000e81a:    d00b        ..      BEQ      0xe834 ; am_util_stdio_vsprintf + 1768
        0x0000e81c:    f00c01ff    ....    AND      r1,r12,#0xff
        0x0000e820:    1c49        I.      ADDS     r1,r1,#1
        0x0000e822:    e001        ..      B        0xe828 ; am_util_stdio_vsprintf + 1756
        0x0000e824:    e02a        *.      B        0xe87c ; am_util_stdio_vsprintf + 1840
        0x0000e826:    e027        '.      B        0xe878 ; am_util_stdio_vsprintf + 1836
        0x0000e828:    7001        .p      STRB     r1,[r0,#0]
        0x0000e82a:    e007        ..      B        0xe83c ; am_util_stdio_vsprintf + 1776
        0x0000e82c:    2030        0       MOVS     r0,#0x30
        0x0000e82e:    f8020b01    ....    STRB     r0,[r2],#1
        0x0000e832:    e003        ..      B        0xe83c ; am_util_stdio_vsprintf + 1776
        0x0000e834:    1e40        @.      SUBS     r0,r0,#1
        0x0000e836:    1c49        I.      ADDS     r1,r1,#1
        0x0000e838:    428b        .B      CMP      r3,r1
        0x0000e83a:    dae5        ..      BGE      0xe808 ; am_util_stdio_vsprintf + 1724
        0x0000e83c:    2000        .       MOVS     r0,#0
        0x0000e83e:    7010        .p      STRB     r0,[r2,#0]
        0x0000e840:    ebb2000b    ....    SUBS     r0,r2,r11
        0x0000e844:    d509        ..      BPL      0xe85a ; am_util_stdio_vsprintf + 1806
        0x0000e846:    f1b03fff    ...?    CMP      r0,#0xffffffff
        0x0000e84a:    d015        ..      BEQ      0xe878 ; am_util_stdio_vsprintf + 1836
        0x0000e84c:    f1100f02    ....    CMN      r0,#2
        0x0000e850:    bf18        ..      IT       NE
        0x0000e852:    480c        .H      LDRNE    r0,[pc,#48] ; [0xe884] = 0x3f2e3f
        0x0000e854:    d012        ..      BEQ      0xe87c ; am_util_stdio_vsprintf + 1840
        0x0000e856:    6020         `      STR      r0,[r4,#0]
        0x0000e858:    2003        .       MOVS     r0,#3
        0x0000e85a:    4405        .D      ADD      r5,r5,r0
        0x0000e85c:    4404        .D      ADD      r4,r4,r0
        0x0000e85e:    1c71        q.      ADDS     r1,r6,#1
        0x0000e860:    7808        .x      LDRB     r0,[r1,#0]
        0x0000e862:    2800        .(      CMP      r0,#0
        0x0000e864:    f47fac7c    ..|.    BNE      0xe160 ; am_util_stdio_vsprintf + 20
        0x0000e868:    2c00        .,      CMP      r4,#0
        0x0000e86a:    bf1c        ..      ITT      NE
        0x0000e86c:    2000        .       MOVNE    r0,#0
        0x0000e86e:    7020         p      STRBNE   r0,[r4,#0]
        0x0000e870:    4628        (F      MOV      r0,r5
        0x0000e872:    b00b        ..      ADD      sp,sp,#0x2c
        0x0000e874:    e8bd8ff0    ....    POP      {r4-r11,pc}
        0x0000e878:    4801        .H      LDR      r0,[pc,#4] ; [0xe880] = 0x302e30
        0x0000e87a:    e7ec        ..      B        0xe856 ; am_util_stdio_vsprintf + 1802
        0x0000e87c:    4802        .H      LDR      r0,[pc,#8] ; [0xe888] = 0x232e23
        0x0000e87e:    e7ea        ..      B        0xe856 ; am_util_stdio_vsprintf + 1802
    $d
        0x0000e880:    00302e30    0.0.    DCD    3157552
        0x0000e884:    003f2e3f    ?.?.    DCD    4140607
        0x0000e888:    00232e23    #.#.    DCD    2305571
    $t
    i.button0_handler
    button0_handler
        0x0000e88c:    b510        ..      PUSH     {r4,lr}
        0x0000e88e:    b082        ..      SUB      sp,sp,#8
        0x0000e890:    2400        .$      MOVS     r4,#0
        0x0000e892:    aa01        ..      ADD      r2,sp,#4
        0x0000e894:    2100        .!      MOVS     r1,#0
        0x0000e896:    2010        .       MOVS     r0,#0x10
        0x0000e898:    f7fefdb4    ....    BL       am_hal_gpio_state_read ; 0xd404
        0x0000e89c:    9801        ..      LDR      r0,[sp,#4]
        0x0000e89e:    2800        .(      CMP      r0,#0
        0x0000e8a0:    bf04        ..      ITT      EQ
        0x0000e8a2:    b002        ..      ADDEQ    sp,sp,#8
        0x0000e8a4:    bd10        ..      POPEQ    {r4,pc}
        0x0000e8a6:    2002        .       MOVS     r0,#2
        0x0000e8a8:    f7fff9c4    ....    BL       am_util_delay_ms ; 0xdc34
        0x0000e8ac:    1c64        d.      ADDS     r4,r4,#1
        0x0000e8ae:    2c0a        .,      CMP      r4,#0xa
        0x0000e8b0:    d3ef        ..      BCC      0xe892 ; button0_handler + 6
        0x0000e8b2:    2000        .       MOVS     r0,#0
        0x0000e8b4:    9000        ..      STR      r0,[sp,#0]
        0x0000e8b6:    480b        .H      LDR      r0,[pc,#44] ; [0xe8e4] = 0x10001004
        0x0000e8b8:    2201        ."      MOVS     r2,#1
        0x0000e8ba:    466b        kF      MOV      r3,sp
        0x0000e8bc:    6801        .h      LDR      r1,[r0,#0]
        0x0000e8be:    480a        .H      LDR      r0,[pc,#40] ; [0xe8e8] = 0xf2bd
        0x0000e8c0:    f001fe00    ....    BL       xTimerPendFunctionCallFromISR ; 0x104c4
        0x0000e8c4:    2800        .(      CMP      r0,#0
        0x0000e8c6:    bf19        ..      ITTEE    NE
        0x0000e8c8:    9800        ..      LDRNE    r0,[sp,#0]
        0x0000e8ca:    2800        .(      CMPNE    r0,#0
        0x0000e8cc:    b002        ..      ADDEQ    sp,sp,#8
        0x0000e8ce:    bd10        ..      POPEQ    {r4,pc}
        0x0000e8d0:    f04f5080    O..P    MOV      r0,#0x10000000
        0x0000e8d4:    4905        .I      LDR      r1,[pc,#20] ; [0xe8ec] = 0xe000ed04
        0x0000e8d6:    6008        .`      STR      r0,[r1,#0]
        0x0000e8d8:    f3bf8f4f    ..O.    DSB      
        0x0000e8dc:    f3bf8f6f    ..o.    ISB      
        0x0000e8e0:    b002        ..      ADD      sp,sp,#8
        0x0000e8e2:    bd10        ..      POP      {r4,pc}
    $d
        0x0000e8e4:    10001004    ....    DCD    268439556
        0x0000e8e8:    0000f2bd    ....    DCD    62141
        0x0000e8ec:    e000ed04    ....    DCD    3758157060
    $t
    i.button1_handler
    button1_handler
        0x0000e8f0:    b510        ..      PUSH     {r4,lr}
        0x0000e8f2:    b082        ..      SUB      sp,sp,#8
        0x0000e8f4:    2400        .$      MOVS     r4,#0
        0x0000e8f6:    aa01        ..      ADD      r2,sp,#4
        0x0000e8f8:    2100        .!      MOVS     r1,#0
        0x0000e8fa:    2012        .       MOVS     r0,#0x12
        0x0000e8fc:    f7fefd82    ....    BL       am_hal_gpio_state_read ; 0xd404
        0x0000e900:    9801        ..      LDR      r0,[sp,#4]
        0x0000e902:    2800        .(      CMP      r0,#0
        0x0000e904:    bf04        ..      ITT      EQ
        0x0000e906:    b002        ..      ADDEQ    sp,sp,#8
        0x0000e908:    bd10        ..      POPEQ    {r4,pc}
        0x0000e90a:    2002        .       MOVS     r0,#2
        0x0000e90c:    f7fff992    ....    BL       am_util_delay_ms ; 0xdc34
        0x0000e910:    1c64        d.      ADDS     r4,r4,#1
        0x0000e912:    2c0a        .,      CMP      r4,#0xa
        0x0000e914:    d3ef        ..      BCC      0xe8f6 ; button1_handler + 6
        0x0000e916:    2000        .       MOVS     r0,#0
        0x0000e918:    9000        ..      STR      r0,[sp,#0]
        0x0000e91a:    480b        .H      LDR      r0,[pc,#44] ; [0xe948] = 0x10001004
        0x0000e91c:    2202        ."      MOVS     r2,#2
        0x0000e91e:    466b        kF      MOV      r3,sp
        0x0000e920:    6801        .h      LDR      r1,[r0,#0]
        0x0000e922:    480a        .H      LDR      r0,[pc,#40] ; [0xe94c] = 0xf2bd
        0x0000e924:    f001fdce    ....    BL       xTimerPendFunctionCallFromISR ; 0x104c4
        0x0000e928:    2800        .(      CMP      r0,#0
        0x0000e92a:    bf19        ..      ITTEE    NE
        0x0000e92c:    9800        ..      LDRNE    r0,[sp,#0]
        0x0000e92e:    2800        .(      CMPNE    r0,#0
        0x0000e930:    b002        ..      ADDEQ    sp,sp,#8
        0x0000e932:    bd10        ..      POPEQ    {r4,pc}
        0x0000e934:    f04f5080    O..P    MOV      r0,#0x10000000
        0x0000e938:    4905        .I      LDR      r1,[pc,#20] ; [0xe950] = 0xe000ed04
        0x0000e93a:    6008        .`      STR      r0,[r1,#0]
        0x0000e93c:    f3bf8f4f    ..O.    DSB      
        0x0000e940:    f3bf8f6f    ..o.    ISB      
        0x0000e944:    b002        ..      ADD      sp,sp,#8
        0x0000e946:    bd10        ..      POP      {r4,pc}
    $d
        0x0000e948:    10001004    ....    DCD    268439556
        0x0000e94c:    0000f2bd    ....    DCD    62141
        0x0000e950:    e000ed04    ....    DCD    3758157060
    $t
    i.button2_handler
    button2_handler
        0x0000e954:    b510        ..      PUSH     {r4,lr}
        0x0000e956:    b082        ..      SUB      sp,sp,#8
        0x0000e958:    2400        .$      MOVS     r4,#0
        0x0000e95a:    aa01        ..      ADD      r2,sp,#4
        0x0000e95c:    2100        .!      MOVS     r1,#0
        0x0000e95e:    2013        .       MOVS     r0,#0x13
        0x0000e960:    f7fefd50    ..P.    BL       am_hal_gpio_state_read ; 0xd404
        0x0000e964:    9801        ..      LDR      r0,[sp,#4]
        0x0000e966:    2800        .(      CMP      r0,#0
        0x0000e968:    bf04        ..      ITT      EQ
        0x0000e96a:    b002        ..      ADDEQ    sp,sp,#8
        0x0000e96c:    bd10        ..      POPEQ    {r4,pc}
        0x0000e96e:    2002        .       MOVS     r0,#2
        0x0000e970:    f7fff960    ..`.    BL       am_util_delay_ms ; 0xdc34
        0x0000e974:    1c64        d.      ADDS     r4,r4,#1
        0x0000e976:    2c0a        .,      CMP      r4,#0xa
        0x0000e978:    d3ef        ..      BCC      0xe95a ; button2_handler + 6
        0x0000e97a:    2000        .       MOVS     r0,#0
        0x0000e97c:    9000        ..      STR      r0,[sp,#0]
        0x0000e97e:    480b        .H      LDR      r0,[pc,#44] ; [0xe9ac] = 0x10001004
        0x0000e980:    2204        ."      MOVS     r2,#4
        0x0000e982:    466b        kF      MOV      r3,sp
        0x0000e984:    6801        .h      LDR      r1,[r0,#0]
        0x0000e986:    480a        .H      LDR      r0,[pc,#40] ; [0xe9b0] = 0xf2bd
        0x0000e988:    f001fd9c    ....    BL       xTimerPendFunctionCallFromISR ; 0x104c4
        0x0000e98c:    2800        .(      CMP      r0,#0
        0x0000e98e:    bf19        ..      ITTEE    NE
        0x0000e990:    9800        ..      LDRNE    r0,[sp,#0]
        0x0000e992:    2800        .(      CMPNE    r0,#0
        0x0000e994:    b002        ..      ADDEQ    sp,sp,#8
        0x0000e996:    bd10        ..      POPEQ    {r4,pc}
        0x0000e998:    f04f5080    O..P    MOV      r0,#0x10000000
        0x0000e99c:    4905        .I      LDR      r1,[pc,#20] ; [0xe9b4] = 0xe000ed04
        0x0000e99e:    6008        .`      STR      r0,[r1,#0]
        0x0000e9a0:    f3bf8f4f    ..O.    DSB      
        0x0000e9a4:    f3bf8f6f    ..o.    ISB      
        0x0000e9a8:    b002        ..      ADD      sp,sp,#8
        0x0000e9aa:    bd10        ..      POP      {r4,pc}
    $d
        0x0000e9ac:    10001004    ....    DCD    268439556
        0x0000e9b0:    0000f2bd    ....    DCD    62141
        0x0000e9b4:    e000ed04    ....    DCD    3758157060
    $t
    i.disable_print_interface
    disable_print_interface
        0x0000e9b8:    f7fdbe80    ....    B        am_bsp_itm_printf_disable ; 0xc6bc
    i.eTaskConfirmSleepModeStatus
    eTaskConfirmSleepModeStatus
        0x0000e9bc:    4908        .I      LDR      r1,[pc,#32] ; [0xe9e0] = 0x1000557c
        0x0000e9be:    2001        .       MOVS     r0,#1
        0x0000e9c0:    6809        .h      LDR      r1,[r1,#0]
        0x0000e9c2:    b109        ..      CBZ      r1,0xe9c8 ; eTaskConfirmSleepModeStatus + 12
        0x0000e9c4:    2000        .       MOVS     r0,#0
        0x0000e9c6:    4770        pG      BX       lr
        0x0000e9c8:    4906        .I      LDR      r1,[pc,#24] ; [0xe9e4] = 0x10001048
        0x0000e9ca:    698a        .i      LDR      r2,[r1,#0x18]
        0x0000e9cc:    2a00        .*      CMP      r2,#0
        0x0000e9ce:    d1f9        ..      BNE      0xe9c4 ; eTaskConfirmSleepModeStatus + 8
        0x0000e9d0:    4a05        .J      LDR      r2,[pc,#20] ; [0xe9e8] = 0x10005590
        0x0000e9d2:    6812        .h      LDR      r2,[r2,#0]
        0x0000e9d4:    6849        Ih      LDR      r1,[r1,#4]
        0x0000e9d6:    1e49        I.      SUBS     r1,r1,#1
        0x0000e9d8:    428a        .B      CMP      r2,r1
        0x0000e9da:    bf08        ..      IT       EQ
        0x0000e9dc:    2002        .       MOVEQ    r0,#2
        0x0000e9de:    4770        pG      BX       lr
    $d
        0x0000e9e0:    1000557c    |U..    DCD    268457340
        0x0000e9e4:    10001048    H...    DCD    268439624
        0x0000e9e8:    10005590    .U..    DCD    268457360
    $t
    i.main
    main
        0x0000e9ec:    2100        .!      MOVS     r1,#0
        0x0000e9ee:    4608        .F      MOV      r0,r1
        0x0000e9f0:    f7fef9c2    ....    BL       am_hal_clkgen_control ; 0xcd78
        0x0000e9f4:    480c        .H      LDR      r0,[pc,#48] ; [0xea28] = 0x105fe
        0x0000e9f6:    f7fdffb9    ....    BL       am_hal_cachectrl_config ; 0xc96c
        0x0000e9fa:    f7fef9b3    ....    BL       am_hal_cachectrl_enable ; 0xcd64
        0x0000e9fe:    f7fff80f    ....    BL       am_hal_sysctrl_fpu_enable ; 0xda20
        0x0000ea02:    2001        .       MOVS     r0,#1
        0x0000ea04:    f7fff814    ....    BL       am_hal_sysctrl_fpu_stacking_enable ; 0xda30
        0x0000ea08:    f7fdfe86    ....    BL       am_bsp_low_power_init ; 0xc718
        0x0000ea0c:    2002        .       MOVS     r0,#2
        0x0000ea0e:    f7feff45    ..E.    BL       am_hal_pwrctrl_memory_enable ; 0xd89c
        0x0000ea12:    200e        .       MOVS     r0,#0xe
        0x0000ea14:    f7feff42    ..B.    BL       am_hal_pwrctrl_memory_enable ; 0xd89c
        0x0000ea18:    f7fdfe60    ..`.    BL       am_bsp_itm_printf_enable ; 0xc6dc
        0x0000ea1c:    a003        ..      ADR      r0,{pc}+0x10 ; 0xea2c
        0x0000ea1e:    f7fffb75    ..u.    BL       am_util_stdio_printf ; 0xe10c
        0x0000ea22:    f000fb4d    ..M.    BL       run_tasks ; 0xf0c0
        0x0000ea26:    e7fe        ..      B        0xea26 ; main + 58
    $d
        0x0000ea28:    000105fe    ....    DCD    67070
        0x0000ea2c:    65657246    Free    DCD    1701147206
        0x0000ea30:    534f5452    RTOS    DCD    1397707858
        0x0000ea34:    776f4c20     Low    DCD    2003782688
        0x0000ea38:    776f5020     Pow    DCD    2003783712
        0x0000ea3c:    45207265    er E    DCD    1159754341
        0x0000ea40:    706d6178    xamp    DCD    1886216568
        0x0000ea44:    000a656c    le..    DCD    681324
    $t
    i.ndigits_in_u64
    ndigits_in_u64
        0x0000ea48:    e92d01f0    -...    PUSH     {r4-r8}
        0x0000ea4c:    ea500201    P...    ORRS     r2,r0,r1
        0x0000ea50:    bf0e        ..      ITEE     EQ
        0x0000ea52:    2301        .#      MOVEQ    r3,#1
        0x0000ea54:    2300        .#      MOVNE    r3,#0
        0x0000ea56:    f04f0c00    O...    MOVNE    r12,#0
        0x0000ea5a:    d054        T.      BEQ      0xeb06 ; ndigits_in_u64 + 190
        0x0000ea5c:    2900        .)      CMP      r1,#0
        0x0000ea5e:    d03b        ;.      BEQ      0xead8 ; ndigits_in_u64 + 144
        0x0000ea60:    084c        L.      LSRS     r4,r1,#1
        0x0000ea62:    ea4f0690    O...    LSR      r6,r0,#2
        0x0000ea66:    ea4f0230    O.0.    RRX      r2,r0
        0x0000ea6a:    ea467681    F..v    ORR      r6,r6,r1,LSL #30
        0x0000ea6e:    1992        ..      ADDS     r2,r2,r6
        0x0000ea70:    eb440491    D...    ADC      r4,r4,r1,LSR #2
        0x0000ea74:    ea4f1612    O...    LSR      r6,r2,#4
        0x0000ea78:    ea467504    F..u    ORR      r5,r6,r4,LSL #28
        0x0000ea7c:    18aa        ..      ADDS     r2,r5,r2
        0x0000ea7e:    eb441414    D...    ADC      r4,r4,r4,LSR #4
        0x0000ea82:    ea4f2612    O..&    LSR      r6,r2,#8
        0x0000ea86:    ea466504    F..e    ORR      r5,r6,r4,LSL #24
        0x0000ea8a:    18aa        ..      ADDS     r2,r5,r2
        0x0000ea8c:    eb442514    D..%    ADC      r5,r4,r4,LSR #8
        0x0000ea90:    ea4f4612    O..F    LSR      r6,r2,#16
        0x0000ea94:    ea464405    F..D    ORR      r4,r6,r5,LSL #16
        0x0000ea98:    18a4        ..      ADDS     r4,r4,r2
        0x0000ea9a:    eb454215    E..B    ADC      r2,r5,r5,LSR #16
        0x0000ea9e:    18a4        ..      ADDS     r4,r4,r2
        0x0000eaa0:    eb42020c    B...    ADC      r2,r2,r12
        0x0000eaa4:    08e4        ..      LSRS     r4,r4,#3
        0x0000eaa6:    ea447442    D.Bt    ORR      r4,r4,r2,LSL #29
        0x0000eaaa:    270a        .'      MOVS     r7,#0xa
        0x0000eaac:    fba45807    ...X    UMULL    r5,r8,r4,r7
        0x0000eab0:    08d2        ..      LSRS     r2,r2,#3
        0x0000eab2:    fb028707    ....    MLA      r7,r2,r7,r8
        0x0000eab6:    2600        .&      MOVS     r6,#0
        0x0000eab8:    fb047606    ...v    MLA      r6,r4,r6,r7
        0x0000eabc:    1b40        @.      SUBS     r0,r0,r5
        0x0000eabe:    eb610106    a...    SBC      r1,r1,r6
        0x0000eac2:    1d85        ..      ADDS     r5,r0,#6
        0x0000eac4:    f1410000    A...    ADC      r0,r1,#0
        0x0000eac8:    092d        -.      LSRS     r5,r5,#4
        0x0000eaca:    ea457100    E..q    ORR      r1,r5,r0,LSL #28
        0x0000eace:    0905        ..      LSRS     r5,r0,#4
        0x0000ead0:    1908        ..      ADDS     r0,r1,r4
        0x0000ead2:    eb450102    E...    ADC      r1,r5,r2
        0x0000ead6:    e012        ..      B        0xeafe ; ndigits_in_u64 + 182
        0x0000ead8:    0841        A.      LSRS     r1,r0,#1
        0x0000eada:    eb010190    ....    ADD      r1,r1,r0,LSR #2
        0x0000eade:    eb011111    ....    ADD      r1,r1,r1,LSR #4
        0x0000eae2:    eb012111    ...!    ADD      r1,r1,r1,LSR #8
        0x0000eae6:    eb014111    ...A    ADD      r1,r1,r1,LSR #16
        0x0000eaea:    08c9        ..      LSRS     r1,r1,#3
        0x0000eaec:    424a        JB      RSBS     r2,r1,#0
        0x0000eaee:    eb020282    ....    ADD      r2,r2,r2,LSL #2
        0x0000eaf2:    eb000042    ..B.    ADD      r0,r0,r2,LSL #1
        0x0000eaf6:    1d80        ..      ADDS     r0,r0,#6
        0x0000eaf8:    eb011010    ....    ADD      r0,r1,r0,LSR #4
        0x0000eafc:    4661        aF      MOV      r1,r12
        0x0000eafe:    1c5b        [.      ADDS     r3,r3,#1
        0x0000eb00:    ea500201    P...    ORRS     r2,r0,r1
        0x0000eb04:    d1aa        ..      BNE      0xea5c ; ndigits_in_u64 + 20
        0x0000eb06:    e8bd01f0    ....    POP      {r4-r8}
        0x0000eb0a:    4618        .F      MOV      r0,r3
        0x0000eb0c:    4770        pG      BX       lr
        0x0000eb0e:    0000        ..      MOVS     r0,r0
    i.prvAddCurrentTaskToDelayedList
    prvAddCurrentTaskToDelayedList
        0x0000eb10:    e92d41f0    -..A    PUSH     {r4-r8,lr}
        0x0000eb14:    4c14        .L      LDR      r4,[pc,#80] ; [0xeb68] = 0x10001048
        0x0000eb16:    460f        .F      MOV      r7,r1
        0x0000eb18:    4605        .F      MOV      r5,r0
        0x0000eb1a:    68a6        .h      LDR      r6,[r4,#8]
        0x0000eb1c:    6820         h      LDR      r0,[r4,#0]
        0x0000eb1e:    1d00        ..      ADDS     r0,r0,#4
        0x0000eb20:    f000fba9    ....    BL       uxListRemove ; 0xf276
        0x0000eb24:    f1b53fff    ...?    CMP      r5,#0xffffffff
        0x0000eb28:    d107        ..      BNE      0xeb3a ; prvAddCurrentTaskToDelayedList + 42
        0x0000eb2a:    b137        7.      CBZ      r7,0xeb3a ; prvAddCurrentTaskToDelayedList + 42
        0x0000eb2c:    6820         h      LDR      r0,[r4,#0]
        0x0000eb2e:    e8bd41f0    ...A    POP      {r4-r8,lr}
        0x0000eb32:    1d01        ..      ADDS     r1,r0,#4
        0x0000eb34:    480d        .H      LDR      r0,[pc,#52] ; [0xeb6c] = 0x10005590
        0x0000eb36:    f000bc28    ..(.    B.W      vListInsertEnd ; 0xf38a
        0x0000eb3a:    6820         h      LDR      r0,[r4,#0]
        0x0000eb3c:    4435        5D      ADD      r5,r5,r6
        0x0000eb3e:    42b5        .B      CMP      r5,r6
        0x0000eb40:    6045        E`      STR      r5,[r0,#4]
        0x0000eb42:    6820         h      LDR      r0,[r4,#0]
        0x0000eb44:    f1000104    ....    ADD      r1,r0,#4
        0x0000eb48:    d204        ..      BCS      0xeb54 ; prvAddCurrentTaskToDelayedList + 68
        0x0000eb4a:    6b60        `k      LDR      r0,[r4,#0x34]
        0x0000eb4c:    e8bd41f0    ...A    POP      {r4-r8,lr}
        0x0000eb50:    f000bbfe    ....    B.W      vListInsert ; 0xf350
        0x0000eb54:    6b20         k      LDR      r0,[r4,#0x30]
        0x0000eb56:    f000fbfb    ....    BL       vListInsert ; 0xf350
        0x0000eb5a:    6a60        `j      LDR      r0,[r4,#0x24]
        0x0000eb5c:    42a8        .B      CMP      r0,r5
        0x0000eb5e:    bf88        ..      IT       HI
        0x0000eb60:    6265        eb      STRHI    r5,[r4,#0x24]
        0x0000eb62:    e8bd81f0    ....    POP      {r4-r8,pc}
    $d
        0x0000eb66:    0000        ..      DCW    0
        0x0000eb68:    10001048    H...    DCD    268439624
        0x0000eb6c:    10005590    .U..    DCD    268457360
    $t
    i.prvIdleTask
    prvIdleTask
        0x0000eb70:    4f20         O      LDR      r7,[pc,#128] ; [0xebf4] = 0xe000ed04
        0x0000eb72:    4d21        !M      LDR      r5,[pc,#132] ; [0xebf8] = 0x10005504
        0x0000eb74:    4c21        !L      LDR      r4,[pc,#132] ; [0xebfc] = 0x10001048
        0x0000eb76:    f04f5680    O..V    MOV      r6,#0x10000000
        0x0000eb7a:    6828        (h      LDR      r0,[r5,#0]
        0x0000eb7c:    2801        .(      CMP      r0,#1
        0x0000eb7e:    d904        ..      BLS      0xeb8a ; prvIdleTask + 26
        0x0000eb80:    603e        >`      STR      r6,[r7,#0]
        0x0000eb82:    f3bf8f4f    ..O.    DSB      
        0x0000eb86:    f3bf8f6f    ..o.    ISB      
        0x0000eb8a:    68e1        .h      LDR      r1,[r4,#0xc]
        0x0000eb8c:    2000        .       MOVS     r0,#0
        0x0000eb8e:    2900        .)      CMP      r1,#0
        0x0000eb90:    bf18        ..      IT       NE
        0x0000eb92:    2001        .       MOVNE    r0,#1
        0x0000eb94:    6821        !h      LDR      r1,[r4,#0]
        0x0000eb96:    6ac9        .j      LDR      r1,[r1,#0x2c]
        0x0000eb98:    2900        .)      CMP      r1,#0
        0x0000eb9a:    d1ee        ..      BNE      0xeb7a ; prvIdleTask + 10
        0x0000eb9c:    6829        )h      LDR      r1,[r5,#0]
        0x0000eb9e:    2901        .)      CMP      r1,#1
        0x0000eba0:    bf98        ..      IT       LS
        0x0000eba2:    2800        .(      CMPLS    r0,#0
        0x0000eba4:    d1e9        ..      BNE      0xeb7a ; prvIdleTask + 10
        0x0000eba6:    6a60        `j      LDR      r0,[r4,#0x24]
        0x0000eba8:    68a1        .h      LDR      r1,[r4,#8]
        0x0000ebaa:    eba00001    ....    SUB      r0,r0,r1
        0x0000ebae:    2802        .(      CMP      r0,#2
        0x0000ebb0:    d3e3        ..      BCC      0xeb7a ; prvIdleTask + 10
        0x0000ebb2:    6ae0        .j      LDR      r0,[r4,#0x2c]
        0x0000ebb4:    1c40        @.      ADDS     r0,r0,#1
        0x0000ebb6:    62e0        .b      STR      r0,[r4,#0x2c]
        0x0000ebb8:    6a60        `j      LDR      r0,[r4,#0x24]
        0x0000ebba:    68a1        .h      LDR      r1,[r4,#8]
        0x0000ebbc:    4288        .B      CMP      r0,r1
        0x0000ebbe:    d200        ..      BCS      0xebc2 ; prvIdleTask + 82
        0x0000ebc0:    e7fe        ..      B        0xebc0 ; prvIdleTask + 80
        0x0000ebc2:    68e1        .h      LDR      r1,[r4,#0xc]
        0x0000ebc4:    2000        .       MOVS     r0,#0
        0x0000ebc6:    2900        .)      CMP      r1,#0
        0x0000ebc8:    bf18        ..      IT       NE
        0x0000ebca:    2001        .       MOVNE    r0,#1
        0x0000ebcc:    6821        !h      LDR      r1,[r4,#0]
        0x0000ebce:    6ac9        .j      LDR      r1,[r1,#0x2c]
        0x0000ebd0:    b961        a.      CBNZ     r1,0xebec ; prvIdleTask + 124
        0x0000ebd2:    6829        )h      LDR      r1,[r5,#0]
        0x0000ebd4:    2901        .)      CMP      r1,#1
        0x0000ebd6:    bf98        ..      IT       LS
        0x0000ebd8:    2800        .(      CMPLS    r0,#0
        0x0000ebda:    d107        ..      BNE      0xebec ; prvIdleTask + 124
        0x0000ebdc:    6a60        `j      LDR      r0,[r4,#0x24]
        0x0000ebde:    68a1        .h      LDR      r1,[r4,#8]
        0x0000ebe0:    eba00001    ....    SUB      r0,r0,r1
        0x0000ebe4:    2802        .(      CMP      r0,#2
        0x0000ebe6:    bf28        (.      IT       CS
        0x0000ebe8:    f000fc66    ..f.    BLCS     vPortSuppressTicksAndSleep ; 0xf4b8
        0x0000ebec:    f001fb6a    ..j.    BL       xTaskResumeAll ; 0x102c4
        0x0000ebf0:    e7c3        ..      B        0xeb7a ; prvIdleTask + 10
    $d
        0x0000ebf2:    0000        ..      DCW    0
        0x0000ebf4:    e000ed04    ....    DCD    3758157060
        0x0000ebf8:    10005504    .U..    DCD    268457220
        0x0000ebfc:    10001048    H...    DCD    268439624
    $t
    i.prvSampleTimeNow
    prvSampleTimeNow
        0x0000ec00:    e92d43f0    -..C    PUSH     {r4-r9,lr}
        0x0000ec04:    b085        ..      SUB      sp,sp,#0x14
        0x0000ec06:    4680        .F      MOV      r8,r0
        0x0000ec08:    f001fab2    ....    BL       xTaskGetTickCount ; 0x10170
        0x0000ec0c:    4c27        'L      LDR      r4,[pc,#156] ; [0xecac] = 0x10001080
        0x0000ec0e:    4607        .F      MOV      r7,r0
        0x0000ec10:    68a0        .h      LDR      r0,[r4,#8]
        0x0000ec12:    4287        .B      CMP      r7,r0
        0x0000ec14:    bf28        (.      IT       CS
        0x0000ec16:    2000        .       MOVCS    r0,#0
        0x0000ec18:    d238        8.      BCS      0xec8c ; prvSampleTimeNow + 140
        0x0000ec1a:    68e0        .h      LDR      r0,[r4,#0xc]
        0x0000ec1c:    6800        .h      LDR      r0,[r0,#0]
        0x0000ec1e:    2800        .(      CMP      r0,#0
        0x0000ec20:    d02f        /.      BEQ      0xec82 ; prvSampleTimeNow + 130
        0x0000ec22:    68e0        .h      LDR      r0,[r4,#0xc]
        0x0000ec24:    68c0        .h      LDR      r0,[r0,#0xc]
        0x0000ec26:    68c5        .h      LDR      r5,[r0,#0xc]
        0x0000ec28:    6806        .h      LDR      r6,[r0,#0]
        0x0000ec2a:    1d28        (.      ADDS     r0,r5,#4
        0x0000ec2c:    f000fb23    ..#.    BL       uxListRemove ; 0xf276
        0x0000ec30:    6a69        ij      LDR      r1,[r5,#0x24]
        0x0000ec32:    4628        (F      MOV      r0,r5
        0x0000ec34:    4788        .G      BLX      r1
        0x0000ec36:    69e8        .i      LDR      r0,[r5,#0x1c]
        0x0000ec38:    2801        .(      CMP      r0,#1
        0x0000ec3a:    d11e        ..      BNE      0xec7a ; prvSampleTimeNow + 122
        0x0000ec3c:    69a8        .i      LDR      r0,[r5,#0x18]
        0x0000ec3e:    4430        0D      ADD      r0,r0,r6
        0x0000ec40:    42b0        .B      CMP      r0,r6
        0x0000ec42:    d906        ..      BLS      0xec52 ; prvSampleTimeNow + 82
        0x0000ec44:    612d        -a      STR      r5,[r5,#0x10]
        0x0000ec46:    6068        h`      STR      r0,[r5,#4]
        0x0000ec48:    1d29        ).      ADDS     r1,r5,#4
        0x0000ec4a:    68e0        .h      LDR      r0,[r4,#0xc]
        0x0000ec4c:    f000fb80    ....    BL       vListInsert ; 0xf350
        0x0000ec50:    e013        ..      B        0xec7a ; prvSampleTimeNow + 122
        0x0000ec52:    2000        .       MOVS     r0,#0
        0x0000ec54:    4681        .F      MOV      r9,r0
        0x0000ec56:    b305        ..      CBZ      r5,0xec9a ; prvSampleTimeNow + 154
        0x0000ec58:    6821        !h      LDR      r1,[r4,#0]
        0x0000ec5a:    b329        ).      CBZ      r1,0xeca8 ; prvSampleTimeNow + 168
        0x0000ec5c:    e9cd0600    ....    STRD     r0,r6,[sp,#0]
        0x0000ec60:    9502        ..      STR      r5,[sp,#8]
        0x0000ec62:    f001fa77    ..w.    BL       xTaskGetSchedulerState ; 0x10154
        0x0000ec66:    2802        .(      CMP      r0,#2
        0x0000ec68:    f04f0300    O...    MOV      r3,#0
        0x0000ec6c:    d016        ..      BEQ      0xec9c ; prvSampleTimeNow + 156
        0x0000ec6e:    2200        ."      MOVS     r2,#0
        0x0000ec70:    4669        iF      MOV      r1,sp
        0x0000ec72:    6820         h      LDR      r0,[r4,#0]
        0x0000ec74:    f000ffb6    ....    BL       xQueueGenericSend ; 0xfbe4
        0x0000ec78:    b1b0        ..      CBZ      r0,0xeca8 ; prvSampleTimeNow + 168
        0x0000ec7a:    68e0        .h      LDR      r0,[r4,#0xc]
        0x0000ec7c:    6800        .h      LDR      r0,[r0,#0]
        0x0000ec7e:    2800        .(      CMP      r0,#0
        0x0000ec80:    d1cf        ..      BNE      0xec22 ; prvSampleTimeNow + 34
        0x0000ec82:    e9d41003    ....    LDRD     r1,r0,[r4,#0xc]
        0x0000ec86:    e9c40103    ....    STRD     r0,r1,[r4,#0xc]
        0x0000ec8a:    2001        .       MOVS     r0,#1
        0x0000ec8c:    f8c80000    ....    STR      r0,[r8,#0]
        0x0000ec90:    60a7        .`      STR      r7,[r4,#8]
        0x0000ec92:    b005        ..      ADD      sp,sp,#0x14
        0x0000ec94:    4638        8F      MOV      r0,r7
        0x0000ec96:    e8bd83f0    ....    POP      {r4-r9,pc}
        0x0000ec9a:    e7fe        ..      B        0xec9a ; prvSampleTimeNow + 154
        0x0000ec9c:    464a        JF      MOV      r2,r9
        0x0000ec9e:    4669        iF      MOV      r1,sp
        0x0000eca0:    6820         h      LDR      r0,[r4,#0]
        0x0000eca2:    f000ff9f    ....    BL       xQueueGenericSend ; 0xfbe4
        0x0000eca6:    e7e7        ..      B        0xec78 ; prvSampleTimeNow + 120
        0x0000eca8:    e7fe        ..      B        0xeca8 ; prvSampleTimeNow + 168
    $d
        0x0000ecaa:    0000        ..      DCW    0
        0x0000ecac:    10001080    ....    DCD    268439680
    $t
    i.prvTaskExitError
    prvTaskExitError
        0x0000ecb0:    4806        .H      LDR      r0,[pc,#24] ; [0xeccc] = 0x1000100c
        0x0000ecb2:    6880        .h      LDR      r0,[r0,#8]
        0x0000ecb4:    f1b03fff    ...?    CMP      r0,#0xffffffff
        0x0000ecb8:    d000        ..      BEQ      0xecbc ; prvTaskExitError + 12
        0x0000ecba:    e7fe        ..      B        0xecba ; prvTaskExitError + 10
        0x0000ecbc:    2080        .       MOVS     r0,#0x80
        0x0000ecbe:    f3808811    ....    MSR      BASEPRI,r0
        0x0000ecc2:    f3bf8f4f    ..O.    DSB      
        0x0000ecc6:    f3bf8f6f    ..o.    ISB      
        0x0000ecca:    e7fe        ..      B        0xecca ; prvTaskExitError + 26
    $d
        0x0000eccc:    1000100c    ....    DCD    268439564
    $t
    i.prvTimerTask
    prvTimerTask
        0x0000ecd0:    f8dfb27c    ..|.    LDR      r11,[pc,#636] ; [0xef50] = 0xe000ed04
        0x0000ecd4:    4c9f        .L      LDR      r4,[pc,#636] ; [0xef54] = 0x10001080
        0x0000ecd6:    b08e        ..      SUB      sp,sp,#0x38
        0x0000ecd8:    f04f5a80    O..Z    MOV      r10,#0x10000000
        0x0000ecdc:    68e0        .h      LDR      r0,[r4,#0xc]
        0x0000ecde:    6801        .h      LDR      r1,[r0,#0]
        0x0000ece0:    2900        .)      CMP      r1,#0
        0x0000ece2:    bf07        ..      ITTEE    EQ
        0x0000ece4:    2601        .&      MOVEQ    r6,#1
        0x0000ece6:    2500        .%      MOVEQ    r5,#0
        0x0000ece8:    2600        .&      MOVNE    r6,#0
        0x0000ecea:    68c0        .h      LDRNE    r0,[r0,#0xc]
        0x0000ecec:    bf18        ..      IT       NE
        0x0000ecee:    6805        .h      LDRNE    r5,[r0,#0]
        0x0000ecf0:    f000fdcc    ....    BL       vTaskSuspendAll ; 0xf88c
        0x0000ecf4:    a805        ..      ADD      r0,sp,#0x14
        0x0000ecf6:    f7ffff83    ....    BL       prvSampleTimeNow ; 0xec00
        0x0000ecfa:    4607        .F      MOV      r7,r0
        0x0000ecfc:    9805        ..      LDR      r0,[sp,#0x14]
        0x0000ecfe:    2800        .(      CMP      r0,#0
        0x0000ed00:    d032        2.      BEQ      0xed68 ; prvTimerTask + 152
        0x0000ed02:    f001fadf    ....    BL       xTaskResumeAll ; 0x102c4
        0x0000ed06:    2200        ."      MOVS     r2,#0
        0x0000ed08:    a906        ..      ADD      r1,sp,#0x18
        0x0000ed0a:    6820         h      LDR      r0,[r4,#0]
        0x0000ed0c:    f001f89a    ....    BL       xQueueReceive ; 0xfe44
        0x0000ed10:    2800        .(      CMP      r0,#0
        0x0000ed12:    d0e3        ..      BEQ      0xecdc ; prvTimerTask + 12
        0x0000ed14:    9806        ..      LDR      r0,[sp,#0x18]
        0x0000ed16:    2800        .(      CMP      r0,#0
        0x0000ed18:    da07        ..      BGE      0xed2a ; prvTimerTask + 90
        0x0000ed1a:    e9dd0108    ....    LDRD     r0,r1,[sp,#0x20]
        0x0000ed1e:    9a07        ..      LDR      r2,[sp,#0x1c]
        0x0000ed20:    4790        .G      BLX      r2
        0x0000ed22:    9806        ..      LDR      r0,[sp,#0x18]
        0x0000ed24:    2800        .(      CMP      r0,#0
        0x0000ed26:    f2c08109    ....    BLT.W    0xef3c ; prvTimerTask + 620
        0x0000ed2a:    9f08        ..      LDR      r7,[sp,#0x20]
        0x0000ed2c:    6978        xi      LDR      r0,[r7,#0x14]
        0x0000ed2e:    2800        .(      CMP      r0,#0
        0x0000ed30:    bf1c        ..      ITT      NE
        0x0000ed32:    1d38        8.      ADDNE    r0,r7,#4
        0x0000ed34:    f000fa9f    ....    BLNE     uxListRemove ; 0xf276
        0x0000ed38:    f001fa1a    ....    BL       xTaskGetTickCount ; 0x10170
        0x0000ed3c:    4680        .F      MOV      r8,r0
        0x0000ed3e:    68a0        .h      LDR      r0,[r4,#8]
        0x0000ed40:    4580        .E      CMP      r8,r0
        0x0000ed42:    d277        w.      BCS      0xee34 ; prvTimerTask + 356
        0x0000ed44:    68e0        .h      LDR      r0,[r4,#0xc]
        0x0000ed46:    6800        .h      LDR      r0,[r0,#0]
        0x0000ed48:    2800        .(      CMP      r0,#0
        0x0000ed4a:    d074        t.      BEQ      0xee36 ; prvTimerTask + 358
        0x0000ed4c:    68e0        .h      LDR      r0,[r4,#0xc]
        0x0000ed4e:    68c0        .h      LDR      r0,[r0,#0xc]
        0x0000ed50:    68c5        .h      LDR      r5,[r0,#0xc]
        0x0000ed52:    6806        .h      LDR      r6,[r0,#0]
        0x0000ed54:    1d28        (.      ADDS     r0,r5,#4
        0x0000ed56:    f000fa8e    ....    BL       uxListRemove ; 0xf276
        0x0000ed5a:    6a69        ij      LDR      r1,[r5,#0x24]
        0x0000ed5c:    4628        (F      MOV      r0,r5
        0x0000ed5e:    4788        .G      BLX      r1
        0x0000ed60:    69e8        .i      LDR      r0,[r5,#0x1c]
        0x0000ed62:    2801        .(      CMP      r0,#1
        0x0000ed64:    d05b        [.      BEQ      0xee1e ; prvTimerTask + 334
        0x0000ed66:    e07b        {.      B        0xee60 ; prvTimerTask + 400
        0x0000ed68:    b1ae        ..      CBZ      r6,0xed96 ; prvTimerTask + 198
        0x0000ed6a:    6920         i      LDR      r0,[r4,#0x10]
        0x0000ed6c:    6800        .h      LDR      r0,[r0,#0]
        0x0000ed6e:    2800        .(      CMP      r0,#0
        0x0000ed70:    bf0c        ..      ITE      EQ
        0x0000ed72:    2601        .&      MOVEQ    r6,#1
        0x0000ed74:    2600        .&      MOVNE    r6,#0
        0x0000ed76:    1be9        ..      SUBS     r1,r5,r7
        0x0000ed78:    4632        2F      MOV      r2,r6
        0x0000ed7a:    6820         h      LDR      r0,[r4,#0]
        0x0000ed7c:    f000fc0e    ....    BL       vQueueWaitForMessageRestricted ; 0xf59c
        0x0000ed80:    f001faa0    ....    BL       xTaskResumeAll ; 0x102c4
        0x0000ed84:    2800        .(      CMP      r0,#0
        0x0000ed86:    d1be        ..      BNE      0xed06 ; prvTimerTask + 54
        0x0000ed88:    f8cba000    ....    STR      r10,[r11,#0]
        0x0000ed8c:    f3bf8f4f    ..O.    DSB      
        0x0000ed90:    f3bf8f6f    ..o.    ISB      
        0x0000ed94:    e7b7        ..      B        0xed06 ; prvTimerTask + 54
        0x0000ed96:    42bd        .B      CMP      r5,r7
        0x0000ed98:    d8ed        ..      BHI      0xed76 ; prvTimerTask + 166
        0x0000ed9a:    f001fa93    ....    BL       xTaskResumeAll ; 0x102c4
        0x0000ed9e:    68e0        .h      LDR      r0,[r4,#0xc]
        0x0000eda0:    68c0        .h      LDR      r0,[r0,#0xc]
        0x0000eda2:    68c6        .h      LDR      r6,[r0,#0xc]
        0x0000eda4:    1d30        0.      ADDS     r0,r6,#4
        0x0000eda6:    f000fa66    ..f.    BL       uxListRemove ; 0xf276
        0x0000edaa:    69f0        .i      LDR      r0,[r6,#0x1c]
        0x0000edac:    2801        .(      CMP      r0,#1
        0x0000edae:    d12a        *.      BNE      0xee06 ; prvTimerTask + 310
        0x0000edb0:    69b0        .i      LDR      r0,[r6,#0x18]
        0x0000edb2:    6136        6a      STR      r6,[r6,#0x10]
        0x0000edb4:    4428        (D      ADD      r0,r0,r5
        0x0000edb6:    6070        p`      STR      r0,[r6,#4]
        0x0000edb8:    42b8        .B      CMP      r0,r7
        0x0000edba:    d807        ..      BHI      0xedcc ; prvTimerTask + 252
        0x0000edbc:    69b0        .i      LDR      r0,[r6,#0x18]
        0x0000edbe:    1b79        y.      SUBS     r1,r7,r5
        0x0000edc0:    4281        .B      CMP      r1,r0
        0x0000edc2:    bf3c        <.      ITT      CC
        0x0000edc4:    1d31        1.      ADDCC    r1,r6,#4
        0x0000edc6:    6920         i      LDRCC    r0,[r4,#0x10]
        0x0000edc8:    d209        ..      BCS      0xedde ; prvTimerTask + 270
        0x0000edca:    e005        ..      B        0xedd8 ; prvTimerTask + 264
        0x0000edcc:    42bd        .B      CMP      r5,r7
        0x0000edce:    d901        ..      BLS      0xedd4 ; prvTimerTask + 260
        0x0000edd0:    4285        .B      CMP      r5,r0
        0x0000edd2:    d904        ..      BLS      0xedde ; prvTimerTask + 270
        0x0000edd4:    1d31        1.      ADDS     r1,r6,#4
        0x0000edd6:    68e0        .h      LDR      r0,[r4,#0xc]
        0x0000edd8:    f000faba    ....    BL       vListInsert ; 0xf350
        0x0000eddc:    e013        ..      B        0xee06 ; prvTimerTask + 310
        0x0000edde:    2000        .       MOVS     r0,#0
        0x0000ede0:    4607        .F      MOV      r7,r0
        0x0000ede2:    b1a6        ..      CBZ      r6,0xee0e ; prvTimerTask + 318
        0x0000ede4:    6821        !h      LDR      r1,[r4,#0]
        0x0000ede6:    b1c9        ..      CBZ      r1,0xee1c ; prvTimerTask + 332
        0x0000ede8:    e9cd0506    ....    STRD     r0,r5,[sp,#0x18]
        0x0000edec:    9608        ..      STR      r6,[sp,#0x20]
        0x0000edee:    f001f9b1    ....    BL       xTaskGetSchedulerState ; 0x10154
        0x0000edf2:    2802        .(      CMP      r0,#2
        0x0000edf4:    f04f0300    O...    MOV      r3,#0
        0x0000edf8:    d00a        ..      BEQ      0xee10 ; prvTimerTask + 320
        0x0000edfa:    2200        ."      MOVS     r2,#0
        0x0000edfc:    a906        ..      ADD      r1,sp,#0x18
        0x0000edfe:    6820         h      LDR      r0,[r4,#0]
        0x0000ee00:    f000fef0    ....    BL       xQueueGenericSend ; 0xfbe4
        0x0000ee04:    b150        P.      CBZ      r0,0xee1c ; prvTimerTask + 332
        0x0000ee06:    6a71        qj      LDR      r1,[r6,#0x24]
        0x0000ee08:    4630        0F      MOV      r0,r6
        0x0000ee0a:    4788        .G      BLX      r1
        0x0000ee0c:    e77b        {.      B        0xed06 ; prvTimerTask + 54
        0x0000ee0e:    e7fe        ..      B        0xee0e ; prvTimerTask + 318
        0x0000ee10:    463a        :F      MOV      r2,r7
        0x0000ee12:    a906        ..      ADD      r1,sp,#0x18
        0x0000ee14:    6820         h      LDR      r0,[r4,#0]
        0x0000ee16:    f000fee5    ....    BL       xQueueGenericSend ; 0xfbe4
        0x0000ee1a:    e7f3        ..      B        0xee04 ; prvTimerTask + 308
        0x0000ee1c:    e7fe        ..      B        0xee1c ; prvTimerTask + 332
        0x0000ee1e:    69a8        .i      LDR      r0,[r5,#0x18]
        0x0000ee20:    4430        0D      ADD      r0,r0,r6
        0x0000ee22:    42b0        .B      CMP      r0,r6
        0x0000ee24:    d908        ..      BLS      0xee38 ; prvTimerTask + 360
        0x0000ee26:    612d        -a      STR      r5,[r5,#0x10]
        0x0000ee28:    6068        h`      STR      r0,[r5,#4]
        0x0000ee2a:    1d29        ).      ADDS     r1,r5,#4
        0x0000ee2c:    68e0        .h      LDR      r0,[r4,#0xc]
        0x0000ee2e:    f000fa8f    ....    BL       vListInsert ; 0xf350
        0x0000ee32:    e015        ..      B        0xee60 ; prvTimerTask + 400
        0x0000ee34:    e01d        ..      B        0xee72 ; prvTimerTask + 418
        0x0000ee36:    e018        ..      B        0xee6a ; prvTimerTask + 410
        0x0000ee38:    2000        .       MOVS     r0,#0
        0x0000ee3a:    4681        .F      MOV      r9,r0
        0x0000ee3c:    b32d        -.      CBZ      r5,0xee8a ; prvTimerTask + 442
        0x0000ee3e:    6821        !h      LDR      r1,[r4,#0]
        0x0000ee40:    b351        Q.      CBZ      r1,0xee98 ; prvTimerTask + 456
        0x0000ee42:    e9cd0602    ....    STRD     r0,r6,[sp,#8]
        0x0000ee46:    9504        ..      STR      r5,[sp,#0x10]
        0x0000ee48:    f001f984    ....    BL       xTaskGetSchedulerState ; 0x10154
        0x0000ee4c:    2802        .(      CMP      r0,#2
        0x0000ee4e:    f04f0300    O...    MOV      r3,#0
        0x0000ee52:    d01b        ..      BEQ      0xee8c ; prvTimerTask + 444
        0x0000ee54:    2200        ."      MOVS     r2,#0
        0x0000ee56:    a902        ..      ADD      r1,sp,#8
        0x0000ee58:    6820         h      LDR      r0,[r4,#0]
        0x0000ee5a:    f000fec3    ....    BL       xQueueGenericSend ; 0xfbe4
        0x0000ee5e:    b1d8        ..      CBZ      r0,0xee98 ; prvTimerTask + 456
        0x0000ee60:    68e0        .h      LDR      r0,[r4,#0xc]
        0x0000ee62:    6800        .h      LDR      r0,[r0,#0]
        0x0000ee64:    2800        .(      CMP      r0,#0
        0x0000ee66:    f47faf71    ..q.    BNE      0xed4c ; prvTimerTask + 124
        0x0000ee6a:    e9d41003    ....    LDRD     r1,r0,[r4,#0xc]
        0x0000ee6e:    e9c40103    ....    STRD     r0,r1,[r4,#0xc]
        0x0000ee72:    f8c48008    ....    STR      r8,[r4,#8]
        0x0000ee76:    9806        ..      LDR      r0,[sp,#0x18]
        0x0000ee78:    280a        .(      CMP      r0,#0xa
        0x0000ee7a:    d25f        _.      BCS      0xef3c ; prvTimerTask + 620
        0x0000ee7c:    e8dff000    ....    TBB      [pc,r0]
    $d
        0x0000ee80:    5e0d0d0d    ...^    DCD    1577913613
        0x0000ee84:    0d0d5b49    I[..    DCD    218979145
        0x0000ee88:    495e        ^I      DCW    18782
    $t
        0x0000ee8a:    e7fe        ..      B        0xee8a ; prvTimerTask + 442
        0x0000ee8c:    464a        JF      MOV      r2,r9
        0x0000ee8e:    a902        ..      ADD      r1,sp,#8
        0x0000ee90:    6820         h      LDR      r0,[r4,#0]
        0x0000ee92:    f000fea7    ....    BL       xQueueGenericSend ; 0xfbe4
        0x0000ee96:    e7e2        ..      B        0xee5e ; prvTimerTask + 398
        0x0000ee98:    e7fe        ..      B        0xee98 ; prvTimerTask + 456
        0x0000ee9a:    9807        ..      LDR      r0,[sp,#0x1c]
        0x0000ee9c:    69b9        .i      LDR      r1,[r7,#0x18]
        0x0000ee9e:    4408        .D      ADD      r0,r0,r1
        0x0000eea0:    9907        ..      LDR      r1,[sp,#0x1c]
        0x0000eea2:    613f        ?a      STR      r7,[r7,#0x10]
        0x0000eea4:    6078        x`      STR      r0,[r7,#4]
        0x0000eea6:    4540        @E      CMP      r0,r8
        0x0000eea8:    d805        ..      BHI      0xeeb6 ; prvTimerTask + 486
        0x0000eeaa:    69b8        .i      LDR      r0,[r7,#0x18]
        0x0000eeac:    eba80101    ....    SUB      r1,r8,r1
        0x0000eeb0:    4281        .B      CMP      r1,r0
        0x0000eeb2:    d204        ..      BCS      0xeebe ; prvTimerTask + 494
        0x0000eeb4:    e038        8.      B        0xef28 ; prvTimerTask + 600
        0x0000eeb6:    4541        AE      CMP      r1,r8
        0x0000eeb8:    d93a        :.      BLS      0xef30 ; prvTimerTask + 608
        0x0000eeba:    4281        .B      CMP      r1,r0
        0x0000eebc:    d838        8.      BHI      0xef30 ; prvTimerTask + 608
        0x0000eebe:    6a79        yj      LDR      r1,[r7,#0x24]
        0x0000eec0:    4638        8F      MOV      r0,r7
        0x0000eec2:    4788        .G      BLX      r1
        0x0000eec4:    69f8        .i      LDR      r0,[r7,#0x1c]
        0x0000eec6:    2801        .(      CMP      r0,#1
        0x0000eec8:    d003        ..      BEQ      0xeed2 ; prvTimerTask + 514
        0x0000eeca:    e037        7.      B        0xef3c ; prvTimerTask + 620
        0x0000eecc:    f000fa40    ..@.    BL       vListInsert ; 0xf350
        0x0000eed0:    e034        4.      B        0xef3c ; prvTimerTask + 620
        0x0000eed2:    9907        ..      LDR      r1,[sp,#0x1c]
        0x0000eed4:    69ba        .i      LDR      r2,[r7,#0x18]
        0x0000eed6:    2000        .       MOVS     r0,#0
        0x0000eed8:    4411        .D      ADD      r1,r1,r2
        0x0000eeda:    4605        .F      MOV      r5,r0
        0x0000eedc:    b18f        ..      CBZ      r7,0xef02 ; prvTimerTask + 562
        0x0000eede:    6822        "h      LDR      r2,[r4,#0]
        0x0000eee0:    b1b2        ..      CBZ      r2,0xef10 ; prvTimerTask + 576
        0x0000eee2:    9702        ..      STR      r7,[sp,#8]
        0x0000eee4:    e9cd0100    ....    STRD     r0,r1,[sp,#0]
        0x0000eee8:    f001f934    ..4.    BL       xTaskGetSchedulerState ; 0x10154
        0x0000eeec:    2802        .(      CMP      r0,#2
        0x0000eeee:    f04f0300    O...    MOV      r3,#0
        0x0000eef2:    d007        ..      BEQ      0xef04 ; prvTimerTask + 564
        0x0000eef4:    2200        ."      MOVS     r2,#0
        0x0000eef6:    4669        iF      MOV      r1,sp
        0x0000eef8:    6820         h      LDR      r0,[r4,#0]
        0x0000eefa:    f000fe73    ..s.    BL       xQueueGenericSend ; 0xfbe4
        0x0000eefe:    b138        8.      CBZ      r0,0xef10 ; prvTimerTask + 576
        0x0000ef00:    e01c        ..      B        0xef3c ; prvTimerTask + 620
        0x0000ef02:    e7fe        ..      B        0xef02 ; prvTimerTask + 562
        0x0000ef04:    462a        *F      MOV      r2,r5
        0x0000ef06:    4669        iF      MOV      r1,sp
        0x0000ef08:    6820         h      LDR      r0,[r4,#0]
        0x0000ef0a:    f000fe6b    ..k.    BL       xQueueGenericSend ; 0xfbe4
        0x0000ef0e:    e7f6        ..      B        0xeefe ; prvTimerTask + 558
        0x0000ef10:    e7fe        ..      B        0xef10 ; prvTimerTask + 576
        0x0000ef12:    9807        ..      LDR      r0,[sp,#0x1c]
        0x0000ef14:    61b8        .a      STR      r0,[r7,#0x18]
        0x0000ef16:    b150        P.      CBZ      r0,0xef2e ; prvTimerTask + 606
        0x0000ef18:    4440        @D      ADD      r0,r0,r8
        0x0000ef1a:    613f        ?a      STR      r7,[r7,#0x10]
        0x0000ef1c:    6078        x`      STR      r0,[r7,#4]
        0x0000ef1e:    4580        .E      CMP      r8,r0
        0x0000ef20:    d306        ..      BCC      0xef30 ; prvTimerTask + 608
        0x0000ef22:    69b8        .i      LDR      r0,[r7,#0x18]
        0x0000ef24:    2800        .(      CMP      r0,#0
        0x0000ef26:    d909        ..      BLS      0xef3c ; prvTimerTask + 620
        0x0000ef28:    1d39        9.      ADDS     r1,r7,#4
        0x0000ef2a:    6920         i      LDR      r0,[r4,#0x10]
        0x0000ef2c:    e7ce        ..      B        0xeecc ; prvTimerTask + 508
        0x0000ef2e:    e7fe        ..      B        0xef2e ; prvTimerTask + 606
        0x0000ef30:    1d39        9.      ADDS     r1,r7,#4
        0x0000ef32:    68e0        .h      LDR      r0,[r4,#0xc]
        0x0000ef34:    e7ca        ..      B        0xeecc ; prvTimerTask + 508
        0x0000ef36:    4638        8F      MOV      r0,r7
        0x0000ef38:    f000fa5c    ..\.    BL       vPortFree ; 0xf3f4
        0x0000ef3c:    2200        ."      MOVS     r2,#0
        0x0000ef3e:    a906        ..      ADD      r1,sp,#0x18
        0x0000ef40:    6820         h      LDR      r0,[r4,#0]
        0x0000ef42:    f000ff7f    ....    BL       xQueueReceive ; 0xfe44
        0x0000ef46:    2800        .(      CMP      r0,#0
        0x0000ef48:    f47faee4    ....    BNE      0xed14 ; prvTimerTask + 68
        0x0000ef4c:    e6c6        ..      B        0xecdc ; prvTimerTask + 12
    $d
        0x0000ef4e:    0000        ..      DCW    0
        0x0000ef50:    e000ed04    ....    DCD    3758157060
        0x0000ef54:    10001080    ....    DCD    268439680
    $t
    i.prvUnlockQueue
    prvUnlockQueue
        0x0000ef58:    b570        p.      PUSH     {r4-r6,lr}
        0x0000ef5a:    4604        .F      MOV      r4,r0
        0x0000ef5c:    f000fa22    ..".    BL       vPortEnterCritical ; 0xf3a4
        0x0000ef60:    f9945045    ..EP    LDRSB    r5,[r4,#0x45]
        0x0000ef64:    2d00        .-      CMP      r5,#0
        0x0000ef66:    dd0d        ..      BLE      0xef84 ; prvUnlockQueue + 44
        0x0000ef68:    6a60        `j      LDR      r0,[r4,#0x24]
        0x0000ef6a:    b158        X.      CBZ      r0,0xef84 ; prvUnlockQueue + 44
        0x0000ef6c:    f1040024    ..$.    ADD      r0,r4,#0x24
        0x0000ef70:    f001f968    ..h.    BL       xTaskRemoveFromEventList ; 0x10244
        0x0000ef74:    2800        .(      CMP      r0,#0
        0x0000ef76:    bf18        ..      IT       NE
        0x0000ef78:    f000fb3e    ..>.    BLNE     vTaskMissedYield ; 0xf5f8
        0x0000ef7c:    1e68        h.      SUBS     r0,r5,#1
        0x0000ef7e:    b245        E.      SXTB     r5,r0
        0x0000ef80:    2d00        .-      CMP      r5,#0
        0x0000ef82:    dcf1        ..      BGT      0xef68 ; prvUnlockQueue + 16
        0x0000ef84:    f04f36ff    O..6    MOV      r6,#0xffffffff
        0x0000ef88:    f8846045    ..E`    STRB     r6,[r4,#0x45]
        0x0000ef8c:    f000fa24    ..$.    BL       vPortExitCritical ; 0xf3d8
        0x0000ef90:    f000fa08    ....    BL       vPortEnterCritical ; 0xf3a4
        0x0000ef94:    f9945044    ..DP    LDRSB    r5,[r4,#0x44]
        0x0000ef98:    2d00        .-      CMP      r5,#0
        0x0000ef9a:    dd0d        ..      BLE      0xefb8 ; prvUnlockQueue + 96
        0x0000ef9c:    6920         i      LDR      r0,[r4,#0x10]
        0x0000ef9e:    b158        X.      CBZ      r0,0xefb8 ; prvUnlockQueue + 96
        0x0000efa0:    f1040010    ....    ADD      r0,r4,#0x10
        0x0000efa4:    f001f94e    ..N.    BL       xTaskRemoveFromEventList ; 0x10244
        0x0000efa8:    2800        .(      CMP      r0,#0
        0x0000efaa:    bf18        ..      IT       NE
        0x0000efac:    f000fb24    ..$.    BLNE     vTaskMissedYield ; 0xf5f8
        0x0000efb0:    1e68        h.      SUBS     r0,r5,#1
        0x0000efb2:    b245        E.      SXTB     r5,r0
        0x0000efb4:    2d00        .-      CMP      r5,#0
        0x0000efb6:    dcf1        ..      BGT      0xef9c ; prvUnlockQueue + 68
        0x0000efb8:    f8846044    ..D`    STRB     r6,[r4,#0x44]
        0x0000efbc:    e8bd4070    ..p@    POP      {r4-r6,lr}
        0x0000efc0:    f000ba0a    ....    B.W      vPortExitCritical ; 0xf3d8
    i.pvPortMalloc
    pvPortMalloc
        0x0000efc4:    b570        p.      PUSH     {r4-r6,lr}
        0x0000efc6:    4604        .F      MOV      r4,r0
        0x0000efc8:    2500        .%      MOVS     r5,#0
        0x0000efca:    f000fc5f    .._.    BL       vTaskSuspendAll ; 0xf88c
        0x0000efce:    4e2e        .N      LDR      r6,[pc,#184] ; [0xf088] = 0x10001030
        0x0000efd0:    f1060c08    ....    ADD      r12,r6,#8
        0x0000efd4:    6871        qh      LDR      r1,[r6,#4]
        0x0000efd6:    f1060010    ....    ADD      r0,r6,#0x10
        0x0000efda:    b969        i.      CBNZ     r1,0xeff8 ; pvPortMalloc + 52
        0x0000efdc:    492b        +I      LDR      r1,[pc,#172] ; [0xf08c] = 0x1000150c
        0x0000efde:    2200        ."      MOVS     r2,#0
        0x0000efe0:    f0210107    !...    BIC      r1,r1,#7
        0x0000efe4:    e9cc1200    ....    STRD     r1,r2,[r12,#0]
        0x0000efe8:    f64373f8    C..s    MOV      r3,#0x3ff8
        0x0000efec:    e9c02300    ...#    STRD     r2,r3,[r0,#0]
        0x0000eff0:    e9c10300    ....    STRD     r0,r3,[r1,#0]
        0x0000eff4:    2101        .!      MOVS     r1,#1
        0x0000eff6:    6071        q`      STR      r1,[r6,#4]
        0x0000eff8:    f64371f7    C..q    MOV      r1,#0x3ff7
        0x0000effc:    b184        ..      CBZ      r4,0xf020 ; pvPortMalloc + 92
        0x0000effe:    f1040208    ....    ADD      r2,r4,#8
        0x0000f002:    f0120f07    ....    TST      r2,#7
        0x0000f006:    d004        ..      BEQ      0xf012 ; pvPortMalloc + 78
        0x0000f008:    f0020307    ....    AND      r3,r2,#7
        0x0000f00c:    f1c30308    ....    RSB      r3,r3,#8
        0x0000f010:    441a        .D      ADD      r2,r2,r3
        0x0000f012:    1e53        S.      SUBS     r3,r2,#1
        0x0000f014:    428b        .B      CMP      r3,r1
        0x0000f016:    bf3c        <.      ITT      CC
        0x0000f018:    4b1d        .K      LDRCC    r3,[pc,#116] ; [0xf090] = 0x10001038
        0x0000f01a:    f8dc1000    ....    LDRCC    r1,[r12,#0]
        0x0000f01e:    d302        ..      BCC      0xf026 ; pvPortMalloc + 98
        0x0000f020:    f001f950    ..P.    BL       xTaskResumeAll ; 0x102c4
        0x0000f024:    e02b        +.      B        0xf07e ; pvPortMalloc + 186
        0x0000f026:    f8d1c004    ....    LDR      r12,[r1,#4]
        0x0000f02a:    4594        .E      CMP      r12,r2
        0x0000f02c:    d207        ..      BCS      0xf03e ; pvPortMalloc + 122
        0x0000f02e:    f8d1c000    ....    LDR      r12,[r1,#0]
        0x0000f032:    f1bc0f00    ....    CMP      r12,#0
        0x0000f036:    bf1c        ..      ITT      NE
        0x0000f038:    460b        .F      MOVNE    r3,r1
        0x0000f03a:    4661        aF      MOVNE    r1,r12
        0x0000f03c:    d1f3        ..      BNE      0xf026 ; pvPortMalloc + 98
        0x0000f03e:    4281        .B      CMP      r1,r0
        0x0000f040:    d0ee        ..      BEQ      0xf020 ; pvPortMalloc + 92
        0x0000f042:    6818        .h      LDR      r0,[r3,#0]
        0x0000f044:    f1000508    ....    ADD      r5,r0,#8
        0x0000f048:    6808        .h      LDR      r0,[r1,#0]
        0x0000f04a:    6018        .`      STR      r0,[r3,#0]
        0x0000f04c:    6848        Hh      LDR      r0,[r1,#4]
        0x0000f04e:    1a80        ..      SUBS     r0,r0,r2
        0x0000f050:    2810        .(      CMP      r0,#0x10
        0x0000f052:    d90d        ..      BLS      0xf070 ; pvPortMalloc + 172
        0x0000f054:    188b        ..      ADDS     r3,r1,r2
        0x0000f056:    6058        X`      STR      r0,[r3,#4]
        0x0000f058:    604a        J`      STR      r2,[r1,#4]
        0x0000f05a:    4a0d        .J      LDR      r2,[pc,#52] ; [0xf090] = 0x10001038
        0x0000f05c:    f8d3c004    ....    LDR      r12,[r3,#4]
        0x0000f060:    6810        .h      LDR      r0,[r2,#0]
        0x0000f062:    6844        Dh      LDR      r4,[r0,#4]
        0x0000f064:    4564        dE      CMP      r4,r12
        0x0000f066:    bf38        8.      IT       CC
        0x0000f068:    4602        .F      MOVCC    r2,r0
        0x0000f06a:    d3f9        ..      BCC      0xf060 ; pvPortMalloc + 156
        0x0000f06c:    6018        .`      STR      r0,[r3,#0]
        0x0000f06e:    6013        .`      STR      r3,[r2,#0]
        0x0000f070:    6848        Hh      LDR      r0,[r1,#4]
        0x0000f072:    6831        1h      LDR      r1,[r6,#0]
        0x0000f074:    1a08        ..      SUBS     r0,r1,r0
        0x0000f076:    6030        0`      STR      r0,[r6,#0]
        0x0000f078:    f001f924    ..$.    BL       xTaskResumeAll ; 0x102c4
        0x0000f07c:    b90d        ..      CBNZ     r5,0xf082 ; pvPortMalloc + 190
        0x0000f07e:    f000f919    ....    BL       vApplicationMallocFailedHook ; 0xf2b4
        0x0000f082:    4628        (F      MOV      r0,r5
        0x0000f084:    bd70        p.      POP      {r4-r6,pc}
    $d
        0x0000f086:    0000        ..      DCW    0
        0x0000f088:    10001030    0...    DCD    268439600
        0x0000f08c:    1000150c    ....    DCD    268440844
        0x0000f090:    10001038    8...    DCD    268439608
    $t
    i.pxPortInitialiseStack
    pxPortInitialiseStack
        0x0000f094:    f04f7c80    O..|    MOV      r12,#0x1000000
        0x0000f098:    f840cc04    @...    STR      r12,[r0,#-4]
        0x0000f09c:    f0210101    !...    BIC      r1,r1,#1
        0x0000f0a0:    f8401c08    @...    STR      r1,[r0,#-8]
        0x0000f0a4:    4b05        .K      LDR      r3,[pc,#20] ; [0xf0bc] = 0xecb1
        0x0000f0a6:    f8403c0c    @..<    STR      r3,[r0,#-0xc]
        0x0000f0aa:    f8402c20    @. ,    STR      r2,[r0,#-0x20]
        0x0000f0ae:    f06f0202    o...    MVN      r2,#2
        0x0000f0b2:    f8402c24    @.$,    STR      r2,[r0,#-0x24]
        0x0000f0b6:    3844        D8      SUBS     r0,r0,#0x44
        0x0000f0b8:    4770        pG      BX       lr
    $d
        0x0000f0ba:    0000        ..      DCW    0
        0x0000f0bc:    0000ecb1    ....    DCD    60593
    $t
    i.run_tasks
    run_tasks
        0x0000f0c0:    b500        ..      PUSH     {lr}
        0x0000f0c2:    b083        ..      SUB      sp,sp,#0xc
        0x0000f0c4:    4907        .I      LDR      r1,[pc,#28] ; [0xf0e4] = 0x10001008
        0x0000f0c6:    2003        .       MOVS     r0,#3
        0x0000f0c8:    e9cd0100    ....    STRD     r0,r1,[sp,#0]
        0x0000f0cc:    2300        .#      MOVS     r3,#0
        0x0000f0ce:    2280        ."      MOVS     r2,#0x80
        0x0000f0d0:    a105        ..      ADR      r1,{pc}+0x18 ; 0xf0e8
        0x0000f0d2:    4807        .H      LDR      r0,[pc,#28] ; [0xf0f0] = 0xf0f5
        0x0000f0d4:    f000ff80    ....    BL       xTaskCreate ; 0xffd8
        0x0000f0d8:    b003        ..      ADD      sp,sp,#0xc
        0x0000f0da:    f85deb04    ]...    POP      {lr}
        0x0000f0de:    f000baff    ....    B.W      vTaskStartScheduler ; 0xf6e0
    $d
        0x0000f0e2:    0000        ..      DCW    0
        0x0000f0e4:    10001008    ....    DCD    268439560
        0x0000f0e8:    75746553    Setu    DCD    1970562387
        0x0000f0ec:    00000070    p...    DCD    112
        0x0000f0f0:    0000f0f5    ....    DCD    61685
    $t
    i.setup_task
    setup_task
        0x0000f0f4:    b082        ..      SUB      sp,sp,#8
        0x0000f0f6:    a00b        ..      ADR      r0,{pc}+0x2e ; 0xf124
        0x0000f0f8:    f7fff808    ....    BL       am_util_stdio_printf ; 0xe10c
        0x0000f0fc:    f7fdfa30    ..0.    BL       LedTaskSetup ; 0xc560
        0x0000f100:    f7fffc5a    ..Z.    BL       disable_print_interface ; 0xe9b8
        0x0000f104:    490e        .I      LDR      r1,[pc,#56] ; [0xf140] = 0x10001000
        0x0000f106:    2003        .       MOVS     r0,#3
        0x0000f108:    e9cd0100    ....    STRD     r0,r1,[sp,#0]
        0x0000f10c:    2300        .#      MOVS     r3,#0
        0x0000f10e:    f44f7200    O..r    MOV      r2,#0x200
        0x0000f112:    a10c        ..      ADR      r1,{pc}+0x32 ; 0xf144
        0x0000f114:    480d        .H      LDR      r0,[pc,#52] ; [0xf14c] = 0xc511
        0x0000f116:    f000ff5f    .._.    BL       xTaskCreate ; 0xffd8
        0x0000f11a:    2000        .       MOVS     r0,#0
        0x0000f11c:    f000fb24    ..$.    BL       vTaskSuspend ; 0xf768
        0x0000f120:    e7fe        ..      B        0xf120 ; setup_task + 44
    $d
        0x0000f122:    0000        ..      DCW    0
        0x0000f124:    6e6e7552    Runn    DCD    1852732754
        0x0000f128:    20676e69    ing     DCD    543649385
        0x0000f12c:    75746573    setu    DCD    1970562419
        0x0000f130:    61742070    p ta    DCD    1635000432
        0x0000f134:    2e736b73    sks.    DCD    779316083
        0x0000f138:    0a0d2e2e    ....    DCD    168635950
        0x0000f13c:    00000000    ....    DCD    0
        0x0000f140:    10001000    ....    DCD    268439552
        0x0000f144:    5444454c    LEDT    DCD    1413760332
        0x0000f148:    006b7361    ask.    DCD    7041889
        0x0000f14c:    0000c511    ....    DCD    50449
    $t
    i.uint64_to_str
    uint64_to_str
        0x0000f150:    e92d07f0    -...    PUSH     {r4-r10}
        0x0000f154:    b087        ..      SUB      sp,sp,#0x1c
        0x0000f156:    f04f0c00    O...    MOV      r12,#0
        0x0000f15a:    4666        fF      MOV      r6,r12
        0x0000f15c:    466d        mF      MOV      r5,sp
        0x0000f15e:    2900        .)      CMP      r1,#0
        0x0000f160:    d03f        ?.      BEQ      0xf1e2 ; uint64_to_str + 146
        0x0000f162:    084f        O.      LSRS     r7,r1,#1
        0x0000f164:    ea4f0390    O...    LSR      r3,r0,#2
        0x0000f168:    ea4f0430    O.0.    RRX      r4,r0
        0x0000f16c:    ea437381    C..s    ORR      r3,r3,r1,LSL #30
        0x0000f170:    18e4        ..      ADDS     r4,r4,r3
        0x0000f172:    eb470391    G...    ADC      r3,r7,r1,LSR #2
        0x0000f176:    ea4f1814    O...    LSR      r8,r4,#4
        0x0000f17a:    ea487803    H..x    ORR      r8,r8,r3,LSL #28
        0x0000f17e:    eb180404    ....    ADDS     r4,r8,r4
        0x0000f182:    eb431313    C...    ADC      r3,r3,r3,LSR #4
        0x0000f186:    ea4f2814    O..(    LSR      r8,r4,#8
        0x0000f18a:    ea486803    H..h    ORR      r8,r8,r3,LSL #24
        0x0000f18e:    eb180404    ....    ADDS     r4,r8,r4
        0x0000f192:    eb432313    C..#    ADC      r3,r3,r3,LSR #8
        0x0000f196:    ea4f4814    O..H    LSR      r8,r4,#16
        0x0000f19a:    ea484803    H..H    ORR      r8,r8,r3,LSL #16
        0x0000f19e:    eb180404    ....    ADDS     r4,r8,r4
        0x0000f1a2:    eb434313    C..C    ADC      r3,r3,r3,LSR #16
        0x0000f1a6:    18e7        ..      ADDS     r7,r4,r3
        0x0000f1a8:    eb430406    C...    ADC      r4,r3,r6
        0x0000f1ac:    08ff        ..      LSRS     r7,r7,#3
        0x0000f1ae:    ea477344    G.Ds    ORR      r3,r7,r4,LSL #29
        0x0000f1b2:    270a        .'      MOVS     r7,#0xa
        0x0000f1b4:    fba39a07    ....    UMULL    r9,r10,r3,r7
        0x0000f1b8:    08e4        ..      LSRS     r4,r4,#3
        0x0000f1ba:    fb04a707    ....    MLA      r7,r4,r7,r10
        0x0000f1be:    f04f0800    O...    MOV      r8,#0
        0x0000f1c2:    fb037808    ...x    MLA      r8,r3,r8,r7
        0x0000f1c6:    ebb00709    ....    SUBS     r7,r0,r9
        0x0000f1ca:    eb610108    a...    SBC      r1,r1,r8
        0x0000f1ce:    1dbf        ..      ADDS     r7,r7,#6
        0x0000f1d0:    f1410100    A...    ADC      r1,r1,#0
        0x0000f1d4:    093f        ?.      LSRS     r7,r7,#4
        0x0000f1d6:    ea477701    G..w    ORR      r7,r7,r1,LSL #28
        0x0000f1da:    18fb        ..      ADDS     r3,r7,r3
        0x0000f1dc:    eb441411    D...    ADC      r4,r4,r1,LSR #4
        0x0000f1e0:    e012        ..      B        0xf208 ; uint64_to_str + 184
        0x0000f1e2:    0843        C.      LSRS     r3,r0,#1
        0x0000f1e4:    eb030390    ....    ADD      r3,r3,r0,LSR #2
        0x0000f1e8:    eb031313    ....    ADD      r3,r3,r3,LSR #4
        0x0000f1ec:    eb032313    ...#    ADD      r3,r3,r3,LSR #8
        0x0000f1f0:    eb034313    ...C    ADD      r3,r3,r3,LSR #16
        0x0000f1f4:    08db        ..      LSRS     r3,r3,#3
        0x0000f1f6:    425c        \B      RSBS     r4,r3,#0
        0x0000f1f8:    eb040484    ....    ADD      r4,r4,r4,LSL #2
        0x0000f1fc:    eb000144    ..D.    ADD      r1,r0,r4,LSL #1
        0x0000f200:    1d89        ..      ADDS     r1,r1,#6
        0x0000f202:    eb031311    ....    ADD      r3,r3,r1,LSR #4
        0x0000f206:    4634        4F      MOV      r4,r6
        0x0000f208:    4621        !F      MOV      r1,r4
        0x0000f20a:    240a        .$      MOVS     r4,#0xa
        0x0000f20c:    fba34704    ...G    UMULL    r4,r7,r3,r4
        0x0000f210:    1b00        ..      SUBS     r0,r0,r4
        0x0000f212:    f1000030    ..0.    ADD      r0,r0,#0x30
        0x0000f216:    f805000c    ....    STRB     r0,[r5,r12]
        0x0000f21a:    4618        .F      MOV      r0,r3
        0x0000f21c:    f10c0c01    ....    ADD      r12,r12,#1
        0x0000f220:    430b        .C      ORRS     r3,r3,r1
        0x0000f222:    d19c        ..      BNE      0xf15e ; uint64_to_str + 14
        0x0000f224:    4660        `F      MOV      r0,r12
        0x0000f226:    2a00        .*      CMP      r2,#0
        0x0000f228:    bf02        ..      ITTT     EQ
        0x0000f22a:    b007        ..      ADDEQ    sp,sp,#0x1c
        0x0000f22c:    e8bd07f0    ....    POPEQ    {r4-r10}
        0x0000f230:    4770        pG      BXEQ     lr
        0x0000f232:    1e47        G.      SUBS     r7,r0,#1
        0x0000f234:    f1b00c00    ....    SUBS     r12,r0,#0
        0x0000f238:    dd18        ..      BLE      0xf26c ; uint64_to_str + 284
        0x0000f23a:    19e9        ..      ADDS     r1,r5,r7
        0x0000f23c:    1c4b        K.      ADDS     r3,r1,#1
        0x0000f23e:    1e51        Q.      SUBS     r1,r2,#1
        0x0000f240:    f0170f01    ....    TST      r7,#1
        0x0000f244:    d103        ..      BNE      0xf24e ; uint64_to_str + 254
        0x0000f246:    f8134d01    ...M    LDRB     r4,[r3,#-1]!
        0x0000f24a:    f8014f01    ...O    STRB     r4,[r1,#1]!
        0x0000f24e:    ea5f046c    _.l.    ASRS     r4,r12,#1
        0x0000f252:    d009        ..      BEQ      0xf268 ; uint64_to_str + 280
        0x0000f254:    f813cc01    ....    LDRB     r12,[r3,#-1]
        0x0000f258:    f881c001    ....    STRB     r12,[r1,#1]
        0x0000f25c:    f813cd02    ....    LDRB     r12,[r3,#-2]!
        0x0000f260:    f801cf02    ....    STRB     r12,[r1,#2]!
        0x0000f264:    1e64        d.      SUBS     r4,r4,#1
        0x0000f266:    d1f5        ..      BNE      0xf254 ; uint64_to_str + 260
        0x0000f268:    19d1        ..      ADDS     r1,r2,r7
        0x0000f26a:    1c4a        J.      ADDS     r2,r1,#1
        0x0000f26c:    7016        .p      STRB     r6,[r2,#0]
        0x0000f26e:    b007        ..      ADD      sp,sp,#0x1c
        0x0000f270:    e8bd07f0    ....    POP      {r4-r10}
        0x0000f274:    4770        pG      BX       lr
    i.uxListRemove
    uxListRemove
        0x0000f276:    e9d03201    ...2    LDRD     r3,r2,[r0,#4]
        0x0000f27a:    6901        .i      LDR      r1,[r0,#0x10]
        0x0000f27c:    609a        .`      STR      r2,[r3,#8]
        0x0000f27e:    e9d02301    ...#    LDRD     r2,r3,[r0,#4]
        0x0000f282:    605a        Z`      STR      r2,[r3,#4]
        0x0000f284:    684a        Jh      LDR      r2,[r1,#4]
        0x0000f286:    4282        .B      CMP      r2,r0
        0x0000f288:    bf04        ..      ITT      EQ
        0x0000f28a:    6882        .h      LDREQ    r2,[r0,#8]
        0x0000f28c:    604a        J`      STREQ    r2,[r1,#4]
        0x0000f28e:    2200        ."      MOVS     r2,#0
        0x0000f290:    6102        .a      STR      r2,[r0,#0x10]
        0x0000f292:    6808        .h      LDR      r0,[r1,#0]
        0x0000f294:    1e40        @.      SUBS     r0,r0,#1
        0x0000f296:    6008        .`      STR      r0,[r1,#0]
        0x0000f298:    6808        .h      LDR      r0,[r1,#0]
        0x0000f29a:    4770        pG      BX       lr
    i.uxTaskResetEventItemValue
    uxTaskResetEventItemValue
        0x0000f29c:    4904        .I      LDR      r1,[pc,#16] ; [0xf2b0] = 0x10001048
        0x0000f29e:    6808        .h      LDR      r0,[r1,#0]
        0x0000f2a0:    680a        .h      LDR      r2,[r1,#0]
        0x0000f2a2:    6980        .i      LDR      r0,[r0,#0x18]
        0x0000f2a4:    6ad2        .j      LDR      r2,[r2,#0x2c]
        0x0000f2a6:    6809        .h      LDR      r1,[r1,#0]
        0x0000f2a8:    f1c20204    ....    RSB      r2,r2,#4
        0x0000f2ac:    618a        .a      STR      r2,[r1,#0x18]
        0x0000f2ae:    4770        pG      BX       lr
    $d
        0x0000f2b0:    10001048    H...    DCD    268439624
    $t
    i.vApplicationMallocFailedHook
    vApplicationMallocFailedHook
        0x0000f2b4:    e7fe        ..      B        vApplicationMallocFailedHook ; 0xf2b4
    i.vApplicationStackOverflowHook
    vApplicationStackOverflowHook
        0x0000f2b6:    be00        ..      BKPT     #0
        0x0000f2b8:    e7fd        ..      B        vApplicationStackOverflowHook ; 0xf2b6
        0x0000f2ba:    0000        ..      MOVS     r0,r0
    i.vEventGroupSetBitsCallback
    vEventGroupSetBitsCallback
        0x0000f2bc:    e92d41f0    -..A    PUSH     {r4-r8,lr}
        0x0000f2c0:    2600        .&      MOVS     r6,#0
        0x0000f2c2:    4688        .F      MOV      r8,r1
        0x0000f2c4:    0004        ..      MOVS     r4,r0
        0x0000f2c6:    d003        ..      BEQ      0xf2d0 ; vEventGroupSetBitsCallback + 20
        0x0000f2c8:    f0184f7f    ...O    TST      r8,#0xff000000
        0x0000f2cc:    d001        ..      BEQ      0xf2d2 ; vEventGroupSetBitsCallback + 22
        0x0000f2ce:    e7fe        ..      B        0xf2ce ; vEventGroupSetBitsCallback + 18
        0x0000f2d0:    e7fe        ..      B        0xf2d0 ; vEventGroupSetBitsCallback + 20
        0x0000f2d2:    1d25        %.      ADDS     r5,r4,#4
        0x0000f2d4:    f104070c    ....    ADD      r7,r4,#0xc
        0x0000f2d8:    f000fad8    ....    BL       vTaskSuspendAll ; 0xf88c
        0x0000f2dc:    6821        !h      LDR      r1,[r4,#0]
        0x0000f2de:    68e8        .h      LDR      r0,[r5,#0xc]
        0x0000f2e0:    ea410108    A...    ORR      r1,r1,r8
        0x0000f2e4:    6021        !`      STR      r1,[r4,#0]
        0x0000f2e6:    42b8        .B      CMP      r0,r7
        0x0000f2e8:    d01c        ..      BEQ      0xf324 ; vEventGroupSetBitsCallback + 104
        0x0000f2ea:    bf00        ..      NOP      
        0x0000f2ec:    e9d01500    ....    LDRD     r1,r5,[r0,#0]
        0x0000f2f0:    f001427f    ...B    AND      r2,r1,#0xff000000
        0x0000f2f4:    6823        #h      LDR      r3,[r4,#0]
        0x0000f2f6:    f021417f    !..A    BIC      r1,r1,#0xff000000
        0x0000f2fa:    f0126f80    ...o    TST      r2,#0x4000000
        0x0000f2fe:    d003        ..      BEQ      0xf308 ; vEventGroupSetBitsCallback + 76
        0x0000f300:    ea310303    1...    BICS     r3,r1,r3
        0x0000f304:    d002        ..      BEQ      0xf30c ; vEventGroupSetBitsCallback + 80
        0x0000f306:    e00a        ..      B        0xf31e ; vEventGroupSetBitsCallback + 98
        0x0000f308:    420b        .B      TST      r3,r1
        0x0000f30a:    d008        ..      BEQ      0xf31e ; vEventGroupSetBitsCallback + 98
        0x0000f30c:    f0127f80    ....    TST      r2,#0x1000000
        0x0000f310:    bf18        ..      IT       NE
        0x0000f312:    430e        .C      ORRNE    r6,r6,r1
        0x0000f314:    6821        !h      LDR      r1,[r4,#0]
        0x0000f316:    f0417100    A..q    ORR      r1,r1,#0x2000000
        0x0000f31a:    f000f9b7    ....    BL       vTaskRemoveFromUnorderedEventList ; 0xf68c
        0x0000f31e:    4628        (F      MOV      r0,r5
        0x0000f320:    42bd        .B      CMP      r5,r7
        0x0000f322:    d1e3        ..      BNE      0xf2ec ; vEventGroupSetBitsCallback + 48
        0x0000f324:    6820         h      LDR      r0,[r4,#0]
        0x0000f326:    43b0        .C      BICS     r0,r0,r6
        0x0000f328:    6020         `      STR      r0,[r4,#0]
        0x0000f32a:    e8bd41f0    ...A    POP      {r4-r8,lr}
        0x0000f32e:    f000bfc9    ....    B.W      xTaskResumeAll ; 0x102c4
    i.vListInitialise
    vListInitialise
        0x0000f332:    f1000108    ....    ADD      r1,r0,#8
        0x0000f336:    f04f32ff    O..2    MOV      r2,#0xffffffff
        0x0000f33a:    e9c01201    ....    STRD     r1,r2,[r0,#4]
        0x0000f33e:    60c1        .`      STR      r1,[r0,#0xc]
        0x0000f340:    6101        .a      STR      r1,[r0,#0x10]
        0x0000f342:    2100        .!      MOVS     r1,#0
        0x0000f344:    6001        .`      STR      r1,[r0,#0]
        0x0000f346:    4770        pG      BX       lr
    i.vListInitialiseItem
    vListInitialiseItem
        0x0000f348:    2100        .!      MOVS     r1,#0
        0x0000f34a:    6101        .a      STR      r1,[r0,#0x10]
        0x0000f34c:    4770        pG      BX       lr
        0x0000f34e:    0000        ..      MOVS     r0,r0
    i.vListInsert
    vListInsert
        0x0000f350:    b410        ..      PUSH     {r4}
        0x0000f352:    680b        .h      LDR      r3,[r1,#0]
        0x0000f354:    f1b33fff    ...?    CMP      r3,#0xffffffff
        0x0000f358:    bf0c        ..      ITE      EQ
        0x0000f35a:    6902        .i      LDREQ    r2,[r0,#0x10]
        0x0000f35c:    f1000208    ....    ADDNE    r2,r0,#8
        0x0000f360:    d008        ..      BEQ      0xf374 ; vListInsert + 36
        0x0000f362:    bf00        ..      NOP      
        0x0000f364:    f8d2c004    ....    LDR      r12,[r2,#4]
        0x0000f368:    f8dc4000    ...@    LDR      r4,[r12,#0]
        0x0000f36c:    429c        .B      CMP      r4,r3
        0x0000f36e:    bf98        ..      IT       LS
        0x0000f370:    4662        bF      MOVLS    r2,r12
        0x0000f372:    d9f7        ..      BLS      0xf364 ; vListInsert + 20
        0x0000f374:    6853        Sh      LDR      r3,[r2,#4]
        0x0000f376:    604b        K`      STR      r3,[r1,#4]
        0x0000f378:    6099        .`      STR      r1,[r3,#8]
        0x0000f37a:    608a        .`      STR      r2,[r1,#8]
        0x0000f37c:    6051        Q`      STR      r1,[r2,#4]
        0x0000f37e:    6108        .a      STR      r0,[r1,#0x10]
        0x0000f380:    6801        .h      LDR      r1,[r0,#0]
        0x0000f382:    1c49        I.      ADDS     r1,r1,#1
        0x0000f384:    6001        .`      STR      r1,[r0,#0]
        0x0000f386:    bc10        ..      POP      {r4}
        0x0000f388:    4770        pG      BX       lr
    i.vListInsertEnd
    vListInsertEnd
        0x0000f38a:    6842        Bh      LDR      r2,[r0,#4]
        0x0000f38c:    604a        J`      STR      r2,[r1,#4]
        0x0000f38e:    6893        .h      LDR      r3,[r2,#8]
        0x0000f390:    608b        .`      STR      r3,[r1,#8]
        0x0000f392:    6893        .h      LDR      r3,[r2,#8]
        0x0000f394:    6059        Y`      STR      r1,[r3,#4]
        0x0000f396:    6091        .`      STR      r1,[r2,#8]
        0x0000f398:    6108        .a      STR      r0,[r1,#0x10]
        0x0000f39a:    6801        .h      LDR      r1,[r0,#0]
        0x0000f39c:    1c49        I.      ADDS     r1,r1,#1
        0x0000f39e:    6001        .`      STR      r1,[r0,#0]
        0x0000f3a0:    4770        pG      BX       lr
        0x0000f3a2:    0000        ..      MOVS     r0,r0
    i.vPortEnterCritical
    vPortEnterCritical
        0x0000f3a4:    2080        .       MOVS     r0,#0x80
        0x0000f3a6:    f3808811    ....    MSR      BASEPRI,r0
        0x0000f3aa:    f3bf8f4f    ..O.    DSB      
        0x0000f3ae:    f3bf8f6f    ..o.    ISB      
        0x0000f3b2:    4907        .I      LDR      r1,[pc,#28] ; [0xf3d0] = 0x1000100c
        0x0000f3b4:    6888        .h      LDR      r0,[r1,#8]
        0x0000f3b6:    1c40        @.      ADDS     r0,r0,#1
        0x0000f3b8:    6088        .`      STR      r0,[r1,#8]
        0x0000f3ba:    2801        .(      CMP      r0,#1
        0x0000f3bc:    bf18        ..      IT       NE
        0x0000f3be:    4770        pG      BXNE     lr
        0x0000f3c0:    4804        .H      LDR      r0,[pc,#16] ; [0xf3d4] = 0xe000ed04
        0x0000f3c2:    6800        .h      LDR      r0,[r0,#0]
        0x0000f3c4:    f0100fff    ....    TST      r0,#0xff
        0x0000f3c8:    bf08        ..      IT       EQ
        0x0000f3ca:    4770        pG      BXEQ     lr
        0x0000f3cc:    e7fe        ..      B        0xf3cc ; vPortEnterCritical + 40
    $d
        0x0000f3ce:    0000        ..      DCW    0
        0x0000f3d0:    1000100c    ....    DCD    268439564
        0x0000f3d4:    e000ed04    ....    DCD    3758157060
    $t
    i.vPortExitCritical
    vPortExitCritical
        0x0000f3d8:    4805        .H      LDR      r0,[pc,#20] ; [0xf3f0] = 0x1000100c
        0x0000f3da:    6881        .h      LDR      r1,[r0,#8]
        0x0000f3dc:    b139        9.      CBZ      r1,0xf3ee ; vPortExitCritical + 22
        0x0000f3de:    1e49        I.      SUBS     r1,r1,#1
        0x0000f3e0:    6081        .`      STR      r1,[r0,#8]
        0x0000f3e2:    bf18        ..      IT       NE
        0x0000f3e4:    4770        pG      BXNE     lr
        0x0000f3e6:    2000        .       MOVS     r0,#0
        0x0000f3e8:    f3808811    ....    MSR      BASEPRI,r0
        0x0000f3ec:    4770        pG      BX       lr
        0x0000f3ee:    e7fe        ..      B        0xf3ee ; vPortExitCritical + 22
    $d
        0x0000f3f0:    1000100c    ....    DCD    268439564
    $t
    i.vPortFree
    vPortFree
        0x0000f3f4:    2800        .(      CMP      r0,#0
        0x0000f3f6:    bf08        ..      IT       EQ
        0x0000f3f8:    4770        pG      BXEQ     lr
        0x0000f3fa:    b510        ..      PUSH     {r4,lr}
        0x0000f3fc:    f1a00408    ....    SUB      r4,r0,#8
        0x0000f400:    f000fa44    ..D.    BL       vTaskSuspendAll ; 0xf88c
        0x0000f404:    4809        .H      LDR      r0,[pc,#36] ; [0xf42c] = 0x10001038
        0x0000f406:    6861        ah      LDR      r1,[r4,#4]
        0x0000f408:    6802        .h      LDR      r2,[r0,#0]
        0x0000f40a:    6853        Sh      LDR      r3,[r2,#4]
        0x0000f40c:    428b        .B      CMP      r3,r1
        0x0000f40e:    bf38        8.      IT       CC
        0x0000f410:    4610        .F      MOVCC    r0,r2
        0x0000f412:    d3f9        ..      BCC      0xf408 ; vPortFree + 20
        0x0000f414:    6022        "`      STR      r2,[r4,#0]
        0x0000f416:    6004        .`      STR      r4,[r0,#0]
        0x0000f418:    4805        .H      LDR      r0,[pc,#20] ; [0xf430] = 0x10001030
        0x0000f41a:    6861        ah      LDR      r1,[r4,#4]
        0x0000f41c:    6802        .h      LDR      r2,[r0,#0]
        0x0000f41e:    4411        .D      ADD      r1,r1,r2
        0x0000f420:    6001        .`      STR      r1,[r0,#0]
        0x0000f422:    e8bd4010    ...@    POP      {r4,lr}
        0x0000f426:    f000bf4d    ..M.    B.W      xTaskResumeAll ; 0x102c4
    $d
        0x0000f42a:    0000        ..      DCW    0
        0x0000f42c:    10001038    8...    DCD    268439608
        0x0000f430:    10001030    0...    DCD    268439600
    $t
    i.vPortSetupTimerInterrupt
    vPortSetupTimerInterrupt
        0x0000f434:    b570        p.      PUSH     {r4-r6,lr}
        0x0000f436:    4c1d        .L      LDR      r4,[pc,#116] ; [0xf4ac] = 0x1000100c
        0x0000f438:    2020                MOVS     r0,#0x20
        0x0000f43a:    f04f31ff    O..1    MOV      r1,#0xffffffff
        0x0000f43e:    6120         a      STR      r0,[r4,#0x10]
        0x0000f440:    fbb1f0f0    ....    UDIV     r0,r1,r0
        0x0000f444:    1e40        @.      SUBS     r0,r0,#1
        0x0000f446:    6160        `a      STR      r0,[r4,#0x14]
        0x0000f448:    2003        .       MOVS     r0,#3
        0x0000f44a:    f7fefad3    ....    BL       am_hal_stimer_int_enable ; 0xd9f4
        0x0000f44e:    4918        .I      LDR      r1,[pc,#96] ; [0xf4b0] = 0xe000e017
        0x0000f450:    20e0        .       MOVS     r0,#0xe0
        0x0000f452:    f8810400    ....    STRB     r0,[r1,#0x400]
        0x0000f456:    f04f21e0    O..!    MOV      r1,#0xe000e000
        0x0000f45a:    f44f0200    O...    MOV      r2,#0x800000
        0x0000f45e:    f8c12100    ...!    STR      r2,[r1,#0x100]
        0x0000f462:    f5017180    ...q    ADD      r1,r1,#0x100
        0x0000f466:    4a13        .J      LDR      r2,[pc,#76] ; [0xf4b4] = 0xe000e018
        0x0000f468:    f8820400    ....    STRB     r0,[r2,#0x400]
        0x0000f46c:    f04f7080    O..p    MOV      r0,#0x1000000
        0x0000f470:    6008        .`      STR      r0,[r1,#0]
        0x0000f472:    01c0        ..      LSLS     r0,r0,#7
        0x0000f474:    f7fefa9e    ....    BL       am_hal_stimer_config ; 0xd9b4
        0x0000f478:    4605        .F      MOV      r5,r0
        0x0000f47a:    f7fefaa5    ....    BL       am_hal_stimer_counter_get ; 0xd9c8
        0x0000f47e:    6060        ``      STR      r0,[r4,#4]
        0x0000f480:    2000        .       MOVS     r0,#0
        0x0000f482:    6921        !i      LDR      r1,[r4,#0x10]
        0x0000f484:    f7fefa4a    ..J.    BL       am_hal_stimer_compare_delta_set ; 0xd91c
        0x0000f488:    6920         i      LDR      r0,[r4,#0x10]
        0x0000f48a:    1c41        A.      ADDS     r1,r0,#1
        0x0000f48c:    2001        .       MOVS     r0,#1
        0x0000f48e:    f7fefa45    ..E.    BL       am_hal_stimer_compare_delta_set ; 0xd91c
        0x0000f492:    f025000f    %...    BIC      r0,r5,#0xf
        0x0000f496:    e8bd4070    ..p@    POP      {r4-r6,lr}
        0x0000f49a:    f0204000     ..@    BIC      r0,r0,#0x80000000
        0x0000f49e:    f0400003    @...    ORR      r0,r0,#3
        0x0000f4a2:    f4407040    @.@p    ORR      r0,r0,#0x300
        0x0000f4a6:    f7feba85    ....    B        am_hal_stimer_config ; 0xd9b4
    $d
        0x0000f4aa:    0000        ..      DCW    0
        0x0000f4ac:    1000100c    ....    DCD    268439564
        0x0000f4b0:    e000e017    ....    DCD    3758153751
        0x0000f4b4:    e000e018    ....    DCD    3758153752
    $t
    i.vPortSuppressTicksAndSleep
    vPortSuppressTicksAndSleep
        0x0000f4b8:    e92d41f0    -..A    PUSH     {r4-r8,lr}
        0x0000f4bc:    4d28        (M      LDR      r5,[pc,#160] ; [0xf560] = 0x1000100c
        0x0000f4be:    4604        .F      MOV      r4,r0
        0x0000f4c0:    6968        hi      LDR      r0,[r5,#0x14]
        0x0000f4c2:    4284        .B      CMP      r4,r0
        0x0000f4c4:    d849        I.      BHI      0xf55a ; vPortSuppressTicksAndSleep + 162
        0x0000f4c6:    6928        (i      LDR      r0,[r5,#0x10]
        0x0000f4c8:    1e61        a.      SUBS     r1,r4,#1
        0x0000f4ca:    fb00f701    ....    MUL      r7,r0,r1
        0x0000f4ce:    b672        r.      CPSID    i
        0x0000f4d0:    f3bf8f4f    ..O.    DSB      
        0x0000f4d4:    f3bf8f6f    ..o.    ISB      
        0x0000f4d8:    f7fefa76    ..v.    BL       am_hal_stimer_counter_get ; 0xd9c8
        0x0000f4dc:    6869        ih      LDR      r1,[r5,#4]
        0x0000f4de:    1a46        F.      SUBS     r6,r0,r1
        0x0000f4e0:    f7fffa6c    ..l.    BL       eTaskConfirmSleepModeStatus ; 0xe9bc
        0x0000f4e4:    b118        ..      CBZ      r0,0xf4ee ; vPortSuppressTicksAndSleep + 54
        0x0000f4e6:    6928        (i      LDR      r0,[r5,#0x10]
        0x0000f4e8:    4430        0D      ADD      r0,r0,r6
        0x0000f4ea:    42b8        .B      CMP      r0,r7
        0x0000f4ec:    d902        ..      BLS      0xf4f4 ; vPortSuppressTicksAndSleep + 60
        0x0000f4ee:    b662        b.      CPSIE    i
        0x0000f4f0:    e8bd81f0    ....    POP      {r4-r8,pc}
        0x0000f4f4:    1bbe        ..      SUBS     r6,r7,r6
        0x0000f4f6:    4631        1F      MOV      r1,r6
        0x0000f4f8:    2000        .       MOVS     r0,#0
        0x0000f4fa:    f7fefa0f    ....    BL       am_hal_stimer_compare_delta_set ; 0xd91c
        0x0000f4fe:    1c71        q.      ADDS     r1,r6,#1
        0x0000f500:    2001        .       MOVS     r0,#1
        0x0000f502:    f7fefa0b    ....    BL       am_hal_stimer_compare_delta_set ; 0xd91c
        0x0000f506:    4620         F      MOV      r0,r4
        0x0000f508:    f7fdf9b8    ....    BL       am_freertos_sleep ; 0xc87c
        0x0000f50c:    b120         .      CBZ      r0,0xf518 ; vPortSuppressTicksAndSleep + 96
        0x0000f50e:    f3bf8f4f    ..O.    DSB      
        0x0000f512:    bf30        0.      WFI      
        0x0000f514:    f3bf8f6f    ..o.    ISB      
        0x0000f518:    4620         F      MOV      r0,r4
        0x0000f51a:    f7fdf9b5    ....    BL       am_freertos_wakeup ; 0xc888
        0x0000f51e:    f7fefa53    ..S.    BL       am_hal_stimer_counter_get ; 0xd9c8
        0x0000f522:    6869        ih      LDR      r1,[r5,#4]
        0x0000f524:    692a        *i      LDR      r2,[r5,#0x10]
        0x0000f526:    1a41        A.      SUBS     r1,r0,r1
        0x0000f528:    fbb1f3f2    ....    UDIV     r3,r1,r2
        0x0000f52c:    fb021313    ....    MLS      r3,r2,r3,r1
        0x0000f530:    1ac0        ..      SUBS     r0,r0,r3
        0x0000f532:    6068        h`      STR      r0,[r5,#4]
        0x0000f534:    fbb1f0f2    ....    UDIV     r0,r1,r2
        0x0000f538:    f000f908    ....    BL       vTaskStepTick ; 0xf74c
        0x0000f53c:    2003        .       MOVS     r0,#3
        0x0000f53e:    f7fefa53    ..S.    BL       am_hal_stimer_int_clear ; 0xd9e8
        0x0000f542:    2000        .       MOVS     r0,#0
        0x0000f544:    6929        )i      LDR      r1,[r5,#0x10]
        0x0000f546:    f7fef9e9    ....    BL       am_hal_stimer_compare_delta_set ; 0xd91c
        0x0000f54a:    6928        (i      LDR      r0,[r5,#0x10]
        0x0000f54c:    1c41        A.      ADDS     r1,r0,#1
        0x0000f54e:    2001        .       MOVS     r0,#1
        0x0000f550:    f7fef9e4    ....    BL       am_hal_stimer_compare_delta_set ; 0xd91c
        0x0000f554:    b662        b.      CPSIE    i
        0x0000f556:    e8bd81f0    ....    POP      {r4-r8,pc}
        0x0000f55a:    4604        .F      MOV      r4,r0
        0x0000f55c:    e7b3        ..      B        0xf4c6 ; vPortSuppressTicksAndSleep + 14
    $d
        0x0000f55e:    0000        ..      DCW    0
        0x0000f560:    1000100c    ....    DCD    268439564
    $t
    i.vPortValidateInterruptPriority
    vPortValidateInterruptPriority
        0x0000f564:    b510        ..      PUSH     {r4,lr}
        0x0000f566:    f7fcfe91    ....    BL       vPortGetIPSR ; 0xc28c
        0x0000f56a:    490a        .I      LDR      r1,[pc,#40] ; [0xf594] = 0x1000100c
        0x0000f56c:    2810        .(      CMP      r0,#0x10
        0x0000f56e:    d307        ..      BCC      0xf580 ; vPortValidateInterruptPriority + 28
        0x0000f570:    f10020e0    ...     ADD      r0,r0,#0xe000e000
        0x0000f574:    f89003f0    ....    LDRB     r0,[r0,#0x3f0]
        0x0000f578:    780a        .x      LDRB     r2,[r1,#0]
        0x0000f57a:    4282        .B      CMP      r2,r0
        0x0000f57c:    d900        ..      BLS      0xf580 ; vPortValidateInterruptPriority + 28
        0x0000f57e:    e7fe        ..      B        0xf57e ; vPortValidateInterruptPriority + 26
        0x0000f580:    4805        .H      LDR      r0,[pc,#20] ; [0xf598] = 0xe000ed0c
        0x0000f582:    6800        .h      LDR      r0,[r0,#0]
        0x0000f584:    68c9        .h      LDR      r1,[r1,#0xc]
        0x0000f586:    f40060e0    ...`    AND      r0,r0,#0x700
        0x0000f58a:    4288        .B      CMP      r0,r1
        0x0000f58c:    bf98        ..      IT       LS
        0x0000f58e:    bd10        ..      POPLS    {r4,pc}
        0x0000f590:    e7fe        ..      B        0xf590 ; vPortValidateInterruptPriority + 44
    $d
        0x0000f592:    0000        ..      DCW    0
        0x0000f594:    1000100c    ....    DCD    268439564
        0x0000f598:    e000ed0c    ....    DCD    3758157068
    $t
    i.vQueueWaitForMessageRestricted
    vQueueWaitForMessageRestricted
        0x0000f59c:    b570        p.      PUSH     {r4-r6,lr}
        0x0000f59e:    4615        .F      MOV      r5,r2
        0x0000f5a0:    460e        .F      MOV      r6,r1
        0x0000f5a2:    4604        .F      MOV      r4,r0
        0x0000f5a4:    f7fffefe    ....    BL       vPortEnterCritical ; 0xf3a4
        0x0000f5a8:    f9940044    ..D.    LDRSB    r0,[r4,#0x44]
        0x0000f5ac:    f1b03fff    ...?    CMP      r0,#0xffffffff
        0x0000f5b0:    f04f0000    O...    MOV      r0,#0
        0x0000f5b4:    bf08        ..      IT       EQ
        0x0000f5b6:    f8840044    ..D.    STRBEQ   r0,[r4,#0x44]
        0x0000f5ba:    f9941045    ..E.    LDRSB    r1,[r4,#0x45]
        0x0000f5be:    f1b13fff    ...?    CMP      r1,#0xffffffff
        0x0000f5c2:    bf08        ..      IT       EQ
        0x0000f5c4:    f8840045    ..E.    STRBEQ   r0,[r4,#0x45]
        0x0000f5c8:    f7ffff06    ....    BL       vPortExitCritical ; 0xf3d8
        0x0000f5cc:    6ba0        .k      LDR      r0,[r4,#0x38]
        0x0000f5ce:    b928        (.      CBNZ     r0,0xf5dc ; vQueueWaitForMessageRestricted + 64
        0x0000f5d0:    462a        *F      MOV      r2,r5
        0x0000f5d2:    4631        1F      MOV      r1,r6
        0x0000f5d4:    f1040024    ..$.    ADD      r0,r4,#0x24
        0x0000f5d8:    f000f826    ..&.    BL       vTaskPlaceOnEventListRestricted ; 0xf628
        0x0000f5dc:    4620         F      MOV      r0,r4
        0x0000f5de:    e8bd4070    ..p@    POP      {r4-r6,lr}
        0x0000f5e2:    f7ffbcb9    ....    B.W      prvUnlockQueue ; 0xef58
        0x0000f5e6:    0000        ..      MOVS     r0,r0
    i.vTaskInternalSetTimeOutState
    vTaskInternalSetTimeOutState
        0x0000f5e8:    4902        .I      LDR      r1,[pc,#8] ; [0xf5f4] = 0x10001048
        0x0000f5ea:    69ca        .i      LDR      r2,[r1,#0x1c]
        0x0000f5ec:    6002        .`      STR      r2,[r0,#0]
        0x0000f5ee:    6889        .h      LDR      r1,[r1,#8]
        0x0000f5f0:    6041        A`      STR      r1,[r0,#4]
        0x0000f5f2:    4770        pG      BX       lr
    $d
        0x0000f5f4:    10001048    H...    DCD    268439624
    $t
    i.vTaskMissedYield
    vTaskMissedYield
        0x0000f5f8:    4901        .I      LDR      r1,[pc,#4] ; [0xf600] = 0x10001048
        0x0000f5fa:    2001        .       MOVS     r0,#1
        0x0000f5fc:    6188        .a      STR      r0,[r1,#0x18]
        0x0000f5fe:    4770        pG      BX       lr
    $d
        0x0000f600:    10001048    H...    DCD    268439624
    $t
    i.vTaskPlaceOnEventList
    vTaskPlaceOnEventList
        0x0000f604:    b510        ..      PUSH     {r4,lr}
        0x0000f606:    460c        .F      MOV      r4,r1
        0x0000f608:    b158        X.      CBZ      r0,0xf622 ; vTaskPlaceOnEventList + 30
        0x0000f60a:    4a06        .J      LDR      r2,[pc,#24] ; [0xf624] = 0x10001048
        0x0000f60c:    6812        .h      LDR      r2,[r2,#0]
        0x0000f60e:    f1020118    ....    ADD      r1,r2,#0x18
        0x0000f612:    f7fffe9d    ....    BL       vListInsert ; 0xf350
        0x0000f616:    4620         F      MOV      r0,r4
        0x0000f618:    e8bd4010    ...@    POP      {r4,lr}
        0x0000f61c:    2101        .!      MOVS     r1,#1
        0x0000f61e:    f7ffba77    ..w.    B        prvAddCurrentTaskToDelayedList ; 0xeb10
        0x0000f622:    e7fe        ..      B        0xf622 ; vTaskPlaceOnEventList + 30
    $d
        0x0000f624:    10001048    H...    DCD    268439624
    $t
    i.vTaskPlaceOnEventListRestricted
    vTaskPlaceOnEventListRestricted
        0x0000f628:    b570        p.      PUSH     {r4-r6,lr}
        0x0000f62a:    4614        .F      MOV      r4,r2
        0x0000f62c:    460d        .F      MOV      r5,r1
        0x0000f62e:    b170        p.      CBZ      r0,0xf64e ; vTaskPlaceOnEventListRestricted + 38
        0x0000f630:    4907        .I      LDR      r1,[pc,#28] ; [0xf650] = 0x10001048
        0x0000f632:    6809        .h      LDR      r1,[r1,#0]
        0x0000f634:    3118        .1      ADDS     r1,r1,#0x18
        0x0000f636:    f7fffea8    ....    BL       vListInsertEnd ; 0xf38a
        0x0000f63a:    2c00        .,      CMP      r4,#0
        0x0000f63c:    bf18        ..      IT       NE
        0x0000f63e:    f04f35ff    O..5    MOVNE    r5,#0xffffffff
        0x0000f642:    4621        !F      MOV      r1,r4
        0x0000f644:    4628        (F      MOV      r0,r5
        0x0000f646:    e8bd4070    ..p@    POP      {r4-r6,lr}
        0x0000f64a:    f7ffba61    ..a.    B        prvAddCurrentTaskToDelayedList ; 0xeb10
        0x0000f64e:    e7fe        ..      B        0xf64e ; vTaskPlaceOnEventListRestricted + 38
    $d
        0x0000f650:    10001048    H...    DCD    268439624
    $t
    i.vTaskPlaceOnUnorderedEventList
    vTaskPlaceOnUnorderedEventList
        0x0000f654:    b510        ..      PUSH     {r4,lr}
        0x0000f656:    4614        .F      MOV      r4,r2
        0x0000f658:    0003        ..      MOVS     r3,r0
        0x0000f65a:    d012        ..      BEQ      0xf682 ; vTaskPlaceOnUnorderedEventList + 46
        0x0000f65c:    480a        .H      LDR      r0,[pc,#40] ; [0xf688] = 0x10001048
        0x0000f65e:    6ac2        .j      LDR      r2,[r0,#0x2c]
        0x0000f660:    b182        ..      CBZ      r2,0xf684 ; vTaskPlaceOnUnorderedEventList + 48
        0x0000f662:    6802        .h      LDR      r2,[r0,#0]
        0x0000f664:    f0414100    A..A    ORR      r1,r1,#0x80000000
        0x0000f668:    6191        .a      STR      r1,[r2,#0x18]
        0x0000f66a:    6800        .h      LDR      r0,[r0,#0]
        0x0000f66c:    f1000118    ....    ADD      r1,r0,#0x18
        0x0000f670:    4618        .F      MOV      r0,r3
        0x0000f672:    f7fffe8a    ....    BL       vListInsertEnd ; 0xf38a
        0x0000f676:    4620         F      MOV      r0,r4
        0x0000f678:    e8bd4010    ...@    POP      {r4,lr}
        0x0000f67c:    2101        .!      MOVS     r1,#1
        0x0000f67e:    f7ffba47    ..G.    B        prvAddCurrentTaskToDelayedList ; 0xeb10
        0x0000f682:    e7fe        ..      B        0xf682 ; vTaskPlaceOnUnorderedEventList + 46
        0x0000f684:    e7fe        ..      B        0xf684 ; vTaskPlaceOnUnorderedEventList + 48
    $d
        0x0000f686:    0000        ..      DCW    0
        0x0000f688:    10001048    H...    DCD    268439624
    $t
    i.vTaskRemoveFromUnorderedEventList
    vTaskRemoveFromUnorderedEventList
        0x0000f68c:    b570        p.      PUSH     {r4-r6,lr}
        0x0000f68e:    4c12        .L      LDR      r4,[pc,#72] ; [0xf6d8] = 0x10001048
        0x0000f690:    6ae2        .j      LDR      r2,[r4,#0x2c]
        0x0000f692:    b1ea        ..      CBZ      r2,0xf6d0 ; vTaskRemoveFromUnorderedEventList + 68
        0x0000f694:    f0414100    A..A    ORR      r1,r1,#0x80000000
        0x0000f698:    6001        .`      STR      r1,[r0,#0]
        0x0000f69a:    68c5        .h      LDR      r5,[r0,#0xc]
        0x0000f69c:    b1cd        ..      CBZ      r5,0xf6d2 ; vTaskRemoveFromUnorderedEventList + 70
        0x0000f69e:    f7fffdea    ....    BL       uxListRemove ; 0xf276
        0x0000f6a2:    1d28        (.      ADDS     r0,r5,#4
        0x0000f6a4:    f7fffde7    ....    BL       uxListRemove ; 0xf276
        0x0000f6a8:    6ae8        .j      LDR      r0,[r5,#0x2c]
        0x0000f6aa:    68e1        .h      LDR      r1,[r4,#0xc]
        0x0000f6ac:    4288        .B      CMP      r0,r1
        0x0000f6ae:    d811        ..      BHI      0xf6d4 ; vTaskRemoveFromUnorderedEventList + 72
        0x0000f6b0:    490a        .I      LDR      r1,[pc,#40] ; [0xf6dc] = 0x10005504
        0x0000f6b2:    eb000080    ....    ADD      r0,r0,r0,LSL #2
        0x0000f6b6:    eb010080    ....    ADD      r0,r1,r0,LSL #2
        0x0000f6ba:    1d29        ).      ADDS     r1,r5,#4
        0x0000f6bc:    f7fffe65    ..e.    BL       vListInsertEnd ; 0xf38a
        0x0000f6c0:    6ae8        .j      LDR      r0,[r5,#0x2c]
        0x0000f6c2:    6821        !h      LDR      r1,[r4,#0]
        0x0000f6c4:    6ac9        .j      LDR      r1,[r1,#0x2c]
        0x0000f6c6:    4288        .B      CMP      r0,r1
        0x0000f6c8:    bf84        ..      ITT      HI
        0x0000f6ca:    2001        .       MOVHI    r0,#1
        0x0000f6cc:    61a0        .a      STRHI    r0,[r4,#0x18]
        0x0000f6ce:    bd70        p.      POP      {r4-r6,pc}
        0x0000f6d0:    e7fe        ..      B        0xf6d0 ; vTaskRemoveFromUnorderedEventList + 68
        0x0000f6d2:    e7fe        ..      B        0xf6d2 ; vTaskRemoveFromUnorderedEventList + 70
        0x0000f6d4:    60e0        .`      STR      r0,[r4,#0xc]
        0x0000f6d6:    e7eb        ..      B        0xf6b0 ; vTaskRemoveFromUnorderedEventList + 36
    $d
        0x0000f6d8:    10001048    H...    DCD    268439624
        0x0000f6dc:    10005504    .U..    DCD    268457220
    $t
    i.vTaskStartScheduler
    vTaskStartScheduler
        0x0000f6e0:    b510        ..      PUSH     {r4,lr}
        0x0000f6e2:    b082        ..      SUB      sp,sp,#8
        0x0000f6e4:    4814        .H      LDR      r0,[pc,#80] ; [0xf738] = 0x10001070
        0x0000f6e6:    2400        .$      MOVS     r4,#0
        0x0000f6e8:    e9cd4000    ...@    STRD     r4,r0,[sp,#0]
        0x0000f6ec:    4623        #F      MOV      r3,r4
        0x0000f6ee:    f44f7280    O..r    MOV      r2,#0x100
        0x0000f6f2:    a112        ..      ADR      r1,{pc}+0x4a ; 0xf73c
        0x0000f6f4:    4813        .H      LDR      r0,[pc,#76] ; [0xf744] = 0xeb71
        0x0000f6f6:    f000fc6f    ..o.    BL       xTaskCreate ; 0xffd8
        0x0000f6fa:    2801        .(      CMP      r0,#1
        0x0000f6fc:    d103        ..      BNE      0xf706 ; vTaskStartScheduler + 38
        0x0000f6fe:    f000fea7    ....    BL       xTimerCreateTimerTask ; 0x10450
        0x0000f702:    2801        .(      CMP      r0,#1
        0x0000f704:    d005        ..      BEQ      0xf712 ; vTaskStartScheduler + 50
        0x0000f706:    f1b03fff    ...?    CMP      r0,#0xffffffff
        0x0000f70a:    bf1c        ..      ITT      NE
        0x0000f70c:    b002        ..      ADDNE    sp,sp,#8
        0x0000f70e:    bd10        ..      POPNE    {r4,pc}
        0x0000f710:    e7fe        ..      B        0xf710 ; vTaskStartScheduler + 48
        0x0000f712:    2080        .       MOVS     r0,#0x80
        0x0000f714:    f3808811    ....    MSR      BASEPRI,r0
        0x0000f718:    f3bf8f4f    ..O.    DSB      
        0x0000f71c:    f3bf8f6f    ..o.    ISB      
        0x0000f720:    4809        .H      LDR      r0,[pc,#36] ; [0xf748] = 0x10001048
        0x0000f722:    f04f31ff    O..1    MOV      r1,#0xffffffff
        0x0000f726:    6241        Ab      STR      r1,[r0,#0x24]
        0x0000f728:    2101        .!      MOVS     r1,#1
        0x0000f72a:    6101        .a      STR      r1,[r0,#0x10]
        0x0000f72c:    6084        .`      STR      r4,[r0,#8]
        0x0000f72e:    b002        ..      ADD      sp,sp,#8
        0x0000f730:    e8bd4010    ...@    POP      {r4,lr}
        0x0000f734:    f000b976    ..v.    B.W      xPortStartScheduler ; 0xfa24
    $d
        0x0000f738:    10001070    p...    DCD    268439664
        0x0000f73c:    454c4449    IDLE    DCD    1162626121
        0x0000f740:    00000000    ....    DCD    0
        0x0000f744:    0000eb71    q...    DCD    60273
        0x0000f748:    10001048    H...    DCD    268439624
    $t
    i.vTaskStepTick
    vTaskStepTick
        0x0000f74c:    4905        .I      LDR      r1,[pc,#20] ; [0xf764] = 0x10001048
        0x0000f74e:    688a        .h      LDR      r2,[r1,#8]
        0x0000f750:    6a4b        Kj      LDR      r3,[r1,#0x24]
        0x0000f752:    4402        .D      ADD      r2,r2,r0
        0x0000f754:    429a        .B      CMP      r2,r3
        0x0000f756:    d900        ..      BLS      0xf75a ; vTaskStepTick + 14
        0x0000f758:    e7fe        ..      B        0xf758 ; vTaskStepTick + 12
        0x0000f75a:    688a        .h      LDR      r2,[r1,#8]
        0x0000f75c:    4410        .D      ADD      r0,r0,r2
        0x0000f75e:    6088        .`      STR      r0,[r1,#8]
        0x0000f760:    4770        pG      BX       lr
    $d
        0x0000f762:    0000        ..      DCW    0
        0x0000f764:    10001048    H...    DCD    268439624
    $t
    i.vTaskSuspend
    vTaskSuspend
        0x0000f768:    b570        p.      PUSH     {r4-r6,lr}
        0x0000f76a:    4604        .F      MOV      r4,r0
        0x0000f76c:    f7fffe1a    ....    BL       vPortEnterCritical ; 0xf3a4
        0x0000f770:    4d42        BM      LDR      r5,[pc,#264] ; [0xf87c] = 0x10001048
        0x0000f772:    2c00        .,      CMP      r4,#0
        0x0000f774:    bf08        ..      IT       EQ
        0x0000f776:    682c        ,h      LDREQ    r4,[r5,#0]
        0x0000f778:    1d20         .      ADDS     r0,r4,#4
        0x0000f77a:    f7fffd7c    ..|.    BL       uxListRemove ; 0xf276
        0x0000f77e:    6aa0        .j      LDR      r0,[r4,#0x28]
        0x0000f780:    2800        .(      CMP      r0,#0
        0x0000f782:    bf1c        ..      ITT      NE
        0x0000f784:    f1040018    ....    ADDNE    r0,r4,#0x18
        0x0000f788:    f7fffd75    ..u.    BLNE     uxListRemove ; 0xf276
        0x0000f78c:    1d21        !.      ADDS     r1,r4,#4
        0x0000f78e:    483c        <H      LDR      r0,[pc,#240] ; [0xf880] = 0x10005590
        0x0000f790:    f7fffdfb    ....    BL       vListInsertEnd ; 0xf38a
        0x0000f794:    f8940048    ..H.    LDRB     r0,[r4,#0x48]
        0x0000f798:    2600        .&      MOVS     r6,#0
        0x0000f79a:    2801        .(      CMP      r0,#1
        0x0000f79c:    bf08        ..      IT       EQ
        0x0000f79e:    f8846048    ..H`    STRBEQ   r6,[r4,#0x48]
        0x0000f7a2:    f7fffe19    ....    BL       vPortExitCritical ; 0xf3d8
        0x0000f7a6:    6928        (i      LDR      r0,[r5,#0x10]
        0x0000f7a8:    b178        x.      CBZ      r0,0xf7ca ; vTaskSuspend + 98
        0x0000f7aa:    f7fffdfb    ....    BL       vPortEnterCritical ; 0xf3a4
        0x0000f7ae:    6b28        (k      LDR      r0,[r5,#0x30]
        0x0000f7b0:    6800        .h      LDR      r0,[r0,#0]
        0x0000f7b2:    2800        .(      CMP      r0,#0
        0x0000f7b4:    bf0f        ..      ITEEE    EQ
        0x0000f7b6:    f04f30ff    O..0    MOVEQ    r0,#0xffffffff
        0x0000f7ba:    6b28        (k      LDRNE    r0,[r5,#0x30]
        0x0000f7bc:    68c0        .h      LDRNE    r0,[r0,#0xc]
        0x0000f7be:    68c0        .h      LDRNE    r0,[r0,#0xc]
        0x0000f7c0:    bf18        ..      IT       NE
        0x0000f7c2:    6840        @h      LDRNE    r0,[r0,#4]
        0x0000f7c4:    6268        hb      STR      r0,[r5,#0x24]
        0x0000f7c6:    f7fffe07    ....    BL       vPortExitCritical ; 0xf3d8
        0x0000f7ca:    6828        (h      LDR      r0,[r5,#0]
        0x0000f7cc:    4284        .B      CMP      r4,r0
        0x0000f7ce:    bf18        ..      IT       NE
        0x0000f7d0:    bd70        p.      POPNE    {r4-r6,pc}
        0x0000f7d2:    6928        (i      LDR      r0,[r5,#0x10]
        0x0000f7d4:    b158        X.      CBZ      r0,0xf7ee ; vTaskSuspend + 134
        0x0000f7d6:    6ae8        .j      LDR      r0,[r5,#0x2c]
        0x0000f7d8:    b100        ..      CBZ      r0,0xf7dc ; vTaskSuspend + 116
        0x0000f7da:    e7fe        ..      B        0xf7da ; vTaskSuspend + 114
        0x0000f7dc:    4929        )I      LDR      r1,[pc,#164] ; [0xf884] = 0xe000ed04
        0x0000f7de:    f04f5080    O..P    MOV      r0,#0x10000000
        0x0000f7e2:    6008        .`      STR      r0,[r1,#0]
        0x0000f7e4:    f3bf8f4f    ..O.    DSB      
        0x0000f7e8:    f3bf8f6f    ..o.    ISB      
        0x0000f7ec:    bd70        p.      POP      {r4-r6,pc}
        0x0000f7ee:    4824        $H      LDR      r0,[pc,#144] ; [0xf880] = 0x10005590
        0x0000f7f0:    6800        .h      LDR      r0,[r0,#0]
        0x0000f7f2:    6869        ih      LDR      r1,[r5,#4]
        0x0000f7f4:    4288        .B      CMP      r0,r1
        0x0000f7f6:    bf04        ..      ITT      EQ
        0x0000f7f8:    602e        .`      STREQ    r6,[r5,#0]
        0x0000f7fa:    bd70        p.      POPEQ    {r4-r6,pc}
        0x0000f7fc:    6ae8        .j      LDR      r0,[r5,#0x2c]
        0x0000f7fe:    2800        .(      CMP      r0,#0
        0x0000f800:    bf1e        ..      ITTT     NE
        0x0000f802:    2001        .       MOVNE    r0,#1
        0x0000f804:    61a8        .a      STRNE    r0,[r5,#0x18]
        0x0000f806:    bd70        p.      POPNE    {r4-r6,pc}
        0x0000f808:    61ae        .a      STR      r6,[r5,#0x18]
        0x0000f80a:    6828        (h      LDR      r0,[r5,#0]
        0x0000f80c:    6b00        .k      LDR      r0,[r0,#0x30]
        0x0000f80e:    6801        .h      LDR      r1,[r0,#0]
        0x0000f810:    f1b13fa5    ...?    CMP      r1,#0xa5a5a5a5
        0x0000f814:    bf04        ..      ITT      EQ
        0x0000f816:    6841        Ah      LDREQ    r1,[r0,#4]
        0x0000f818:    f1b13fa5    ...?    CMPEQ    r1,#0xa5a5a5a5
        0x0000f81c:    d107        ..      BNE      0xf82e ; vTaskSuspend + 198
        0x0000f81e:    6881        .h      LDR      r1,[r0,#8]
        0x0000f820:    f1b13fa5    ...?    CMP      r1,#0xa5a5a5a5
        0x0000f824:    bf04        ..      ITT      EQ
        0x0000f826:    68c0        .h      LDREQ    r0,[r0,#0xc]
        0x0000f828:    f1b03fa5    ...?    CMPEQ    r0,#0xa5a5a5a5
        0x0000f82c:    d005        ..      BEQ      0xf83a ; vTaskSuspend + 210
        0x0000f82e:    6828        (h      LDR      r0,[r5,#0]
        0x0000f830:    f1000134    ..4.    ADD      r1,r0,#0x34
        0x0000f834:    6828        (h      LDR      r0,[r5,#0]
        0x0000f836:    f7fffd3e    ..>.    BL       vApplicationStackOverflowHook ; 0xf2b6
        0x0000f83a:    68e8        .h      LDR      r0,[r5,#0xc]
        0x0000f83c:    4912        .I      LDR      r1,[pc,#72] ; [0xf888] = 0x10005504
        0x0000f83e:    eb000280    ....    ADD      r2,r0,r0,LSL #2
        0x0000f842:    f8512022    Q."     LDR      r2,[r1,r2,LSL #2]
        0x0000f846:    b93a        :.      CBNZ     r2,0xf858 ; vTaskSuspend + 240
        0x0000f848:    b1b8        ..      CBZ      r0,0xf87a ; vTaskSuspend + 274
        0x0000f84a:    1e40        @.      SUBS     r0,r0,#1
        0x0000f84c:    eb000280    ....    ADD      r2,r0,r0,LSL #2
        0x0000f850:    f8512022    Q."     LDR      r2,[r1,r2,LSL #2]
        0x0000f854:    2a00        .*      CMP      r2,#0
        0x0000f856:    d0f7        ..      BEQ      0xf848 ; vTaskSuspend + 224
        0x0000f858:    eb000280    ....    ADD      r2,r0,r0,LSL #2
        0x0000f85c:    eb010182    ....    ADD      r1,r1,r2,LSL #2
        0x0000f860:    f1010308    ....    ADD      r3,r1,#8
        0x0000f864:    684a        Jh      LDR      r2,[r1,#4]
        0x0000f866:    6852        Rh      LDR      r2,[r2,#4]
        0x0000f868:    604a        J`      STR      r2,[r1,#4]
        0x0000f86a:    429a        .B      CMP      r2,r3
        0x0000f86c:    bf04        ..      ITT      EQ
        0x0000f86e:    6852        Rh      LDREQ    r2,[r2,#4]
        0x0000f870:    604a        J`      STREQ    r2,[r1,#4]
        0x0000f872:    68d1        .h      LDR      r1,[r2,#0xc]
        0x0000f874:    6029        )`      STR      r1,[r5,#0]
        0x0000f876:    60e8        .`      STR      r0,[r5,#0xc]
        0x0000f878:    bd70        p.      POP      {r4-r6,pc}
        0x0000f87a:    e7fe        ..      B        0xf87a ; vTaskSuspend + 274
    $d
        0x0000f87c:    10001048    H...    DCD    268439624
        0x0000f880:    10005590    .U..    DCD    268457360
        0x0000f884:    e000ed04    ....    DCD    3758157060
        0x0000f888:    10005504    .U..    DCD    268457220
    $t
    i.vTaskSuspendAll
    vTaskSuspendAll
        0x0000f88c:    4802        .H      LDR      r0,[pc,#8] ; [0xf898] = 0x10001048
        0x0000f88e:    6ac1        .j      LDR      r1,[r0,#0x2c]
        0x0000f890:    1c49        I.      ADDS     r1,r1,#1
        0x0000f892:    62c1        .b      STR      r1,[r0,#0x2c]
        0x0000f894:    4770        pG      BX       lr
    $d
        0x0000f896:    0000        ..      DCW    0
        0x0000f898:    10001048    H...    DCD    268439624
    $t
    i.vTaskSwitchContext
    vTaskSwitchContext
        0x0000f89c:    b510        ..      PUSH     {r4,lr}
        0x0000f89e:    4c21        !L      LDR      r4,[pc,#132] ; [0xf924] = 0x10001048
        0x0000f8a0:    6ae0        .j      LDR      r0,[r4,#0x2c]
        0x0000f8a2:    2800        .(      CMP      r0,#0
        0x0000f8a4:    bf1e        ..      ITTT     NE
        0x0000f8a6:    2001        .       MOVNE    r0,#1
        0x0000f8a8:    61a0        .a      STRNE    r0,[r4,#0x18]
        0x0000f8aa:    bd10        ..      POPNE    {r4,pc}
        0x0000f8ac:    2000        .       MOVS     r0,#0
        0x0000f8ae:    61a0        .a      STR      r0,[r4,#0x18]
        0x0000f8b0:    6820         h      LDR      r0,[r4,#0]
        0x0000f8b2:    6b00        .k      LDR      r0,[r0,#0x30]
        0x0000f8b4:    6801        .h      LDR      r1,[r0,#0]
        0x0000f8b6:    f1b13fa5    ...?    CMP      r1,#0xa5a5a5a5
        0x0000f8ba:    bf04        ..      ITT      EQ
        0x0000f8bc:    6841        Ah      LDREQ    r1,[r0,#4]
        0x0000f8be:    f1b13fa5    ...?    CMPEQ    r1,#0xa5a5a5a5
        0x0000f8c2:    d107        ..      BNE      0xf8d4 ; vTaskSwitchContext + 56
        0x0000f8c4:    6881        .h      LDR      r1,[r0,#8]
        0x0000f8c6:    f1b13fa5    ...?    CMP      r1,#0xa5a5a5a5
        0x0000f8ca:    bf04        ..      ITT      EQ
        0x0000f8cc:    68c0        .h      LDREQ    r0,[r0,#0xc]
        0x0000f8ce:    f1b03fa5    ...?    CMPEQ    r0,#0xa5a5a5a5
        0x0000f8d2:    d005        ..      BEQ      0xf8e0 ; vTaskSwitchContext + 68
        0x0000f8d4:    6820         h      LDR      r0,[r4,#0]
        0x0000f8d6:    f1000134    ..4.    ADD      r1,r0,#0x34
        0x0000f8da:    6820         h      LDR      r0,[r4,#0]
        0x0000f8dc:    f7fffceb    ....    BL       vApplicationStackOverflowHook ; 0xf2b6
        0x0000f8e0:    68e0        .h      LDR      r0,[r4,#0xc]
        0x0000f8e2:    4911        .I      LDR      r1,[pc,#68] ; [0xf928] = 0x10005504
        0x0000f8e4:    eb000280    ....    ADD      r2,r0,r0,LSL #2
        0x0000f8e8:    f8512022    Q."     LDR      r2,[r1,r2,LSL #2]
        0x0000f8ec:    b93a        :.      CBNZ     r2,0xf8fe ; vTaskSwitchContext + 98
        0x0000f8ee:    b1b8        ..      CBZ      r0,0xf920 ; vTaskSwitchContext + 132
        0x0000f8f0:    1e40        @.      SUBS     r0,r0,#1
        0x0000f8f2:    eb000280    ....    ADD      r2,r0,r0,LSL #2
        0x0000f8f6:    f8512022    Q."     LDR      r2,[r1,r2,LSL #2]
        0x0000f8fa:    2a00        .*      CMP      r2,#0
        0x0000f8fc:    d0f7        ..      BEQ      0xf8ee ; vTaskSwitchContext + 82
        0x0000f8fe:    eb000280    ....    ADD      r2,r0,r0,LSL #2
        0x0000f902:    eb010282    ....    ADD      r2,r1,r2,LSL #2
        0x0000f906:    f1020308    ....    ADD      r3,r2,#8
        0x0000f90a:    6851        Qh      LDR      r1,[r2,#4]
        0x0000f90c:    6849        Ih      LDR      r1,[r1,#4]
        0x0000f90e:    6051        Q`      STR      r1,[r2,#4]
        0x0000f910:    4299        .B      CMP      r1,r3
        0x0000f912:    bf04        ..      ITT      EQ
        0x0000f914:    6849        Ih      LDREQ    r1,[r1,#4]
        0x0000f916:    6051        Q`      STREQ    r1,[r2,#4]
        0x0000f918:    68c9        .h      LDR      r1,[r1,#0xc]
        0x0000f91a:    6021        !`      STR      r1,[r4,#0]
        0x0000f91c:    60e0        .`      STR      r0,[r4,#0xc]
        0x0000f91e:    bd10        ..      POP      {r4,pc}
        0x0000f920:    e7fe        ..      B        0xf920 ; vTaskSwitchContext + 132
    $d
        0x0000f922:    0000        ..      DCW    0
        0x0000f924:    10001048    H...    DCD    268439624
        0x0000f928:    10005504    .U..    DCD    268457220
    $t
    i.xEventGroupCreate
    xEventGroupCreate
        0x0000f92c:    b510        ..      PUSH     {r4,lr}
        0x0000f92e:    2018        .       MOVS     r0,#0x18
        0x0000f930:    f7fffb48    ..H.    BL       pvPortMalloc ; 0xefc4
        0x0000f934:    0004        ..      MOVS     r4,r0
        0x0000f936:    d004        ..      BEQ      0xf942 ; xEventGroupCreate + 22
        0x0000f938:    2000        .       MOVS     r0,#0
        0x0000f93a:    6020         `      STR      r0,[r4,#0]
        0x0000f93c:    1d20         .      ADDS     r0,r4,#4
        0x0000f93e:    f7fffcf8    ....    BL       vListInitialise ; 0xf332
        0x0000f942:    4620         F      MOV      r0,r4
        0x0000f944:    bd10        ..      POP      {r4,pc}
        0x0000f946:    0000        ..      MOVS     r0,r0
    i.xEventGroupWaitBits
    xEventGroupWaitBits
        0x0000f948:    e92d47f0    -..G    PUSH     {r4-r10,lr}
        0x0000f94c:    461f        .F      MOV      r7,r3
        0x0000f94e:    f8dd9020    .. .    LDR      r9,[sp,#0x20]
        0x0000f952:    4690        .F      MOV      r8,r2
        0x0000f954:    460c        .F      MOV      r4,r1
        0x0000f956:    0006        ..      MOVS     r6,r0
        0x0000f958:    f04f0500    O...    MOV      r5,#0
        0x0000f95c:    d003        ..      BEQ      0xf966 ; xEventGroupWaitBits + 30
        0x0000f95e:    f0144f7f    ...O    TST      r4,#0xff000000
        0x0000f962:    d001        ..      BEQ      0xf968 ; xEventGroupWaitBits + 32
        0x0000f964:    e7fe        ..      B        0xf964 ; xEventGroupWaitBits + 28
        0x0000f966:    e7fe        ..      B        0xf966 ; xEventGroupWaitBits + 30
        0x0000f968:    b11c        ..      CBZ      r4,0xf972 ; xEventGroupWaitBits + 42
        0x0000f96a:    f000fbf3    ....    BL       xTaskGetSchedulerState ; 0x10154
        0x0000f96e:    b108        ..      CBZ      r0,0xf974 ; xEventGroupWaitBits + 44
        0x0000f970:    e004        ..      B        0xf97c ; xEventGroupWaitBits + 52
        0x0000f972:    e7fe        ..      B        0xf972 ; xEventGroupWaitBits + 42
        0x0000f974:    f1b90f00    ....    CMP      r9,#0
        0x0000f978:    d000        ..      BEQ      0xf97c ; xEventGroupWaitBits + 52
        0x0000f97a:    e7fe        ..      B        0xf97a ; xEventGroupWaitBits + 50
        0x0000f97c:    f7ffff86    ....    BL       vTaskSuspendAll ; 0xf88c
        0x0000f980:    6830        0h      LDR      r0,[r6,#0]
        0x0000f982:    b11f        ..      CBZ      r7,0xf98c ; xEventGroupWaitBits + 68
        0x0000f984:    ea340100    4...    BICS     r1,r4,r0
        0x0000f988:    d002        ..      BEQ      0xf990 ; xEventGroupWaitBits + 72
        0x0000f98a:    e00a        ..      B        0xf9a2 ; xEventGroupWaitBits + 90
        0x0000f98c:    4220         B      TST      r0,r4
        0x0000f98e:    d008        ..      BEQ      0xf9a2 ; xEventGroupWaitBits + 90
        0x0000f990:    4605        .F      MOV      r5,r0
        0x0000f992:    f1b80f00    ....    CMP      r8,#0
        0x0000f996:    bf1c        ..      ITT      NE
        0x0000f998:    43a0        .C      BICNE    r0,r0,r4
        0x0000f99a:    6030        0`      STRNE    r0,[r6,#0]
        0x0000f99c:    f000fc92    ....    BL       xTaskResumeAll ; 0x102c4
        0x0000f9a0:    e03b        ;.      B        0xfa1a ; xEventGroupWaitBits + 210
        0x0000f9a2:    f1b90f00    ....    CMP      r9,#0
        0x0000f9a6:    d012        ..      BEQ      0xf9ce ; xEventGroupWaitBits + 134
        0x0000f9a8:    f1b80f00    ....    CMP      r8,#0
        0x0000f9ac:    bf18        ..      IT       NE
        0x0000f9ae:    f04f7580    O..u    MOVNE    r5,#0x1000000
        0x0000f9b2:    2f00        ./      CMP      r7,#0
        0x0000f9b4:    bf18        ..      IT       NE
        0x0000f9b6:    f0456580    E..e    ORRNE    r5,r5,#0x4000000
        0x0000f9ba:    ea440105    D...    ORR      r1,r4,r5
        0x0000f9be:    464a        JF      MOV      r2,r9
        0x0000f9c0:    1d30        0.      ADDS     r0,r6,#4
        0x0000f9c2:    f7fffe47    ..G.    BL       vTaskPlaceOnUnorderedEventList ; 0xf654
        0x0000f9c6:    f000fc7d    ..}.    BL       xTaskResumeAll ; 0x102c4
        0x0000f9ca:    b960        `.      CBNZ     r0,0xf9e6 ; xEventGroupWaitBits + 158
        0x0000f9cc:    e003        ..      B        0xf9d6 ; xEventGroupWaitBits + 142
        0x0000f9ce:    4605        .F      MOV      r5,r0
        0x0000f9d0:    f000fc78    ..x.    BL       xTaskResumeAll ; 0x102c4
        0x0000f9d4:    e021        !.      B        0xfa1a ; xEventGroupWaitBits + 210
        0x0000f9d6:    4912        .I      LDR      r1,[pc,#72] ; [0xfa20] = 0xe000ed04
        0x0000f9d8:    f04f5080    O..P    MOV      r0,#0x10000000
        0x0000f9dc:    6008        .`      STR      r0,[r1,#0]
        0x0000f9de:    f3bf8f4f    ..O.    DSB      
        0x0000f9e2:    f3bf8f6f    ..o.    ISB      
        0x0000f9e6:    f7fffc59    ..Y.    BL       uxTaskResetEventItemValue ; 0xf29c
        0x0000f9ea:    4605        .F      MOV      r5,r0
        0x0000f9ec:    f0107f00    ....    TST      r0,#0x2000000
        0x0000f9f0:    d111        ..      BNE      0xfa16 ; xEventGroupWaitBits + 206
        0x0000f9f2:    f7fffcd7    ....    BL       vPortEnterCritical ; 0xf3a4
        0x0000f9f6:    6835        5h      LDR      r5,[r6,#0]
        0x0000f9f8:    b11f        ..      CBZ      r7,0xfa02 ; xEventGroupWaitBits + 186
        0x0000f9fa:    ea340005    4...    BICS     r0,r4,r5
        0x0000f9fe:    d002        ..      BEQ      0xfa06 ; xEventGroupWaitBits + 190
        0x0000fa00:    e007        ..      B        0xfa12 ; xEventGroupWaitBits + 202
        0x0000fa02:    4225        %B      TST      r5,r4
        0x0000fa04:    d005        ..      BEQ      0xfa12 ; xEventGroupWaitBits + 202
        0x0000fa06:    f1b80f00    ....    CMP      r8,#0
        0x0000fa0a:    d002        ..      BEQ      0xfa12 ; xEventGroupWaitBits + 202
        0x0000fa0c:    ea250004    %...    BIC      r0,r5,r4
        0x0000fa10:    6030        0`      STR      r0,[r6,#0]
        0x0000fa12:    f7fffce1    ....    BL       vPortExitCritical ; 0xf3d8
        0x0000fa16:    f025457f    %..E    BIC      r5,r5,#0xff000000
        0x0000fa1a:    4628        (F      MOV      r0,r5
        0x0000fa1c:    e8bd87f0    ....    POP      {r4-r10,pc}
    $d
        0x0000fa20:    e000ed04    ....    DCD    3758157060
    $t
    i.xPortStartScheduler
    xPortStartScheduler
        0x0000fa24:    482c        ,H      LDR      r0,[pc,#176] ; [0xfad8] = 0xe000ed00
        0x0000fa26:    b510        ..      PUSH     {r4,lr}
        0x0000fa28:    6801        .h      LDR      r1,[r0,#0]
        0x0000fa2a:    b082        ..      SUB      sp,sp,#8
        0x0000fa2c:    4a2b        +J      LDR      r2,[pc,#172] ; [0xfadc] = 0x410fc271
        0x0000fa2e:    4291        .B      CMP      r1,r2
        0x0000fa30:    d100        ..      BNE      0xfa34 ; xPortStartScheduler + 16
        0x0000fa32:    e7fe        ..      B        0xfa32 ; xPortStartScheduler + 14
        0x0000fa34:    6800        .h      LDR      r0,[r0,#0]
        0x0000fa36:    492a        *I      LDR      r1,[pc,#168] ; [0xfae0] = 0x410fc270
        0x0000fa38:    4288        .B      CMP      r0,r1
        0x0000fa3a:    d100        ..      BNE      0xfa3e ; xPortStartScheduler + 26
        0x0000fa3c:    e7fe        ..      B        0xfa3c ; xPortStartScheduler + 24
        0x0000fa3e:    4a29        )J      LDR      r2,[pc,#164] ; [0xfae4] = 0xe000e400
        0x0000fa40:    7810        .x      LDRB     r0,[r2,#0]
        0x0000fa42:    9001        ..      STR      r0,[sp,#4]
        0x0000fa44:    20ff        .       MOVS     r0,#0xff
        0x0000fa46:    7010        .p      STRB     r0,[r2,#0]
        0x0000fa48:    7810        .x      LDRB     r0,[r2,#0]
        0x0000fa4a:    f88d0000    ....    STRB     r0,[sp,#0]
        0x0000fa4e:    f89d0000    ....    LDRB     r0,[sp,#0]
        0x0000fa52:    f89d1000    ....    LDRB     r1,[sp,#0]
        0x0000fa56:    f00000e0    ....    AND      r0,r0,#0xe0
        0x0000fa5a:    4288        .B      CMP      r0,r1
        0x0000fa5c:    d000        ..      BEQ      0xfa60 ; xPortStartScheduler + 60
        0x0000fa5e:    e7fe        ..      B        0xfa5e ; xPortStartScheduler + 58
        0x0000fa60:    f89d0000    ....    LDRB     r0,[sp,#0]
        0x0000fa64:    4c20         L      LDR      r4,[pc,#128] ; [0xfae8] = 0x1000100c
        0x0000fa66:    f0000080    ....    AND      r0,r0,#0x80
        0x0000fa6a:    7020         p      STRB     r0,[r4,#0]
        0x0000fa6c:    2007        .       MOVS     r0,#7
        0x0000fa6e:    60e0        .`      STR      r0,[r4,#0xc]
        0x0000fa70:    f89d1000    ....    LDRB     r1,[sp,#0]
        0x0000fa74:    f0110f80    ....    TST      r1,#0x80
        0x0000fa78:    d00e        ..      BEQ      0xfa98 ; xPortStartScheduler + 116
        0x0000fa7a:    bf00        ..      NOP      
        0x0000fa7c:    f89d1000    ....    LDRB     r1,[sp,#0]
        0x0000fa80:    0049        I.      LSLS     r1,r1,#1
        0x0000fa82:    f88d1000    ....    STRB     r1,[sp,#0]
        0x0000fa86:    f89d1000    ....    LDRB     r1,[sp,#0]
        0x0000fa8a:    1e40        @.      SUBS     r0,r0,#1
        0x0000fa8c:    f0110f80    ....    TST      r1,#0x80
        0x0000fa90:    d1f4        ..      BNE      0xfa7c ; xPortStartScheduler + 88
        0x0000fa92:    60e0        .`      STR      r0,[r4,#0xc]
        0x0000fa94:    2804        .(      CMP      r0,#4
        0x0000fa96:    d000        ..      BEQ      0xfa9a ; xPortStartScheduler + 118
        0x0000fa98:    e7fe        ..      B        0xfa98 ; xPortStartScheduler + 116
        0x0000fa9a:    f44f6080    O..`    MOV      r0,#0x400
        0x0000fa9e:    60e0        .`      STR      r0,[r4,#0xc]
        0x0000faa0:    9801        ..      LDR      r0,[sp,#4]
        0x0000faa2:    7010        .p      STRB     r0,[r2,#0]
        0x0000faa4:    4811        .H      LDR      r0,[pc,#68] ; [0xfaec] = 0xe000ed20
        0x0000faa6:    6801        .h      LDR      r1,[r0,#0]
        0x0000faa8:    f4410160    A.`.    ORR      r1,r1,#0xe00000
        0x0000faac:    6001        .`      STR      r1,[r0,#0]
        0x0000faae:    6801        .h      LDR      r1,[r0,#0]
        0x0000fab0:    f0414160    A.`A    ORR      r1,r1,#0xe0000000
        0x0000fab4:    6001        .`      STR      r1,[r0,#0]
        0x0000fab6:    f7fffcbd    ....    BL       vPortSetupTimerInterrupt ; 0xf434
        0x0000faba:    2000        .       MOVS     r0,#0
        0x0000fabc:    60a0        .`      STR      r0,[r4,#8]
        0x0000fabe:    f7fcfbad    ....    BL       __asm___6_port_c_39a90d8d__prvEnableVFP ; 0xc21c
        0x0000fac2:    480b        .H      LDR      r0,[pc,#44] ; [0xfaf0] = 0xe000ef34
        0x0000fac4:    6801        .h      LDR      r1,[r0,#0]
        0x0000fac6:    f0414140    A.@A    ORR      r1,r1,#0xc0000000
        0x0000faca:    6001        .`      STR      r1,[r0,#0]
        0x0000facc:    f7fcfb92    ....    BL       __asm___6_port_c_39a90d8d__prvStartFirstTask ; 0xc1f4
        0x0000fad0:    b002        ..      ADD      sp,sp,#8
        0x0000fad2:    2000        .       MOVS     r0,#0
        0x0000fad4:    bd10        ..      POP      {r4,pc}
    $d
        0x0000fad6:    0000        ..      DCW    0
        0x0000fad8:    e000ed00    ....    DCD    3758157056
        0x0000fadc:    410fc271    q..A    DCD    1091551857
        0x0000fae0:    410fc270    p..A    DCD    1091551856
        0x0000fae4:    e000e400    ....    DCD    3758154752
        0x0000fae8:    1000100c    ....    DCD    268439564
        0x0000faec:    e000ed20     ...    DCD    3758157088
        0x0000faf0:    e000ef34    4...    DCD    3758157620
    $t
    i.xPortStimerTickHandler
    xPortStimerTickHandler
        0x0000faf4:    e92d41f0    -..A    PUSH     {r4-r8,lr}
        0x0000faf8:    4606        .F      MOV      r6,r0
        0x0000fafa:    2500        .%      MOVS     r5,#0
        0x0000fafc:    f7fdff64    ..d.    BL       am_hal_stimer_counter_get ; 0xd9c8
        0x0000fb00:    4c19        .L      LDR      r4,[pc,#100] ; [0xfb68] = 0x1000100c
        0x0000fb02:    4607        .F      MOV      r7,r0
        0x0000fb04:    6920         i      LDR      r0,[r4,#0x10]
        0x0000fb06:    1b81        ..      SUBS     r1,r0,r6
        0x0000fb08:    2000        .       MOVS     r0,#0
        0x0000fb0a:    f7fdff07    ....    BL       am_hal_stimer_compare_delta_set ; 0xd91c
        0x0000fb0e:    6920         i      LDR      r0,[r4,#0x10]
        0x0000fb10:    1b80        ..      SUBS     r0,r0,r6
        0x0000fb12:    1c41        A.      ADDS     r1,r0,#1
        0x0000fb14:    2001        .       MOVS     r0,#1
        0x0000fb16:    f7fdff01    ....    BL       am_hal_stimer_compare_delta_set ; 0xd91c
        0x0000fb1a:    6860        `h      LDR      r0,[r4,#4]
        0x0000fb1c:    6921        !i      LDR      r1,[r4,#0x10]
        0x0000fb1e:    1a38        8.      SUBS     r0,r7,r0
        0x0000fb20:    fbb0f2f1    ....    UDIV     r2,r0,r1
        0x0000fb24:    fbb0f3f1    ....    UDIV     r3,r0,r1
        0x0000fb28:    fb010113    ....    MLS      r1,r1,r3,r0
        0x0000fb2c:    1a78        x.      SUBS     r0,r7,r1
        0x0000fb2e:    6060        ``      STR      r0,[r4,#4]
        0x0000fb30:    2080        .       MOVS     r0,#0x80
        0x0000fb32:    f3808811    ....    MSR      BASEPRI,r0
        0x0000fb36:    f3bf8f4f    ..O.    DSB      
        0x0000fb3a:    f3bf8f6f    ..o.    ISB      
        0x0000fb3e:    1e54        T.      SUBS     r4,r2,#1
        0x0000fb40:    d30c        ..      BCC      0xfb5c ; xPortStimerTickHandler + 104
        0x0000fb42:    bf00        ..      NOP      
        0x0000fb44:    f000fb1a    ....    BL       xTaskIncrementTick ; 0x1017c
        0x0000fb48:    2800        .(      CMP      r0,#0
        0x0000fb4a:    bf18        ..      IT       NE
        0x0000fb4c:    2501        .%      MOVNE    r5,#1
        0x0000fb4e:    1e64        d.      SUBS     r4,r4,#1
        0x0000fb50:    d2f8        ..      BCS      0xfb44 ; xPortStimerTickHandler + 80
        0x0000fb52:    b11d        ..      CBZ      r5,0xfb5c ; xPortStimerTickHandler + 104
        0x0000fb54:    4905        .I      LDR      r1,[pc,#20] ; [0xfb6c] = 0xe000ed04
        0x0000fb56:    f04f5080    O..P    MOV      r0,#0x10000000
        0x0000fb5a:    6008        .`      STR      r0,[r1,#0]
        0x0000fb5c:    2000        .       MOVS     r0,#0
        0x0000fb5e:    f3808811    ....    MSR      BASEPRI,r0
        0x0000fb62:    e8bd81f0    ....    POP      {r4-r8,pc}
    $d
        0x0000fb66:    0000        ..      DCW    0
        0x0000fb68:    1000100c    ....    DCD    268439564
        0x0000fb6c:    e000ed04    ....    DCD    3758157060
    $t
    i.xQueueGenericCreate
    xQueueGenericCreate
        0x0000fb70:    b570        p.      PUSH     {r4-r6,lr}
        0x0000fb72:    460c        .F      MOV      r4,r1
        0x0000fb74:    0006        ..      MOVS     r6,r0
        0x0000fb76:    d034        4.      BEQ      0xfbe2 ; xQueueGenericCreate + 114
        0x0000fb78:    2c00        .,      CMP      r4,#0
        0x0000fb7a:    bf0c        ..      ITE      EQ
        0x0000fb7c:    2000        .       MOVEQ    r0,#0
        0x0000fb7e:    fb06f004    ....    MULNE    r0,r6,r4
        0x0000fb82:    3048        H0      ADDS     r0,r0,#0x48
        0x0000fb84:    f7fffa1e    ....    BL       pvPortMalloc ; 0xefc4
        0x0000fb88:    0005        ..      MOVS     r5,r0
        0x0000fb8a:    d028        (.      BEQ      0xfbde ; xQueueGenericCreate + 110
        0x0000fb8c:    f1050148    ..H.    ADD      r1,r5,#0x48
        0x0000fb90:    2c00        .,      CMP      r4,#0
        0x0000fb92:    bf0c        ..      ITE      EQ
        0x0000fb94:    6000        .`      STREQ    r0,[r0,#0]
        0x0000fb96:    6001        .`      STRNE    r1,[r0,#0]
        0x0000fb98:    e9c0640f    ...d    STRD     r6,r4,[r0,#0x3c]
        0x0000fb9c:    4604        .F      MOV      r4,r0
        0x0000fb9e:    f7fffc01    ....    BL       vPortEnterCritical ; 0xf3a4
        0x0000fba2:    e9d4120f    ....    LDRD     r1,r2,[r4,#0x3c]
        0x0000fba6:    6820         h      LDR      r0,[r4,#0]
        0x0000fba8:    fb010002    ....    MLA      r0,r1,r2,r0
        0x0000fbac:    60a0        .`      STR      r0,[r4,#8]
        0x0000fbae:    2000        .       MOVS     r0,#0
        0x0000fbb0:    63a0        .c      STR      r0,[r4,#0x38]
        0x0000fbb2:    6820         h      LDR      r0,[r4,#0]
        0x0000fbb4:    1e49        I.      SUBS     r1,r1,#1
        0x0000fbb6:    6060        ``      STR      r0,[r4,#4]
        0x0000fbb8:    fb010002    ....    MLA      r0,r1,r2,r0
        0x0000fbbc:    60e0        .`      STR      r0,[r4,#0xc]
        0x0000fbbe:    f04f30ff    O..0    MOV      r0,#0xffffffff
        0x0000fbc2:    f8840044    ..D.    STRB     r0,[r4,#0x44]
        0x0000fbc6:    f8840045    ..E.    STRB     r0,[r4,#0x45]
        0x0000fbca:    f1040010    ....    ADD      r0,r4,#0x10
        0x0000fbce:    f7fffbb0    ....    BL       vListInitialise ; 0xf332
        0x0000fbd2:    f1040024    ..$.    ADD      r0,r4,#0x24
        0x0000fbd6:    f7fffbac    ....    BL       vListInitialise ; 0xf332
        0x0000fbda:    f7fffbfd    ....    BL       vPortExitCritical ; 0xf3d8
        0x0000fbde:    4628        (F      MOV      r0,r5
        0x0000fbe0:    bd70        p.      POP      {r4-r6,pc}
        0x0000fbe2:    e7fe        ..      B        0xfbe2 ; xQueueGenericCreate + 114
    i.xQueueGenericSend
    xQueueGenericSend
        0x0000fbe4:    e92d47ff    -..G    PUSH     {r0-r10,lr}
        0x0000fbe8:    b082        ..      SUB      sp,sp,#8
        0x0000fbea:    461d        .F      MOV      r5,r3
        0x0000fbec:    460e        .F      MOV      r6,r1
        0x0000fbee:    f04f0900    O...    MOV      r9,#0
        0x0000fbf2:    0004        ..      MOVS     r4,r0
        0x0000fbf4:    d001        ..      BEQ      0xfbfa ; xQueueGenericSend + 22
        0x0000fbf6:    b10e        ..      CBZ      r6,0xfbfc ; xQueueGenericSend + 24
        0x0000fbf8:    e003        ..      B        0xfc02 ; xQueueGenericSend + 30
        0x0000fbfa:    e7fe        ..      B        0xfbfa ; xQueueGenericSend + 22
        0x0000fbfc:    6c20         l      LDR      r0,[r4,#0x40]
        0x0000fbfe:    b100        ..      CBZ      r0,0xfc02 ; xQueueGenericSend + 30
        0x0000fc00:    e7fe        ..      B        0xfc00 ; xQueueGenericSend + 28
        0x0000fc02:    2d02        .-      CMP      r5,#2
        0x0000fc04:    d103        ..      BNE      0xfc0e ; xQueueGenericSend + 42
        0x0000fc06:    6be0        .k      LDR      r0,[r4,#0x3c]
        0x0000fc08:    2801        .(      CMP      r0,#1
        0x0000fc0a:    d000        ..      BEQ      0xfc0e ; xQueueGenericSend + 42
        0x0000fc0c:    e7fe        ..      B        0xfc0c ; xQueueGenericSend + 40
        0x0000fc0e:    f000faa1    ....    BL       xTaskGetSchedulerState ; 0x10154
        0x0000fc12:    f8df814c    ..L.    LDR      r8,[pc,#332] ; [0xfd60] = 0xe000ed04
        0x0000fc16:    f04f0a00    O...    MOV      r10,#0
        0x0000fc1a:    f04f5780    O..W    MOV      r7,#0x10000000
        0x0000fc1e:    b910        ..      CBNZ     r0,0xfc26 ; xQueueGenericSend + 66
        0x0000fc20:    9804        ..      LDR      r0,[sp,#0x10]
        0x0000fc22:    b100        ..      CBZ      r0,0xfc26 ; xQueueGenericSend + 66
        0x0000fc24:    e7fe        ..      B        0xfc24 ; xQueueGenericSend + 64
        0x0000fc26:    f7fffbbd    ....    BL       vPortEnterCritical ; 0xf3a4
        0x0000fc2a:    6ba0        .k      LDR      r0,[r4,#0x38]
        0x0000fc2c:    6be1        .k      LDR      r1,[r4,#0x3c]
        0x0000fc2e:    4288        .B      CMP      r0,r1
        0x0000fc30:    d308        ..      BCC      0xfc44 ; xQueueGenericSend + 96
        0x0000fc32:    2d02        .-      CMP      r5,#2
        0x0000fc34:    d006        ..      BEQ      0xfc44 ; xQueueGenericSend + 96
        0x0000fc36:    9804        ..      LDR      r0,[sp,#0x10]
        0x0000fc38:    2800        .(      CMP      r0,#0
        0x0000fc3a:    d041        A.      BEQ      0xfcc0 ; xQueueGenericSend + 220
        0x0000fc3c:    f1b90f00    ....    CMP      r9,#0
        0x0000fc40:    d041        A.      BEQ      0xfcc6 ; xQueueGenericSend + 226
        0x0000fc42:    e045        E.      B        0xfcd0 ; xQueueGenericSend + 236
        0x0000fc44:    46a9        .F      MOV      r9,r5
        0x0000fc46:    6ba5        .k      LDR      r5,[r4,#0x38]
        0x0000fc48:    4631        1F      MOV      r1,r6
        0x0000fc4a:    6c22        "l      LDR      r2,[r4,#0x40]
        0x0000fc4c:    b1fa        ..      CBZ      r2,0xfc8e ; xQueueGenericSend + 170
        0x0000fc4e:    f1b90f00    ....    CMP      r9,#0
        0x0000fc52:    d010        ..      BEQ      0xfc76 ; xQueueGenericSend + 146
        0x0000fc54:    68e0        .h      LDR      r0,[r4,#0xc]
        0x0000fc56:    f7fcfb55    ..U.    BL       __aeabi_memcpy ; 0xc304
        0x0000fc5a:    68e1        .h      LDR      r1,[r4,#0xc]
        0x0000fc5c:    6c20         l      LDR      r0,[r4,#0x40]
        0x0000fc5e:    1a09        ..      SUBS     r1,r1,r0
        0x0000fc60:    60e1        .`      STR      r1,[r4,#0xc]
        0x0000fc62:    6822        "h      LDR      r2,[r4,#0]
        0x0000fc64:    4291        .B      CMP      r1,r2
        0x0000fc66:    d202        ..      BCS      0xfc6e ; xQueueGenericSend + 138
        0x0000fc68:    68a1        .h      LDR      r1,[r4,#8]
        0x0000fc6a:    1a08        ..      SUBS     r0,r1,r0
        0x0000fc6c:    60e0        .`      STR      r0,[r4,#0xc]
        0x0000fc6e:    f1b90f02    ....    CMP      r9,#2
        0x0000fc72:    d110        ..      BNE      0xfc96 ; xQueueGenericSend + 178
        0x0000fc74:    e00c        ..      B        0xfc90 ; xQueueGenericSend + 172
        0x0000fc76:    6860        `h      LDR      r0,[r4,#4]
        0x0000fc78:    f7fcfb44    ..D.    BL       __aeabi_memcpy ; 0xc304
        0x0000fc7c:    6c21        !l      LDR      r1,[r4,#0x40]
        0x0000fc7e:    6860        `h      LDR      r0,[r4,#4]
        0x0000fc80:    4408        .D      ADD      r0,r0,r1
        0x0000fc82:    6060        ``      STR      r0,[r4,#4]
        0x0000fc84:    68a1        .h      LDR      r1,[r4,#8]
        0x0000fc86:    4288        .B      CMP      r0,r1
        0x0000fc88:    bf24        $.      ITT      CS
        0x0000fc8a:    6820         h      LDRCS    r0,[r4,#0]
        0x0000fc8c:    6060        ``      STRCS    r0,[r4,#4]
        0x0000fc8e:    e002        ..      B        0xfc96 ; xQueueGenericSend + 178
        0x0000fc90:    2d00        .-      CMP      r5,#0
        0x0000fc92:    bf18        ..      IT       NE
        0x0000fc94:    1e6d        m.      SUBNE    r5,r5,#1
        0x0000fc96:    1c68        h.      ADDS     r0,r5,#1
        0x0000fc98:    63a0        .c      STR      r0,[r4,#0x38]
        0x0000fc9a:    6a60        `j      LDR      r0,[r4,#0x24]
        0x0000fc9c:    b150        P.      CBZ      r0,0xfcb4 ; xQueueGenericSend + 208
        0x0000fc9e:    f1040024    ..$.    ADD      r0,r4,#0x24
        0x0000fca2:    f000facf    ....    BL       xTaskRemoveFromEventList ; 0x10244
        0x0000fca6:    b128        (.      CBZ      r0,0xfcb4 ; xQueueGenericSend + 208
        0x0000fca8:    f8c87000    ...p    STR      r7,[r8,#0]
        0x0000fcac:    f3bf8f4f    ..O.    DSB      
        0x0000fcb0:    f3bf8f6f    ..o.    ISB      
        0x0000fcb4:    f7fffb90    ....    BL       vPortExitCritical ; 0xf3d8
        0x0000fcb8:    b006        ..      ADD      sp,sp,#0x18
        0x0000fcba:    2001        .       MOVS     r0,#1
        0x0000fcbc:    e8bd87f0    ....    POP      {r4-r10,pc}
        0x0000fcc0:    f7fffb8a    ....    BL       vPortExitCritical ; 0xf3d8
        0x0000fcc4:    e024        $.      B        0xfd10 ; xQueueGenericSend + 300
        0x0000fcc6:    4668        hF      MOV      r0,sp
        0x0000fcc8:    f7fffc8e    ....    BL       vTaskInternalSetTimeOutState ; 0xf5e8
        0x0000fccc:    f04f0901    O...    MOV      r9,#1
        0x0000fcd0:    f7fffb82    ....    BL       vPortExitCritical ; 0xf3d8
        0x0000fcd4:    f7fffdda    ....    BL       vTaskSuspendAll ; 0xf88c
        0x0000fcd8:    f7fffb64    ..d.    BL       vPortEnterCritical ; 0xf3a4
        0x0000fcdc:    f9940044    ..D.    LDRSB    r0,[r4,#0x44]
        0x0000fce0:    f1b03fff    ...?    CMP      r0,#0xffffffff
        0x0000fce4:    bf08        ..      IT       EQ
        0x0000fce6:    f884a044    ..D.    STRBEQ   r10,[r4,#0x44]
        0x0000fcea:    f9940045    ..E.    LDRSB    r0,[r4,#0x45]
        0x0000fcee:    f1b03fff    ...?    CMP      r0,#0xffffffff
        0x0000fcf2:    bf08        ..      IT       EQ
        0x0000fcf4:    f884a045    ..E.    STRBEQ   r10,[r4,#0x45]
        0x0000fcf8:    f7fffb6e    ..n.    BL       vPortExitCritical ; 0xf3d8
        0x0000fcfc:    a904        ..      ADD      r1,sp,#0x10
        0x0000fcfe:    4668        hF      MOV      r0,sp
        0x0000fd00:    f000f938    ..8.    BL       xTaskCheckForTimeOut ; 0xff74
        0x0000fd04:    b140        @.      CBZ      r0,0xfd18 ; xQueueGenericSend + 308
        0x0000fd06:    4620         F      MOV      r0,r4
        0x0000fd08:    f7fff926    ..&.    BL       prvUnlockQueue ; 0xef58
        0x0000fd0c:    f000fada    ....    BL       xTaskResumeAll ; 0x102c4
        0x0000fd10:    b006        ..      ADD      sp,sp,#0x18
        0x0000fd12:    2000        .       MOVS     r0,#0
        0x0000fd14:    e8bd87f0    ....    POP      {r4-r10,pc}
        0x0000fd18:    f7fffb44    ..D.    BL       vPortEnterCritical ; 0xf3a4
        0x0000fd1c:    6ba0        .k      LDR      r0,[r4,#0x38]
        0x0000fd1e:    6be1        .k      LDR      r1,[r4,#0x3c]
        0x0000fd20:    4288        .B      CMP      r0,r1
        0x0000fd22:    d115        ..      BNE      0xfd50 ; xQueueGenericSend + 364
        0x0000fd24:    f7fffb58    ..X.    BL       vPortExitCritical ; 0xf3d8
        0x0000fd28:    f1040010    ....    ADD      r0,r4,#0x10
        0x0000fd2c:    9904        ..      LDR      r1,[sp,#0x10]
        0x0000fd2e:    f7fffc69    ..i.    BL       vTaskPlaceOnEventList ; 0xf604
        0x0000fd32:    4620         F      MOV      r0,r4
        0x0000fd34:    f7fff910    ....    BL       prvUnlockQueue ; 0xef58
        0x0000fd38:    f000fac4    ....    BL       xTaskResumeAll ; 0x102c4
        0x0000fd3c:    2800        .(      CMP      r0,#0
        0x0000fd3e:    f47faf72    ..r.    BNE      0xfc26 ; xQueueGenericSend + 66
        0x0000fd42:    f8c87000    ...p    STR      r7,[r8,#0]
        0x0000fd46:    f3bf8f4f    ..O.    DSB      
        0x0000fd4a:    f3bf8f6f    ..o.    ISB      
        0x0000fd4e:    e76a        j.      B        0xfc26 ; xQueueGenericSend + 66
        0x0000fd50:    f7fffb42    ..B.    BL       vPortExitCritical ; 0xf3d8
        0x0000fd54:    4620         F      MOV      r0,r4
        0x0000fd56:    f7fff8ff    ....    BL       prvUnlockQueue ; 0xef58
        0x0000fd5a:    f000fab3    ....    BL       xTaskResumeAll ; 0x102c4
        0x0000fd5e:    e762        b.      B        0xfc26 ; xQueueGenericSend + 66
    $d
        0x0000fd60:    e000ed04    ....    DCD    3758157060
    $t
    i.xQueueGenericSendFromISR
    xQueueGenericSendFromISR
        0x0000fd64:    e92d47f0    -..G    PUSH     {r4-r10,lr}
        0x0000fd68:    461d        .F      MOV      r5,r3
        0x0000fd6a:    4691        .F      MOV      r9,r2
        0x0000fd6c:    460f        .F      MOV      r7,r1
        0x0000fd6e:    0004        ..      MOVS     r4,r0
        0x0000fd70:    d001        ..      BEQ      0xfd76 ; xQueueGenericSendFromISR + 18
        0x0000fd72:    b10f        ..      CBZ      r7,0xfd78 ; xQueueGenericSendFromISR + 20
        0x0000fd74:    e003        ..      B        0xfd7e ; xQueueGenericSendFromISR + 26
        0x0000fd76:    e7fe        ..      B        0xfd76 ; xQueueGenericSendFromISR + 18
        0x0000fd78:    6c20         l      LDR      r0,[r4,#0x40]
        0x0000fd7a:    b100        ..      CBZ      r0,0xfd7e ; xQueueGenericSendFromISR + 26
        0x0000fd7c:    e7fe        ..      B        0xfd7c ; xQueueGenericSendFromISR + 24
        0x0000fd7e:    2d02        .-      CMP      r5,#2
        0x0000fd80:    d103        ..      BNE      0xfd8a ; xQueueGenericSendFromISR + 38
        0x0000fd82:    6be0        .k      LDR      r0,[r4,#0x3c]
        0x0000fd84:    2801        .(      CMP      r0,#1
        0x0000fd86:    d000        ..      BEQ      0xfd8a ; xQueueGenericSendFromISR + 38
        0x0000fd88:    e7fe        ..      B        0xfd88 ; xQueueGenericSendFromISR + 36
        0x0000fd8a:    f7fffbeb    ....    BL       vPortValidateInterruptPriority ; 0xf564
        0x0000fd8e:    2080        .       MOVS     r0,#0x80
        0x0000fd90:    f3ef8611    ....    MRS      r6,BASEPRI
        0x0000fd94:    f3808811    ....    MSR      BASEPRI,r0
        0x0000fd98:    f3bf8f4f    ..O.    DSB      
        0x0000fd9c:    f3bf8f6f    ..o.    ISB      
        0x0000fda0:    6ba0        .k      LDR      r0,[r4,#0x38]
        0x0000fda2:    6be1        .k      LDR      r1,[r4,#0x3c]
        0x0000fda4:    4288        .B      CMP      r0,r1
        0x0000fda6:    d307        ..      BCC      0xfdb8 ; xQueueGenericSendFromISR + 84
        0x0000fda8:    2d02        .-      CMP      r5,#2
        0x0000fdaa:    bf18        ..      IT       NE
        0x0000fdac:    2000        .       MOVNE    r0,#0
        0x0000fdae:    d003        ..      BEQ      0xfdb8 ; xQueueGenericSendFromISR + 84
        0x0000fdb0:    f3868811    ....    MSR      BASEPRI,r6
        0x0000fdb4:    e8bd87f0    ....    POP      {r4-r10,pc}
        0x0000fdb8:    f994a045    ..E.    LDRSB    r10,[r4,#0x45]
        0x0000fdbc:    46a8        .F      MOV      r8,r5
        0x0000fdbe:    6ba5        .k      LDR      r5,[r4,#0x38]
        0x0000fdc0:    4639        9F      MOV      r1,r7
        0x0000fdc2:    6c22        "l      LDR      r2,[r4,#0x40]
        0x0000fdc4:    b302        ..      CBZ      r2,0xfe08 ; xQueueGenericSendFromISR + 164
        0x0000fdc6:    f1b80f00    ....    CMP      r8,#0
        0x0000fdca:    d011        ..      BEQ      0xfdf0 ; xQueueGenericSendFromISR + 140
        0x0000fdcc:    68e0        .h      LDR      r0,[r4,#0xc]
        0x0000fdce:    f7fcfa99    ....    BL       __aeabi_memcpy ; 0xc304
        0x0000fdd2:    6c21        !l      LDR      r1,[r4,#0x40]
        0x0000fdd4:    68e0        .h      LDR      r0,[r4,#0xc]
        0x0000fdd6:    1a40        @.      SUBS     r0,r0,r1
        0x0000fdd8:    60e0        .`      STR      r0,[r4,#0xc]
        0x0000fdda:    6821        !h      LDR      r1,[r4,#0]
        0x0000fddc:    4288        .B      CMP      r0,r1
        0x0000fdde:    d203        ..      BCS      0xfde8 ; xQueueGenericSendFromISR + 132
        0x0000fde0:    6c21        !l      LDR      r1,[r4,#0x40]
        0x0000fde2:    68a0        .h      LDR      r0,[r4,#8]
        0x0000fde4:    1a40        @.      SUBS     r0,r0,r1
        0x0000fde6:    60e0        .`      STR      r0,[r4,#0xc]
        0x0000fde8:    f1b80f02    ....    CMP      r8,#2
        0x0000fdec:    d110        ..      BNE      0xfe10 ; xQueueGenericSendFromISR + 172
        0x0000fdee:    e00c        ..      B        0xfe0a ; xQueueGenericSendFromISR + 166
        0x0000fdf0:    6860        `h      LDR      r0,[r4,#4]
        0x0000fdf2:    f7fcfa87    ....    BL       __aeabi_memcpy ; 0xc304
        0x0000fdf6:    6c21        !l      LDR      r1,[r4,#0x40]
        0x0000fdf8:    6860        `h      LDR      r0,[r4,#4]
        0x0000fdfa:    4408        .D      ADD      r0,r0,r1
        0x0000fdfc:    6060        ``      STR      r0,[r4,#4]
        0x0000fdfe:    68a1        .h      LDR      r1,[r4,#8]
        0x0000fe00:    4288        .B      CMP      r0,r1
        0x0000fe02:    bf24        $.      ITT      CS
        0x0000fe04:    6820         h      LDRCS    r0,[r4,#0]
        0x0000fe06:    6060        ``      STRCS    r0,[r4,#4]
        0x0000fe08:    e002        ..      B        0xfe10 ; xQueueGenericSendFromISR + 172
        0x0000fe0a:    2d00        .-      CMP      r5,#0
        0x0000fe0c:    bf18        ..      IT       NE
        0x0000fe0e:    1e6d        m.      SUBNE    r5,r5,#1
        0x0000fe10:    1c68        h.      ADDS     r0,r5,#1
        0x0000fe12:    63a0        .c      STR      r0,[r4,#0x38]
        0x0000fe14:    f11a0001    ....    ADDS     r0,r10,#1
        0x0000fe18:    bf18        ..      IT       NE
        0x0000fe1a:    f8840045    ..E.    STRBNE   r0,[r4,#0x45]
        0x0000fe1e:    d001        ..      BEQ      0xfe24 ; xQueueGenericSendFromISR + 192
        0x0000fe20:    2001        .       MOVS     r0,#1
        0x0000fe22:    e7c5        ..      B        0xfdb0 ; xQueueGenericSendFromISR + 76
        0x0000fe24:    6a60        `j      LDR      r0,[r4,#0x24]
        0x0000fe26:    2800        .(      CMP      r0,#0
        0x0000fe28:    d0fa        ..      BEQ      0xfe20 ; xQueueGenericSendFromISR + 188
        0x0000fe2a:    f1040024    ..$.    ADD      r0,r4,#0x24
        0x0000fe2e:    f000fa09    ....    BL       xTaskRemoveFromEventList ; 0x10244
        0x0000fe32:    2800        .(      CMP      r0,#0
        0x0000fe34:    bf1e        ..      ITTT     NE
        0x0000fe36:    f1b90f00    ....    CMPNE    r9,#0
        0x0000fe3a:    2001        .       MOVNE    r0,#1
        0x0000fe3c:    f8c90000    ....    STRNE    r0,[r9,#0]
        0x0000fe40:    e7ee        ..      B        0xfe20 ; xQueueGenericSendFromISR + 188
        0x0000fe42:    0000        ..      MOVS     r0,r0
    i.xQueueReceive
    xQueueReceive
        0x0000fe44:    e92d47f7    -..G    PUSH     {r0-r2,r4-r10,lr}
        0x0000fe48:    2700        .'      MOVS     r7,#0
        0x0000fe4a:    b083        ..      SUB      sp,sp,#0xc
        0x0000fe4c:    460e        .F      MOV      r6,r1
        0x0000fe4e:    0004        ..      MOVS     r4,r0
        0x0000fe50:    d001        ..      BEQ      0xfe56 ; xQueueReceive + 18
        0x0000fe52:    b10e        ..      CBZ      r6,0xfe58 ; xQueueReceive + 20
        0x0000fe54:    e003        ..      B        0xfe5e ; xQueueReceive + 26
        0x0000fe56:    e7fe        ..      B        0xfe56 ; xQueueReceive + 18
        0x0000fe58:    6c20         l      LDR      r0,[r4,#0x40]
        0x0000fe5a:    b100        ..      CBZ      r0,0xfe5e ; xQueueReceive + 26
        0x0000fe5c:    e7fe        ..      B        0xfe5c ; xQueueReceive + 24
        0x0000fe5e:    f000f979    ..y.    BL       xTaskGetSchedulerState ; 0x10154
        0x0000fe62:    f8dfa10c    ....    LDR      r10,[pc,#268] ; [0xff70] = 0xe000ed04
        0x0000fe66:    f04f0800    O...    MOV      r8,#0
        0x0000fe6a:    f04f5980    O..Y    MOV      r9,#0x10000000
        0x0000fe6e:    b910        ..      CBNZ     r0,0xfe76 ; xQueueReceive + 50
        0x0000fe70:    9805        ..      LDR      r0,[sp,#0x14]
        0x0000fe72:    b100        ..      CBZ      r0,0xfe76 ; xQueueReceive + 50
        0x0000fe74:    e7fe        ..      B        0xfe74 ; xQueueReceive + 48
        0x0000fe76:    f7fffa95    ....    BL       vPortEnterCritical ; 0xf3a4
        0x0000fe7a:    6ba5        .k      LDR      r5,[r4,#0x38]
        0x0000fe7c:    b30d        ..      CBZ      r5,0xfec2 ; xQueueReceive + 126
        0x0000fe7e:    6c22        "l      LDR      r2,[r4,#0x40]
        0x0000fe80:    4630        0F      MOV      r0,r6
        0x0000fe82:    b14a        J.      CBZ      r2,0xfe98 ; xQueueReceive + 84
        0x0000fe84:    68e1        .h      LDR      r1,[r4,#0xc]
        0x0000fe86:    4411        .D      ADD      r1,r1,r2
        0x0000fe88:    60e1        .`      STR      r1,[r4,#0xc]
        0x0000fe8a:    68a3        .h      LDR      r3,[r4,#8]
        0x0000fe8c:    4299        .B      CMP      r1,r3
        0x0000fe8e:    bf24        $.      ITT      CS
        0x0000fe90:    6821        !h      LDRCS    r1,[r4,#0]
        0x0000fe92:    60e1        .`      STRCS    r1,[r4,#0xc]
        0x0000fe94:    f7fcfa36    ..6.    BL       __aeabi_memcpy ; 0xc304
        0x0000fe98:    1e68        h.      SUBS     r0,r5,#1
        0x0000fe9a:    63a0        .c      STR      r0,[r4,#0x38]
        0x0000fe9c:    6920         i      LDR      r0,[r4,#0x10]
        0x0000fe9e:    b150        P.      CBZ      r0,0xfeb6 ; xQueueReceive + 114
        0x0000fea0:    f1040010    ....    ADD      r0,r4,#0x10
        0x0000fea4:    f000f9ce    ....    BL       xTaskRemoveFromEventList ; 0x10244
        0x0000fea8:    b128        (.      CBZ      r0,0xfeb6 ; xQueueReceive + 114
        0x0000feaa:    f8ca9000    ....    STR      r9,[r10,#0]
        0x0000feae:    f3bf8f4f    ..O.    DSB      
        0x0000feb2:    f3bf8f6f    ..o.    ISB      
        0x0000feb6:    f7fffa8f    ....    BL       vPortExitCritical ; 0xf3d8
        0x0000feba:    b006        ..      ADD      sp,sp,#0x18
        0x0000febc:    2001        .       MOVS     r0,#1
        0x0000febe:    e8bd87f0    ....    POP      {r4-r10,pc}
        0x0000fec2:    9805        ..      LDR      r0,[sp,#0x14]
        0x0000fec4:    2800        .(      CMP      r0,#0
        0x0000fec6:    d04c        L.      BEQ      0xff62 ; xQueueReceive + 286
        0x0000fec8:    b91f        ..      CBNZ     r7,0xfed2 ; xQueueReceive + 142
        0x0000feca:    4668        hF      MOV      r0,sp
        0x0000fecc:    f7fffb8c    ....    BL       vTaskInternalSetTimeOutState ; 0xf5e8
        0x0000fed0:    2701        .'      MOVS     r7,#1
        0x0000fed2:    f7fffa81    ....    BL       vPortExitCritical ; 0xf3d8
        0x0000fed6:    f7fffcd9    ....    BL       vTaskSuspendAll ; 0xf88c
        0x0000feda:    f7fffa63    ..c.    BL       vPortEnterCritical ; 0xf3a4
        0x0000fede:    f9940044    ..D.    LDRSB    r0,[r4,#0x44]
        0x0000fee2:    f1b03fff    ...?    CMP      r0,#0xffffffff
        0x0000fee6:    bf08        ..      IT       EQ
        0x0000fee8:    f8848044    ..D.    STRBEQ   r8,[r4,#0x44]
        0x0000feec:    f9940045    ..E.    LDRSB    r0,[r4,#0x45]
        0x0000fef0:    f1b03fff    ...?    CMP      r0,#0xffffffff
        0x0000fef4:    bf08        ..      IT       EQ
        0x0000fef6:    f8848045    ..E.    STRBEQ   r8,[r4,#0x45]
        0x0000fefa:    f7fffa6d    ..m.    BL       vPortExitCritical ; 0xf3d8
        0x0000fefe:    a905        ..      ADD      r1,sp,#0x14
        0x0000ff00:    4668        hF      MOV      r0,sp
        0x0000ff02:    f000f837    ..7.    BL       xTaskCheckForTimeOut ; 0xff74
        0x0000ff06:    b158        X.      CBZ      r0,0xff20 ; xQueueReceive + 220
        0x0000ff08:    4620         F      MOV      r0,r4
        0x0000ff0a:    f7fff825    ..%.    BL       prvUnlockQueue ; 0xef58
        0x0000ff0e:    f000f9d9    ....    BL       xTaskResumeAll ; 0x102c4
        0x0000ff12:    f7fffa47    ..G.    BL       vPortEnterCritical ; 0xf3a4
        0x0000ff16:    6ba0        .k      LDR      r0,[r4,#0x38]
        0x0000ff18:    b318        ..      CBZ      r0,0xff62 ; xQueueReceive + 286
        0x0000ff1a:    f7fffa5d    ..].    BL       vPortExitCritical ; 0xf3d8
        0x0000ff1e:    e7aa        ..      B        0xfe76 ; xQueueReceive + 50
        0x0000ff20:    f7fffa40    ..@.    BL       vPortEnterCritical ; 0xf3a4
        0x0000ff24:    6ba0        .k      LDR      r0,[r4,#0x38]
        0x0000ff26:    b138        8.      CBZ      r0,0xff38 ; xQueueReceive + 244
        0x0000ff28:    f7fffa56    ..V.    BL       vPortExitCritical ; 0xf3d8
        0x0000ff2c:    4620         F      MOV      r0,r4
        0x0000ff2e:    f7fff813    ....    BL       prvUnlockQueue ; 0xef58
        0x0000ff32:    f000f9c7    ....    BL       xTaskResumeAll ; 0x102c4
        0x0000ff36:    e79e        ..      B        0xfe76 ; xQueueReceive + 50
        0x0000ff38:    f7fffa4e    ..N.    BL       vPortExitCritical ; 0xf3d8
        0x0000ff3c:    f1040024    ..$.    ADD      r0,r4,#0x24
        0x0000ff40:    9905        ..      LDR      r1,[sp,#0x14]
        0x0000ff42:    f7fffb5f    .._.    BL       vTaskPlaceOnEventList ; 0xf604
        0x0000ff46:    4620         F      MOV      r0,r4
        0x0000ff48:    f7fff806    ....    BL       prvUnlockQueue ; 0xef58
        0x0000ff4c:    f000f9ba    ....    BL       xTaskResumeAll ; 0x102c4
        0x0000ff50:    2800        .(      CMP      r0,#0
        0x0000ff52:    d190        ..      BNE      0xfe76 ; xQueueReceive + 50
        0x0000ff54:    f8ca9000    ....    STR      r9,[r10,#0]
        0x0000ff58:    f3bf8f4f    ..O.    DSB      
        0x0000ff5c:    f3bf8f6f    ..o.    ISB      
        0x0000ff60:    e789        ..      B        0xfe76 ; xQueueReceive + 50
        0x0000ff62:    f7fffa39    ..9.    BL       vPortExitCritical ; 0xf3d8
        0x0000ff66:    b006        ..      ADD      sp,sp,#0x18
        0x0000ff68:    2000        .       MOVS     r0,#0
        0x0000ff6a:    e8bd87f0    ....    POP      {r4-r10,pc}
    $d
        0x0000ff6e:    0000        ..      DCW    0
        0x0000ff70:    e000ed04    ....    DCD    3758157060
    $t
    i.xTaskCheckForTimeOut
    xTaskCheckForTimeOut
        0x0000ff74:    e92d41f0    -..A    PUSH     {r4-r8,lr}
        0x0000ff78:    460d        .F      MOV      r5,r1
        0x0000ff7a:    0004        ..      MOVS     r4,r0
        0x0000ff7c:    d020         .      BEQ      0xffc0 ; xTaskCheckForTimeOut + 76
        0x0000ff7e:    b305        ..      CBZ      r5,0xffc2 ; xTaskCheckForTimeOut + 78
        0x0000ff80:    f7fffa10    ....    BL       vPortEnterCritical ; 0xf3a4
        0x0000ff84:    4813        .H      LDR      r0,[pc,#76] ; [0xffd4] = 0x10001048
        0x0000ff86:    6883        .h      LDR      r3,[r0,#8]
        0x0000ff88:    f8d4c004    ....    LDR      r12,[r4,#4]
        0x0000ff8c:    6829        )h      LDR      r1,[r5,#0]
        0x0000ff8e:    eba3020c    ....    SUB      r2,r3,r12
        0x0000ff92:    f1b13fff    ...?    CMP      r1,#0xffffffff
        0x0000ff96:    bf08        ..      IT       EQ
        0x0000ff98:    2400        .$      MOVEQ    r4,#0
        0x0000ff9a:    d016        ..      BEQ      0xffca ; xTaskCheckForTimeOut + 86
        0x0000ff9c:    6826        &h      LDR      r6,[r4,#0]
        0x0000ff9e:    69c7        .i      LDR      r7,[r0,#0x1c]
        0x0000ffa0:    42be        .B      CMP      r6,r7
        0x0000ffa2:    d003        ..      BEQ      0xffac ; xTaskCheckForTimeOut + 56
        0x0000ffa4:    459c        .E      CMP      r12,r3
        0x0000ffa6:    bf98        ..      IT       LS
        0x0000ffa8:    2401        .$      MOVLS    r4,#1
        0x0000ffaa:    d90e        ..      BLS      0xffca ; xTaskCheckForTimeOut + 86
        0x0000ffac:    4291        .B      CMP      r1,r2
        0x0000ffae:    d909        ..      BLS      0xffc4 ; xTaskCheckForTimeOut + 80
        0x0000ffb0:    1a89        ..      SUBS     r1,r1,r2
        0x0000ffb2:    6029        )`      STR      r1,[r5,#0]
        0x0000ffb4:    69c1        .i      LDR      r1,[r0,#0x1c]
        0x0000ffb6:    6021        !`      STR      r1,[r4,#0]
        0x0000ffb8:    6880        .h      LDR      r0,[r0,#8]
        0x0000ffba:    6060        ``      STR      r0,[r4,#4]
        0x0000ffbc:    2400        .$      MOVS     r4,#0
        0x0000ffbe:    e004        ..      B        0xffca ; xTaskCheckForTimeOut + 86
        0x0000ffc0:    e7fe        ..      B        0xffc0 ; xTaskCheckForTimeOut + 76
        0x0000ffc2:    e7fe        ..      B        0xffc2 ; xTaskCheckForTimeOut + 78
        0x0000ffc4:    2000        .       MOVS     r0,#0
        0x0000ffc6:    2401        .$      MOVS     r4,#1
        0x0000ffc8:    6028        (`      STR      r0,[r5,#0]
        0x0000ffca:    f7fffa05    ....    BL       vPortExitCritical ; 0xf3d8
        0x0000ffce:    4620         F      MOV      r0,r4
        0x0000ffd0:    e8bd81f0    ....    POP      {r4-r8,pc}
    $d
        0x0000ffd4:    10001048    H...    DCD    268439624
    $t
    i.xTaskCreate
    xTaskCreate
        0x0000ffd8:    e92d4ff8    -..O    PUSH     {r3-r11,lr}
        0x0000ffdc:    4682        .F      MOV      r10,r0
        0x0000ffde:    e9dd680a    ...h    LDRD     r6,r8,[sp,#0x28]
        0x0000ffe2:    0090        ..      LSLS     r0,r2,#2
        0x0000ffe4:    4699        .F      MOV      r9,r3
        0x0000ffe6:    4617        .F      MOV      r7,r2
        0x0000ffe8:    460d        .F      MOV      r5,r1
        0x0000ffea:    9000        ..      STR      r0,[sp,#0]
        0x0000ffec:    f7feffea    ....    BL       pvPortMalloc ; 0xefc4
        0x0000fff0:    ea5f0b00    _...    MOVS     r11,r0
        0x0000fff4:    d04f        O.      BEQ      0x10096 ; xTaskCreate + 190
        0x0000fff6:    204c        L       MOVS     r0,#0x4c
        0x0000fff8:    f7feffe4    ....    BL       pvPortMalloc ; 0xefc4
        0x0000fffc:    0004        ..      MOVS     r4,r0
        0x0000fffe:    4658        XF      MOV      r0,r11
        0x00010000:    d047        G.      BEQ      0x10092 ; xTaskCreate + 186
        0x00010002:    6320         c      STR      r0,[r4,#0x30]
        0x00010004:    2d00        .-      CMP      r5,#0
        0x00010006:    d04a        J.      BEQ      0x1009e ; xTaskCreate + 198
        0x00010008:    22a5        ."      MOVS     r2,#0xa5
        0x0001000a:    9900        ..      LDR      r1,[sp,#0]
        0x0001000c:    f7fcf9bf    ....    BL       __aeabi_memset ; 0xc38e
        0x00010010:    f06f0103    o...    MVN      r1,#3
        0x00010014:    eb010187    ....    ADD      r1,r1,r7,LSL #2
        0x00010018:    6b20         k      LDR      r0,[r4,#0x30]
        0x0001001a:    2700        .'      MOVS     r7,#0
        0x0001001c:    4408        .D      ADD      r0,r0,r1
        0x0001001e:    f0200b07     ...    BIC      r11,r0,#7
        0x00010022:    4638        8F      MOV      r0,r7
        0x00010024:    1821        !.      ADDS     r1,r4,r0
        0x00010026:    5c2a        *\      LDRB     r2,[r5,r0]
        0x00010028:    f8812034    ..4     STRB     r2,[r1,#0x34]
        0x0001002c:    5c29        )\      LDRB     r1,[r5,r0]
        0x0001002e:    2900        .)      CMP      r1,#0
        0x00010030:    bf1c        ..      ITT      NE
        0x00010032:    1c40        @.      ADDNE    r0,r0,#1
        0x00010034:    2810        .(      CMPNE    r0,#0x10
        0x00010036:    d3f5        ..      BCC      0x10024 ; xTaskCreate + 76
        0x00010038:    f8847043    ..Cp    STRB     r7,[r4,#0x43]
        0x0001003c:    2e04        ..      CMP      r6,#4
        0x0001003e:    bf28        (.      IT       CS
        0x00010040:    2603        .&      MOVCS    r6,#3
        0x00010042:    1d20         .      ADDS     r0,r4,#4
        0x00010044:    62e6        .b      STR      r6,[r4,#0x2c]
        0x00010046:    f7fff97f    ....    BL       vListInitialiseItem ; 0xf348
        0x0001004a:    f1040018    ....    ADD      r0,r4,#0x18
        0x0001004e:    f7fff97b    ..{.    BL       vListInitialiseItem ; 0xf348
        0x00010052:    6124        $a      STR      r4,[r4,#0x10]
        0x00010054:    f1c60104    ....    RSB      r1,r6,#4
        0x00010058:    6264        db      STR      r4,[r4,#0x24]
        0x0001005a:    61a1        .a      STR      r1,[r4,#0x18]
        0x0001005c:    6467        gd      STR      r7,[r4,#0x44]
        0x0001005e:    f8847048    ..Hp    STRB     r7,[r4,#0x48]
        0x00010062:    464a        JF      MOV      r2,r9
        0x00010064:    4651        QF      MOV      r1,r10
        0x00010066:    4658        XF      MOV      r0,r11
        0x00010068:    f7fff814    ....    BL       pxPortInitialiseStack ; 0xf094
        0x0001006c:    6020         `      STR      r0,[r4,#0]
        0x0001006e:    f1b80f00    ....    CMP      r8,#0
        0x00010072:    bf18        ..      IT       NE
        0x00010074:    f8c84000    ...@    STRNE    r4,[r8,#0]
        0x00010078:    4625        %F      MOV      r5,r4
        0x0001007a:    f7fff993    ....    BL       vPortEnterCritical ; 0xf3a4
        0x0001007e:    4e2e        .N      LDR      r6,[pc,#184] ; [0x10138] = 0x10001048
        0x00010080:    6870        ph      LDR      r0,[r6,#4]
        0x00010082:    1c40        @.      ADDS     r0,r0,#1
        0x00010084:    6070        p`      STR      r0,[r6,#4]
        0x00010086:    6830        0h      LDR      r0,[r6,#0]
        0x00010088:    4f2c        ,O      LDR      r7,[pc,#176] ; [0x1013c] = 0x10005504
        0x0001008a:    b148        H.      CBZ      r0,0x100a0 ; xTaskCreate + 200
        0x0001008c:    6930        0i      LDR      r0,[r6,#0x10]
        0x0001008e:    b338        8.      CBZ      r0,0x100e0 ; xTaskCreate + 264
        0x00010090:    e02c        ,.      B        0x100ec ; xTaskCreate + 276
        0x00010092:    f7fff9af    ....    BL       vPortFree ; 0xf3f4
        0x00010096:    f04f30ff    O..0    MOV      r0,#0xffffffff
        0x0001009a:    e8bd8ff8    ....    POP      {r3-r11,pc}
        0x0001009e:    e7fe        ..      B        0x1009e ; xTaskCreate + 198
        0x000100a0:    6035        5`      STR      r5,[r6,#0]
        0x000100a2:    6870        ph      LDR      r0,[r6,#4]
        0x000100a4:    2801        .(      CMP      r0,#1
        0x000100a6:    bf08        ..      IT       EQ
        0x000100a8:    2400        .$      MOVEQ    r4,#0
        0x000100aa:    d11f        ..      BNE      0x100ec ; xTaskCreate + 276
        0x000100ac:    eb040084    ....    ADD      r0,r4,r4,LSL #2
        0x000100b0:    eb070080    ....    ADD      r0,r7,r0,LSL #2
        0x000100b4:    f7fff93d    ..=.    BL       vListInitialise ; 0xf332
        0x000100b8:    1c64        d.      ADDS     r4,r4,#1
        0x000100ba:    2c04        .,      CMP      r4,#4
        0x000100bc:    d3f6        ..      BCC      0x100ac ; xTaskCreate + 212
        0x000100be:    4820         H      LDR      r0,[pc,#128] ; [0x10140] = 0x10005554
        0x000100c0:    f7fff937    ..7.    BL       vListInitialise ; 0xf332
        0x000100c4:    481f        .H      LDR      r0,[pc,#124] ; [0x10144] = 0x10005568
        0x000100c6:    f7fff934    ..4.    BL       vListInitialise ; 0xf332
        0x000100ca:    481f        .H      LDR      r0,[pc,#124] ; [0x10148] = 0x1000557c
        0x000100cc:    f7fff931    ..1.    BL       vListInitialise ; 0xf332
        0x000100d0:    481e        .H      LDR      r0,[pc,#120] ; [0x1014c] = 0x10005590
        0x000100d2:    f7fff92e    ....    BL       vListInitialise ; 0xf332
        0x000100d6:    481a        .H      LDR      r0,[pc,#104] ; [0x10140] = 0x10005554
        0x000100d8:    6330        0c      STR      r0,[r6,#0x30]
        0x000100da:    3014        .0      ADDS     r0,r0,#0x14
        0x000100dc:    6370        pc      STR      r0,[r6,#0x34]
        0x000100de:    e005        ..      B        0x100ec ; xTaskCreate + 276
        0x000100e0:    6830        0h      LDR      r0,[r6,#0]
        0x000100e2:    6ae9        .j      LDR      r1,[r5,#0x2c]
        0x000100e4:    6ac0        .j      LDR      r0,[r0,#0x2c]
        0x000100e6:    4288        .B      CMP      r0,r1
        0x000100e8:    bf98        ..      IT       LS
        0x000100ea:    6035        5`      STRLS    r5,[r6,#0]
        0x000100ec:    6a30        0j      LDR      r0,[r6,#0x20]
        0x000100ee:    1c40        @.      ADDS     r0,r0,#1
        0x000100f0:    6230        0b      STR      r0,[r6,#0x20]
        0x000100f2:    6ae8        .j      LDR      r0,[r5,#0x2c]
        0x000100f4:    68f1        .h      LDR      r1,[r6,#0xc]
        0x000100f6:    4288        .B      CMP      r0,r1
        0x000100f8:    d81b        ..      BHI      0x10132 ; xTaskCreate + 346
        0x000100fa:    bf00        ..      NOP      
        0x000100fc:    eb000080    ....    ADD      r0,r0,r0,LSL #2
        0x00010100:    eb070080    ....    ADD      r0,r7,r0,LSL #2
        0x00010104:    1d29        ).      ADDS     r1,r5,#4
        0x00010106:    f7fff940    ..@.    BL       vListInsertEnd ; 0xf38a
        0x0001010a:    f7fff965    ..e.    BL       vPortExitCritical ; 0xf3d8
        0x0001010e:    6930        0i      LDR      r0,[r6,#0x10]
        0x00010110:    b160        `.      CBZ      r0,0x1012c ; xTaskCreate + 340
        0x00010112:    6830        0h      LDR      r0,[r6,#0]
        0x00010114:    6ae9        .j      LDR      r1,[r5,#0x2c]
        0x00010116:    6ac0        .j      LDR      r0,[r0,#0x2c]
        0x00010118:    4288        .B      CMP      r0,r1
        0x0001011a:    d207        ..      BCS      0x1012c ; xTaskCreate + 340
        0x0001011c:    490c        .I      LDR      r1,[pc,#48] ; [0x10150] = 0xe000ed04
        0x0001011e:    f04f5080    O..P    MOV      r0,#0x10000000
        0x00010122:    6008        .`      STR      r0,[r1,#0]
        0x00010124:    f3bf8f4f    ..O.    DSB      
        0x00010128:    f3bf8f6f    ..o.    ISB      
        0x0001012c:    2001        .       MOVS     r0,#1
        0x0001012e:    e8bd8ff8    ....    POP      {r3-r11,pc}
        0x00010132:    60f0        .`      STR      r0,[r6,#0xc]
        0x00010134:    e7e2        ..      B        0x100fc ; xTaskCreate + 292
    $d
        0x00010136:    0000        ..      DCW    0
        0x00010138:    10001048    H...    DCD    268439624
        0x0001013c:    10005504    .U..    DCD    268457220
        0x00010140:    10005554    TU..    DCD    268457300
        0x00010144:    10005568    hU..    DCD    268457320
        0x00010148:    1000557c    |U..    DCD    268457340
        0x0001014c:    10005590    .U..    DCD    268457360
        0x00010150:    e000ed04    ....    DCD    3758157060
    $t
    i.xTaskGetSchedulerState
    xTaskGetSchedulerState
        0x00010154:    4805        .H      LDR      r0,[pc,#20] ; [0x1016c] = 0x10001048
        0x00010156:    6901        .i      LDR      r1,[r0,#0x10]
        0x00010158:    2900        .)      CMP      r1,#0
        0x0001015a:    bf04        ..      ITT      EQ
        0x0001015c:    2001        .       MOVEQ    r0,#1
        0x0001015e:    4770        pG      BXEQ     lr
        0x00010160:    6ac0        .j      LDR      r0,[r0,#0x2c]
        0x00010162:    2800        .(      CMP      r0,#0
        0x00010164:    bf0c        ..      ITE      EQ
        0x00010166:    2002        .       MOVEQ    r0,#2
        0x00010168:    2000        .       MOVNE    r0,#0
        0x0001016a:    4770        pG      BX       lr
    $d
        0x0001016c:    10001048    H...    DCD    268439624
    $t
    i.xTaskGetTickCount
    xTaskGetTickCount
        0x00010170:    4801        .H      LDR      r0,[pc,#4] ; [0x10178] = 0x10001048
        0x00010172:    6880        .h      LDR      r0,[r0,#8]
        0x00010174:    4770        pG      BX       lr
    $d
        0x00010176:    0000        ..      DCW    0
        0x00010178:    10001048    H...    DCD    268439624
    $t
    i.xTaskIncrementTick
    xTaskIncrementTick
        0x0001017c:    e92d47f0    -..G    PUSH     {r4-r10,lr}
        0x00010180:    4c2e        .L      LDR      r4,[pc,#184] ; [0x1023c] = 0x10001048
        0x00010182:    2700        .'      MOVS     r7,#0
        0x00010184:    6ae0        .j      LDR      r0,[r4,#0x2c]
        0x00010186:    b148        H.      CBZ      r0,0x1019c ; xTaskIncrementTick + 32
        0x00010188:    6960        `i      LDR      r0,[r4,#0x14]
        0x0001018a:    1c40        @.      ADDS     r0,r0,#1
        0x0001018c:    6160        `a      STR      r0,[r4,#0x14]
        0x0001018e:    69a0        .i      LDR      r0,[r4,#0x18]
        0x00010190:    2800        .(      CMP      r0,#0
        0x00010192:    bf18        ..      IT       NE
        0x00010194:    2701        .'      MOVNE    r7,#1
        0x00010196:    4638        8F      MOV      r0,r7
        0x00010198:    e8bd87f0    ....    POP      {r4-r10,pc}
        0x0001019c:    68a0        .h      LDR      r0,[r4,#8]
        0x0001019e:    1c46        F.      ADDS     r6,r0,#1
        0x000101a0:    60a6        .`      STR      r6,[r4,#8]
        0x000101a2:    f04f38ff    O..8    MOV      r8,#0xffffffff
        0x000101a6:    d116        ..      BNE      0x101d6 ; xTaskIncrementTick + 90
        0x000101a8:    6b20         k      LDR      r0,[r4,#0x30]
        0x000101aa:    6800        .h      LDR      r0,[r0,#0]
        0x000101ac:    b100        ..      CBZ      r0,0x101b0 ; xTaskIncrementTick + 52
        0x000101ae:    e7fe        ..      B        0x101ae ; xTaskIncrementTick + 50
        0x000101b0:    6b20         k      LDR      r0,[r4,#0x30]
        0x000101b2:    6b61        ak      LDR      r1,[r4,#0x34]
        0x000101b4:    6321        !c      STR      r1,[r4,#0x30]
        0x000101b6:    6360        `c      STR      r0,[r4,#0x34]
        0x000101b8:    69e0        .i      LDR      r0,[r4,#0x1c]
        0x000101ba:    1c40        @.      ADDS     r0,r0,#1
        0x000101bc:    61e0        .a      STR      r0,[r4,#0x1c]
        0x000101be:    6b20         k      LDR      r0,[r4,#0x30]
        0x000101c0:    6800        .h      LDR      r0,[r0,#0]
        0x000101c2:    2800        .(      CMP      r0,#0
        0x000101c4:    bf08        ..      IT       EQ
        0x000101c6:    f8c48024    ..$.    STREQ    r8,[r4,#0x24]
        0x000101ca:    d004        ..      BEQ      0x101d6 ; xTaskIncrementTick + 90
        0x000101cc:    6b20         k      LDR      r0,[r4,#0x30]
        0x000101ce:    68c0        .h      LDR      r0,[r0,#0xc]
        0x000101d0:    68c0        .h      LDR      r0,[r0,#0xc]
        0x000101d2:    6840        @h      LDR      r0,[r0,#4]
        0x000101d4:    6260        `b      STR      r0,[r4,#0x24]
        0x000101d6:    6a60        `j      LDR      r0,[r4,#0x24]
        0x000101d8:    42b0        .B      CMP      r0,r6
        0x000101da:    bf98        ..      IT       LS
        0x000101dc:    f8df9060    ..`.    LDRLS    r9,[pc,#96] ; [0x10240] = 0x10005504
        0x000101e0:    d8d5        ..      BHI      0x1018e ; xTaskIncrementTick + 18
        0x000101e2:    6b20         k      LDR      r0,[r4,#0x30]
        0x000101e4:    6800        .h      LDR      r0,[r0,#0]
        0x000101e6:    b138        8.      CBZ      r0,0x101f8 ; xTaskIncrementTick + 124
        0x000101e8:    6b20         k      LDR      r0,[r4,#0x30]
        0x000101ea:    68c0        .h      LDR      r0,[r0,#0xc]
        0x000101ec:    68c5        .h      LDR      r5,[r0,#0xc]
        0x000101ee:    6868        hh      LDR      r0,[r5,#4]
        0x000101f0:    4286        .B      CMP      r6,r0
        0x000101f2:    d204        ..      BCS      0x101fe ; xTaskIncrementTick + 130
        0x000101f4:    6260        `b      STR      r0,[r4,#0x24]
        0x000101f6:    e7ca        ..      B        0x1018e ; xTaskIncrementTick + 18
        0x000101f8:    f8c48024    ..$.    STR      r8,[r4,#0x24]
        0x000101fc:    e7c7        ..      B        0x1018e ; xTaskIncrementTick + 18
        0x000101fe:    1d28        (.      ADDS     r0,r5,#4
        0x00010200:    f7fff839    ..9.    BL       uxListRemove ; 0xf276
        0x00010204:    6aa8        .j      LDR      r0,[r5,#0x28]
        0x00010206:    2800        .(      CMP      r0,#0
        0x00010208:    bf1c        ..      ITT      NE
        0x0001020a:    f1050018    ....    ADDNE    r0,r5,#0x18
        0x0001020e:    f7fff832    ..2.    BLNE     uxListRemove ; 0xf276
        0x00010212:    6ae8        .j      LDR      r0,[r5,#0x2c]
        0x00010214:    68e1        .h      LDR      r1,[r4,#0xc]
        0x00010216:    4288        .B      CMP      r0,r1
        0x00010218:    d80e        ..      BHI      0x10238 ; xTaskIncrementTick + 188
        0x0001021a:    bf00        ..      NOP      
        0x0001021c:    eb000080    ....    ADD      r0,r0,r0,LSL #2
        0x00010220:    eb090080    ....    ADD      r0,r9,r0,LSL #2
        0x00010224:    1d29        ).      ADDS     r1,r5,#4
        0x00010226:    f7fff8b0    ....    BL       vListInsertEnd ; 0xf38a
        0x0001022a:    6ae8        .j      LDR      r0,[r5,#0x2c]
        0x0001022c:    6821        !h      LDR      r1,[r4,#0]
        0x0001022e:    6ac9        .j      LDR      r1,[r1,#0x2c]
        0x00010230:    4288        .B      CMP      r0,r1
        0x00010232:    bf28        (.      IT       CS
        0x00010234:    2701        .'      MOVCS    r7,#1
        0x00010236:    e7d4        ..      B        0x101e2 ; xTaskIncrementTick + 102
        0x00010238:    60e0        .`      STR      r0,[r4,#0xc]
        0x0001023a:    e7ef        ..      B        0x1021c ; xTaskIncrementTick + 160
    $d
        0x0001023c:    10001048    H...    DCD    268439624
        0x00010240:    10005504    .U..    DCD    268457220
    $t
    i.xTaskRemoveFromEventList
    xTaskRemoveFromEventList
        0x00010244:    b570        p.      PUSH     {r4-r6,lr}
        0x00010246:    68c0        .h      LDR      r0,[r0,#0xc]
        0x00010248:    68c4        .h      LDR      r4,[r0,#0xc]
        0x0001024a:    b164        d.      CBZ      r4,0x10266 ; xTaskRemoveFromEventList + 34
        0x0001024c:    f1040018    ....    ADD      r0,r4,#0x18
        0x00010250:    f7fff811    ....    BL       uxListRemove ; 0xf276
        0x00010254:    4d18        .M      LDR      r5,[pc,#96] ; [0x102b8] = 0x10001048
        0x00010256:    6ae8        .j      LDR      r0,[r5,#0x2c]
        0x00010258:    2800        .(      CMP      r0,#0
        0x0001025a:    bf1c        ..      ITT      NE
        0x0001025c:    f1040118    ....    ADDNE    r1,r4,#0x18
        0x00010260:    4816        .H      LDRNE    r0,[pc,#88] ; [0x102bc] = 0x1000557c
        0x00010262:    d001        ..      BEQ      0x10268 ; xTaskRemoveFromEventList + 36
        0x00010264:    e00e        ..      B        0x10284 ; xTaskRemoveFromEventList + 64
        0x00010266:    e7fe        ..      B        0x10266 ; xTaskRemoveFromEventList + 34
        0x00010268:    1d20         .      ADDS     r0,r4,#4
        0x0001026a:    f7fff804    ....    BL       uxListRemove ; 0xf276
        0x0001026e:    6ae0        .j      LDR      r0,[r4,#0x2c]
        0x00010270:    68e9        .h      LDR      r1,[r5,#0xc]
        0x00010272:    4288        .B      CMP      r0,r1
        0x00010274:    d81e        ..      BHI      0x102b4 ; xTaskRemoveFromEventList + 112
        0x00010276:    bf00        ..      NOP      
        0x00010278:    4911        .I      LDR      r1,[pc,#68] ; [0x102c0] = 0x10005504
        0x0001027a:    eb000080    ....    ADD      r0,r0,r0,LSL #2
        0x0001027e:    eb010080    ....    ADD      r0,r1,r0,LSL #2
        0x00010282:    1d21        !.      ADDS     r1,r4,#4
        0x00010284:    f7fff881    ....    BL       vListInsertEnd ; 0xf38a
        0x00010288:    6ae0        .j      LDR      r0,[r4,#0x2c]
        0x0001028a:    6829        )h      LDR      r1,[r5,#0]
        0x0001028c:    6ac9        .j      LDR      r1,[r1,#0x2c]
        0x0001028e:    4288        .B      CMP      r0,r1
        0x00010290:    bf83        ..      ITTTE    HI
        0x00010292:    2001        .       MOVHI    r0,#1
        0x00010294:    4601        .F      MOVHI    r1,r0
        0x00010296:    61a8        .a      STRHI    r0,[r5,#0x18]
        0x00010298:    2000        .       MOVLS    r0,#0
        0x0001029a:    6b29        )k      LDR      r1,[r5,#0x30]
        0x0001029c:    6809        .h      LDR      r1,[r1,#0]
        0x0001029e:    2900        .)      CMP      r1,#0
        0x000102a0:    bf0f        ..      ITEEE    EQ
        0x000102a2:    f04f31ff    O..1    MOVEQ    r1,#0xffffffff
        0x000102a6:    6b29        )k      LDRNE    r1,[r5,#0x30]
        0x000102a8:    68c9        .h      LDRNE    r1,[r1,#0xc]
        0x000102aa:    68c9        .h      LDRNE    r1,[r1,#0xc]
        0x000102ac:    bf18        ..      IT       NE
        0x000102ae:    6849        Ih      LDRNE    r1,[r1,#4]
        0x000102b0:    6269        ib      STR      r1,[r5,#0x24]
        0x000102b2:    bd70        p.      POP      {r4-r6,pc}
        0x000102b4:    60e8        .`      STR      r0,[r5,#0xc]
        0x000102b6:    e7df        ..      B        0x10278 ; xTaskRemoveFromEventList + 52
    $d
        0x000102b8:    10001048    H...    DCD    268439624
        0x000102bc:    1000557c    |U..    DCD    268457340
        0x000102c0:    10005504    .U..    DCD    268457220
    $t
    i.xTaskResumeAll
    xTaskResumeAll
        0x000102c4:    e92d5ff0    -.._    PUSH     {r4-r12,lr}
        0x000102c8:    4d5e        ^M      LDR      r5,[pc,#376] ; [0x10444] = 0x10001048
        0x000102ca:    f04f0b00    O...    MOV      r11,#0
        0x000102ce:    6ae8        .j      LDR      r0,[r5,#0x2c]
        0x000102d0:    b138        8.      CBZ      r0,0x102e2 ; xTaskResumeAll + 30
        0x000102d2:    f7fff867    ..g.    BL       vPortEnterCritical ; 0xf3a4
        0x000102d6:    6ae8        .j      LDR      r0,[r5,#0x2c]
        0x000102d8:    1e40        @.      SUBS     r0,r0,#1
        0x000102da:    62e8        .b      STR      r0,[r5,#0x2c]
        0x000102dc:    6ae8        .j      LDR      r0,[r5,#0x2c]
        0x000102de:    b108        ..      CBZ      r0,0x102e4 ; xTaskResumeAll + 32
        0x000102e0:    e05a        Z.      B        0x10398 ; xTaskResumeAll + 212
        0x000102e2:    e7fe        ..      B        0x102e2 ; xTaskResumeAll + 30
        0x000102e4:    6868        hh      LDR      r0,[r5,#4]
        0x000102e6:    2800        .(      CMP      r0,#0
        0x000102e8:    d056        V.      BEQ      0x10398 ; xTaskResumeAll + 212
        0x000102ea:    4e57        WN      LDR      r6,[pc,#348] ; [0x10448] = 0x1000557c
        0x000102ec:    6830        0h      LDR      r0,[r6,#0]
        0x000102ee:    f04f38ff    O..8    MOV      r8,#0xffffffff
        0x000102f2:    f1a60978    ..x.    SUB      r9,r6,#0x78
        0x000102f6:    f04f0a01    O...    MOV      r10,#1
        0x000102fa:    b360        `.      CBZ      r0,0x10356 ; xTaskResumeAll + 146
        0x000102fc:    68f0        .h      LDR      r0,[r6,#0xc]
        0x000102fe:    68c4        .h      LDR      r4,[r0,#0xc]
        0x00010300:    f1040018    ....    ADD      r0,r4,#0x18
        0x00010304:    f7feffb7    ....    BL       uxListRemove ; 0xf276
        0x00010308:    1d20         .      ADDS     r0,r4,#4
        0x0001030a:    f7feffb4    ....    BL       uxListRemove ; 0xf276
        0x0001030e:    6ae0        .j      LDR      r0,[r4,#0x2c]
        0x00010310:    68e9        .h      LDR      r1,[r5,#0xc]
        0x00010312:    4288        .B      CMP      r0,r1
        0x00010314:    d86f        o.      BHI      0x103f6 ; xTaskResumeAll + 306
        0x00010316:    bf00        ..      NOP      
        0x00010318:    eb000080    ....    ADD      r0,r0,r0,LSL #2
        0x0001031c:    eb090080    ....    ADD      r0,r9,r0,LSL #2
        0x00010320:    1d21        !.      ADDS     r1,r4,#4
        0x00010322:    f7fff832    ..2.    BL       vListInsertEnd ; 0xf38a
        0x00010326:    6ae0        .j      LDR      r0,[r4,#0x2c]
        0x00010328:    6829        )h      LDR      r1,[r5,#0]
        0x0001032a:    6ac9        .j      LDR      r1,[r1,#0x2c]
        0x0001032c:    4288        .B      CMP      r0,r1
        0x0001032e:    bf28        (.      IT       CS
        0x00010330:    f8c5a018    ....    STRCS    r10,[r5,#0x18]
        0x00010334:    6830        0h      LDR      r0,[r6,#0]
        0x00010336:    2800        .(      CMP      r0,#0
        0x00010338:    d1e0        ..      BNE      0x102fc ; xTaskResumeAll + 56
        0x0001033a:    b164        d.      CBZ      r4,0x10356 ; xTaskResumeAll + 146
        0x0001033c:    6b29        )k      LDR      r1,[r5,#0x30]
        0x0001033e:    4628        (F      MOV      r0,r5
        0x00010340:    6809        .h      LDR      r1,[r1,#0]
        0x00010342:    2900        .)      CMP      r1,#0
        0x00010344:    bf08        ..      IT       EQ
        0x00010346:    f8c08024    ..$.    STREQ    r8,[r0,#0x24]
        0x0001034a:    d004        ..      BEQ      0x10356 ; xTaskResumeAll + 146
        0x0001034c:    6b01        .k      LDR      r1,[r0,#0x30]
        0x0001034e:    68c9        .h      LDR      r1,[r1,#0xc]
        0x00010350:    68c9        .h      LDR      r1,[r1,#0xc]
        0x00010352:    6849        Ih      LDR      r1,[r1,#4]
        0x00010354:    6241        Ab      STR      r1,[r0,#0x24]
        0x00010356:    696f        oi      LDR      r7,[r5,#0x14]
        0x00010358:    b197        ..      CBZ      r7,0x10380 ; xTaskResumeAll + 188
        0x0001035a:    bf00        ..      NOP      
        0x0001035c:    6ae8        .j      LDR      r0,[r5,#0x2c]
        0x0001035e:    f04f0800    O...    MOV      r8,#0
        0x00010362:    b1f0        ..      CBZ      r0,0x103a2 ; xTaskResumeAll + 222
        0x00010364:    6968        hi      LDR      r0,[r5,#0x14]
        0x00010366:    1c40        @.      ADDS     r0,r0,#1
        0x00010368:    6168        ha      STR      r0,[r5,#0x14]
        0x0001036a:    69a8        .i      LDR      r0,[r5,#0x18]
        0x0001036c:    2800        .(      CMP      r0,#0
        0x0001036e:    bf0c        ..      ITE      EQ
        0x00010370:    f1b80f00    ....    CMPEQ    r8,#0
        0x00010374:    f8c5a018    ....    STRNE    r10,[r5,#0x18]
        0x00010378:    1e7f        ..      SUBS     r7,r7,#1
        0x0001037a:    d1ef        ..      BNE      0x1035c ; xTaskResumeAll + 152
        0x0001037c:    2000        .       MOVS     r0,#0
        0x0001037e:    6168        ha      STR      r0,[r5,#0x14]
        0x00010380:    69a8        .i      LDR      r0,[r5,#0x18]
        0x00010382:    b148        H.      CBZ      r0,0x10398 ; xTaskResumeAll + 212
        0x00010384:    4931        1I      LDR      r1,[pc,#196] ; [0x1044c] = 0xe000ed04
        0x00010386:    f04f5080    O..P    MOV      r0,#0x10000000
        0x0001038a:    f04f0b01    O...    MOV      r11,#1
        0x0001038e:    6008        .`      STR      r0,[r1,#0]
        0x00010390:    f3bf8f4f    ..O.    DSB      
        0x00010394:    f3bf8f6f    ..o.    ISB      
        0x00010398:    f7fff81e    ....    BL       vPortExitCritical ; 0xf3d8
        0x0001039c:    4658        XF      MOV      r0,r11
        0x0001039e:    e8bd9ff0    ....    POP      {r4-r12,pc}
        0x000103a2:    68a8        .h      LDR      r0,[r5,#8]
        0x000103a4:    1c46        F.      ADDS     r6,r0,#1
        0x000103a6:    60ae        .`      STR      r6,[r5,#8]
        0x000103a8:    d00d        ..      BEQ      0x103c6 ; xTaskResumeAll + 258
        0x000103aa:    6a68        hj      LDR      r0,[r5,#0x24]
        0x000103ac:    42b0        .B      CMP      r0,r6
        0x000103ae:    d8dc        ..      BHI      0x1036a ; xTaskResumeAll + 166
        0x000103b0:    6b28        (k      LDR      r0,[r5,#0x30]
        0x000103b2:    6800        .h      LDR      r0,[r0,#0]
        0x000103b4:    b300        ..      CBZ      r0,0x103f8 ; xTaskResumeAll + 308
        0x000103b6:    6b28        (k      LDR      r0,[r5,#0x30]
        0x000103b8:    68c0        .h      LDR      r0,[r0,#0xc]
        0x000103ba:    68c4        .h      LDR      r4,[r0,#0xc]
        0x000103bc:    6860        `h      LDR      r0,[r4,#4]
        0x000103be:    4286        .B      CMP      r6,r0
        0x000103c0:    d21e        ..      BCS      0x10400 ; xTaskResumeAll + 316
        0x000103c2:    6268        hb      STR      r0,[r5,#0x24]
        0x000103c4:    e7d1        ..      B        0x1036a ; xTaskResumeAll + 166
        0x000103c6:    6b28        (k      LDR      r0,[r5,#0x30]
        0x000103c8:    6800        .h      LDR      r0,[r0,#0]
        0x000103ca:    b100        ..      CBZ      r0,0x103ce ; xTaskResumeAll + 266
        0x000103cc:    e7fe        ..      B        0x103cc ; xTaskResumeAll + 264
        0x000103ce:    6b28        (k      LDR      r0,[r5,#0x30]
        0x000103d0:    6b69        ik      LDR      r1,[r5,#0x34]
        0x000103d2:    6329        )c      STR      r1,[r5,#0x30]
        0x000103d4:    6368        hc      STR      r0,[r5,#0x34]
        0x000103d6:    69e8        .i      LDR      r0,[r5,#0x1c]
        0x000103d8:    1c40        @.      ADDS     r0,r0,#1
        0x000103da:    61e8        .a      STR      r0,[r5,#0x1c]
        0x000103dc:    6b28        (k      LDR      r0,[r5,#0x30]
        0x000103de:    6800        .h      LDR      r0,[r0,#0]
        0x000103e0:    2800        .(      CMP      r0,#0
        0x000103e2:    bf1f        ..      ITTTT    NE
        0x000103e4:    6b28        (k      LDRNE    r0,[r5,#0x30]
        0x000103e6:    68c0        .h      LDRNE    r0,[r0,#0xc]
        0x000103e8:    68c0        .h      LDRNE    r0,[r0,#0xc]
        0x000103ea:    6840        @h      LDRNE    r0,[r0,#4]
        0x000103ec:    bf08        ..      IT       EQ
        0x000103ee:    f04f30ff    O..0    MOVEQ    r0,#0xffffffff
        0x000103f2:    6268        hb      STR      r0,[r5,#0x24]
        0x000103f4:    e7d9        ..      B        0x103aa ; xTaskResumeAll + 230
        0x000103f6:    e020         .      B        0x1043a ; xTaskResumeAll + 374
        0x000103f8:    f04f30ff    O..0    MOV      r0,#0xffffffff
        0x000103fc:    6268        hb      STR      r0,[r5,#0x24]
        0x000103fe:    e7b4        ..      B        0x1036a ; xTaskResumeAll + 166
        0x00010400:    1d20         .      ADDS     r0,r4,#4
        0x00010402:    f7feff38    ..8.    BL       uxListRemove ; 0xf276
        0x00010406:    6aa0        .j      LDR      r0,[r4,#0x28]
        0x00010408:    2800        .(      CMP      r0,#0
        0x0001040a:    bf1c        ..      ITT      NE
        0x0001040c:    f1040018    ....    ADDNE    r0,r4,#0x18
        0x00010410:    f7feff31    ..1.    BLNE     uxListRemove ; 0xf276
        0x00010414:    6ae0        .j      LDR      r0,[r4,#0x2c]
        0x00010416:    68e9        .h      LDR      r1,[r5,#0xc]
        0x00010418:    4288        .B      CMP      r0,r1
        0x0001041a:    d810        ..      BHI      0x1043e ; xTaskResumeAll + 378
        0x0001041c:    eb000080    ....    ADD      r0,r0,r0,LSL #2
        0x00010420:    eb090080    ....    ADD      r0,r9,r0,LSL #2
        0x00010424:    1d21        !.      ADDS     r1,r4,#4
        0x00010426:    f7feffb0    ....    BL       vListInsertEnd ; 0xf38a
        0x0001042a:    6ae0        .j      LDR      r0,[r4,#0x2c]
        0x0001042c:    6829        )h      LDR      r1,[r5,#0]
        0x0001042e:    6ac9        .j      LDR      r1,[r1,#0x2c]
        0x00010430:    4288        .B      CMP      r0,r1
        0x00010432:    bf28        (.      IT       CS
        0x00010434:    f04f0801    O...    MOVCS    r8,#1
        0x00010438:    e7ba        ..      B        0x103b0 ; xTaskResumeAll + 236
        0x0001043a:    60e8        .`      STR      r0,[r5,#0xc]
        0x0001043c:    e76c        l.      B        0x10318 ; xTaskResumeAll + 84
        0x0001043e:    60e8        .`      STR      r0,[r5,#0xc]
        0x00010440:    e7ec        ..      B        0x1041c ; xTaskResumeAll + 344
    $d
        0x00010442:    0000        ..      DCW    0
        0x00010444:    10001048    H...    DCD    268439624
        0x00010448:    1000557c    |U..    DCD    268457340
        0x0001044c:    e000ed04    ....    DCD    3758157060
    $t
    i.xTimerCreateTimerTask
    xTimerCreateTimerTask
        0x00010450:    b510        ..      PUSH     {r4,lr}
        0x00010452:    b082        ..      SUB      sp,sp,#8
        0x00010454:    f7feffa6    ....    BL       vPortEnterCritical ; 0xf3a4
        0x00010458:    4c13        .L      LDR      r4,[pc,#76] ; [0x104a8] = 0x10001080
        0x0001045a:    6820         h      LDR      r0,[r4,#0]
        0x0001045c:    b978        x.      CBNZ     r0,0x1047e ; xTimerCreateTimerTask + 46
        0x0001045e:    4813        .H      LDR      r0,[pc,#76] ; [0x104ac] = 0x100055a4
        0x00010460:    f7feff67    ..g.    BL       vListInitialise ; 0xf332
        0x00010464:    4812        .H      LDR      r0,[pc,#72] ; [0x104b0] = 0x100055b8
        0x00010466:    f7feff64    ..d.    BL       vListInitialise ; 0xf332
        0x0001046a:    4810        .H      LDR      r0,[pc,#64] ; [0x104ac] = 0x100055a4
        0x0001046c:    60e0        .`      STR      r0,[r4,#0xc]
        0x0001046e:    3014        .0      ADDS     r0,r0,#0x14
        0x00010470:    6120         a      STR      r0,[r4,#0x10]
        0x00010472:    2200        ."      MOVS     r2,#0
        0x00010474:    2110        .!      MOVS     r1,#0x10
        0x00010476:    2005        .       MOVS     r0,#5
        0x00010478:    f7fffb7a    ..z.    BL       xQueueGenericCreate ; 0xfb70
        0x0001047c:    6020         `      STR      r0,[r4,#0]
        0x0001047e:    f7feffab    ....    BL       vPortExitCritical ; 0xf3d8
        0x00010482:    6820         h      LDR      r0,[r4,#0]
        0x00010484:    b170        p.      CBZ      r0,0x104a4 ; xTimerCreateTimerTask + 84
        0x00010486:    490b        .I      LDR      r1,[pc,#44] ; [0x104b4] = 0x10001084
        0x00010488:    2003        .       MOVS     r0,#3
        0x0001048a:    e9cd0100    ....    STRD     r0,r1,[sp,#0]
        0x0001048e:    2300        .#      MOVS     r3,#0
        0x00010490:    f44f7280    O..r    MOV      r2,#0x100
        0x00010494:    a108        ..      ADR      r1,{pc}+0x24 ; 0x104b8
        0x00010496:    480a        .H      LDR      r0,[pc,#40] ; [0x104c0] = 0xecd1
        0x00010498:    f7fffd9e    ....    BL       xTaskCreate ; 0xffd8
        0x0001049c:    2800        .(      CMP      r0,#0
        0x0001049e:    bf1c        ..      ITT      NE
        0x000104a0:    b002        ..      ADDNE    sp,sp,#8
        0x000104a2:    bd10        ..      POPNE    {r4,pc}
        0x000104a4:    e7fe        ..      B        0x104a4 ; xTimerCreateTimerTask + 84
    $d
        0x000104a6:    0000        ..      DCW    0
        0x000104a8:    10001080    ....    DCD    268439680
        0x000104ac:    100055a4    .U..    DCD    268457380
        0x000104b0:    100055b8    .U..    DCD    268457400
        0x000104b4:    10001084    ....    DCD    268439684
        0x000104b8:    20726d54    Tmr     DCD    544370004
        0x000104bc:    00637653    Svc.    DCD    6518355
        0x000104c0:    0000ecd1    ....    DCD    60625
    $t
    i.xTimerPendFunctionCallFromISR
    xTimerPendFunctionCallFromISR
        0x000104c4:    b510        ..      PUSH     {r4,lr}
        0x000104c6:    b084        ..      SUB      sp,sp,#0x10
        0x000104c8:    f06f0c01    o...    MVN      r12,#1
        0x000104cc:    e9cdc000    ....    STRD     r12,r0,[sp,#0]
        0x000104d0:    e9cd1202    ....    STRD     r1,r2,[sp,#8]
        0x000104d4:    4804        .H      LDR      r0,[pc,#16] ; [0x104e8] = 0x10001080
        0x000104d6:    461c        .F      MOV      r4,r3
        0x000104d8:    2300        .#      MOVS     r3,#0
        0x000104da:    4622        "F      MOV      r2,r4
        0x000104dc:    4669        iF      MOV      r1,sp
        0x000104de:    6800        .h      LDR      r0,[r0,#0]
        0x000104e0:    f7fffc40    ..@.    BL       xQueueGenericSendFromISR ; 0xfd64
        0x000104e4:    b004        ..      ADD      sp,sp,#0x10
        0x000104e6:    bd10        ..      POP      {r4,pc}
    $d
        0x000104e8:    10001080    ....    DCD    268439680
    $t
    x$fpl$d2f
    $v0
    __aeabi_d2f
    _d2f
        0x000104ec:    f0214200    !..B    BIC      r2,r1,#0x80000000
        0x000104f0:    f1a25260    ..`R    SUB      r2,r2,#0x38000000
        0x000104f4:    f5b21f80    ....    CMP      r2,#0x100000
        0x000104f8:    f0014300    ...C    AND      r3,r1,#0x80000000
        0x000104fc:    bf28        (.      IT       CS
        0x000104fe:    f1d26c7f    ...l    RSBSCS   r12,r2,#0xff00000
        0x00010502:    d90b        ..      BLS      0x1051c ; __aeabi_d2f + 48
        0x00010504:    ea5f1c00    _...    LSLS     r12,r0,#4
        0x00010508:    ea4302c2    C...    ORR      r2,r3,r2,LSL #3
        0x0001050c:    eb427050    B.Pp    ADC      r0,r2,r0,LSR #29
        0x00010510:    bf18        ..      IT       NE
        0x00010512:    4770        pG      BXNE     lr
        0x00010514:    bf28        (.      IT       CS
        0x00010516:    f0200001     ...    BICCS    r0,r0,#1
        0x0001051a:    4770        pG      BX       lr
        0x0001051c:    f5b21f80    ....    CMP      r2,#0x100000
        0x00010520:    bfbc        ..      ITT      LT
        0x00010522:    4618        .F      MOVLT    r0,r3
        0x00010524:    4770        pG      BXLT     lr
        0x00010526:    ea4f0c41    O.A.    LSL      r12,r1,#1
        0x0001052a:    f51c1f00    ....    CMN      r12,#0x200000
        0x0001052e:    d202        ..      BCS      0x10536 ; __aeabi_d2f + 74
        0x00010530:    4608        .F      MOV      r0,r1
        0x00010532:    f000b85f    .._.    B.W      __fpl_fretinf ; 0x105f4
        0x00010536:    b570        p.      PUSH     {r4-r6,lr}
        0x00010538:    f000f809    ....    BL       __fpl_dnaninf ; 0x1054e
    $d
        0x0001053c:    89000000    ....    DCD    2298478592
    $t
        0x00010540:    f7ffbff6    ....    B.W      0x10530 ; __aeabi_d2f + 68
        0x00010544:    f04f4000    O..@    MOV      r0,#0x80000000
        0x00010548:    f5a00080    ....    SUB      r0,r0,#0x400000
        0x0001054c:    4770        pG      BX       lr
    x$fpl$dnaninf
    $v0
    __fpl_dnaninf
        0x0001054e:    f10e0e02    ....    ADD      lr,lr,#2
        0x00010552:    f02e0e03    ....    BIC      lr,lr,#3
        0x00010556:    f85e6b04    ^..k    LDR      r6,[lr],#4
        0x0001055a:    4236        6B      TST      r6,r6
        0x0001055c:    d405        ..      BMI      0x1056a ; __fpl_dnaninf + 28
        0x0001055e:    2a01        .*      CMP      r2,#1
        0x00010560:    eb430503    C...    ADC      r5,r3,r3
        0x00010564:    f5151f00    ....    CMN      r5,#0x200000
        0x00010568:    d812        ..      BHI      0x10590 ; __fpl_dnaninf + 66
        0x0001056a:    2801        .(      CMP      r0,#1
        0x0001056c:    eb410c01    A...    ADC      r12,r1,r1
        0x00010570:    f51c1f00    ....    CMN      r12,#0x200000
        0x00010574:    d80c        ..      BHI      0x10590 ; __fpl_dnaninf + 66
        0x00010576:    d10e        ..      BNE      0x10596 ; __fpl_dnaninf + 72
        0x00010578:    ea4f7cd1    O..|    LSR      r12,r1,#31
        0x0001057c:    f5151f00    ....    CMN      r5,#0x200000
        0x00010580:    eb0c0c4c    ..L.    ADD      r12,r12,r12,LSL #1
        0x00010584:    f10c0c02    ....    ADD      r12,r12,#2
        0x00010588:    bf08        ..      IT       EQ
        0x0001058a:    eb4c7cd3    L..|    ADCEQ    r12,r12,r3,LSR #31
        0x0001058e:    e004        ..      B        0x1059a ; __fpl_dnaninf + 76
        0x00010590:    f04f0c08    O...    MOV      r12,#8
        0x00010594:    e001        ..      B        0x1059a ; __fpl_dnaninf + 76
        0x00010596:    ea4f7cd3    O..|    LSR      r12,r3,#31
        0x0001059a:    eb0c054c    ..L.    ADD      r5,r12,r12,LSL #1
        0x0001059e:    fa26f605    &...    LSR      r6,r6,r5
        0x000105a2:    f0060607    ....    AND      r6,r6,#7
        0x000105a6:    f1b60c04    ....    SUBS     r12,r6,#4
        0x000105aa:    d206        ..      BCS      0x105ba ; __fpl_dnaninf + 108
        0x000105ac:    eb0e0c86    ....    ADD      r12,lr,r6,LSL #2
        0x000105b0:    e8bd4070    ..p@    POP      {r4-r6,lr}
        0x000105b4:    f04c0c01    L...    ORR      r12,r12,#1
        0x000105b8:    4760        `G      BX       r12
        0x000105ba:    e8dff00c    ....    TBB      [pc,r12]
    $d
        0x000105be:    0b09        ..      DCW    2825
        0x000105c0:    0202        ..      DCW    514
    $t
        0x000105c2:    f04f4100    O..A    MOV      r1,#0x80000000
        0x000105c6:    f04f0000    O...    MOV      r0,#0
        0x000105ca:    f5a12100    ...!    SUB      r1,r1,#0x80000
        0x000105ce:    bd70        p.      POP      {r4-r6,pc}
        0x000105d0:    4619        .F      MOV      r1,r3
        0x000105d2:    4610        .F      MOV      r0,r2
        0x000105d4:    2801        .(      CMP      r0,#1
        0x000105d6:    eb510401    Q...    ADCS     r4,r1,r1
        0x000105da:    bf18        ..      IT       NE
        0x000105dc:    f5d41400    ....    RSBSNE   r4,r4,#0x200000
        0x000105e0:    bf84        ..      ITT      HI
        0x000105e2:    2000        .       MOVHI    r0,#0
        0x000105e4:    f0014100    ...A    ANDHI    r1,r1,#0x80000000
        0x000105e8:    bd70        p.      POP      {r4-r6,pc}
    x$fpl$fpinit
    $v0
    _fp_init
        0x000105ea:    f04f7040    O.@p    MOV      r0,#0x3000000
        0x000105ee:    eee10a10    ....    VMSR     FPSCR,r0
    __fplib_config_fpu_vfp
    __fplib_config_pureend_doubles
        0x000105f2:    4770        pG      BX       lr
    x$fpl$fretinf
    $v0
    __fpl_fretinf
        0x000105f4:    21ff        .!      MOVS     r1,#0xff
        0x000105f6:    ea4150d0    A..P    ORR      r0,r1,r0,LSR #23
        0x000105fa:    05c0        ..      LSLS     r0,r0,#23
        0x000105fc:    4770        pG      BX       lr
    $d.realdata
    .constdata
    x$fpl$usenofp
    __I$use$fp
    am_hal_cachectrl_defaults
        0x000105fe:    0308        ..      DCW    776
        0x00010600:    00000000    ....    DCD    0
    .constdata
        0x00010604:    bf006001    .`..    DCD    3204472833
        0x00010608:    bf006800    .h..    DCD    3204474880
        0x0001060c:    bf004770    pG..    DCD    3204466544
    .constdata
    g_AM_HAL_GPIO_DISABLE
        0x00010610:    00000003    ....    DCD    3
    g_ui8Inpen
        0x00010614:    62272323    ##'b    DCD    1646732067
        0x00010618:    108703a1    ....    DCD    277283745
        0x0001061c:    e1005303    .S..    DCD    3774894851
        0x00010620:    55418151    Q.AU    DCD    1430356305
        0x00010624:    4080c405    ...@    DCD    1082180613
        0x00010628:    4140b101    ..@A    DCD    1094758657
        0x0001062c:    31a03114    .1.1    DCD    832581908
        0x00010630:    1180f100    ....    DCD    293662976
        0x00010634:    11c12191    .!..    DCD    297869713
        0x00010638:    304511e5    ..E0    DCD    809832933
        0x0001063c:    31300037    7.01    DCD    825229367
        0x00010640:    40007100    .q.@    DCD    1073770752
        0x00010644:    01003130    01..    DCD    16789808
        0x00010648:    01010101    ....    DCD    16843009
        0x0001064c:    01010101    ....    DCD    16843009
        0x00010650:    a050a001    ..P.    DCD    2689638401
        0x00010654:    01010101    ....    DCD    16843009
        0x00010658:    a0a0a001    ....    DCD    2694881281
        0x0001065c:    50a0        .P      DCW    20640
    g_ui8Bit76Capabilities
        0x0001065e:    0101        ..      DCW    257
        0x00010660:    01800280    ....    DCD    25166464
        0x00010664:    01018001    ....    DCD    16875521
        0x00010668:    80808080    ....    DCD    2155905152
        0x0001066c:    80808080    ....    DCD    2155905152
        0x00010670:    80088080    ....    DCD    2148040832
        0x00010674:    01808080    ....    DCD    25198720
        0x00010678:    80800180    ....    DCD    2155872640
        0x0001067c:    80808080    ....    DCD    2155905152
        0x00010680:    04028080    ....    DCD    67272832
        0x00010684:    04010180    ....    DCD    67174784
        0x00010688:    80800101    ....    DCD    2155872513
        0x0001068c:    01018080    ....    DCD    16875648
        0x00010690:    80808080    ....    DCD    2155905152
        0x00010694:    80808080    ....    DCD    2155905152
        0x00010698:    80808080    ....    DCD    2155905152
        0x0001069c:    80808080    ....    DCD    2155905152
        0x000106a0:    80808080    ....    DCD    2155905152
        0x000106a4:    80808080    ....    DCD    2155905152
    g_ui8nCEpins
        0x000106a8:    02070707    ....    DCD    34014983
        0x000106ac:    00080802    ....    DCD    526338
        0x000106b0:    01020202    ....    DCD    16908802
        0x000106b4:    01010101    ....    DCD    16843009
        0x000106b8:    01010101    ....    DCD    16843009
        0x000106bc:    01010101    ....    DCD    16843009
        0x000106c0:    01010101    ....    DCD    16843009
        0x000106c4:    01010101    ....    DCD    16843009
        0x000106c8:    01010101    ....    DCD    16843009
        0x000106cc:    08010101    ....    DCD    134283521
        0x000106d0:    01010008    ....    DCD    16842760
        0x000106d4:    01010101    ....    DCD    16843009
        0x000106d8:    01010101    ....    DCD    16843009
        0x000106dc:    01010101    ....    DCD    16843009
        0x000106e0:    01010101    ....    DCD    16843009
        0x000106e4:    01010101    ....    DCD    16843009
        0x000106e8:    01010101    ....    DCD    16843009
        0x000106ec:    01010101    ....    DCD    16843009
        0x000106f0:    0101        ..      DCW    257
    g_ui8NCEtable
        0x000106f2:    a4a3        ..      DCW    42147
        0x000106f4:    a1a00112    ....    DCD    2711617810
        0x000106f8:    02b3a4a2    ....    DCD    45327522
        0x000106fc:    848392b5    ....    DCD    2223215285
        0x00010700:    94938285    ....    DCD    2492695173
        0x00010704:    ffff9101    ....    DCD    4294938881
        0x00010708:    ffffffff    ....    DCD    4294967295
        0x0001070c:    1201ffff    ....    DCD    302120959
        0x00010710:    84830095    ....    DCD    2223177877
        0x00010714:    b4018002    ....    DCD    3019997186
        0x00010718:    a4a3b2b5    ....    DCD    2762191541
        0x0001071c:    81800011    ....    DCD    2172649489
        0x00010720:    02838382    ....    DCD    42173314
        0x00010724:    94931085    ....    DCD    2492665989
        0x00010728:    12a09095    ....    DCD    312512661
        0x0001072c:    b101a4a2    ....    DCD    2969674914
        0x00010730:    028000b2    ....    DCD    41943218
        0x00010734:    919085b2    ....    DCD    2442167730
        0x00010738:    a1029402    ....    DCD    2701300738
        0x0001073c:    11b0a3a2    ....    DCD    296788898
        0x00010740:    001200b3    ....    DCD    1179827
        0x00010744:    a4a39295    ....    DCD    2762183317
        0x00010748:    b4b30102    ....    DCD    3031630082
        0x0001074c:    818002b5    ....    DCD    2172650165
        0x00010750:    01908482    ....    DCD    26248322
        0x00010754:    01a39592    ....    DCD    27497874
        0x00010758:    b4b3a0a5    ....    DCD    3031670949
        0x0001075c:    8402b1b5    ....    DCD    2214769077
        0x00010760:    94938100    ....    DCD    2492694784
        0x00010764:    12a30095    ....    DCD    312672405
        0x00010768:    b400a1a5    ....    DCD    3019940261
        0x0001076c:    0201b002    ....    DCD    33665026
        0x00010770:    b1908482    ....    DCD    2979038338
        0x00010774:    11a01001    ....    DCD    295702529
        0x00010778:    02b0a592    ....    DCD    45131154
        0x0001077c:    810111b2    ....    DCD    2164330930
        0x00010780:    94930282    ....    DCD    2492662402
        0x00010784:    a4931095    ....    DCD    2761101461
        0x00010788:    b1b000a5    ....    DCD    2981101733
        0x0001078c:    ffffb512    ....    DCD    4294948114
        0x00010790:    ffffffff    ....    DCD    4294967295
        0x00010794:    9102ffff    ....    DCD    2432892927
        0x00010798:    01801011    ....    DCD    25169937
        0x0001079c:    91908582    ....    DCD    2442167682
        0x000107a0:    00a01002    ....    DCD    10489858
        0x000107a4:    b4b3a5a2    ....    DCD    3031672226
        0x000107a8:    0183b185    ....    DCD    25407877
        0x000107ac:    81111002    ....    DCD    2165379074
        0x000107b0:    a1019392    ....    DCD    2701235090
        0x000107b4:    11b012a2    ....    DCD    296751778
        0x000107b8:    020181b2    ....    DCD    33653170
        0x000107bc:    91a480b2    ....    DCD    2443477170
        0x000107c0:    a1908092    ....    DCD    2710601874
        0x000107c4:    b1a09200    ....    DCD    2980090368
        0x000107c8:    84028202    ....    DCD    2214756866
        0x000107cc:    00838385    ....    DCD    8618885
        0x000107d0:    b4a38495    ....    DCD    3030615189
        0x000107d4:    b40010a5    ....    DCD    3019903141
        0x000107d8:    81b390b5    ....    DCD    2176028853
        0x000107dc:    9111b500    ....    DCD    2433856768
        0x000107e0:    a1100092    ....    DCD    2702180498
        0x000107e4:    b100b0a2    ....    DCD    2969612450
        0x000107e8:    84100102    ....    DCD    2215641346
        0x000107ec:    94011185    ....    DCD    2483097989
        0x000107f0:    a4800002    ....    DCD    2759852034
        0x000107f4:    009010a5    ....    DCD    9441445
        0x000107f8:    810193a5    ....    DCD    2164364197
        0x000107fc:    91b09482    ....    DCD    2444268674
        0x00010800:    008395b2    ....    DCD    8623538
        0x00010804:    b193a0a2    ....    DCD    2979242146
        0x00010808:    02a30100    ....    DCD    44237056
        0x0001080c:    94b31185    ....    DCD    2494763397
        0x00010810:    0200a1b0    ....    DCD    33595824
        0x00010814:    b401a201    ....    DCD    3020005889
        0x00010818:    000002b5    ....    DCD    693
    .constdata
    g_AM_HAL_GPIO_TRISTATE
        0x0001081c:    00000c03    ....    DCD    3075
    .constdata
    g_AM_HAL_GPIO_OUTPUT
        0x00010820:    00000403    ....    DCD    1027
    .constdata
    g_am_hal_mcuctrl_flash_size
        0x00010824:    00004000    .@..    DCD    16384
        0x00010828:    00008000    ....    DCD    32768
        0x0001082c:    00010000    ....    DCD    65536
        0x00010830:    00020000    ....    DCD    131072
        0x00010834:    00040000    ....    DCD    262144
        0x00010838:    00080000    ....    DCD    524288
        0x0001083c:    00100000    ....    DCD    1048576
        0x00010840:    00200000    .. .    DCD    2097152
        0x00010844:    00180000    ....    DCD    1572864
        0x00010848:    00000000    ....    DCD    0
        0x0001084c:    00000000    ....    DCD    0
        0x00010850:    00000000    ....    DCD    0
        0x00010854:    00000000    ....    DCD    0
        0x00010858:    00000000    ....    DCD    0
        0x0001085c:    00000000    ....    DCD    0
        0x00010860:    00000000    ....    DCD    0
    g_am_hal_mcuctrl_sram_size
        0x00010864:    00004000    .@..    DCD    16384
        0x00010868:    00008000    ....    DCD    32768
        0x0001086c:    00010000    ....    DCD    65536
        0x00010870:    00020000    ....    DCD    131072
        0x00010874:    00040000    ....    DCD    262144
        0x00010878:    00080000    ....    DCD    524288
        0x0001087c:    00100000    ....    DCD    1048576
        0x00010880:    00060000    ....    DCD    393216
        0x00010884:    000c0000    ....    DCD    786432
        0x00010888:    00000000    ....    DCD    0
        0x0001088c:    00000000    ....    DCD    0
        0x00010890:    00000000    ....    DCD    0
        0x00010894:    00000000    ....    DCD    0
        0x00010898:    00000000    ....    DCD    0
        0x0001089c:    00000000    ....    DCD    0
        0x000108a0:    00000000    ....    DCD    0
    .constdata
    am_hal_pwrctrl_peripheral_control
        0x000108a4:    00000000    ....    DCD    0
        0x000108a8:    00000000    ....    DCD    0
        0x000108ac:    00000000    ....    DCD    0
        0x000108b0:    00000001    ....    DCD    1
        0x000108b4:    00000004    ....    DCD    4
        0x000108b8:    00000004    ....    DCD    4
        0x000108bc:    00000002    ....    DCD    2
        0x000108c0:    00000008    ....    DCD    8
        0x000108c4:    00000008    ....    DCD    8
        0x000108c8:    00000004    ....    DCD    4
        0x000108cc:    00000008    ....    DCD    8
        0x000108d0:    00000008    ....    DCD    8
        0x000108d4:    00000008    ....    DCD    8
        0x000108d8:    00000008    ....    DCD    8
        0x000108dc:    00000008    ....    DCD    8
        0x000108e0:    00000010    ....    DCD    16
        0x000108e4:    00000010    ....    DCD    16
        0x000108e8:    00000010    ....    DCD    16
        0x000108ec:    00000020     ...    DCD    32
        0x000108f0:    00000010    ....    DCD    16
        0x000108f4:    00000010    ....    DCD    16
        0x000108f8:    00000040    @...    DCD    64
        0x000108fc:    00000010    ....    DCD    16
        0x00010900:    00000010    ....    DCD    16
        0x00010904:    00000080    ....    DCD    128
        0x00010908:    00000004    ....    DCD    4
        0x0001090c:    00000004    ....    DCD    4
        0x00010910:    00000100    ....    DCD    256
        0x00010914:    00000004    ....    DCD    4
        0x00010918:    00000004    ....    DCD    4
        0x0001091c:    00000200    ....    DCD    512
        0x00010920:    00000020     ...    DCD    32
        0x00010924:    00000020     ...    DCD    32
        0x00010928:    00000400    ....    DCD    1024
        0x0001092c:    00000004    ....    DCD    4
        0x00010930:    00000004    ....    DCD    4
        0x00010934:    00000800    ....    DCD    2048
        0x00010938:    00000040    @...    DCD    64
        0x0001093c:    00000040    @...    DCD    64
        0x00010940:    00001000    ....    DCD    4096
        0x00010944:    00000040    @...    DCD    64
        0x00010948:    00000040    @...    DCD    64
        0x0001094c:    00002000    . ..    DCD    8192
        0x00010950:    00000040    @...    DCD    64
        0x00010954:    00000040    @...    DCD    64
        0x00010958:    00004000    .@..    DCD    16384
        0x0001095c:    00000080    ....    DCD    128
        0x00010960:    00000080    ....    DCD    128
        0x00010964:    00008000    ....    DCD    32768
        0x00010968:    00000100    ....    DCD    256
        0x0001096c:    00000100    ....    DCD    256
    am_hal_pwrctrl_memory_control
        0x00010970:    00000000    ....    DCD    0
        0x00010974:    00000000    ....    DCD    0
        0x00010978:    00000000    ....    DCD    0
        0x0001097c:    00000000    ....    DCD    0
        0x00010980:    00000000    ....    DCD    0
        0x00010984:    00000000    ....    DCD    0
        0x00010988:    00000001    ....    DCD    1
        0x0001098c:    00000001    ....    DCD    1
        0x00010990:    00000001    ....    DCD    1
        0x00010994:    00001fff    ....    DCD    8191
        0x00010998:    00001fff    ....    DCD    8191
        0x0001099c:    00000001    ....    DCD    1
        0x000109a0:    00000003    ....    DCD    3
        0x000109a4:    00000003    ....    DCD    3
        0x000109a8:    00000003    ....    DCD    3
        0x000109ac:    00001fff    ....    DCD    8191
        0x000109b0:    00001fff    ....    DCD    8191
        0x000109b4:    00000003    ....    DCD    3
        0x000109b8:    00000007    ....    DCD    7
        0x000109bc:    00000007    ....    DCD    7
        0x000109c0:    00000007    ....    DCD    7
        0x000109c4:    00001fff    ....    DCD    8191
        0x000109c8:    00001fff    ....    DCD    8191
        0x000109cc:    00000007    ....    DCD    7
        0x000109d0:    0000000f    ....    DCD    15
        0x000109d4:    0000000f    ....    DCD    15
        0x000109d8:    0000000f    ....    DCD    15
        0x000109dc:    00001fff    ....    DCD    8191
        0x000109e0:    00001fff    ....    DCD    8191
        0x000109e4:    0000000f    ....    DCD    15
        0x000109e8:    0000001f    ....    DCD    31
        0x000109ec:    0000001f    ....    DCD    31
        0x000109f0:    0000001f    ....    DCD    31
        0x000109f4:    00001fff    ....    DCD    8191
        0x000109f8:    00001fff    ....    DCD    8191
        0x000109fc:    0000001f    ....    DCD    31
        0x00010a00:    0000003f    ?...    DCD    63
        0x00010a04:    0000003f    ?...    DCD    63
        0x00010a08:    0000003f    ?...    DCD    63
        0x00010a0c:    00001fff    ....    DCD    8191
        0x00010a10:    00001fff    ....    DCD    8191
        0x00010a14:    0000003f    ?...    DCD    63
        0x00010a18:    0000007f    ....    DCD    127
        0x00010a1c:    0000007f    ....    DCD    127
        0x00010a20:    0000007f    ....    DCD    127
        0x00010a24:    00001fff    ....    DCD    8191
        0x00010a28:    00001fff    ....    DCD    8191
        0x00010a2c:    0000007f    ....    DCD    127
        0x00010a30:    000000ff    ....    DCD    255
        0x00010a34:    000000ff    ....    DCD    255
        0x00010a38:    000000ff    ....    DCD    255
        0x00010a3c:    00001fff    ....    DCD    8191
        0x00010a40:    00001fff    ....    DCD    8191
        0x00010a44:    000000ff    ....    DCD    255
        0x00010a48:    000001ff    ....    DCD    511
        0x00010a4c:    000001ff    ....    DCD    511
        0x00010a50:    000001ff    ....    DCD    511
        0x00010a54:    00001fff    ....    DCD    8191
        0x00010a58:    00001fff    ....    DCD    8191
        0x00010a5c:    000001ff    ....    DCD    511
        0x00010a60:    000003ff    ....    DCD    1023
        0x00010a64:    000003ff    ....    DCD    1023
        0x00010a68:    000003ff    ....    DCD    1023
        0x00010a6c:    00001fff    ....    DCD    8191
        0x00010a70:    00001fff    ....    DCD    8191
        0x00010a74:    000003ff    ....    DCD    1023
        0x00010a78:    000007ff    ....    DCD    2047
        0x00010a7c:    000007ff    ....    DCD    2047
        0x00010a80:    000007ff    ....    DCD    2047
        0x00010a84:    00001fff    ....    DCD    8191
        0x00010a88:    00001fff    ....    DCD    8191
        0x00010a8c:    000007ff    ....    DCD    2047
        0x00010a90:    00000fff    ....    DCD    4095
        0x00010a94:    00000fff    ....    DCD    4095
        0x00010a98:    00000fff    ....    DCD    4095
        0x00010a9c:    00001fff    ....    DCD    8191
        0x00010aa0:    00001fff    ....    DCD    8191
        0x00010aa4:    00000fff    ....    DCD    4095
        0x00010aa8:    00001fff    ....    DCD    8191
        0x00010aac:    00001fff    ....    DCD    8191
        0x00010ab0:    00001fff    ....    DCD    8191
        0x00010ab4:    00001fff    ....    DCD    8191
        0x00010ab8:    00001fff    ....    DCD    8191
        0x00010abc:    00001fff    ....    DCD    8191
        0x00010ac0:    00002000    . ..    DCD    8192
        0x00010ac4:    00002000    . ..    DCD    8192
        0x00010ac8:    00002000    . ..    DCD    8192
        0x00010acc:    00006000    .`..    DCD    24576
        0x00010ad0:    00006000    .`..    DCD    24576
        0x00010ad4:    00002000    . ..    DCD    8192
        0x00010ad8:    00006000    .`..    DCD    24576
        0x00010adc:    00006000    .`..    DCD    24576
        0x00010ae0:    00006000    .`..    DCD    24576
        0x00010ae4:    00006000    .`..    DCD    24576
        0x00010ae8:    00006000    .`..    DCD    24576
        0x00010aec:    00006000    .`..    DCD    24576
        0x00010af0:    c0000000    ....    DCD    3221225472
        0x00010af4:    00000000    ....    DCD    0
        0x00010af8:    c0000000    ....    DCD    3221225472
        0x00010afc:    c0000000    ....    DCD    3221225472
        0x00010b00:    00000000    ....    DCD    0
        0x00010b04:    80000000    ....    DCD    2147483648
        0x00010b08:    c0007fff    ....    DCD    3221258239
        0x00010b0c:    00007fff    ....    DCD    32767
        0x00010b10:    c0007fff    ....    DCD    3221258239
        0x00010b14:    c0007fff    ....    DCD    3221258239
        0x00010b18:    00007fff    ....    DCD    32767
        0x00010b1c:    80007fff    ....    DCD    2147516415
    .constdata
    g_AM_BSP_GPIO_BUTTON0
        0x00010b20:    00001003    ....    DCD    4099
    .constdata
    g_AM_BSP_GPIO_BUTTON1
        0x00010b24:    00001003    ....    DCD    4099
    .constdata
    g_AM_BSP_GPIO_BUTTON2
        0x00010b28:    00001003    ....    DCD    4099
    .constdata
    g_AM_BSP_GPIO_ITM_SWO
        0x00010b2c:    00000002    ....    DCD    2
    Region$$Table$$Base
        0x00010b30:    00010b60    `...    DCD    68448
        0x00010b34:    10001000    ....    DCD    268439552
        0x00010b38:    00000104    ....    DCD    260
        0x00010b3c:    0000c170    p...    DCD    49520
        0x00010b40:    00010c64    d...    DCD    68708
        0x00010b44:    10001104    ....    DCD    268439812
        0x00010b48:    00004ffc    .O..    DCD    20476
        0x00010b4c:    0000c18c    ....    DCD    49548
        0x00010b50:    00010c64    d...    DCD    68708
        0x00010b54:    10000000    ....    DCD    268435456
        0x00010b58:    00001000    ....    DCD    4096
        0x00010b5c:    0000c18c    ....    DCD    49548
    Region$$Table$$Limit

** Section #2 'RWMEM' (SHT_PROGBITS) [SHF_ALLOC + SHF_WRITE]
    Size   : 260 bytes (alignment 4)
    Address: 0x10001000

    0x10001000:   00 00 00 00 00 00 00 00 00 00 00 00 00 00 00 00    ................
    0x10001010:   00 00 00 00 aa aa aa aa 00 00 00 00 00 00 00 00    ................
    0x10001020:   00 00 00 00 00 00 00 00 00 00 00 00 00 00 00 00    ................
    0x10001030:   f8 3f 00 00 00 00 00 00 00 00 00 00 00 00 00 00    .?..............
    0x10001040:   00 00 00 00 00 00 00 00 00 00 00 00 00 00 00 00    ................
    0x10001050:   00 00 00 00 00 00 00 00 00 00 00 00 00 00 00 00    ................
    0x10001060:   00 00 00 00 00 00 00 00 00 00 00 00 00 00 00 00    ................
    0x10001070:   00 00 00 00 00 00 00 00 00 00 00 00 00 00 00 00    ................
    0x10001080:   00 00 00 00 00 00 00 00 00 00 00 00 00 00 00 00    ................
    0x10001090:   00 00 00 00 00 00 00 00 00 00 00 00 00 00 00 00    ................
    0x100010a0:   00 00 00 00 00 00 00 00 00 00 00 00 0a 00 00 00    ................
    0x100010b0:   03 00 00 00 1e 00 00 00 03 00 00 00 0f 00 00 00    ................
    0x100010c0:   03 00 00 00 0e 00 00 00 03 00 00 00 11 00 00 00    ................
    0x100010d0:   03 00 00 00 00 c2 01 00 60 00 00 00 00 00 00 00    ........`.......
    0x100010e0:   00 00 00 00 00 00 00 00 12 00 00 00 9c 58 00 10    .............X..
    0x100010f0:   00 04 00 00 9c 5c 00 10 00 04 00 00 00 00 00 00    .....\..........
    0x10001100:   00 00 00 00                                        ....


** Section #3 'RWMEM' (SHT_NOBITS) [SHF_ALLOC + SHF_WRITE]
    Size   : 20476 bytes (alignment 8)
    Address: 0x10001104


** Section #4 'STACKMEM' (SHT_NOBITS) [SHF_ALLOC + SHF_WRITE]
    Size   : 4096 bytes (alignment 8)
    Address: 0x10000000


** Section #5 '.debug_abbrev' (SHT_PROGBITS)
    Size   : 1476 bytes


** Section #6 '.debug_frame' (SHT_PROGBITS)
    Size   : 5372 bytes


** Section #7 '.debug_info' (SHT_PROGBITS)
    Size   : 367712 bytes


** Section #8 '.debug_line' (SHT_PROGBITS)
    Size   : 24708 bytes


** Section #9 '.debug_loc' (SHT_PROGBITS)
    Size   : 11100 bytes


** Section #10 '.debug_macinfo' (SHT_PROGBITS)
    Size   : 283120 bytes


** Section #11 '.debug_pubnames' (SHT_PROGBITS)
    Size   : 3881 bytes


** Section #12 '.symtab' (SHT_SYMTAB)
    Size   : 14768 bytes (alignment 4)
    String table #13 '.strtab'
    Last local symbol no. 644

    Symbol table .symtab (922 symbols, 644 local)

      #  Symbol Name                Value      Bind  Sec  Type  Vis  Size
    ========================================================================

      1  $d                         0x0000c000   Lc    1   --   De 
      2  $t                         0x0000c100   Lc    1   --   De 
      3  $d                         0x0000c130   Lc    1   --   De 
      4  $t                         0x0000c134   Lc    1   --   De 
      5  $d                         0x0000c168   Lc    1   --   De 
      6  $t                         0x0000c170   Lc    1   --   De 
      7  $d                         0x0000c1f0   Lc    1   --   De 
      8  $t                         0x0000c1f4   Lc    1   --   De 
      9  $d                         0x0000c218   Lc    1   --   De 
     10  $t                         0x0000c21c   Lc    1   --   De 
     11  $d                         0x0000c22c   Lc    1   --   De 
     12  $t                         0x0000c230   Lc    1   --   De 
     13  $d                         0x0000c288   Lc    1   --   De 
     14  $t                         0x0000c28c   Lc    1   --   De 
     15  $d                         0x0000c2f6   Lc    1   --   De 
     16  $t                         0x0000c304   Lc    1   --   De 
     17  $d                         0x0000c4fc   Lc    1   --   De 
     18  $t                         0x0000c500   Lc    1   --   De 
     19  $d                         0x0000c508   Lc    1   --   De 
     20  $t                         0x0000c50c   Lc    1   --   De 
     21  $d                         0x0000c556   Lc    1   --   De 
     22  $t                         0x0000c560   Lc    1   --   De 
     23  $d                         0x0000c658   Lc    1   --   De 
     24  $t                         0x0000c690   Lc    1   --   De 
     25  $d                         0x0000c6b6   Lc    1   --   De 
     26  $t                         0x0000c6bc   Lc    1   --   De 
     27  $d                         0x0000c6d6   Lc    1   --   De 
     28  $t                         0x0000c6dc   Lc    1   --   De 
     29  $d                         0x0000c708   Lc    1   --   De 
     30  $t                         0x0000c718   Lc    1   --   De 
     31  $d                         0x0000c752   Lc    1   --   De 
     32  $t                         0x0000c75c   Lc    1   --   De 
     33  $d                         0x0000c7f4   Lc    1   --   De 
     34  $t                         0x0000c7fc   Lc    1   --   De 
     35  $d                         0x0000c904   Lc    1   --   De 
     36  $t                         0x0000c90c   Lc    1   --   De 
     37  $d                         0x0000c964   Lc    1   --   De 
     38  $t                         0x0000c96c   Lc    1   --   De 
     39  $d                         0x0000c9b2   Lc    1   --   De 
     40  $t                         0x0000c9b8   Lc    1   --   De 
     41  $d                         0x0000c9c4   Lc    1   --   De 
     42  $t                         0x0000c9d6   Lc    1   --   De 
     43  $d                         0x0000cd5c   Lc    1   --   De 
     44  $t                         0x0000cd64   Lc    1   --   De 
     45  $d                         0x0000cd72   Lc    1   --   De 
     46  $t                         0x0000cd78   Lc    1   --   De 
     47  $d                         0x0000cd90   Lc    1   --   De 
     48  $t                         0x0000cd9a   Lc    1   --   De 
     49  $d                         0x0000ce64   Lc    1   --   De 
     50  $t                         0x0000ce74   Lc    1   --   De 
     51  $d                         0x0000cea0   Lc    1   --   De 
     52  $t                         0x0000cea8   Lc    1   --   De 
     53  $d                         0x0000cec2   Lc    1   --   De 
     54  $t                         0x0000cec8   Lc    1   --   De 
     55  $d                         0x0000cef6   Lc    1   --   De 
     56  $t                         0x0000cefc   Lc    1   --   De 
     57  $d                         0x0000cf28   Lc    1   --   De 
     58  $t                         0x0000cf2c   Lc    1   --   De 
     59  $d                         0x0000cf4a   Lc    1   --   De 
     60  $t                         0x0000cf50   Lc    1   --   De 
     61  $d                         0x0000cfa6   Lc    1   --   De 
     62  $t                         0x0000cfac   Lc    1   --   De 
     63  $d                         0x0000cfb0   Lc    1   --   De 
     64  $t                         0x0000cfb4   Lc    1   --   De 
     65  $d                         0x0000cfd8   Lc    1   --   De 
     66  $t                         0x0000cfdc   Lc    1   --   De 
     67  $d                         0x0000d028   Lc    1   --   De 
     68  $t                         0x0000d02c   Lc    1   --   De 
     69  $d                         0x0000d070   Lc    1   --   De 
     70  $t                         0x0000d074   Lc    1   --   De 
     71  $d                         0x0000d08e   Lc    1   --   De 
     72  $t                         0x0000d094   Lc    1   --   De 
     73  $d                         0x0000d110   Lc    1   --   De 
     74  $t                         0x0000d114   Lc    1   --   De 
     75  $d                         0x0000d180   Lc    1   --   De 
     76  $t                         0x0000d184   Lc    1   --   De 
     77  $d                         0x0000d3ce   Lc    1   --   De 
     78  $t                         0x0000d404   Lc    1   --   De 
     79  $d                         0x0000d49c   Lc    1   --   De 
     80  $t                         0x0000d4a2   Lc    1   --   De 
     81  $d                         0x0000d568   Lc    1   --   De 
     82  $t                         0x0000d58c   Lc    1   --   De 
     83  $d                         0x0000d5b8   Lc    1   --   De 
     84  $t                         0x0000d5d4   Lc    1   --   De 
     85  $d                         0x0000d71a   Lc    1   --   De 
     86  $t                         0x0000d73c   Lc    1   --   De 
     87  $d                         0x0000d884   Lc    1   --   De 
     88  $t                         0x0000d89c   Lc    1   --   De 
     89  $d                         0x0000d8fe   Lc    1   --   De 
     90  $t                         0x0000d908   Lc    1   --   De 
     91  $d                         0x0000d9ac   Lc    1   --   De 
     92  $t                         0x0000d9b4   Lc    1   --   De 
     93  $d                         0x0000d9c2   Lc    1   --   De 
     94  $t                         0x0000d9c8   Lc    1   --   De 
     95  $d                         0x0000d9e4   Lc    1   --   De 
     96  $t                         0x0000d9e8   Lc    1   --   De 
     97  $d                         0x0000d9f0   Lc    1   --   De 
     98  $t                         0x0000d9f4   Lc    1   --   De 
     99  $d                         0x0000da02   Lc    1   --   De 
    100  $t                         0x0000da08   Lc    1   --   De 
    101  $d                         0x0000da1a   Lc    1   --   De 
    102  $t                         0x0000da20   Lc    1   --   De 
    103  $d                         0x0000da2a   Lc    1   --   De 
    104  $t                         0x0000da30   Lc    1   --   De 
    105  $d                         0x0000da5c   Lc    1   --   De 
    106  $t                         0x0000da60   Lc    1   --   De 
    107  $d                         0x0000db3c   Lc    1   --   De 
    108  $t                         0x0000db58   Lc    1   --   De 
    109  $d                         0x0000dbd2   Lc    1   --   De 
    110  $t                         0x0000dbe8   Lc    1   --   De 
    111  $d                         0x0000dc30   Lc    1   --   De 
    112  $t                         0x0000dc34   Lc    1   --   De 
    113  $d                         0x0000ddfc   Lc    1   --   De 
    114  $t                         0x0000e10c   Lc    1   --   De 
    115  $d                         0x0000e138   Lc    1   --   De 
    116  $t                         0x0000e140   Lc    1   --   De 
    117  $d                         0x0000e146   Lc    1   --   De 
    118  $t                         0x0000e14c   Lc    1   --   De 
    119  $d                         0x0000e56c   Lc    1   --   De 
    120  $t                         0x0000e570   Lc    1   --   De 
    121  $d                         0x0000e880   Lc    1   --   De 
    122  $t                         0x0000e88c   Lc    1   --   De 
    123  $d                         0x0000e8e4   Lc    1   --   De 
    124  $t                         0x0000e8f0   Lc    1   --   De 
    125  $d                         0x0000e948   Lc    1   --   De 
    126  $t                         0x0000e954   Lc    1   --   De 
    127  $d                         0x0000e9ac   Lc    1   --   De 
    128  $t                         0x0000e9b8   Lc    1   --   De 
    129  $d                         0x0000e9e0   Lc    1   --   De 
    130  $t                         0x0000e9ec   Lc    1   --   De 
    131  $d                         0x0000ea28   Lc    1   --   De 
    132  $t                         0x0000ea48   Lc    1   --   De 
    133  $d                         0x0000eb66   Lc    1   --   De 
    134  $t                         0x0000eb70   Lc    1   --   De 
    135  $d                         0x0000ebf2   Lc    1   --   De 
    136  $t                         0x0000ec00   Lc    1   --   De 
    137  $d                         0x0000ecaa   Lc    1   --   De 
    138  $t                         0x0000ecb0   Lc    1   --   De 
    139  $d                         0x0000eccc   Lc    1   --   De 
    140  $t                         0x0000ecd0   Lc    1   --   De 
    141  $d                         0x0000ee80   Lc    1   --   De 
    142  $t                         0x0000ee8a   Lc    1   --   De 
    143  $d                         0x0000ef4e   Lc    1   --   De 
    144  $t                         0x0000ef58   Lc    1   --   De 
    145  $d                         0x0000f086   Lc    1   --   De 
    146  $t                         0x0000f094   Lc    1   --   De 
    147  $d                         0x0000f0ba   Lc    1   --   De 
    148  $t                         0x0000f0c0   Lc    1   --   De 
    149  $d                         0x0000f0e2   Lc    1   --   De 
    150  $t                         0x0000f0f4   Lc    1   --   De 
    151  $d                         0x0000f122   Lc    1   --   De 
    152  $t                         0x0000f150   Lc    1   --   De 
    153  $d                         0x0000f2b0   Lc    1   --   De 
    154  $t                         0x0000f2b4   Lc    1   --   De 
    155  $d                         0x0000f3ce   Lc    1   --   De 
    156  $t                         0x0000f3d8   Lc    1   --   De 
    157  $d                         0x0000f3f0   Lc    1   --   De 
    158  $t                         0x0000f3f4   Lc    1   --   De 
    159  $d                         0x0000f42a   Lc    1   --   De 
    160  $t                         0x0000f434   Lc    1   --   De 
    161  $d                         0x0000f4aa   Lc    1   --   De 
    162  $t                         0x0000f4b8   Lc    1   --   De 
    163  $d                         0x0000f55e   Lc    1   --   De 
    164  $t                         0x0000f564   Lc    1   --   De 
    165  $d                         0x0000f592   Lc    1   --   De 
    166  $t                         0x0000f59c   Lc    1   --   De 
    167  $d                         0x0000f5f4   Lc    1   --   De 
    168  $t                         0x0000f5f8   Lc    1   --   De 
    169  $d                         0x0000f600   Lc    1   --   De 
    170  $t                         0x0000f604   Lc    1   --   De 
    171  $d                         0x0000f624   Lc    1   --   De 
    172  $t                         0x0000f628   Lc    1   --   De 
    173  $d                         0x0000f650   Lc    1   --   De 
    174  $t                         0x0000f654   Lc    1   --   De 
    175  $d                         0x0000f686   Lc    1   --   De 
    176  $t                         0x0000f68c   Lc    1   --   De 
    177  $d                         0x0000f6d8   Lc    1   --   De 
    178  $t                         0x0000f6e0   Lc    1   --   De 
    179  $d                         0x0000f738   Lc    1   --   De 
    180  $t                         0x0000f74c   Lc    1   --   De 
    181  $d                         0x0000f762   Lc    1   --   De 
    182  $t                         0x0000f768   Lc    1   --   De 
    183  $d                         0x0000f87c   Lc    1   --   De 
    184  $t                         0x0000f88c   Lc    1   --   De 
    185  $d                         0x0000f896   Lc    1   --   De 
    186  $t                         0x0000f89c   Lc    1   --   De 
    187  $d                         0x0000f922   Lc    1   --   De 
    188  $t                         0x0000f92c   Lc    1   --   De 
    189  $d                         0x0000fa20   Lc    1   --   De 
    190  $t                         0x0000fa24   Lc    1   --   De 
    191  $d                         0x0000fad6   Lc    1   --   De 
    192  $t                         0x0000faf4   Lc    1   --   De 
    193  $d                         0x0000fb66   Lc    1   --   De 
    194  $t                         0x0000fb70   Lc    1   --   De 
    195  $d                         0x0000fd60   Lc    1   --   De 
    196  $t                         0x0000fd64   Lc    1   --   De 
    197  $d                         0x0000ff6e   Lc    1   --   De 
    198  $t                         0x0000ff74   Lc    1   --   De 
    199  $d                         0x0000ffd4   Lc    1   --   De 
    200  $t                         0x0000ffd8   Lc    1   --   De 
    201  $d                         0x00010136   Lc    1   --   De 
    202  $t                         0x00010154   Lc    1   --   De 
    203  $d                         0x0001016c   Lc    1   --   De 
    204  $t                         0x00010170   Lc    1   --   De 
    205  $d                         0x00010176   Lc    1   --   De 
    206  $t                         0x0001017c   Lc    1   --   De 
    207  $d                         0x0001023c   Lc    1   --   De 
    208  $t                         0x00010244   Lc    1   --   De 
    209  $d                         0x000102b8   Lc    1   --   De 
    210  $t                         0x000102c4   Lc    1   --   De 
    211  $d                         0x00010442   Lc    1   --   De 
    212  $t                         0x00010450   Lc    1   --   De 
    213  $d                         0x000104a6   Lc    1   --   De 
    214  $t                         0x000104c4   Lc    1   --   De 
    215  $d                         0x000104e8   Lc    1   --   De 
    216  $t                         0x000104ec   Lc    1   --   De 
    217  $d                         0x0001053c   Lc    1   --   De 
    218  $t                         0x00010540   Lc    1   --   De 
    219  $d                         0x000105be   Lc    1   --   De 
    220  $t                         0x000105c2   Lc    1   --   De 
    221  $d.realdata                0x000105fe   Lc    1   --   De 
    222  $d.realdata                0x10001000   Lc    2   --   De 
    223  $d.realdata                0x10000000   Lc    4   --   De 
    224  ..\src\freertos_lowpower.c 0x00000000   Lc  Abs  File  De 
    225  ../src/freertos_lowpower.c 0x00000000   Lc  Abs  File  De 
    226  i.disable_print_interface  0x0000e9b8   Lc    1  Sect  De 
    227  i.main                     0x0000e9ec   Lc    1  Sect  De 
    228  ..\src\led_task.c          0x00000000   Lc  Abs  File  De 
    229  ../src/led_task.c          0x00000000   Lc  Abs  File  De 
    230  i.LedTask                  0x0000c510   Lc    1  Sect  De 
    231  i.LedTaskSetup             0x0000c560   Lc    1  Sect  De 
    232  i.am_gpio_isr              0x0000c88a   Lc    1  Sect  De 
    233  i.button0_handler          0x0000e88c   Lc    1  Sect  De 
    234  i.button1_handler          0x0000e8f0   Lc    1  Sect  De 
    235  i.button2_handler          0x0000e954   Lc    1  Sect  De 
    236  .data                      0x10001000   Lc    2  Sect  De   0x4
    237  .data                      0x10001004   Lc    2  Sect  De   0x4
    238  ..\src\rtos.c              0x00000000   Lc  Abs  File  De 
    239  ../src/rtos.c              0x00000000   Lc  Abs  File  De 
    240  i.am_ctimer_isr            0x0000c75c   Lc    1  Sect  De 
    241  i.am_freertos_sleep        0x0000c87c   Lc    1  Sect  De 
    242  i.am_freertos_wakeup       0x0000c888   Lc    1  Sect  De 
    243  i.run_tasks                0x0000f0c0   Lc    1  Sect  De 
    244  i.setup_task               0x0000f0f4   Lc    1  Sect  De 
    245  i.vApplicationMallocFailedHook
                                    0x0000f2b4   Lc    1  Sect  De 
    246  i.vApplicationStackOverflowHook
                                    0x0000f2b6   Lc    1  Sect  De 
    247  .data                      0x10001008   Lc    2  Sect  De   0x4
    248  ..\..\..\..\..\third_party\FreeRTOSv10.1.1\Source\portable\Keil\AMapollo2\port.c
                                    0x00000000   Lc  Abs  File  De 
    249  .emb_text                  0x0000c1d4   Lc    1  Sect  De   0xbe
    250  $v0                        0x0000c1d4   Lc    1   --   De 
    251  ../../../../../third_party/FreeRTOSv10.1.1/Source/portable/Keil/AMapollo2/port.c
                                    0x00000000   Lc  Abs  File  De 
    252  i.SysTick_Handler          0x0000c690   Lc    1  Sect  De 
    253  i.am_stimer_cmpr0_isr      0x0000dbe8   Lc    1  Sect  De 
    254  i.am_stimer_cmpr1_isr      0x0000dc08   Lc    1  Sect  De 
    255  i.prvTaskExitError         0x0000ecb0   Lc    1  Sect  De 
    256  prvTaskExitError           0x0000ecb1   Lc    1  Code  De   0x1c
    257  i.pxPortInitialiseStack    0x0000f094   Lc    1  Sect  De 
    258  i.vPortEnterCritical       0x0000f3a4   Lc    1  Sect  De 
    259  i.vPortExitCritical        0x0000f3d8   Lc    1  Sect  De 
    260  i.vPortSetupTimerInterrupt 0x0000f434   Lc    1  Sect  De 
    261  i.vPortSuppressTicksAndSleep
                                    0x0000f4b8   Lc    1  Sect  De 
    262  i.vPortValidateInterruptPriority
                                    0x0000f564   Lc    1  Sect  De 
    263  i.xPortStartScheduler      0x0000fa24   Lc    1  Sect  De 
    264  i.xPortStimerTickHandler   0x0000faf4   Lc    1  Sect  De 
    265  .data                      0x1000100c   Lc    2  Sect  De   0x1c
    266  ucMaxSysCallPriority       0x1000100c   Lc    2  Data  De   0x1
    267  g_lastSTimerVal            0x10001010   Lc    2  Data  De   0x4
    268  uxCriticalNesting          0x10001014   Lc    2  Data  De   0x4
    269  ulMaxPRIGROUPValue         0x10001018   Lc    2  Data  De   0x4
    270  xMaximumPossibleSuppressedTicks
                                    0x10001020   Lc    2  Data  De   0x4
    271  ..\..\..\..\..\devices\am_devices_button.c
                                    0x00000000   Lc  Abs  File  De 
    272  ../../../../../devices/am_devices_button.c
                                    0x00000000   Lc  Abs  File  De 
    273  ..\..\..\..\..\devices\am_devices_led.c
                                    0x00000000   Lc  Abs  File  De 
    274  ../../../../../devices/am_devices_led.c
                                    0x00000000   Lc  Abs  File  De 
    275  i.am_devices_led_array_init
                                    0x0000c774   Lc    1  Sect  De 
    276  i.am_devices_led_off       0x0000c7fc   Lc    1  Sect  De 
    277  i.am_devices_led_toggle    0x0000c82a   Lc    1  Sect  De 
    278  ../../../../../utils/am_util_debug.c
                                    0x00000000   Lc  Abs  File  De 
    279  ..\..\..\..\..\utils\am_util_delay.c
                                    0x00000000   Lc  Abs  File  De 
    280  ../../../../../utils/am_util_delay.c
                                    0x00000000   Lc  Abs  File  De 
    281  i.am_util_delay_ms         0x0000dc34   Lc    1  Sect  De 
    282  ..\..\..\..\..\utils\am_util_faultisr.c
                                    0x00000000   Lc  Abs  File  De 
    283  .emb_text                  0x0000c294   Lc    1  Sect  De   0x22
    284  $v0                        0x0000c294   Lc    1   --   De 
    285  ../../../../../utils/am_util_faultisr.c
                                    0x00000000   Lc  Abs  File  De 
    286  i.am_util_faultisr_collect_data
                                    0x0000dc54   Lc    1  Sect  De 
    287  ../../../../../utils/am_util_stdio.c
                                    0x00000000   Lc  Abs  File  De 
    288  i.am_util_stdio_printf     0x0000e10c   Lc    1  Sect  De 
    289  i.am_util_stdio_printf_init
                                    0x0000e140   Lc    1  Sect  De 
    290  i.am_util_stdio_vsprintf   0x0000e14c   Lc    1  Sect  De 
    291  i.ndigits_in_u64           0x0000ea48   Lc    1  Sect  De 
    292  ndigits_in_u64             0x0000ea49   Lc    1  Code  De   0xc6
    293  i.uint64_to_str            0x0000f150   Lc    1  Sect  De 
    294  uint64_to_str              0x0000f151   Lc    1  Code  De   0x126
    295  .bss                       0x10001104   Lc    3  Sect  De   0x400
    296  g_prfbuf                   0x10001104   Lc    3  Data  De   0x400
    297  .data                      0x10001028   Lc    2  Sect  De   0x8
    298  g_bTxtXlate                0x10001028   Lc    2  Data  De   0x1
    299  ../../../../../third_party/FreeRTOSv10.1.1/Source/portable/MemMang/heap_2.c
                                    0x00000000   Lc  Abs  File  De 
    300  i.pvPortMalloc             0x0000efc4   Lc    1  Sect  De 
    301  i.vPortFree                0x0000f3f4   Lc    1  Sect  De 
    302  .bss                       0x10001504   Lc    3  Sect  De   0x4000
    303  ucHeap                     0x10001504   Lc    3  Data  De   0x4000
    304  .data                      0x10001030   Lc    2  Sect  De   0x18
    305  xFreeBytesRemaining        0x10001030   Lc    2  Data  De   0x4
    306  xHeapHasBeenInitialised    0x10001034   Lc    2  Data  De   0x4
    307  xStart                     0x10001038   Lc    2  Data  De   0x8
    308  xEnd                       0x10001040   Lc    2  Data  De   0x8
    309  ../../../../../third_party/FreeRTOSv10.1.1/Source/event_groups.c
                                    0x00000000   Lc  Abs  File  De 
    310  i.vEventGroupSetBitsCallback
                                    0x0000f2bc   Lc    1  Sect  De 
    311  i.xEventGroupCreate        0x0000f92c   Lc    1  Sect  De 
    312  i.xEventGroupWaitBits      0x0000f948   Lc    1  Sect  De 
    313  ../../../../../third_party/FreeRTOSv10.1.1/Source/list.c
                                    0x00000000   Lc  Abs  File  De 
    314  i.uxListRemove             0x0000f276   Lc    1  Sect  De 
    315  i.vListInitialise          0x0000f332   Lc    1  Sect  De 
    316  i.vListInitialiseItem      0x0000f348   Lc    1  Sect  De 
    317  i.vListInsert              0x0000f350   Lc    1  Sect  De 
    318  i.vListInsertEnd           0x0000f38a   Lc    1  Sect  De 
    319  ../../../../../third_party/FreeRTOSv10.1.1/Source/queue.c
                                    0x00000000   Lc  Abs  File  De 
    320  i.prvUnlockQueue           0x0000ef58   Lc    1  Sect  De 
    321  prvUnlockQueue             0x0000ef59   Lc    1  Code  De   0x6c
    322  i.vQueueWaitForMessageRestricted
                                    0x0000f59c   Lc    1  Sect  De 
    323  i.xQueueGenericCreate      0x0000fb70   Lc    1  Sect  De 
    324  i.xQueueGenericSend        0x0000fbe4   Lc    1  Sect  De 
    325  i.xQueueGenericSendFromISR 0x0000fd64   Lc    1  Sect  De 
    326  i.xQueueReceive            0x0000fe44   Lc    1  Sect  De 
    327  ../../../../../third_party/FreeRTOSv10.1.1/Source/tasks.c
                                    0x00000000   Lc  Abs  File  De 
    328  i.eTaskConfirmSleepModeStatus
                                    0x0000e9bc   Lc    1  Sect  De 
    329  i.prvAddCurrentTaskToDelayedList
                                    0x0000eb10   Lc    1  Sect  De 
    330  prvAddCurrentTaskToDelayedList
                                    0x0000eb11   Lc    1  Code  De   0x56
    331  i.prvIdleTask              0x0000eb70   Lc    1  Sect  De 
    332  prvIdleTask                0x0000eb71   Lc    1  Code  De   0x82
    333  i.uxTaskResetEventItemValue
                                    0x0000f29c   Lc    1  Sect  De 
    334  i.vTaskInternalSetTimeOutState
                                    0x0000f5e8   Lc    1  Sect  De 
    335  i.vTaskMissedYield         0x0000f5f8   Lc    1  Sect  De 
    336  i.vTaskPlaceOnEventList    0x0000f604   Lc    1  Sect  De 
    337  i.vTaskPlaceOnEventListRestricted
                                    0x0000f628   Lc    1  Sect  De 
    338  i.vTaskPlaceOnUnorderedEventList
                                    0x0000f654   Lc    1  Sect  De 
    339  i.vTaskRemoveFromUnorderedEventList
                                    0x0000f68c   Lc    1  Sect  De 
    340  i.vTaskStartScheduler      0x0000f6e0   Lc    1  Sect  De 
    341  i.vTaskStepTick            0x0000f74c   Lc    1  Sect  De 
    342  i.vTaskSuspend             0x0000f768   Lc    1  Sect  De 
    343  i.vTaskSuspendAll          0x0000f88c   Lc    1  Sect  De 
    344  i.vTaskSwitchContext       0x0000f89c   Lc    1  Sect  De 
    345  i.xTaskCheckForTimeOut     0x0000ff74   Lc    1  Sect  De 
    346  i.xTaskCreate              0x0000ffd8   Lc    1  Sect  De 
    347  i.xTaskGetSchedulerState   0x00010154   Lc    1  Sect  De 
    348  i.xTaskGetTickCount        0x00010170   Lc    1  Sect  De 
    349  i.xTaskIncrementTick       0x0001017c   Lc    1  Sect  De 
    350  i.xTaskRemoveFromEventList 0x00010244   Lc    1  Sect  De 
    351  i.xTaskResumeAll           0x000102c4   Lc    1  Sect  De 
    352  .bss                       0x10005504   Lc    3  Sect  De   0xa0
    353  pxReadyTasksLists          0x10005504   Lc    3  Data  De   0x50
    354  xDelayedTaskList1          0x10005554   Lc    3  Data  De   0x14
    355  xDelayedTaskList2          0x10005568   Lc    3  Data  De   0x14
    356  xPendingReadyList          0x1000557c   Lc    3  Data  De   0x14
    357  xSuspendedTaskList         0x10005590   Lc    3  Data  De   0x14
    358  .data                      0x10001048   Lc    2  Sect  De   0x38
    359  uxCurrentNumberOfTasks     0x1000104c   Lc    2  Data  De   0x4
    360  xTickCount                 0x10001050   Lc    2  Data  De   0x4
    361  uxTopReadyPriority         0x10001054   Lc    2  Data  De   0x4
    362  xSchedulerRunning          0x10001058   Lc    2  Data  De   0x4
    363  uxPendedTicks              0x1000105c   Lc    2  Data  De   0x4
    364  xYieldPending              0x10001060   Lc    2  Data  De   0x4
    365  xNumOfOverflows            0x10001064   Lc    2  Data  De   0x4
    366  uxTaskNumber               0x10001068   Lc    2  Data  De   0x4
    367  xNextTaskUnblockTime       0x1000106c   Lc    2  Data  De   0x4
    368  xIdleTaskHandle            0x10001070   Lc    2  Data  De   0x4
    369  uxSchedulerSuspended       0x10001074   Lc    2  Data  De   0x4
    370  pxDelayedTaskList          0x10001078   Lc    2  Data  De   0x4
    371  pxOverflowDelayedTaskList  0x1000107c   Lc    2  Data  De   0x4
    372  ../../../../../third_party/FreeRTOSv10.1.1/Source/timers.c
                                    0x00000000   Lc  Abs  File  De 
    373  i.prvSampleTimeNow         0x0000ec00   Lc    1  Sect  De 
    374  prvSampleTimeNow           0x0000ec01   Lc    1  Code  De   0xaa
    375  i.prvTimerTask             0x0000ecd0   Lc    1  Sect  De 
    376  prvTimerTask               0x0000ecd1   Lc    1  Code  De   0x27e
    377  i.xTimerCreateTimerTask    0x00010450   Lc    1  Sect  De 
    378  i.xTimerPendFunctionCallFromISR
                                    0x000104c4   Lc    1  Sect  De 
    379  .bss                       0x100055a4   Lc    3  Sect  De   0x28
    380  xActiveTimerList1          0x100055a4   Lc    3  Data  De   0x14
    381  xActiveTimerList2          0x100055b8   Lc    3  Data  De   0x14
    382  .data                      0x10001080   Lc    2  Sect  De   0x14
    383  xTimerQueue                0x10001080   Lc    2  Data  De   0x4
    384  xTimerTaskHandle           0x10001084   Lc    2  Data  De   0x4
    385  xLastTime                  0x10001088   Lc    2  Data  De   0x4
    386  pxCurrentTimerList         0x1000108c   Lc    2  Data  De   0x4
    387  pxOverflowTimerList        0x10001090   Lc    2  Data  De   0x4
    388  ../keil/startup_keil.s     0x00000000   Lc  Abs  File  De 
    389  STACK                      0x10000000   Lc    4  Sect  De   0x1000
    390  StackMem                   0x10000000   Lc    4  Data  De 
    391  HEAP                       0x10006100   Lc    3  Sect  De 
    392  HeapMem                    0x10006100   Lc    3  Data  De 
    393  RESET                      0x0000c000   Lc    1  Sect  De   0x134
    394  $v0                        0x0000c100   Lc    1   --   De 
    395  .text                      0x0000c2ec   Lc    1  Sect  De   0x18
    396  $v0                        0x0000c2ec   Lc    1   --   De 
    397  ..\am_hal_global.c         0x00000000   Lc  Abs  File  De 
    398  .emb_text                  0x0000c2b8   Lc    1  Sect  De   0x1c
    399  $v0                        0x0000c2b8   Lc    1   --   De 
    400  ../am_hal_global.c         0x00000000   Lc  Abs  File  De 
    401  .data                      0x10001094   Lc    2  Sect  De   0x4
    402  ..\am_hal_cachectrl.c      0x00000000   Lc  Abs  File  De 
    403  ../am_hal_cachectrl.c      0x00000000   Lc  Abs  File  De 
    404  i.am_hal_cachectrl_config  0x0000c96c   Lc    1  Sect  De 
    405  i.am_hal_cachectrl_control 0x0000c9b8   Lc    1  Sect  De 
    406  i.am_hal_cachectrl_enable  0x0000cd64   Lc    1  Sect  De 
    407  .constdata                 0x000105fe   Lc    1  Sect  De   0x3
    408  ..\am_hal_clkgen.c         0x00000000   Lc  Abs  File  De 
    409  ../am_hal_clkgen.c         0x00000000   Lc  Abs  File  De 
    410  i.am_hal_clkgen_control    0x0000cd78   Lc    1  Sect  De 
    411  i.am_hal_clkgen_status_get 0x0000ce74   Lc    1  Sect  De 
    412  ..\am_hal_ctimer.c         0x00000000   Lc  Abs  File  De 
    413  ../am_hal_ctimer.c         0x00000000   Lc  Abs  File  De 
    414  i.am_hal_ctimer_int_clear  0x0000cea8   Lc    1  Sect  De 
    415  i.am_hal_ctimer_int_service
                                    0x0000cec8   Lc    1  Sect  De 
    416  i.am_hal_ctimer_int_status_get
                                    0x0000cefc   Lc    1  Sect  De 
    417  .bss                       0x100055cc   Lc    3  Sect  De   0x80
    418  g_am_hal_ctimer_ppfnHandlers
                                    0x100055cc   Lc    3  Data  De   0x80
    419  ..\am_hal_flash.c          0x00000000   Lc  Abs  File  De 
    420  ../am_hal_flash.c          0x00000000   Lc  Abs  File  De 
    421  i.am_hal_flash_delay       0x0000cf2c   Lc    1  Sect  De 
    422  i.am_hal_flash_delay_status_check
                                    0x0000cf50   Lc    1  Sect  De 
    423  i.am_hal_flash_load_ui32   0x0000cfac   Lc    1  Sect  De 
    424  i.am_hal_flash_store_ui32  0x0000cfb4   Lc    1  Sect  De 
    425  .constdata                 0x00010604   Lc    1  Sect  De   0xc
    426  ..\am_hal_gpio.c           0x00000000   Lc  Abs  File  De 
    427  ../am_hal_gpio.c           0x00000000   Lc  Abs  File  De 
    428  i.am_hal_gpio_interrupt_clear
                                    0x0000cfdc   Lc    1  Sect  De 
    429  i.am_hal_gpio_interrupt_enable
                                    0x0000d02c   Lc    1  Sect  De 
    430  i.am_hal_gpio_interrupt_register
                                    0x0000d074   Lc    1  Sect  De 
    431  i.am_hal_gpio_interrupt_service
                                    0x0000d094   Lc    1  Sect  De 
    432  i.am_hal_gpio_interrupt_status_get
                                    0x0000d114   Lc    1  Sect  De 
    433  i.am_hal_gpio_pinconfig    0x0000d184   Lc    1  Sect  De 
    434  i.am_hal_gpio_state_read   0x0000d404   Lc    1  Sect  De 
    435  i.am_hal_gpio_state_write  0x0000d45e   Lc    1  Sect  De 
    436  .bss                       0x1000564c   Lc    3  Sect  De   0x250
    437  gpio_ppfnHandlers          0x1000564c   Lc    3  Data  De   0x128
    438  gpio_pHandlerCtxt          0x10005774   Lc    3  Data  De   0x128
    439  .constdata                 0x00010610   Lc    1  Sect  De   0x20a
    440  g_ui8Inpen                 0x00010614   Lc    1  Data  De   0x4a
    441  g_ui8Bit76Capabilities     0x0001065e   Lc    1  Data  De   0x4a
    442  g_ui8nCEpins               0x000106a8   Lc    1  Data  De   0x4a
    443  g_ui8NCEtable              0x000106f2   Lc    1  Data  De   0x128
    444  .constdata                 0x0001081c   Lc    1  Sect  De   0x4
    445  .constdata                 0x00010820   Lc    1  Sect  De   0x4
    446  ..\am_hal_interrupt.c      0x00000000   Lc  Abs  File  De 
    447  .emb_text                  0x0000c2d4   Lc    1  Sect  De   0x16
    448  $v0                        0x0000c2d4   Lc    1   --   De 
    449  ../am_hal_interrupt.c      0x00000000   Lc  Abs  File  De 
    450  ..\am_hal_mcuctrl.c        0x00000000   Lc  Abs  File  De 
    451  ../am_hal_mcuctrl.c        0x00000000   Lc  Abs  File  De 
    452  i.am_hal_mcuctrl_info_get  0x0000d604   Lc    1  Sect  De 
    453  .constdata                 0x00010824   Lc    1  Sect  De   0x80
    454  ..\am_hal_pwrctrl.c        0x00000000   Lc  Abs  File  De 
    455  ../am_hal_pwrctrl.c        0x00000000   Lc  Abs  File  De 
    456  i.am_hal_pwrctrl_low_power_init
                                    0x0000d73c   Lc    1  Sect  De 
    457  i.am_hal_pwrctrl_memory_enable
                                    0x0000d89c   Lc    1  Sect  De 
    458  .constdata                 0x000108a4   Lc    1  Sect  De   0x27c
    459  .data                      0x10001098   Lc    2  Sect  De   0x1
    460  ..\am_hal_stimer.c         0x00000000   Lc  Abs  File  De 
    461  ../am_hal_stimer.c         0x00000000   Lc  Abs  File  De 
    462  i.am_hal_stimer_compare_delta_set
                                    0x0000d91c   Lc    1  Sect  De 
    463  i.am_hal_stimer_config     0x0000d9b4   Lc    1  Sect  De 
    464  i.am_hal_stimer_counter_get
                                    0x0000d9c8   Lc    1  Sect  De 
    465  i.am_hal_stimer_int_clear  0x0000d9e8   Lc    1  Sect  De 
    466  i.am_hal_stimer_int_enable 0x0000d9f4   Lc    1  Sect  De 
    467  i.am_hal_stimer_int_status_get
                                    0x0000da08   Lc    1  Sect  De 
    468  ..\am_hal_sysctrl.c        0x00000000   Lc  Abs  File  De 
    469  ../am_hal_sysctrl.c        0x00000000   Lc  Abs  File  De 
    470  i.am_hal_sysctrl_fpu_enable
                                    0x0000da20   Lc    1  Sect  De 
    471  i.am_hal_sysctrl_fpu_stacking_enable
                                    0x0000da30   Lc    1  Sect  De 
    472  i.am_hal_sysctrl_sleep     0x0000da60   Lc    1  Sect  De 
    473  .data                      0x1000109c   Lc    2  Sect  De   0x8
    474  g_ui32BusWriteFlush        0x100010a0   Lc    2  Data  De   0x4
    475  ..\am_bsp.c                0x00000000   Lc  Abs  File  De 
    476  ../am_bsp.c                0x00000000   Lc  Abs  File  De 
    477  i.am_bsp_itm_printf_disable
                                    0x0000c6bc   Lc    1  Sect  De 
    478  i.am_bsp_itm_printf_enable 0x0000c6dc   Lc    1  Sect  De 
    479  i.am_bsp_low_power_init    0x0000c718   Lc    1  Sect  De 
    480  .bss                       0x1000589c   Lc    3  Sect  De   0x400
    481  pui8UartTxBuffer           0x1000589c   Lc    3  Data  De   0x400
    482  .bss                       0x10005c9c   Lc    3  Sect  De   0x400
    483  pui8UartRxBuffer           0x10005c9c   Lc    3  Data  De   0x400
    484  .data                      0x100010a4   Lc    2  Sect  De   0x58
    485  g_ui32PrintInterface       0x100010a4   Lc    2  Data  De   0x4
    486  g_sCOMUART                 0x100010a8   Lc    2  Data  De   0x4
    487  g_sBspUartBufferedConfig   0x100010d4   Lc    2  Data  De   0x28
    488  ..\am_bsp_pins.c           0x00000000   Lc  Abs  File  De 
    489  ../am_bsp_pins.c           0x00000000   Lc  Abs  File  De 
    490  .constdata                 0x00010b20   Lc    1  Sect  De   0x4
    491  .constdata                 0x00010b24   Lc    1  Sect  De   0x4
    492  .constdata                 0x00010b28   Lc    1  Sect  De   0x4
    493  .constdata                 0x00010b2c   Lc    1  Sect  De   0x4
    494  ..\am_hal_burst.c          0x00000000   Lc  Abs  File  De 
    495  ../am_hal_burst.c          0x00000000   Lc  Abs  File  De 
    496  i.am_hal_burst_mode_disable
                                    0x0000c8b0   Lc    1  Sect  De 
    497  i.am_hal_burst_mode_enable 0x0000c90c   Lc    1  Sect  De 
    498  .data                      0x100010fc   Lc    2  Sect  De   0x1
    499  ..\am_hal_debug.c          0x00000000   Lc  Abs  File  De 
    500  ../am_hal_debug.c          0x00000000   Lc  Abs  File  De 
    501  ..\am_hal_itm.c            0x00000000   Lc  Abs  File  De 
    502  ../am_hal_itm.c            0x00000000   Lc  Abs  File  De 
    503  i.am_hal_itm_disable       0x0000d4e0   Lc    1  Sect  De 
    504  i.am_hal_itm_enable        0x0000d58c   Lc    1  Sect  De 
    505  i.am_hal_itm_print         0x0000d5d4   Lc    1  Sect  De 
    506  ..\am_hal_reset.c          0x00000000   Lc  Abs  File  De 
    507  ../am_hal_reset.c          0x00000000   Lc  Abs  File  De 
    508  .data                      0x10001100   Lc    2  Sect  De   0x4
    509  ..\am_hal_rtc.c            0x00000000   Lc  Abs  File  De 
    510  ../am_hal_rtc.c            0x00000000   Lc  Abs  File  De 
    511  i.am_hal_rtc_osc_disable   0x0000d908   Lc    1  Sect  De 
    512  ..\am_hal_tpiu.c           0x00000000   Lc  Abs  File  De 
    513  ../am_hal_tpiu.c           0x00000000   Lc  Abs  File  De 
    514  i.am_hal_tpiu_enable       0x0000db58   Lc    1  Sect  De 
    515  ..\am_hal_uart.c           0x00000000   Lc  Abs  File  De 
    516  ../am_hal_uart.c           0x00000000   Lc  Abs  File  De 
    517  ..\am_hal_queue.c          0x00000000   Lc  Abs  File  De 
    518  ../am_hal_queue.c          0x00000000   Lc  Abs  File  De 
    519  dc.s                       0x00000000   Lc  Abs  File  De 
    520  ../clib/longlong.s         0x00000000   Lc  Abs  File  De 
    521  ../clib/memcpset.s         0x00000000   Lc  Abs  File  De 
    522  .text                      0x0000c304   Lc    1  Sect  De   0x8a
    523  ../clib/memcpset.s         0x00000000   Lc  Abs  File  De 
    524  .text                      0x0000c38e   Lc    1  Sect  De   0x10
    525  ../clib/heapaux.c          0x00000000   Lc  Abs  File  De 
    526  .text                      0x0000c39e   Lc    1  Sect  De 
    527  ../clib/angel/startup.s    0x00000000   Lc  Abs  File  De 
    528  !!!main                    0x0000c134   Lc    1  Sect  De   0x8
    529  ../fplib/d2f.s             0x00000000   Lc  Abs  File  De 
    530  x$fpl$d2f                  0x000104ec   Lc    1  Sect  De   0x62
    531  $v0                        0x000104ec   Lc    1   --   De 
    532  ../clib/angel/kernel.s     0x00000000   Lc  Abs  File  De 
    533  .ARM.Collect$$rtentry$$00000000
                                    0x0000c1b4   Lc    1  Sect  De 
    534  ../clib/memcpset.s         0x00000000   Lc  Abs  File  De 
    535  .text                      0x0000c3a4   Lc    1  Sect  De   0x64
    536  ../clib/memcpset.s         0x00000000   Lc  Abs  File  De 
    537  .text                      0x0000c408   Lc    1  Sect  De   0x44
    538  ../fplib/dnaninf.s         0x00000000   Lc  Abs  File  De 
    539  x$fpl$dnaninf              0x0001054e   Lc    1  Sect  De   0x9c
    540  $v0                        0x0001054e   Lc    1   --   De 
    541  ../fplib/fretinf.s         0x00000000   Lc  Abs  File  De 
    542  x$fpl$fretinf              0x000105f4   Lc    1  Sect  De   0xa
    543  $v0                        0x000105f4   Lc    1   --   De 
    544  ../fplib/usenofp.s         0x00000000   Lc  Abs  File  De 
    545  x$fpl$usenofp              0x000105fe   Lc    1  Sect  De 
    546  ../clib/angel/kernel.s     0x00000000   Lc  Abs  File  De 
    547  .ARM.Collect$$rtentry$$00000002
                                    0x0000c1b4   Lc    1  Sect  De 
    548  .ARM.Collect$$rtentry$$00000009
                                    0x0000c1ba   Lc    1  Sect  De 
    549  .ARM.Collect$$rtentry$$0000000A
                                    0x0000c1ba   Lc    1  Sect  De   0x4
    550  .ARM.Collect$$rtentry$$0000000C
                                    0x0000c1be   Lc    1  Sect  De 
    551  .ARM.Collect$$rtentry$$0000000D
                                    0x0000c1be   Lc    1  Sect  De   0x8
    552  ../clib/angel/kernel.s     0x00000000   Lc  Abs  File  De 
    553  .ARM.Collect$$rtentry$$00000004
                                    0x0000c1b4   Lc    1  Sect  De   0x6
    554  ../clib/memcpset.s         0x00000000   Lc  Abs  File  De 
    555  .text                      0x0000c44c   Lc    1  Sect  De   0x4e
    556  ../clib/angel/sys.s        0x00000000   Lc  Abs  File  De 
    557  .text                      0x0000c49a   Lc    1  Sect  De   0x4a
    558  ../clib/stdlib.c           0x00000000   Lc  Abs  File  De 
    559  .text                      0x0000c4e4   Lc    1  Sect  De 
    560  ../clib/angel/boardlib.s   0x00000000   Lc  Abs  File  De 
    561  ../clib/angel/boardlib.s   0x00000000   Lc  Abs  File  De 
    562  ../clib/angel/boardlib.s   0x00000000   Lc  Abs  File  De 
    563  ../clib/libinit.s          0x00000000   Lc  Abs  File  De 
    564  .ARM.Collect$$libinit$$00000000
                                    0x0000c1a8   Lc    1  Sect  De   0x2
    565  ../clib/angel/sys.s        0x00000000   Lc  Abs  File  De 
    566  .text                      0x0000c4f8   Lc    1  Sect  De   0x8
    567  .bss                       0x1000609c   Lc    3  Sect  De   0x60
    568  ../clib/angel/kernel.s     0x00000000   Lc  Abs  File  De 
    569  .ARM.Collect$$rtexit$$00000000
                                    0x0000c1c6   Lc    1  Sect  De   0x2
    570  ../clib/libinit.s          0x00000000   Lc  Abs  File  De 
    571  .ARM.Collect$$libinit$$00000001
                                    0x0000c1aa   Lc    1  Sect  De   0x4
    572  .ARM.Collect$$libinit$$00000004
                                    0x0000c1ae   Lc    1  Sect  De 
    573  .ARM.Collect$$libinit$$0000000A
                                    0x0000c1ae   Lc    1  Sect  De 
    574  .ARM.Collect$$libinit$$0000000C
                                    0x0000c1ae   Lc    1  Sect  De 
    575  .ARM.Collect$$libinit$$0000000E
                                    0x0000c1ae   Lc    1  Sect  De 
    576  .ARM.Collect$$libinit$$00000011
                                    0x0000c1ae   Lc    1  Sect  De 
    577  .ARM.Collect$$libinit$$00000013
                                    0x0000c1ae   Lc    1  Sect  De 
    578  .ARM.Collect$$libinit$$00000015
                                    0x0000c1ae   Lc    1  Sect  De 
    579  .ARM.Collect$$libinit$$00000017
                                    0x0000c1ae   Lc    1  Sect  De 
    580  .ARM.Collect$$libinit$$00000019
                                    0x0000c1ae   Lc    1  Sect  De 
    581  .ARM.Collect$$libinit$$0000001B
                                    0x0000c1ae   Lc    1  Sect  De 
    582  .ARM.Collect$$libinit$$0000001D
                                    0x0000c1ae   Lc    1  Sect  De 
    583  .ARM.Collect$$libinit$$0000001F
                                    0x0000c1ae   Lc    1  Sect  De 
    584  .ARM.Collect$$libinit$$00000021
                                    0x0000c1ae   Lc    1  Sect  De 
    585  .ARM.Collect$$libinit$$00000023
                                    0x0000c1ae   Lc    1  Sect  De 
    586  .ARM.Collect$$libinit$$00000025
                                    0x0000c1ae   Lc    1  Sect  De 
    587  .ARM.Collect$$libinit$$0000002C
                                    0x0000c1ae   Lc    1  Sect  De 
    588  .ARM.Collect$$libinit$$0000002E
                                    0x0000c1ae   Lc    1  Sect  De 
    589  .ARM.Collect$$libinit$$00000030
                                    0x0000c1ae   Lc    1  Sect  De 
    590  .ARM.Collect$$libinit$$00000032
                                    0x0000c1ae   Lc    1  Sect  De 
    591  .ARM.Collect$$libinit$$00000033
                                    0x0000c1ae   Lc    1  Sect  De   0x2
    592  ../clib/angel/kernel.s     0x00000000   Lc  Abs  File  De 
    593  .ARM.Collect$$rtexit$$00000002
                                    0x0000c1c8   Lc    1  Sect  De 
    594  .ARM.Collect$$rtexit$$00000003
                                    0x0000c1c8   Lc    1  Sect  De   0x4
    595  .ARM.Collect$$rtexit$$00000004
                                    0x0000c1cc   Lc    1  Sect  De   0x6
    596  ../clib/armsys.c           0x00000000   Lc  Abs  File  De 
    597  ../clib/armsys.c           0x00000000   Lc  Abs  File  De 
    598  ../fplib/fpinit.s          0x00000000   Lc  Abs  File  De 
    599  x$fpl$fpinit               0x000105ea   Lc    1  Sect  De   0xa
    600  $v0                        0x000105ea   Lc    1   --   De 
    601  ../clib/angel/sysapp.c     0x00000000   Lc  Abs  File  De 
    602  .text                      0x0000c500   Lc    1  Sect  De 
    603  ../clib/angel/boardlib.s   0x00000000   Lc  Abs  File  De 
    604  ../clib/armsys.c           0x00000000   Lc  Abs  File  De 
    605  ../clib/armsys.c           0x00000000   Lc  Abs  File  De 
    606  ../clib/libinit.s          0x00000000   Lc  Abs  File  De 
    607  .ARM.Collect$$libshutdown$$00000000
                                    0x0000c1b0   Lc    1  Sect  De   0x2
    608  ../clib/angel/sysapp.c     0x00000000   Lc  Abs  File  De 
    609  ../clib/angel/sys.s        0x00000000   Lc  Abs  File  De 
    610  .text                      0x0000c50c   Lc    1  Sect  De   0x2
    611  ../clib/angel/sys.s        0x00000000   Lc  Abs  File  De 
    612  .text                      0x0000c50e   Lc    1  Sect  De 
    613  ../clib/heapalloc.c        0x00000000   Lc  Abs  File  De 
    614  ../clib/signal.c           0x00000000   Lc  Abs  File  De 
    615  ../clib/signal.c           0x00000000   Lc  Abs  File  De 
    616  ../clib/libinit.s          0x00000000   Lc  Abs  File  De 
    617  .ARM.Collect$$libshutdown$$00000002
                                    0x0000c1b2   Lc    1  Sect  De 
    618  .ARM.Collect$$libshutdown$$00000004
                                    0x0000c1b2   Lc    1  Sect  De 
    619  .ARM.Collect$$libshutdown$$00000007
                                    0x0000c1b2   Lc    1  Sect  De 
    620  .ARM.Collect$$libshutdown$$0000000A
                                    0x0000c1b2   Lc    1  Sect  De 
    621  .ARM.Collect$$libshutdown$$0000000C
                                    0x0000c1b2   Lc    1  Sect  De 
    622  .ARM.Collect$$libshutdown$$0000000F
                                    0x0000c1b2   Lc    1  Sect  De 
    623  .ARM.Collect$$libshutdown$$00000010
                                    0x0000c1b2   Lc    1  Sect  De   0x2
    624  ../clib/angel/rt.s         0x00000000   Lc  Abs  File  De 
    625  ../clib/signal.c           0x00000000   Lc  Abs  File  De 
    626  ../clib/signal.c           0x00000000   Lc  Abs  File  De 
    627  ../clib/signal.c           0x00000000   Lc  Abs  File  De 
    628  ../clib/signal.c           0x00000000   Lc  Abs  File  De 
    629  ../clib/angel/sysapp.c     0x00000000   Lc  Abs  File  De 
    630  ../clib/signal.s           0x00000000   Lc  Abs  File  De 
    631  ../clib/signal.c           0x00000000   Lc  Abs  File  De 
    632  ../clib/signal.c           0x00000000   Lc  Abs  File  De 
    633  ../clib/signal.c           0x00000000   Lc  Abs  File  De 
    634  ../clib/signal.c           0x00000000   Lc  Abs  File  De 
    635  ../clib/signal.c           0x00000000   Lc  Abs  File  De 
    636  ../clib/signal.c           0x00000000   Lc  Abs  File  De 
    637  ../clib/signal.c           0x00000000   Lc  Abs  File  De 
    638  ../clib/signal.c           0x00000000   Lc  Abs  File  De 
    639  ../clib/angel/scatter.s    0x00000000   Lc  Abs  File  De 
    640  !!!scatter                 0x0000c13c   Lc    1  Sect  De   0x34
    641  ../clib/angel/handlers.s   0x00000000   Lc  Abs  File  De 
    642  !!handler_copy             0x0000c170   Lc    1  Sect  De   0x1a
    643  ../clib/angel/handlers.s   0x00000000   Lc  Abs  File  De 
    644  !!handler_zi               0x0000c18c   Lc    1  Sect  De   0x1c
    645  BuildAttributes$$THM_ISAv4$E$P$D$K$B$S$7EM$VFPi3$EXTD16$VFPS$VFMA$PE$A:L22UL41UL21$X:L11$S22US41US21$IEEE1$IW$USESV6$~STKCKD$USESV7$~SHL$OTIME$ROPI$EBA8$UX$STANDARDLIB$REQ8$PRES8$EABIv2
                                    0x00000000   Gb  Abs   --   Hi 
    646  __ARM_use_no_argv          0x00000000   Gb  Abs   --   Hi 
    647  __Vectors                  0x0000c000   Gb    1  Data  Hi 
    648  __Patchable                0x0000c0c8   Gb    1  Data  Hi 
    649  Reset_Handler              0x0000c101   Wk    1  Code  Hi   0x1c
    650  NMI_Handler                0x0000c11f   Wk    1  Code  Hi   0x2
    651  MemManage_Handler          0x0000c121   Wk    1  Code  Hi   0x2
    652  BusFault_Handler           0x0000c123   Wk    1  Code  Hi   0x2
    653  UsageFault_Handler         0x0000c125   Wk    1  Code  Hi   0x2
    654  DebugMon_Handler           0x0000c129   Wk    1  Code  Hi   0x2
    655  am_adc_isr                 0x0000c12f   Wk    1  Code  Hi 
    656  am_ble_isr                 0x0000c12f   Wk    1  Code  Hi 
    657  am_brownout_isr            0x0000c12f   Wk    1  Code  Hi 
    658  am_clkgen_isr              0x0000c12f   Wk    1  Code  Hi 
    659  am_iomaster0_isr           0x0000c12f   Wk    1  Code  Hi 
    660  am_iomaster1_isr           0x0000c12f   Wk    1  Code  Hi 
    661  am_iomaster2_isr           0x0000c12f   Wk    1  Code  Hi 
    662  am_iomaster3_isr           0x0000c12f   Wk    1  Code  Hi 
    663  am_iomaster4_isr           0x0000c12f   Wk    1  Code  Hi 
    664  am_iomaster5_isr           0x0000c12f   Wk    1  Code  Hi 
    665  am_ioslave_acc_isr         0x0000c12f   Wk    1  Code  Hi 
    666  am_ioslave_ios_isr         0x0000c12f   Wk    1  Code  Hi 
    667  am_mspi0_isr               0x0000c12f   Wk    1  Code  Hi 
    668  am_mspi1_isr               0x0000c12f   Wk    1  Code  Hi 
    669  am_mspi2_isr               0x0000c12f   Wk    1  Code  Hi 
    670  am_pdm0_isr                0x0000c12f   Wk    1  Code  Hi 
    671  am_rtc_isr                 0x0000c12f   Wk    1  Code  Hi 
    672  am_scard_isr               0x0000c12f   Wk    1  Code  Hi 
    673  am_software0_isr           0x0000c12f   Wk    1  Code  Hi 
    674  am_stimer_cmpr2_isr        0x0000c12f   Wk    1  Code  Hi 
    675  am_stimer_cmpr3_isr        0x0000c12f   Wk    1  Code  Hi 
    676  am_stimer_cmpr4_isr        0x0000c12f   Wk    1  Code  Hi 
    677  am_stimer_cmpr5_isr        0x0000c12f   Wk    1  Code  Hi 
    678  am_stimer_cmpr6_isr        0x0000c12f   Wk    1  Code  Hi 
    679  am_stimer_cmpr7_isr        0x0000c12f   Wk    1  Code  Hi 
    680  am_stimer_isr              0x0000c12f   Wk    1  Code  Hi 
    681  am_uart0_isr               0x0000c12f   Wk    1  Code  Hi 
    682  am_uart1_isr               0x0000c12f   Wk    1  Code  Hi 
    683  am_uart_isr                0x0000c12f   Wk    1  Code  Hi 
    684  am_vcomp_isr               0x0000c12f   Wk    1  Code  Hi 
    685  am_watchdog_isr            0x0000c12f   Wk    1  Code  Hi 
    686  __main                     0x0000c135   Gb    1  Code  Hi   0x8
    687  __scatterload              0x0000c13d   Gb    1  Code  Hi 
    688  __scatterload_rt2          0x0000c13d   Gb    1  Code  Hi   0x2c
    689  __scatterload_rt2_thumb_only
                                    0x0000c13d   Gb    1  Code  Hi 
    690  __scatterload_null         0x0000c14b   Gb    1  Code  Hi 
    691  __scatterload_copy         0x0000c171   Gb    1  Code  Hi   0x1a
    692  __scatterload_zeroinit     0x0000c18d   Gb    1  Code  Hi   0x1c
    693  __rt_lib_init              0x0000c1a9   Gb    1  Code  De 
    694  __rt_lib_init_fp_1         0x0000c1ab   Gb    1  Code  Hi 
    695  __rt_lib_init_alloca_1     0x0000c1af   Gb    1  Code  Hi 
    696  __rt_lib_init_argv_1       0x0000c1af   Gb    1  Code  Hi 
    697  __rt_lib_init_atexit_1     0x0000c1af   Gb    1  Code  Hi 
    698  __rt_lib_init_clock_1      0x0000c1af   Gb    1  Code  Hi 
    699  __rt_lib_init_cpp_1        0x0000c1af   Gb    1  Code  Hi 
    700  __rt_lib_init_exceptions_1 0x0000c1af   Gb    1  Code  Hi 
    701  __rt_lib_init_fp_trap_1    0x0000c1af   Gb    1  Code  Hi 
    702  __rt_lib_init_getenv_1     0x0000c1af   Gb    1  Code  Hi 
    703  __rt_lib_init_heap_1       0x0000c1af   Gb    1  Code  Hi 
    704  __rt_lib_init_lc_collate_1 0x0000c1af   Gb    1  Code  Hi 
    705  __rt_lib_init_lc_ctype_1   0x0000c1af   Gb    1  Code  Hi 
    706  __rt_lib_init_lc_monetary_1
                                    0x0000c1af   Gb    1  Code  Hi 
    707  __rt_lib_init_lc_numeric_1 0x0000c1af   Gb    1  Code  Hi 
    708  __rt_lib_init_lc_time_1    0x0000c1af   Gb    1  Code  Hi 
    709  __rt_lib_init_preinit_1    0x0000c1af   Gb    1  Code  Hi 
    710  __rt_lib_init_rand_1       0x0000c1af   Gb    1  Code  Hi 
    711  __rt_lib_init_return       0x0000c1af   Gb    1  Code  Hi 
    712  __rt_lib_init_signal_1     0x0000c1af   Gb    1  Code  Hi 
    713  __rt_lib_init_stdio_1      0x0000c1af   Gb    1  Code  Hi 
    714  __rt_lib_init_user_alloc_1 0x0000c1af   Gb    1  Code  Hi 
    715  __rt_lib_shutdown          0x0000c1b1   Gb    1  Code  De 
    716  __rt_lib_shutdown_cpp_1    0x0000c1b3   Gb    1  Code  Hi 
    717  __rt_lib_shutdown_fp_trap_1
                                    0x0000c1b3   Gb    1  Code  Hi 
    718  __rt_lib_shutdown_heap_1   0x0000c1b3   Gb    1  Code  Hi 
    719  __rt_lib_shutdown_return   0x0000c1b3   Gb    1  Code  Hi 
    720  __rt_lib_shutdown_signal_1 0x0000c1b3   Gb    1  Code  Hi 
    721  __rt_lib_shutdown_stdio_1  0x0000c1b3   Gb    1  Code  Hi 
    722  __rt_lib_shutdown_user_alloc_1
                                    0x0000c1b3   Gb    1  Code  Hi 
    723  __rt_entry                 0x0000c1b5   Gb    1  Code  Hi 
    724  __rt_entry_presh_1         0x0000c1b5   Gb    1  Code  Hi 
    725  __rt_entry_sh              0x0000c1b5   Gb    1  Code  Hi 
    726  __rt_entry_li              0x0000c1bb   Gb    1  Code  Hi 
    727  __rt_entry_postsh_1        0x0000c1bb   Gb    1  Code  Hi 
    728  __rt_entry_main            0x0000c1bf   Gb    1  Code  Hi 
    729  __rt_entry_postli_1        0x0000c1bf   Gb    1  Code  Hi 
    730  __rt_exit                  0x0000c1c7   Gb    1  Code  De 
    731  __rt_exit_ls               0x0000c1c9   Gb    1  Code  Hi 
    732  __rt_exit_prels_1          0x0000c1c9   Gb    1  Code  Hi 
    733  __rt_exit_exit             0x0000c1cd   Gb    1  Code  Hi 
    734  SVC_Handler                0x0000c1d5   Gb    1  Code  Hi   0x1c
    735  __asm___6_port_c_39a90d8d__prvStartFirstTask
                                    0x0000c1f5   Gb    1  Code  Hi   0x24
    736  __asm___6_port_c_39a90d8d__prvEnableVFP
                                    0x0000c21d   Gb    1  Code  Hi   0x10
    737  PendSV_Handler             0x0000c231   Gb    1  Code  Hi   0x58
    738  vPortGetIPSR               0x0000c28d   Gb    1  Code  Hi   0x6
    739  HardFault_Handler          0x0000c295   Gb    1  Code  Hi   0x1a
    740  getStackedReg              0x0000c2af   Gb    1  Code  Hi   0x8
    741  am_hal_triple_read         0x0000c2b9   Gb    1  Code  Hi   0x1c
    742  am_hal_interrupt_master_enable
                                    0x0000c2d5   Gb    1  Code  Hi   0x8
    743  am_hal_interrupt_master_disable
                                    0x0000c2dd   Gb    1  Code  Hi   0x8
    744  am_hal_interrupt_master_set
                                    0x0000c2e5   Gb    1  Code  Hi   0x6
    745  __user_initial_stackheap   0x0000c2ed   Gb    1  Code  Hi   0xa
    746  __aeabi_memcpy             0x0000c305   Gb    1  Code  Hi 
    747  __rt_memcpy                0x0000c305   Gb    1  Code  De   0x8a
    748  _memcpy_lastbytes          0x0000c36b   Gb    1  Code  De 
    749  __aeabi_memset             0x0000c38f   Gb    1  Code  Hi   0x10
    750  __use_two_region_memory    0x0000c39f   Gb    1  Code  Hi   0x2
    751  __rt_heap_escrow$2region   0x0000c3a1   Gb    1  Code  De   0x2
    752  __rt_heap_expand$2region   0x0000c3a3   Gb    1  Code  De   0x2
    753  __aeabi_memcpy4            0x0000c3a5   Gb    1  Code  De 
    754  __aeabi_memcpy8            0x0000c3a5   Gb    1  Code  De 
    755  __rt_memcpy_w              0x0000c3a5   Gb    1  Code  De   0x64
    756  _memcpy_lastbytes_aligned  0x0000c3ed   Gb    1  Code  De 
    757  __aeabi_memclr             0x0000c409   Gb    1  Code  De 
    758  __rt_memclr                0x0000c409   Gb    1  Code  De   0x44
    759  _memset                    0x0000c40d   Gb    1  Code  De 
    760  __aeabi_memclr4            0x0000c44d   Gb    1  Code  De 
    761  __aeabi_memclr8            0x0000c44d   Gb    1  Code  De 
    762  __rt_memclr_w              0x0000c44d   Gb    1  Code  De   0x4e
    763  _memset_w                  0x0000c451   Gb    1  Code  De 
    764  __user_setup_stackheap     0x0000c49b   Gb    1  Code  De   0x4a
    765  exit                       0x0000c4e5   Gb    1  Code  De   0x12
    766  __user_libspace            0x0000c4f9   Wk    1  Code  De   0x8
    767  __user_perproc_libspace    0x0000c4f9   Wk    1  Code  De 
    768  __user_perthread_libspace  0x0000c4f9   Wk    1  Code  De 
    769  _sys_exit                  0x0000c501   Gb    1  Code  De   0x8
    770  __I$use$semihosting        0x0000c50d   Gb    1  Code  Hi 
    771  __use_no_semihosting_swi   0x0000c50d   Gb    1  Code  Hi   0x2
    772  __semihosting_library_function
                                    0x0000c50f   Gb    1  Code  Hi 
    773  LedTask                    0x0000c511   Gb    1  Code  Hi   0x46
    774  LedTaskSetup               0x0000c561   Gb    1  Code  Hi   0xf8
    775  SysTick_Handler            0x0000c691   Gb    1  Code  Hi   0x26
    776  am_bsp_itm_printf_disable  0x0000c6bd   Gb    1  Code  Hi   0x1a
    777  am_bsp_itm_printf_enable   0x0000c6dd   Gb    1  Code  Hi   0x2c
    778  am_bsp_low_power_init      0x0000c719   Gb    1  Code  Hi   0x3a
    779  am_ctimer_isr              0x0000c75d   Gb    1  Code  Hi   0x18
    780  am_devices_led_array_init  0x0000c775   Gb    1  Code  Hi   0x80
    781  am_devices_led_off         0x0000c7fd   Gb    1  Code  Hi   0x2e
    782  am_devices_led_toggle      0x0000c82b   Gb    1  Code  Hi   0x52
    783  am_freertos_sleep          0x0000c87d   Gb    1  Code  Hi   0xc
    784  am_freertos_wakeup         0x0000c889   Gb    1  Code  Hi   0x2
    785  am_gpio_isr                0x0000c88b   Gb    1  Code  Hi   0x24
    786  am_hal_burst_mode_disable  0x0000c8b1   Gb    1  Code  Hi   0x54
    787  am_hal_burst_mode_enable   0x0000c90d   Gb    1  Code  Hi   0x58
    788  am_hal_cachectrl_config    0x0000c96d   Gb    1  Code  Hi   0x46
    789  am_hal_cachectrl_control   0x0000c9b9   Gb    1  Code  Hi   0x3a4
    790  am_hal_cachectrl_enable    0x0000cd65   Gb    1  Code  Hi   0xe
    791  am_hal_clkgen_control      0x0000cd79   Gb    1  Code  Hi   0xec
    792  am_hal_clkgen_status_get   0x0000ce75   Gb    1  Code  Hi   0x2c
    793  am_hal_ctimer_int_clear    0x0000cea9   Gb    1  Code  Hi   0x1a
    794  am_hal_ctimer_int_service  0x0000cec9   Gb    1  Code  Hi   0x2e
    795  am_hal_ctimer_int_status_get
                                    0x0000cefd   Gb    1  Code  Hi   0x2c
    796  am_hal_flash_delay         0x0000cf2d   Gb    1  Code  Hi   0x1e
    797  am_hal_flash_delay_status_check
                                    0x0000cf51   Gb    1  Code  Hi   0x56
    798  am_hal_flash_load_ui32     0x0000cfad   Gb    1  Code  Hi   0x4
    799  am_hal_flash_store_ui32    0x0000cfb5   Gb    1  Code  Hi   0x24
    800  am_hal_gpio_interrupt_clear
                                    0x0000cfdd   Gb    1  Code  Hi   0x4c
    801  am_hal_gpio_interrupt_enable
                                    0x0000d02d   Gb    1  Code  Hi   0x44
    802  am_hal_gpio_interrupt_register
                                    0x0000d075   Gb    1  Code  Hi   0x1a
    803  am_hal_gpio_interrupt_service
                                    0x0000d095   Gb    1  Code  Hi   0x7c
    804  am_hal_gpio_interrupt_status_get
                                    0x0000d115   Gb    1  Code  Hi   0x6c
    805  am_hal_gpio_pinconfig      0x0000d185   Gb    1  Code  Hi   0x24a
    806  am_hal_gpio_state_read     0x0000d405   Gb    1  Code  Hi   0x5a
    807  am_hal_gpio_state_write    0x0000d45f   Gb    1  Code  Hi   0x80
    808  am_hal_itm_disable         0x0000d4e1   Gb    1  Code  Hi   0x88
    809  am_hal_itm_enable          0x0000d58d   Gb    1  Code  Hi   0x2c
    810  am_hal_itm_print           0x0000d5d5   Gb    1  Code  Hi   0x30
    811  am_hal_mcuctrl_info_get    0x0000d605   Gb    1  Code  Hi   0x116
    812  am_hal_pwrctrl_low_power_init
                                    0x0000d73d   Gb    1  Code  Hi   0x148
    813  am_hal_pwrctrl_memory_enable
                                    0x0000d89d   Gb    1  Code  Hi   0x62
    814  am_hal_rtc_osc_disable     0x0000d909   Gb    1  Code  Hi   0x12
    815  am_hal_stimer_compare_delta_set
                                    0x0000d91d   Gb    1  Code  Hi   0x90
    816  am_hal_stimer_config       0x0000d9b5   Gb    1  Code  Hi   0xe
    817  am_hal_stimer_counter_get  0x0000d9c9   Gb    1  Code  Hi   0x1c
    818  am_hal_stimer_int_clear    0x0000d9e9   Gb    1  Code  Hi   0x8
    819  am_hal_stimer_int_enable   0x0000d9f5   Gb    1  Code  Hi   0xe
    820  am_hal_stimer_int_status_get
                                    0x0000da09   Gb    1  Code  Hi   0x12
    821  am_hal_sysctrl_fpu_enable  0x0000da21   Gb    1  Code  Hi   0xa
    822  am_hal_sysctrl_fpu_stacking_enable
                                    0x0000da31   Gb    1  Code  Hi   0x2c
    823  am_hal_sysctrl_sleep       0x0000da61   Gb    1  Code  Hi   0xdc
    824  am_hal_tpiu_enable         0x0000db59   Gb    1  Code  Hi   0x7a
    825  am_stimer_cmpr0_isr        0x0000dbe9   Gb    1  Code  Hi   0x20
    826  am_stimer_cmpr1_isr        0x0000dc09   Gb    1  Code  Hi   0x28
    827  am_util_delay_ms           0x0000dc35   Gb    1  Code  Hi   0x20
    828  am_util_faultisr_collect_data
                                    0x0000dc55   Gb    1  Code  Hi   0x1a8
    829  am_util_stdio_printf       0x0000e10d   Gb    1  Code  Hi   0x2c
    830  am_util_stdio_printf_init  0x0000e141   Gb    1  Code  Hi   0x6
    831  am_util_stdio_vsprintf     0x0000e14d   Gb    1  Code  Hi   0x734
    832  button0_handler            0x0000e88d   Gb    1  Code  Hi   0x58
    833  button1_handler            0x0000e8f1   Gb    1  Code  Hi   0x58
    834  button2_handler            0x0000e955   Gb    1  Code  Hi   0x58
    835  disable_print_interface    0x0000e9b9   Gb    1  Code  Hi   0x4
    836  eTaskConfirmSleepModeStatus
                                    0x0000e9bd   Gb    1  Code  Hi   0x24
    837  main                       0x0000e9ed   Gb    1  Code  Hi   0x3c
    838  pvPortMalloc               0x0000efc5   Gb    1  Code  Hi   0xc2
    839  pxPortInitialiseStack      0x0000f095   Gb    1  Code  Hi   0x26
    840  run_tasks                  0x0000f0c1   Gb    1  Code  Hi   0x22
    841  setup_task                 0x0000f0f5   Gb    1  Code  Hi   0x2e
    842  uxListRemove               0x0000f277   Gb    1  Code  Hi   0x26
    843  uxTaskResetEventItemValue  0x0000f29d   Gb    1  Code  Hi   0x14
    844  vApplicationMallocFailedHook
                                    0x0000f2b5   Gb    1  Code  Hi   0x2
    845  vApplicationStackOverflowHook
                                    0x0000f2b7   Gb    1  Code  Hi   0x4
    846  vEventGroupSetBitsCallback 0x0000f2bd   Gb    1  Code  Hi   0x76
    847  vListInitialise            0x0000f333   Gb    1  Code  Hi   0x16
    848  vListInitialiseItem        0x0000f349   Gb    1  Code  Hi   0x6
    849  vListInsert                0x0000f351   Gb    1  Code  Hi   0x3a
    850  vListInsertEnd             0x0000f38b   Gb    1  Code  Hi   0x18
    851  vPortEnterCritical         0x0000f3a5   Gb    1  Code  Hi   0x2a
    852  vPortExitCritical          0x0000f3d9   Gb    1  Code  Hi   0x18
    853  vPortFree                  0x0000f3f5   Gb    1  Code  Hi   0x36
    854  vPortSetupTimerInterrupt   0x0000f435   Gb    1  Code  Hi   0x76
    855  vPortSuppressTicksAndSleep 0x0000f4b9   Gb    1  Code  Hi   0xa6
    856  vPortValidateInterruptPriority
                                    0x0000f565   Gb    1  Code  Hi   0x2e
    857  vQueueWaitForMessageRestricted
                                    0x0000f59d   Gb    1  Code  Hi   0x4a
    858  vTaskInternalSetTimeOutState
                                    0x0000f5e9   Gb    1  Code  Hi   0xc
    859  vTaskMissedYield           0x0000f5f9   Gb    1  Code  Hi   0x8
    860  vTaskPlaceOnEventList      0x0000f605   Gb    1  Code  Hi   0x20
    861  vTaskPlaceOnEventListRestricted
                                    0x0000f629   Gb    1  Code  Hi   0x28
    862  vTaskPlaceOnUnorderedEventList
                                    0x0000f655   Gb    1  Code  Hi   0x32
    863  vTaskRemoveFromUnorderedEventList
                                    0x0000f68d   Gb    1  Code  Hi   0x4c
    864  vTaskStartScheduler        0x0000f6e1   Gb    1  Code  Hi   0x58
    865  vTaskStepTick              0x0000f74d   Gb    1  Code  Hi   0x16
    866  vTaskSuspend               0x0000f769   Gb    1  Code  Hi   0x114
    867  vTaskSuspendAll            0x0000f88d   Gb    1  Code  Hi   0xa
    868  vTaskSwitchContext         0x0000f89d   Gb    1  Code  Hi   0x86
    869  xEventGroupCreate          0x0000f92d   Gb    1  Code  Hi   0x1a
    870  xEventGroupWaitBits        0x0000f949   Gb    1  Code  Hi   0xd8
    871  xPortStartScheduler        0x0000fa25   Gb    1  Code  Hi   0xb2
    872  xPortStimerTickHandler     0x0000faf5   Gb    1  Code  Hi   0x72
    873  xQueueGenericCreate        0x0000fb71   Gb    1  Code  Hi   0x74
    874  xQueueGenericSend          0x0000fbe5   Gb    1  Code  Hi   0x17c
    875  xQueueGenericSendFromISR   0x0000fd65   Gb    1  Code  Hi   0xde
    876  xQueueReceive              0x0000fe45   Gb    1  Code  Hi   0x12a
    877  xTaskCheckForTimeOut       0x0000ff75   Gb    1  Code  Hi   0x60
    878  xTaskCreate                0x0000ffd9   Gb    1  Code  Hi   0x15e
    879  xTaskGetSchedulerState     0x00010155   Gb    1  Code  Hi   0x18
    880  xTaskGetTickCount          0x00010171   Gb    1  Code  Hi   0x6
    881  xTaskIncrementTick         0x0001017d   Gb    1  Code  Hi   0xc0
    882  xTaskRemoveFromEventList   0x00010245   Gb    1  Code  Hi   0x74
    883  xTaskResumeAll             0x000102c5   Gb    1  Code  Hi   0x17e
    884  xTimerCreateTimerTask      0x00010451   Gb    1  Code  Hi   0x56
    885  xTimerPendFunctionCallFromISR
                                    0x000104c5   Gb    1  Code  Hi   0x24
    886  __aeabi_d2f                0x000104ed   Gb    1  Code  Hi 
    887  _d2f                       0x000104ed   Gb    1  Code  De   0x62
    888  __fpl_dnaninf              0x0001054f   Gb    1  Code  De   0x9c
    889  _fp_init                   0x000105eb   Gb    1  Code  De   0xa
    890  __fplib_config_fpu_vfp     0x000105f3   Gb    1  Code  De 
    891  __fplib_config_pureend_doubles
                                    0x000105f3   Gb    1  Code  De 
    892  __fpl_fretinf              0x000105f5   Gb    1  Code  De   0xa
    893  __I$use$fp                 0x000105fe   Gb    1   --   De 
    894  am_hal_cachectrl_defaults  0x000105fe   Gb    1  Data  Hi   0x3
    895  g_AM_HAL_GPIO_DISABLE      0x00010610   Gb    1  Data  Hi   0x4
    896  g_AM_HAL_GPIO_TRISTATE     0x0001081c   Gb    1  Data  Hi   0x4
    897  g_AM_HAL_GPIO_OUTPUT       0x00010820   Gb    1  Data  Hi   0x4
    898  g_am_hal_mcuctrl_flash_size
                                    0x00010824   Gb    1  Data  Hi   0x40
    899  g_am_hal_mcuctrl_sram_size 0x00010864   Gb    1  Data  Hi   0x40
    900  am_hal_pwrctrl_peripheral_control
                                    0x000108a4   Gb    1  Data  Hi   0xcc
    901  am_hal_pwrctrl_memory_control
                                    0x00010970   Gb    1  Data  Hi   0x1b0
    902  g_AM_BSP_GPIO_BUTTON0      0x00010b20   Gb    1  Data  Hi   0x4
    903  g_AM_BSP_GPIO_BUTTON1      0x00010b24   Gb    1  Data  Hi   0x4
    904  g_AM_BSP_GPIO_BUTTON2      0x00010b28   Gb    1  Data  Hi   0x4
    905  g_AM_BSP_GPIO_ITM_SWO      0x00010b2c   Gb    1  Data  Hi   0x4
    906  Region$$Table$$Base        0x00010b30   Gb    1   --   Hi 
    907  Region$$Table$$Limit       0x00010b60   Gb    1   --   Hi 
    908  led_task_handle            0x10001000   Gb    2  Data  Hi   0x4
    909  xLedEventHandle            0x10001004   Gb    2  Data  Hi   0x4
    910  xSetupTask                 0x10001008   Gb    2  Data  Hi   0x4
    911  ulTimerCountsForOneTick    0x1000101c   Gb    2  Data  Hi   0x4
    912  gNumCmpB                   0x10001024   Gb    2  Data  Hi   0x4
    913  g_pfnCharPrint             0x1000102c   Gb    2  Data  Hi   0x4
    914  pxCurrentTCB               0x10001048   Gb    2  Data  Hi   0x4
    915  g_ui32HALflags             0x10001094   Gb    2  Data  Hi   0x4
    916  g_bSimobuckTrimsDone       0x10001098   Gb    2  Data  Hi   0x1
    917  g_am_hal_sysctrl_sleep_count
                                    0x1000109c   Gb    2  Data  Hi   0x4
    918  am_bsp_psLEDs              0x100010ac   Gb    2  Data  Hi   0x28
    919  g_am_hal_burst_mode_available
                                    0x100010fc   Gb    2  Data  Hi   0x1
    920  gAmHalResetStatus          0x10001100   Gb    2  Data  Hi   0x4
    921  __libspace_start           0x1000609c   Gb    3  Data  De   0x60
    922  __temporary_stack_top$libspace
                                    0x100060fc   Gb    3  Data  De 


** Section #13 '.strtab' (SHT_STRTAB)
    Size   : 13484 bytes

            #  Offset String
        ====================================

            1      1: $d
            2      4: $t
            3      7: $d.realdata
            4     19: ..\src\freertos_lowpower.c
            5     46: ../src/freertos_lowpower.c
            6     73: i.disable_print_interface
            7     99: i.main
            8    106: ..\src\led_task.c
            9    124: ../src/led_task.c
           10    142: i.LedTask
           11    152: i.LedTaskSetup
           12    167: i.am_gpio_isr
           13    181: i.button0_handler
           14    199: i.button1_handler
           15    217: i.button2_handler
           16    235: .data
           17    241: ..\src\rtos.c
           18    255: ../src/rtos.c
           19    269: i.am_ctimer_isr
           20    285: i.am_freertos_sleep
           21    305: i.am_freertos_wakeup
           22    326: i.run_tasks
           23    338: i.setup_task
           24    351: i.vApplicationMallocFailedHook
           25    382: i.vApplicationStackOverflowHook
           26    414: ..\..\..\..\..\third_party\FreeRTOSv10.1.1\Source\portable\Keil\AMapollo2\port.c
           27    495: .emb_text
           28    505: $v0
           29    509: ../../../../../third_party/FreeRTOSv10.1.1/Source/portable/Keil/AMapollo2/port.c
           30    590: i.SysTick_Handler
           31    608: i.am_stimer_cmpr0_isr
           32    630: i.am_stimer_cmpr1_isr
           33    652: i.prvTaskExitError
           34    671: prvTaskExitError
           35    688: i.pxPortInitialiseStack
           36    712: i.vPortEnterCritical
           37    733: i.vPortExitCritical
           38    753: i.vPortSetupTimerInterrupt
           39    780: i.vPortSuppressTicksAndSleep
           40    809: i.vPortValidateInterruptPriority
           41    842: i.xPortStartScheduler
           42    864: i.xPortStimerTickHandler
           43    889: ucMaxSysCallPriority
           44    910: g_lastSTimerVal
           45    926: uxCriticalNesting
           46    944: ulMaxPRIGROUPValue
           47    963: xMaximumPossibleSuppressedTicks
           48    995: ..\..\..\..\..\devices\am_devices_button.c
           49   1038: ../../../../../devices/am_devices_button.c
           50   1081: ..\..\..\..\..\devices\am_devices_led.c
           51   1121: ../../../../../devices/am_devices_led.c
           52   1161: i.am_devices_led_array_init
           53   1189: i.am_devices_led_off
           54   1210: i.am_devices_led_toggle
           55   1234: ../../../../../utils/am_util_debug.c
           56   1271: ..\..\..\..\..\utils\am_util_delay.c
           57   1308: ../../../../../utils/am_util_delay.c
           58   1345: i.am_util_delay_ms
           59   1364: ..\..\..\..\..\utils\am_util_faultisr.c
           60   1404: ../../../../../utils/am_util_faultisr.c
           61   1444: i.am_util_faultisr_collect_data
           62   1476: ../../../../../utils/am_util_stdio.c
           63   1513: i.am_util_stdio_printf
           64   1536: i.am_util_stdio_printf_init
           65   1564: i.am_util_stdio_vsprintf
           66   1589: i.ndigits_in_u64
           67   1606: ndigits_in_u64
           68   1621: i.uint64_to_str
           69   1637: uint64_to_str
           70   1651: .bss
           71   1656: g_prfbuf
           72   1665: g_bTxtXlate
           73   1677: ../../../../../third_party/FreeRTOSv10.1.1/Source/portable/MemMang/heap_2.c
           74   1753: i.pvPortMalloc
           75   1768: i.vPortFree
           76   1780: ucHeap
           77   1787: xFreeBytesRemaining
           78   1807: xHeapHasBeenInitialised
           79   1831: xStart
           80   1838: xEnd
           81   1843: ../../../../../third_party/FreeRTOSv10.1.1/Source/event_groups.c
           82   1908: i.vEventGroupSetBitsCallback
           83   1937: i.xEventGroupCreate
           84   1957: i.xEventGroupWaitBits
           85   1979: ../../../../../third_party/FreeRTOSv10.1.1/Source/list.c
           86   2036: i.uxListRemove
           87   2051: i.vListInitialise
           88   2069: i.vListInitialiseItem
           89   2091: i.vListInsert
           90   2105: i.vListInsertEnd
           91   2122: ../../../../../third_party/FreeRTOSv10.1.1/Source/queue.c
           92   2180: i.prvUnlockQueue
           93   2197: prvUnlockQueue
           94   2212: i.vQueueWaitForMessageRestricted
           95   2245: i.xQueueGenericCreate
           96   2267: i.xQueueGenericSend
           97   2287: i.xQueueGenericSendFromISR
           98   2314: i.xQueueReceive
           99   2330: ../../../../../third_party/FreeRTOSv10.1.1/Source/tasks.c
          100   2388: i.eTaskConfirmSleepModeStatus
          101   2418: i.prvAddCurrentTaskToDelayedList
          102   2451: prvAddCurrentTaskToDelayedList
          103   2482: i.prvIdleTask
          104   2496: prvIdleTask
          105   2508: i.uxTaskResetEventItemValue
          106   2536: i.vTaskInternalSetTimeOutState
          107   2567: i.vTaskMissedYield
          108   2586: i.vTaskPlaceOnEventList
          109   2610: i.vTaskPlaceOnEventListRestricted
          110   2644: i.vTaskPlaceOnUnorderedEventList
          111   2677: i.vTaskRemoveFromUnorderedEventList
          112   2713: i.vTaskStartScheduler
          113   2735: i.vTaskStepTick
          114   2751: i.vTaskSuspend
          115   2766: i.vTaskSuspendAll
          116   2784: i.vTaskSwitchContext
          117   2805: i.xTaskCheckForTimeOut
          118   2828: i.xTaskCreate
          119   2842: i.xTaskGetSchedulerState
          120   2867: i.xTaskGetTickCount
          121   2887: i.xTaskIncrementTick
          122   2908: i.xTaskRemoveFromEventList
          123   2935: i.xTaskResumeAll
          124   2952: pxReadyTasksLists
          125   2970: xDelayedTaskList1
          126   2988: xDelayedTaskList2
          127   3006: xPendingReadyList
          128   3024: xSuspendedTaskList
          129   3043: uxCurrentNumberOfTasks
          130   3066: xTickCount
          131   3077: uxTopReadyPriority
          132   3096: xSchedulerRunning
          133   3114: uxPendedTicks
          134   3128: xYieldPending
          135   3142: xNumOfOverflows
          136   3158: uxTaskNumber
          137   3171: xNextTaskUnblockTime
          138   3192: xIdleTaskHandle
          139   3208: uxSchedulerSuspended
          140   3229: pxDelayedTaskList
          141   3247: pxOverflowDelayedTaskList
          142   3273: ../../../../../third_party/FreeRTOSv10.1.1/Source/timers.c
          143   3332: i.prvSampleTimeNow
          144   3351: prvSampleTimeNow
          145   3368: i.prvTimerTask
          146   3383: prvTimerTask
          147   3396: i.xTimerCreateTimerTask
          148   3420: i.xTimerPendFunctionCallFromISR
          149   3452: xActiveTimerList1
          150   3470: xActiveTimerList2
          151   3488: xTimerQueue
          152   3500: xTimerTaskHandle
          153   3517: xLastTime
          154   3527: pxCurrentTimerList
          155   3546: pxOverflowTimerList
          156   3566: ../keil/startup_keil.s
          157   3589: STACK
          158   3595: StackMem
          159   3604: HEAP
          160   3609: HeapMem
          161   3617: RESET
          162   3623: .text
          163   3629: ..\am_hal_global.c
          164   3648: ../am_hal_global.c
          165   3667: ..\am_hal_cachectrl.c
          166   3689: ../am_hal_cachectrl.c
          167   3711: i.am_hal_cachectrl_config
          168   3737: i.am_hal_cachectrl_control
          169   3764: i.am_hal_cachectrl_enable
          170   3790: .constdata
          171   3801: ..\am_hal_clkgen.c
          172   3820: ../am_hal_clkgen.c
          173   3839: i.am_hal_clkgen_control
          174   3863: i.am_hal_clkgen_status_get
          175   3890: ..\am_hal_ctimer.c
          176   3909: ../am_hal_ctimer.c
          177   3928: i.am_hal_ctimer_int_clear
          178   3954: i.am_hal_ctimer_int_service
          179   3982: i.am_hal_ctimer_int_status_get
          180   4013: g_am_hal_ctimer_ppfnHandlers
          181   4042: ..\am_hal_flash.c
          182   4060: ../am_hal_flash.c
          183   4078: i.am_hal_flash_delay
          184   4099: i.am_hal_flash_delay_status_check
          185   4133: i.am_hal_flash_load_ui32
          186   4158: i.am_hal_flash_store_ui32
          187   4184: ..\am_hal_gpio.c
          188   4201: ../am_hal_gpio.c
          189   4218: i.am_hal_gpio_interrupt_clear
          190   4248: i.am_hal_gpio_interrupt_enable
          191   4279: i.am_hal_gpio_interrupt_register
          192   4312: i.am_hal_gpio_interrupt_service
          193   4344: i.am_hal_gpio_interrupt_status_get
          194   4379: i.am_hal_gpio_pinconfig
          195   4403: i.am_hal_gpio_state_read
          196   4428: i.am_hal_gpio_state_write
          197   4454: gpio_ppfnHandlers
          198   4472: gpio_pHandlerCtxt
          199   4490: g_ui8Inpen
          200   4501: g_ui8Bit76Capabilities
          201   4524: g_ui8nCEpins
          202   4537: g_ui8NCEtable
          203   4551: ..\am_hal_interrupt.c
          204   4573: ../am_hal_interrupt.c
          205   4595: ..\am_hal_mcuctrl.c
          206   4615: ../am_hal_mcuctrl.c
          207   4635: i.am_hal_mcuctrl_info_get
          208   4661: ..\am_hal_pwrctrl.c
          209   4681: ../am_hal_pwrctrl.c
          210   4701: i.am_hal_pwrctrl_low_power_init
          211   4733: i.am_hal_pwrctrl_memory_enable
          212   4764: ..\am_hal_stimer.c
          213   4783: ../am_hal_stimer.c
          214   4802: i.am_hal_stimer_compare_delta_set
          215   4836: i.am_hal_stimer_config
          216   4859: i.am_hal_stimer_counter_get
          217   4887: i.am_hal_stimer_int_clear
          218   4913: i.am_hal_stimer_int_enable
          219   4940: i.am_hal_stimer_int_status_get
          220   4971: ..\am_hal_sysctrl.c
          221   4991: ../am_hal_sysctrl.c
          222   5011: i.am_hal_sysctrl_fpu_enable
          223   5039: i.am_hal_sysctrl_fpu_stacking_enable
          224   5076: i.am_hal_sysctrl_sleep
          225   5099: g_ui32BusWriteFlush
          226   5119: ..\am_bsp.c
          227   5131: ../am_bsp.c
          228   5143: i.am_bsp_itm_printf_disable
          229   5171: i.am_bsp_itm_printf_enable
          230   5198: i.am_bsp_low_power_init
          231   5222: pui8UartTxBuffer
          232   5239: pui8UartRxBuffer
          233   5256: g_ui32PrintInterface
          234   5277: g_sCOMUART
          235   5288: g_sBspUartBufferedConfig
          236   5313: ..\am_bsp_pins.c
          237   5330: ../am_bsp_pins.c
          238   5347: ..\am_hal_burst.c
          239   5365: ../am_hal_burst.c
          240   5383: i.am_hal_burst_mode_disable
          241   5411: i.am_hal_burst_mode_enable
          242   5438: ..\am_hal_debug.c
          243   5456: ../am_hal_debug.c
          244   5474: ..\am_hal_itm.c
          245   5490: ../am_hal_itm.c
          246   5506: i.am_hal_itm_disable
          247   5527: i.am_hal_itm_enable
          248   5547: i.am_hal_itm_print
          249   5566: ..\am_hal_reset.c
          250   5584: ../am_hal_reset.c
          251   5602: ..\am_hal_rtc.c
          252   5618: ../am_hal_rtc.c
          253   5634: i.am_hal_rtc_osc_disable
          254   5659: ..\am_hal_tpiu.c
          255   5676: ../am_hal_tpiu.c
          256   5693: i.am_hal_tpiu_enable
          257   5714: ..\am_hal_uart.c
          258   5731: ../am_hal_uart.c
          259   5748: ..\am_hal_queue.c
          260   5766: ../am_hal_queue.c
          261   5784: dc.s
          262   5789: ../clib/longlong.s
          263   5808: ../clib/memcpset.s
          264   5827: ../clib/heapaux.c
          265   5845: ../clib/angel/startup.s
          266   5869: !!!main
          267   5877: ../fplib/d2f.s
          268   5892: x$fpl$d2f
          269   5902: ../clib/angel/kernel.s
          270   5925: .ARM.Collect$$rtentry$$00000000
          271   5957: ../fplib/dnaninf.s
          272   5976: x$fpl$dnaninf
          273   5990: ../fplib/fretinf.s
          274   6009: x$fpl$fretinf
          275   6023: ../fplib/usenofp.s
          276   6042: x$fpl$usenofp
          277   6056: .ARM.Collect$$rtentry$$00000002
          278   6088: .ARM.Collect$$rtentry$$00000009
          279   6120: .ARM.Collect$$rtentry$$0000000A
          280   6152: .ARM.Collect$$rtentry$$0000000C
          281   6184: .ARM.Collect$$rtentry$$0000000D
          282   6216: .ARM.Collect$$rtentry$$00000004
          283   6248: ../clib/angel/sys.s
          284   6268: ../clib/stdlib.c
          285   6285: ../clib/angel/boardlib.s
          286   6310: ../clib/libinit.s
          287   6328: .ARM.Collect$$libinit$$00000000
          288   6360: .ARM.Collect$$rtexit$$00000000
          289   6391: .ARM.Collect$$libinit$$00000001
          290   6423: .ARM.Collect$$libinit$$00000004
          291   6455: .ARM.Collect$$libinit$$0000000A
          292   6487: .ARM.Collect$$libinit$$0000000C
          293   6519: .ARM.Collect$$libinit$$0000000E
          294   6551: .ARM.Collect$$libinit$$00000011
          295   6583: .ARM.Collect$$libinit$$00000013
          296   6615: .ARM.Collect$$libinit$$00000015
          297   6647: .ARM.Collect$$libinit$$00000017
          298   6679: .ARM.Collect$$libinit$$00000019
          299   6711: .ARM.Collect$$libinit$$0000001B
          300   6743: .ARM.Collect$$libinit$$0000001D
          301   6775: .ARM.Collect$$libinit$$0000001F
          302   6807: .ARM.Collect$$libinit$$00000021
          303   6839: .ARM.Collect$$libinit$$00000023
          304   6871: .ARM.Collect$$libinit$$00000025
          305   6903: .ARM.Collect$$libinit$$0000002C
          306   6935: .ARM.Collect$$libinit$$0000002E
          307   6967: .ARM.Collect$$libinit$$00000030
          308   6999: .ARM.Collect$$libinit$$00000032
          309   7031: .ARM.Collect$$libinit$$00000033
          310   7063: .ARM.Collect$$rtexit$$00000002
          311   7094: .ARM.Collect$$rtexit$$00000003
          312   7125: .ARM.Collect$$rtexit$$00000004
          313   7156: ../clib/armsys.c
          314   7173: ../fplib/fpinit.s
          315   7191: x$fpl$fpinit
          316   7204: ../clib/angel/sysapp.c
          317   7227: .ARM.Collect$$libshutdown$$00000000
          318   7263: ../clib/heapalloc.c
          319   7283: ../clib/signal.c
          320   7300: .ARM.Collect$$libshutdown$$00000002
          321   7336: .ARM.Collect$$libshutdown$$00000004
          322   7372: .ARM.Collect$$libshutdown$$00000007
          323   7408: .ARM.Collect$$libshutdown$$0000000A
          324   7444: .ARM.Collect$$libshutdown$$0000000C
          325   7480: .ARM.Collect$$libshutdown$$0000000F
          326   7516: .ARM.Collect$$libshutdown$$00000010
          327   7552: ../clib/angel/rt.s
          328   7571: ../clib/signal.s
          329   7588: ../clib/angel/scatter.s
          330   7612: !!!scatter
          331   7623: ../clib/angel/handlers.s
          332   7648: !!handler_copy
          333   7663: !!handler_zi
          334   7676: BuildAttributes$$THM_ISAv4$E$P$D$K$B$S$7EM$VFPi3$EXTD16$VFPS$VFMA$PE$A:L22UL41UL21$X:L11$S22US41US21$IEEE1$IW$USESV6$~STKCKD$USESV7$~SHL$OTIME$ROPI$EBA8$UX$STANDARDLIB$REQ8$PRES8$EABIv2
          335   7862: __ARM_use_no_argv
          336   7880: __Vectors
          337   7890: __Patchable
          338   7902: Reset_Handler
          339   7916: NMI_Handler
          340   7928: MemManage_Handler
          341   7946: BusFault_Handler
          342   7963: UsageFault_Handler
          343   7982: DebugMon_Handler
          344   7999: am_adc_isr
          345   8010: am_ble_isr
          346   8021: am_brownout_isr
          347   8037: am_clkgen_isr
          348   8051: am_iomaster0_isr
          349   8068: am_iomaster1_isr
          350   8085: am_iomaster2_isr
          351   8102: am_iomaster3_isr
          352   8119: am_iomaster4_isr
          353   8136: am_iomaster5_isr
          354   8153: am_ioslave_acc_isr
          355   8172: am_ioslave_ios_isr
          356   8191: am_mspi0_isr
          357   8204: am_mspi1_isr
          358   8217: am_mspi2_isr
          359   8230: am_pdm0_isr
          360   8242: am_rtc_isr
          361   8253: am_scard_isr
          362   8266: am_software0_isr
          363   8283: am_stimer_cmpr2_isr
          364   8303: am_stimer_cmpr3_isr
          365   8323: am_stimer_cmpr4_isr
          366   8343: am_stimer_cmpr5_isr
          367   8363: am_stimer_cmpr6_isr
          368   8383: am_stimer_cmpr7_isr
          369   8403: am_stimer_isr
          370   8417: am_uart0_isr
          371   8430: am_uart1_isr
          372   8443: am_uart_isr
          373   8455: am_vcomp_isr
          374   8468: am_watchdog_isr
          375   8484: __main
          376   8491: __scatterload
          377   8505: __scatterload_rt2
          378   8523: __scatterload_rt2_thumb_only
          379   8552: __scatterload_null
          380   8571: __scatterload_copy
          381   8590: __scatterload_zeroinit
          382   8613: __rt_lib_init
          383   8627: __rt_lib_init_fp_1
          384   8646: __rt_lib_init_alloca_1
          385   8669: __rt_lib_init_argv_1
          386   8690: __rt_lib_init_atexit_1
          387   8713: __rt_lib_init_clock_1
          388   8735: __rt_lib_init_cpp_1
          389   8755: __rt_lib_init_exceptions_1
          390   8782: __rt_lib_init_fp_trap_1
          391   8806: __rt_lib_init_getenv_1
          392   8829: __rt_lib_init_heap_1
          393   8850: __rt_lib_init_lc_collate_1
          394   8877: __rt_lib_init_lc_ctype_1
          395   8902: __rt_lib_init_lc_monetary_1
          396   8930: __rt_lib_init_lc_numeric_1
          397   8957: __rt_lib_init_lc_time_1
          398   8981: __rt_lib_init_preinit_1
          399   9005: __rt_lib_init_rand_1
          400   9026: __rt_lib_init_return
          401   9047: __rt_lib_init_signal_1
          402   9070: __rt_lib_init_stdio_1
          403   9092: __rt_lib_init_user_alloc_1
          404   9119: __rt_lib_shutdown
          405   9137: __rt_lib_shutdown_cpp_1
          406   9161: __rt_lib_shutdown_fp_trap_1
          407   9189: __rt_lib_shutdown_heap_1
          408   9214: __rt_lib_shutdown_return
          409   9239: __rt_lib_shutdown_signal_1
          410   9266: __rt_lib_shutdown_stdio_1
          411   9292: __rt_lib_shutdown_user_alloc_1
          412   9323: __rt_entry
          413   9334: __rt_entry_presh_1
          414   9353: __rt_entry_sh
          415   9367: __rt_entry_li
          416   9381: __rt_entry_postsh_1
          417   9401: __rt_entry_main
          418   9417: __rt_entry_postli_1
          419   9437: __rt_exit
          420   9447: __rt_exit_ls
          421   9460: __rt_exit_prels_1
          422   9478: __rt_exit_exit
          423   9493: SVC_Handler
          424   9505: __asm___6_port_c_39a90d8d__prvStartFirstTask
          425   9550: __asm___6_port_c_39a90d8d__prvEnableVFP
          426   9590: PendSV_Handler
          427   9605: vPortGetIPSR
          428   9618: HardFault_Handler
          429   9636: getStackedReg
          430   9650: am_hal_triple_read
          431   9669: am_hal_interrupt_master_enable
          432   9700: am_hal_interrupt_master_disable
          433   9732: am_hal_interrupt_master_set
          434   9760: __user_initial_stackheap
          435   9785: __aeabi_memcpy
          436   9800: __rt_memcpy
          437   9812: _memcpy_lastbytes
          438   9830: __aeabi_memset
          439   9845: __use_two_region_memory
          440   9869: __rt_heap_escrow$2region
          441   9894: __rt_heap_expand$2region
          442   9919: __aeabi_memcpy4
          443   9935: __aeabi_memcpy8
          444   9951: __rt_memcpy_w
          445   9965: _memcpy_lastbytes_aligned
          446   9991: __aeabi_memclr
          447  10006: __rt_memclr
          448  10018: _memset
          449  10026: __aeabi_memclr4
          450  10042: __aeabi_memclr8
          451  10058: __rt_memclr_w
          452  10072: _memset_w
          453  10082: __user_setup_stackheap
          454  10105: exit
          455  10110: __user_libspace
          456  10126: __user_perproc_libspace
          457  10150: __user_perthread_libspace
          458  10176: _sys_exit
          459  10186: __I$use$semihosting
          460  10206: __use_no_semihosting_swi
          461  10231: __semihosting_library_function
          462  10262: LedTask
          463  10270: LedTaskSetup
          464  10283: SysTick_Handler
          465  10299: am_bsp_itm_printf_disable
          466  10325: am_bsp_itm_printf_enable
          467  10350: am_bsp_low_power_init
          468  10372: am_ctimer_isr
          469  10386: am_devices_led_array_init
          470  10412: am_devices_led_off
          471  10431: am_devices_led_toggle
          472  10453: am_freertos_sleep
          473  10471: am_freertos_wakeup
          474  10490: am_gpio_isr
          475  10502: am_hal_burst_mode_disable
          476  10528: am_hal_burst_mode_enable
          477  10553: am_hal_cachectrl_config
          478  10577: am_hal_cachectrl_control
          479  10602: am_hal_cachectrl_enable
          480  10626: am_hal_clkgen_control
          481  10648: am_hal_clkgen_status_get
          482  10673: am_hal_ctimer_int_clear
          483  10697: am_hal_ctimer_int_service
          484  10723: am_hal_ctimer_int_status_get
          485  10752: am_hal_flash_delay
          486  10771: am_hal_flash_delay_status_check
          487  10803: am_hal_flash_load_ui32
          488  10826: am_hal_flash_store_ui32
          489  10850: am_hal_gpio_interrupt_clear
          490  10878: am_hal_gpio_interrupt_enable
          491  10907: am_hal_gpio_interrupt_register
          492  10938: am_hal_gpio_interrupt_service
          493  10968: am_hal_gpio_interrupt_status_get
          494  11001: am_hal_gpio_pinconfig
          495  11023: am_hal_gpio_state_read
          496  11046: am_hal_gpio_state_write
          497  11070: am_hal_itm_disable
          498  11089: am_hal_itm_enable
          499  11107: am_hal_itm_print
          500  11124: am_hal_mcuctrl_info_get
          501  11148: am_hal_pwrctrl_low_power_init
          502  11178: am_hal_pwrctrl_memory_enable
          503  11207: am_hal_rtc_osc_disable
          504  11230: am_hal_stimer_compare_delta_set
          505  11262: am_hal_stimer_config
          506  11283: am_hal_stimer_counter_get
          507  11309: am_hal_stimer_int_clear
          508  11333: am_hal_stimer_int_enable
          509  11358: am_hal_stimer_int_status_get
          510  11387: am_hal_sysctrl_fpu_enable
          511  11413: am_hal_sysctrl_fpu_stacking_enable
          512  11448: am_hal_sysctrl_sleep
          513  11469: am_hal_tpiu_enable
          514  11488: am_stimer_cmpr0_isr
          515  11508: am_stimer_cmpr1_isr
          516  11528: am_util_delay_ms
          517  11545: am_util_faultisr_collect_data
          518  11575: am_util_stdio_printf
          519  11596: am_util_stdio_printf_init
          520  11622: am_util_stdio_vsprintf
          521  11645: button0_handler
          522  11661: button1_handler
          523  11677: button2_handler
          524  11693: disable_print_interface
          525  11717: eTaskConfirmSleepModeStatus
          526  11745: main
          527  11750: pvPortMalloc
          528  11763: pxPortInitialiseStack
          529  11785: run_tasks
          530  11795: setup_task
          531  11806: uxListRemove
          532  11819: uxTaskResetEventItemValue
          533  11845: vApplicationMallocFailedHook
          534  11874: vApplicationStackOverflowHook
          535  11904: vEventGroupSetBitsCallback
          536  11931: vListInitialise
          537  11947: vListInitialiseItem
          538  11967: vListInsert
          539  11979: vListInsertEnd
          540  11994: vPortEnterCritical
          541  12013: vPortExitCritical
          542  12031: vPortFree
          543  12041: vPortSetupTimerInterrupt
          544  12066: vPortSuppressTicksAndSleep
          545  12093: vPortValidateInterruptPriority
          546  12124: vQueueWaitForMessageRestricted
          547  12155: vTaskInternalSetTimeOutState
          548  12184: vTaskMissedYield
          549  12201: vTaskPlaceOnEventList
          550  12223: vTaskPlaceOnEventListRestricted
          551  12255: vTaskPlaceOnUnorderedEventList
          552  12286: vTaskRemoveFromUnorderedEventList
          553  12320: vTaskStartScheduler
          554  12340: vTaskStepTick
          555  12354: vTaskSuspend
          556  12367: vTaskSuspendAll
          557  12383: vTaskSwitchContext
          558  12402: xEventGroupCreate
          559  12420: xEventGroupWaitBits
          560  12440: xPortStartScheduler
          561  12460: xPortStimerTickHandler
          562  12483: xQueueGenericCreate
          563  12503: xQueueGenericSend
          564  12521: xQueueGenericSendFromISR
          565  12546: xQueueReceive
          566  12560: xTaskCheckForTimeOut
          567  12581: xTaskCreate
          568  12593: xTaskGetSchedulerState
          569  12616: xTaskGetTickCount
          570  12634: xTaskIncrementTick
          571  12653: xTaskRemoveFromEventList
          572  12678: xTaskResumeAll
          573  12693: xTimerCreateTimerTask
          574  12715: xTimerPendFunctionCallFromISR
          575  12745: __aeabi_d2f
          576  12757: _d2f
          577  12762: __fpl_dnaninf
          578  12776: _fp_init
          579  12785: __fplib_config_fpu_vfp
          580  12808: __fplib_config_pureend_doubles
          581  12839: __fpl_fretinf
          582  12853: __I$use$fp
          583  12864: am_hal_cachectrl_defaults
          584  12890: g_AM_HAL_GPIO_DISABLE
          585  12912: g_AM_HAL_GPIO_TRISTATE
          586  12935: g_AM_HAL_GPIO_OUTPUT
          587  12956: g_am_hal_mcuctrl_flash_size
          588  12984: g_am_hal_mcuctrl_sram_size
          589  13011: am_hal_pwrctrl_peripheral_control
          590  13045: am_hal_pwrctrl_memory_control
          591  13075: g_AM_BSP_GPIO_BUTTON0
          592  13097: g_AM_BSP_GPIO_BUTTON1
          593  13119: g_AM_BSP_GPIO_BUTTON2
          594  13141: g_AM_BSP_GPIO_ITM_SWO
          595  13163: Region$$Table$$Base
          596  13183: Region$$Table$$Limit
          597  13204: led_task_handle
          598  13220: xLedEventHandle
          599  13236: xSetupTask
          600  13247: ulTimerCountsForOneTick
          601  13271: gNumCmpB
          602  13280: g_pfnCharPrint
          603  13295: pxCurrentTCB
          604  13308: g_ui32HALflags
          605  13323: g_bSimobuckTrimsDone
          606  13344: g_am_hal_sysctrl_sleep_count
          607  13373: am_bsp_psLEDs
          608  13387: g_am_hal_burst_mode_available
          609  13417: gAmHalResetStatus
          610  13435: __libspace_start
          611  13452: __temporary_stack_top$libspace
          612  13483: 


** Section #14 '.note' (SHT_NOTE)
    Size   : 32 bytes (alignment 4)


** Section #15 '.comment' (SHT_PROGBITS)
    Size   : 43240 bytes


** Section #16 '.shstrtab' (SHT_STRTAB)
    Size   : 160 bytes

            #  Offset String
        ====================================

            1      1: ROMEM
            2      7: RWMEM
            3     13: TCM
            4     17: STACKMEM
            5     26: .debug_abbrev
            6     40: .debug_frame
            7     53: .debug_info
            8     65: .debug_line
            9     77: .debug_loc
           10     88: .debug_macinfo
           11    103: .debug_pubnames
           12    119: .symtab
           13    127: .strtab
           14    135: .note
           15    141: .comment
           16    150: .shstrtab


