
========================================================================

** ELF Header Information

    File Name: bin\uart_ble_bridge.axf

    Machine class: ELFCLASS32 (32-bit)
    Data encoding: ELFDATA2LSB (Little endian)
    Header version: EV_CURRENT (Current version)
    Operating System ABI: none
    ABI Version: 0
    File Type: ET_EXEC (Executable) (2)
    Machine: EM_ARM (ARM)

    Image Entry point: 0x0000c135
    Flags: EF_ARM_HASENTRY + EF_ARM_ABI_FLOAT_HARD (0x05000402)

    ARM ELF revision: 5 (ABI version 2)

    Conforms to Hard float procedure-call standard

    Built with
    Component: ARM Compiler 5.06 update 6 (build 750) Tool: armasm [4d35ec]
    Component: ARM Compiler 5.06 update 6 (build 750) Tool: armlink [4d35ed]

    Header size: 52 bytes (0x34)
    Program header entry size: 32 bytes (0x20)
    Section header entry size: 40 bytes (0x28)

    Program header entries: 1
    Section header entries: 16

    Program header offset: 624316 (0x000986bc)
    Section header offset: 624348 (0x000986dc)

    Section header string table index: 15

========================================================================

** Program header #0 (PT_LOAD) [PF_X + PF_W + PF_R + PF_ARM_ENTRY]
    Size : 46296 bytes (33116 bytes in file)
    Virtual address: 0x0000c000 (Alignment 8)


========================================================================

** Section #1 'FLASH' (SHT_PROGBITS) [SHF_ALLOC + SHF_EXECINSTR]
    Size   : 28280 bytes (alignment 4)
    Address: 0x0000c000

    $d
    RESET
    __Vectors
        0x0000c000:    10002660    `&..    DCD    268445280
        0x0000c004:    0000c101    ....    DCD    49409
        0x0000c008:    0000c11f    ....    DCD    49439
        0x0000c00c:    0000c21d    ....    DCD    49693
        0x0000c010:    0000c121    !...    DCD    49441
        0x0000c014:    0000c123    #...    DCD    49443
        0x0000c018:    0000c125    %...    DCD    49445
        0x0000c01c:    00000000    ....    DCD    0
        0x0000c020:    00000000    ....    DCD    0
        0x0000c024:    00000000    ....    DCD    0
        0x0000c028:    00000000    ....    DCD    0
        0x0000c02c:    0000c127    '...    DCD    49447
        0x0000c030:    0000c129    )...    DCD    49449
        0x0000c034:    00000000    ....    DCD    0
        0x0000c038:    0000c12b    +...    DCD    49451
        0x0000c03c:    0000c12d    -...    DCD    49453
        0x0000c040:    0000c12f    /...    DCD    49455
        0x0000c044:    0000c12f    /...    DCD    49455
        0x0000c048:    0000c12f    /...    DCD    49455
        0x0000c04c:    0000c12f    /...    DCD    49455
        0x0000c050:    0000c12f    /...    DCD    49455
        0x0000c054:    0000c12f    /...    DCD    49455
        0x0000c058:    0000c12f    /...    DCD    49455
        0x0000c05c:    0000c12f    /...    DCD    49455
        0x0000c060:    0000c12f    /...    DCD    49455
        0x0000c064:    0000c12f    /...    DCD    49455
        0x0000c068:    0000c12f    /...    DCD    49455
        0x0000c06c:    0000c12f    /...    DCD    49455
        0x0000c070:    0000c12f    /...    DCD    49455
        0x0000c074:    0000c12f    /...    DCD    49455
        0x0000c078:    0000c12f    /...    DCD    49455
        0x0000c07c:    0000f28d    ....    DCD    62093
        0x0000c080:    0000c12f    /...    DCD    49455
        0x0000c084:    0000c12f    /...    DCD    49455
        0x0000c088:    0000c12f    /...    DCD    49455
        0x0000c08c:    0000c12f    /...    DCD    49455
        0x0000c090:    0000c12f    /...    DCD    49455
        0x0000c094:    0000c12f    /...    DCD    49455
        0x0000c098:    0000c12f    /...    DCD    49455
        0x0000c09c:    0000c12f    /...    DCD    49455
        0x0000c0a0:    0000c12f    /...    DCD    49455
        0x0000c0a4:    0000c12f    /...    DCD    49455
        0x0000c0a8:    0000c12f    /...    DCD    49455
        0x0000c0ac:    0000c12f    /...    DCD    49455
        0x0000c0b0:    0000c12f    /...    DCD    49455
        0x0000c0b4:    0000c12f    /...    DCD    49455
        0x0000c0b8:    0000c12f    /...    DCD    49455
        0x0000c0bc:    0000c12f    /...    DCD    49455
    __Patchable
        0x0000c0c0:    00000000    ....    DCD    0
        0x0000c0c4:    00000000    ....    DCD    0
        0x0000c0c8:    00000000    ....    DCD    0
        0x0000c0cc:    00000000    ....    DCD    0
        0x0000c0d0:    00000000    ....    DCD    0
        0x0000c0d4:    00000000    ....    DCD    0
        0x0000c0d8:    00000000    ....    DCD    0
        0x0000c0dc:    00000000    ....    DCD    0
        0x0000c0e0:    00000000    ....    DCD    0
        0x0000c0e4:    00000000    ....    DCD    0
        0x0000c0e8:    00000000    ....    DCD    0
        0x0000c0ec:    00000000    ....    DCD    0
        0x0000c0f0:    00000000    ....    DCD    0
        0x0000c0f4:    00000000    ....    DCD    0
        0x0000c0f8:    00000000    ....    DCD    0
        0x0000c0fc:    00000000    ....    DCD    0
    $t
    $v0
    Reset_Handler
        0x0000c100:    f64e5088    N..P    MOV      r0,#0xed88
        0x0000c104:    f2ce0000    ....    MOVT     r0,#0xe000
        0x0000c108:    6801        .h      LDR      r1,[r0,#0]
        0x0000c10a:    f4410170    A.p.    ORR      r1,r1,#0xf00000
        0x0000c10e:    6001        .`      STR      r1,[r0,#0]
        0x0000c110:    f3bf8f4f    ..O.    DSB      
        0x0000c114:    f3bf8f6f    ..o.    ISB      
        0x0000c118:    4805        .H      LDR      r0,[pc,#20] ; [0xc130] = 0xc135
        0x0000c11a:    4700        .G      BX       r0
        0x0000c11c:    e7fe        ..      B        0xc11c ; Reset_Handler + 28
    NMI_Handler
        0x0000c11e:    e7fe        ..      B        NMI_Handler ; 0xc11e
    MemManage_Handler
        0x0000c120:    e7fe        ..      B        MemManage_Handler ; 0xc120
    BusFault_Handler
        0x0000c122:    e7fe        ..      B        BusFault_Handler ; 0xc122
    UsageFault_Handler
        0x0000c124:    e7fe        ..      B        UsageFault_Handler ; 0xc124
    SVC_Handler
        0x0000c126:    e7fe        ..      B        SVC_Handler ; 0xc126
    DebugMon_Handler
        0x0000c128:    e7fe        ..      B        DebugMon_Handler ; 0xc128
    PendSV_Handler
        0x0000c12a:    e7fe        ..      B        PendSV_Handler ; 0xc12a
    SysTick_Handler
        0x0000c12c:    e7fe        ..      B        SysTick_Handler ; 0xc12c
    am_adc_isr
    am_ble_isr
    am_brownout_isr
    am_clkgen_isr
    am_ctimer_isr
    am_gpio_isr
    am_iomaster0_isr
    am_iomaster1_isr
    am_iomaster2_isr
    am_iomaster3_isr
    am_iomaster4_isr
    am_iomaster5_isr
    am_ioslave_acc_isr
    am_ioslave_ios_isr
    am_mspi0_isr
    am_pdm0_isr
    am_rtc_isr
    am_scard_isr
    am_software0_isr
    am_stimer_cmpr0_isr
    am_stimer_cmpr1_isr
    am_stimer_cmpr2_isr
    am_stimer_cmpr3_isr
    am_stimer_cmpr4_isr
    am_stimer_cmpr5_isr
    am_stimer_cmpr6_isr
    am_stimer_cmpr7_isr
    am_stimer_isr
    am_uart0_isr
    am_uart1_isr
    am_vcomp_isr
    am_watchdog_isr
        0x0000c12e:    e7fe        ..      B        am_adc_isr ; 0xc12e
    $d
        0x0000c130:    0000c135    5...    DCD    49461
    $t
    !!!main
    __main
        0x0000c134:    f000f802    ....    BL       __scatterload ; 0xc13c
        0x0000c138:    f000f860    ..`.    BL       __rt_entry ; 0xc1fc
    !!!scatter
    __scatterload
    __scatterload_rt2
    __scatterload_rt2_thumb_only
        0x0000c13c:    a00a        ..      ADR      r0,{pc}+0x2c ; 0xc168
        0x0000c13e:    e8900c00    ....    LDM      r0,{r10,r11}
        0x0000c142:    4482        .D      ADD      r10,r10,r0
        0x0000c144:    4483        .D      ADD      r11,r11,r0
        0x0000c146:    f1aa0701    ....    SUB      r7,r10,#1
    __scatterload_null
        0x0000c14a:    45da        .E      CMP      r10,r11
        0x0000c14c:    d101        ..      BNE      0xc152 ; __scatterload_null + 8
        0x0000c14e:    f000f855    ..U.    BL       __rt_entry ; 0xc1fc
        0x0000c152:    f2af0e09    ....    ADR      lr,{pc}-7 ; 0xc14b
        0x0000c156:    e8ba000f    ....    LDM      r10!,{r0-r3}
        0x0000c15a:    f0130f01    ....    TST      r3,#1
        0x0000c15e:    bf18        ..      IT       NE
        0x0000c160:    1afb        ..      SUBNE    r3,r7,r3
        0x0000c162:    f0430301    C...    ORR      r3,r3,#1
        0x0000c166:    4718        .G      BX       r3
    $d
        0x0000c168:    00006cf0    .l..    DCD    27888
        0x0000c16c:    00006d10    .m..    DCD    27920
    $t
    !!dclz77c
    __decompress
    __decompress2
        0x0000c170:    f8103b01    ...;    LDRB     r3,[r0],#1
        0x0000c174:    440a        .D      ADD      r2,r2,r1
        0x0000c176:    f0130403    ....    ANDS     r4,r3,#3
        0x0000c17a:    bf08        ..      IT       EQ
        0x0000c17c:    f8104b01    ...K    LDRBEQ   r4,[r0],#1
        0x0000c180:    111d        ..      ASRS     r5,r3,#4
        0x0000c182:    bf08        ..      IT       EQ
        0x0000c184:    f8105b01    ...[    LDRBEQ   r5,[r0],#1
        0x0000c188:    1e64        d.      SUBS     r4,r4,#1
        0x0000c18a:    d005        ..      BEQ      0xc198 ; __decompress + 40
        0x0000c18c:    f8106b01    ...k    LDRB     r6,[r0],#1
        0x0000c190:    1e64        d.      SUBS     r4,r4,#1
        0x0000c192:    f8016b01    ...k    STRB     r6,[r1],#1
        0x0000c196:    d1f9        ..      BNE      0xc18c ; __decompress + 28
        0x0000c198:    2d00        .-      CMP      r5,#0
        0x0000c19a:    d015        ..      BEQ      0xc1c8 ; __decompress + 88
        0x0000c19c:    f8104b01    ...K    LDRB     r4,[r0],#1
        0x0000c1a0:    f003030c    ....    AND      r3,r3,#0xc
        0x0000c1a4:    2b0c        .+      CMP      r3,#0xc
        0x0000c1a6:    eba10404    ....    SUB      r4,r1,r4
        0x0000c1aa:    bf0a        ..      ITET     EQ
        0x0000c1ac:    f8103b01    ...;    LDRBEQ   r3,[r0],#1
        0x0000c1b0:    eba41483    ....    SUBNE    r4,r4,r3,LSL #6
        0x0000c1b4:    eba42403    ...$    SUBEQ    r4,r4,r3,LSL #8
        0x0000c1b8:    f1050301    ....    ADD      r3,r5,#1
        0x0000c1bc:    f8146b01    ...k    LDRB     r6,[r4],#1
        0x0000c1c0:    1e5b        [.      SUBS     r3,r3,#1
        0x0000c1c2:    f8016b01    ...k    STRB     r6,[r1],#1
        0x0000c1c6:    d5f9        ..      BPL      0xc1bc ; __decompress + 76
        0x0000c1c8:    4291        .B      CMP      r1,r2
        0x0000c1ca:    bf38        8.      IT       CC
        0x0000c1cc:    f8103b01    ...;    LDRBCC   r3,[r0],#1
        0x0000c1d0:    d3d1        ..      BCC      0xc176 ; __decompress + 6
        0x0000c1d2:    4770        pG      BX       lr
    !!handler_zi
    __scatterload_zeroinit
        0x0000c1d4:    2300        .#      MOVS     r3,#0
        0x0000c1d6:    2400        .$      MOVS     r4,#0
        0x0000c1d8:    2500        .%      MOVS     r5,#0
        0x0000c1da:    2600        .&      MOVS     r6,#0
        0x0000c1dc:    3a10        .:      SUBS     r2,r2,#0x10
        0x0000c1de:    bf28        (.      IT       CS
        0x0000c1e0:    c178        x.      STMCS    r1!,{r3-r6}
        0x0000c1e2:    d8fb        ..      BHI      0xc1dc ; __scatterload_zeroinit + 8
        0x0000c1e4:    0752        R.      LSLS     r2,r2,#29
        0x0000c1e6:    bf28        (.      IT       CS
        0x0000c1e8:    c130        0.      STMCS    r1!,{r4,r5}
        0x0000c1ea:    bf48        H.      IT       MI
        0x0000c1ec:    600b        .`      STRMI    r3,[r1,#0]
        0x0000c1ee:    4770        pG      BX       lr
    .ARM.Collect$$libinit$$00000000
    __rt_lib_init
        0x0000c1f0:    b51f        ..      PUSH     {r0-r4,lr}
    .ARM.Collect$$libinit$$00000001
    __rt_lib_init_fp_1
        0x0000c1f2:    f004fbd4    ....    BL       _fp_init ; 0x1099e
    .ARM.Collect$$libinit$$00000004
    .ARM.Collect$$libinit$$0000000A
    .ARM.Collect$$libinit$$0000000C
    .ARM.Collect$$libinit$$0000000E
    .ARM.Collect$$libinit$$00000011
    .ARM.Collect$$libinit$$00000013
    .ARM.Collect$$libinit$$00000015
    .ARM.Collect$$libinit$$00000017
    .ARM.Collect$$libinit$$00000019
    .ARM.Collect$$libinit$$0000001B
    .ARM.Collect$$libinit$$0000001D
    .ARM.Collect$$libinit$$0000001F
    .ARM.Collect$$libinit$$00000021
    .ARM.Collect$$libinit$$00000023
    .ARM.Collect$$libinit$$00000025
    .ARM.Collect$$libinit$$0000002C
    .ARM.Collect$$libinit$$0000002E
    .ARM.Collect$$libinit$$00000030
    .ARM.Collect$$libinit$$00000032
    .ARM.Collect$$libinit$$00000033
    __rt_lib_init_alloca_1
    __rt_lib_init_argv_1
    __rt_lib_init_atexit_1
    __rt_lib_init_clock_1
    __rt_lib_init_cpp_1
    __rt_lib_init_exceptions_1
    __rt_lib_init_fp_trap_1
    __rt_lib_init_getenv_1
    __rt_lib_init_heap_1
    __rt_lib_init_lc_collate_1
    __rt_lib_init_lc_ctype_1
    __rt_lib_init_lc_monetary_1
    __rt_lib_init_lc_numeric_1
    __rt_lib_init_lc_time_1
    __rt_lib_init_preinit_1
    __rt_lib_init_rand_1
    __rt_lib_init_return
    __rt_lib_init_signal_1
    __rt_lib_init_stdio_1
    __rt_lib_init_user_alloc_1
        0x0000c1f6:    bd1f        ..      POP      {r0-r4,pc}
    .ARM.Collect$$libshutdown$$00000000
    __rt_lib_shutdown
        0x0000c1f8:    b510        ..      PUSH     {r4,lr}
    .ARM.Collect$$libshutdown$$00000002
    .ARM.Collect$$libshutdown$$00000004
    .ARM.Collect$$libshutdown$$00000007
    .ARM.Collect$$libshutdown$$0000000A
    .ARM.Collect$$libshutdown$$0000000C
    .ARM.Collect$$libshutdown$$0000000F
    .ARM.Collect$$libshutdown$$00000010
    __rt_lib_shutdown_cpp_1
    __rt_lib_shutdown_fp_trap_1
    __rt_lib_shutdown_heap_1
    __rt_lib_shutdown_return
    __rt_lib_shutdown_signal_1
    __rt_lib_shutdown_stdio_1
    __rt_lib_shutdown_user_alloc_1
        0x0000c1fa:    bd10        ..      POP      {r4,pc}
    .ARM.Collect$$rtentry$$00000000
    .ARM.Collect$$rtentry$$00000002
    .ARM.Collect$$rtentry$$00000004
    __rt_entry
    __rt_entry_presh_1
    __rt_entry_sh
        0x0000c1fc:    f000f894    ....    BL       __user_setup_stackheap ; 0xc328
        0x0000c200:    4611        .F      MOV      r1,r2
    .ARM.Collect$$rtentry$$00000009
    .ARM.Collect$$rtentry$$0000000A
    __rt_entry_li
    __rt_entry_postsh_1
        0x0000c202:    f7fffff5    ....    BL       __rt_lib_init ; 0xc1f0
    .ARM.Collect$$rtentry$$0000000C
    .ARM.Collect$$rtentry$$0000000D
    __rt_entry_main
    __rt_entry_postli_1
        0x0000c206:    f004f815    ....    BL       main ; 0x10234
        0x0000c20a:    f000f8b2    ....    BL       exit ; 0xc372
    .ARM.Collect$$rtexit$$00000000
    __rt_exit
        0x0000c20e:    b403        ..      PUSH     {r0,r1}
    .ARM.Collect$$rtexit$$00000002
    .ARM.Collect$$rtexit$$00000003
    __rt_exit_ls
    __rt_exit_prels_1
        0x0000c210:    f7fffff2    ....    BL       __rt_lib_shutdown ; 0xc1f8
    .ARM.Collect$$rtexit$$00000004
    __rt_exit_exit
        0x0000c214:    bc03        ..      POP      {r0,r1}
        0x0000c216:    f000f8b9    ....    BL       _sys_exit ; 0xc38c
        0x0000c21a:    0000        ..      MOVS     r0,r0
    .emb_text
    $v0
    HardFault_Handler
        0x0000c21c:    b501        ..      PUSH     {r0,lr}
        0x0000c21e:    f01e0f04    ....    TST      lr,#4
        0x0000c222:    bf0a        ..      ITET     EQ
        0x0000c224:    f3ef8008    ....    MRSEQ    r0,MSP
        0x0000c228:    f3ef8009    ....    MRSNE    r0,PSP
        0x0000c22c:    f1100008    ....    ADDSEQ   r0,r0,#8
        0x0000c230:    f003fa30    ..0.    BL       am_util_faultisr_collect_data ; 0xf694
        0x0000c234:    bd01        ..      POP      {r0,pc}
    getStackedReg
        0x0000c236:    0080        ..      LSLS     r0,r0,#2
        0x0000c238:    1840        @.      ADDS     r0,r0,r1
        0x0000c23a:    6800        .h      LDR      r0,[r0,#0]
        0x0000c23c:    4770        pG      BX       lr
        0x0000c23e:    0000        ..      MOVS     r0,r0
    .emb_text
    $v0
    am_hal_interrupt_master_enable
        0x0000c240:    f3ef8010    ....    MRS      r0,PRIMASK
        0x0000c244:    b662        b.      CPSIE    i
        0x0000c246:    4770        pG      BX       lr
    am_hal_interrupt_master_disable
        0x0000c248:    f3ef8010    ....    MRS      r0,PRIMASK
        0x0000c24c:    b672        r.      CPSID    i
        0x0000c24e:    4770        pG      BX       lr
    am_hal_interrupt_master_set
        0x0000c250:    f3808810    ....    MSR      PRIMASK,r0
        0x0000c254:    4770        pG      BX       lr
        0x0000c256:    0000        ..      MOVS     r0,r0
    .text
    $v0
    __user_initial_stackheap
        0x0000c258:    4802        .H      LDR      r0,[pc,#8] ; [0xc264] = 0x10004660
        0x0000c25a:    4903        .I      LDR      r1,[pc,#12] ; [0xc268] = 0x10002660
        0x0000c25c:    4a01        .J      LDR      r2,[pc,#4] ; [0xc264] = 0x10004660
        0x0000c25e:    4b03        .K      LDR      r3,[pc,#12] ; [0xc26c] = 0x10001660
        0x0000c260:    4770        pG      BX       lr
    $d
        0x0000c262:    0000        ..      DCW    0
        0x0000c264:    10004660    `F..    DCD    268453472
        0x0000c268:    10002660    `&..    DCD    268445280
        0x0000c26c:    10001660    `...    DCD    268441184
    $t
    .text
    __aeabi_memcpy4
    __aeabi_memcpy8
    __rt_memcpy_w
        0x0000c270:    b510        ..      PUSH     {r4,lr}
        0x0000c272:    3a20         :      SUBS     r2,r2,#0x20
        0x0000c274:    f0c0800b    ....    BCC.W    0xc28e ; __aeabi_memcpy4 + 30
        0x0000c278:    e8b15018    ...P    LDM      r1!,{r3,r4,r12,lr}
        0x0000c27c:    3a20         :      SUBS     r2,r2,#0x20
        0x0000c27e:    e8a05018    ...P    STM      r0!,{r3,r4,r12,lr}
        0x0000c282:    e8b15018    ...P    LDM      r1!,{r3,r4,r12,lr}
        0x0000c286:    e8a05018    ...P    STM      r0!,{r3,r4,r12,lr}
        0x0000c28a:    f4bfaff5    ....    BCS.W    0xc278 ; __aeabi_memcpy4 + 8
        0x0000c28e:    ea5f7c02    _..|    LSLS     r12,r2,#28
        0x0000c292:    bf24        $.      ITT      CS
        0x0000c294:    e8b15018    ...P    LDMCS    r1!,{r3,r4,r12,lr}
        0x0000c298:    e8a05018    ...P    STMCS    r0!,{r3,r4,r12,lr}
        0x0000c29c:    bf44        D.      ITT      MI
        0x0000c29e:    c918        ..      LDMMI    r1!,{r3,r4}
        0x0000c2a0:    c018        ..      STMMI    r0!,{r3,r4}
        0x0000c2a2:    e8bd4010    ...@    POP      {r4,lr}
        0x0000c2a6:    ea5f7c82    _..|    LSLS     r12,r2,#30
        0x0000c2aa:    bf24        $.      ITT      CS
        0x0000c2ac:    f8513b04    Q..;    LDRCS    r3,[r1],#4
        0x0000c2b0:    f8403b04    @..;    STRCS    r3,[r0],#4
        0x0000c2b4:    bf08        ..      IT       EQ
        0x0000c2b6:    4770        pG      BXEQ     lr
    _memcpy_lastbytes_aligned
        0x0000c2b8:    07d2        ..      LSLS     r2,r2,#31
        0x0000c2ba:    bf28        (.      IT       CS
        0x0000c2bc:    f8313b02    1..;    LDRHCS   r3,[r1],#2
        0x0000c2c0:    bf48        H.      IT       MI
        0x0000c2c2:    f8112b01    ...+    LDRBMI   r2,[r1],#1
        0x0000c2c6:    bf28        (.      IT       CS
        0x0000c2c8:    f8203b02     ..;    STRHCS   r3,[r0],#2
        0x0000c2cc:    bf48        H.      IT       MI
        0x0000c2ce:    f8002b01    ...+    STRBMI   r2,[r0],#1
        0x0000c2d2:    4770        pG      BX       lr
    .text
    __aeabi_memclr4
    __aeabi_memclr8
    __rt_memclr_w
        0x0000c2d4:    f04f0200    O...    MOV      r2,#0
    _memset_w
        0x0000c2d8:    b500        ..      PUSH     {lr}
        0x0000c2da:    4613        .F      MOV      r3,r2
        0x0000c2dc:    4694        .F      MOV      r12,r2
        0x0000c2de:    4696        .F      MOV      lr,r2
        0x0000c2e0:    3920         9      SUBS     r1,r1,#0x20
        0x0000c2e2:    bf22        ".      ITTT     CS
        0x0000c2e4:    e8a0500c    ...P    STMCS    r0!,{r2,r3,r12,lr}
        0x0000c2e8:    e8a0500c    ...P    STMCS    r0!,{r2,r3,r12,lr}
        0x0000c2ec:    f1b10120    .. .    SUBSCS   r1,r1,#0x20
        0x0000c2f0:    f4bfaff7    ....    BCS.W    0xc2e2 ; _memset_w + 10
        0x0000c2f4:    0709        ..      LSLS     r1,r1,#28
        0x0000c2f6:    bf28        (.      IT       CS
        0x0000c2f8:    e8a0500c    ...P    STMCS    r0!,{r2,r3,r12,lr}
        0x0000c2fc:    bf48        H.      IT       MI
        0x0000c2fe:    c00c        ..      STMMI    r0!,{r2,r3}
        0x0000c300:    f85deb04    ]...    POP      {lr}
        0x0000c304:    0089        ..      LSLS     r1,r1,#2
        0x0000c306:    bf28        (.      IT       CS
        0x0000c308:    f8402b04    @..+    STRCS    r2,[r0],#4
        0x0000c30c:    bf08        ..      IT       EQ
        0x0000c30e:    4770        pG      BXEQ     lr
        0x0000c310:    bf48        H.      IT       MI
        0x0000c312:    f8202b02     ..+    STRHMI   r2,[r0],#2
        0x0000c316:    f0114f80    ...O    TST      r1,#0x40000000
        0x0000c31a:    bf18        ..      IT       NE
        0x0000c31c:    f8002b01    ...+    STRBNE   r2,[r0],#1
        0x0000c320:    4770        pG      BX       lr
    .text
    __use_two_region_memory
        0x0000c322:    4770        pG      BX       lr
    __rt_heap_escrow$2region
        0x0000c324:    4770        pG      BX       lr
    __rt_heap_expand$2region
        0x0000c326:    4770        pG      BX       lr
    .text
    __user_setup_stackheap
        0x0000c328:    4675        uF      MOV      r5,lr
        0x0000c32a:    f000f82b    ..+.    BL       __user_libspace ; 0xc384
        0x0000c32e:    46ae        .F      MOV      lr,r5
        0x0000c330:    0005        ..      MOVS     r5,r0
        0x0000c332:    4669        iF      MOV      r1,sp
        0x0000c334:    4653        SF      MOV      r3,r10
        0x0000c336:    f0200007     ...    BIC      r0,r0,#7
        0x0000c33a:    4685        .F      MOV      sp,r0
        0x0000c33c:    b018        ..      ADD      sp,sp,#0x60
        0x0000c33e:    b520         .      PUSH     {r5,lr}
        0x0000c340:    f7ffff8a    ....    BL       __user_initial_stackheap ; 0xc258
        0x0000c344:    e8bd4020    .. @    POP      {r5,lr}
        0x0000c348:    f04f0600    O...    MOV      r6,#0
        0x0000c34c:    f04f0700    O...    MOV      r7,#0
        0x0000c350:    f04f0800    O...    MOV      r8,#0
        0x0000c354:    f04f0b00    O...    MOV      r11,#0
        0x0000c358:    f0210107    !...    BIC      r1,r1,#7
        0x0000c35c:    46ac        .F      MOV      r12,r5
        0x0000c35e:    e8ac09c0    ....    STM      r12!,{r6-r8,r11}
        0x0000c362:    e8ac09c0    ....    STM      r12!,{r6-r8,r11}
        0x0000c366:    e8ac09c0    ....    STM      r12!,{r6-r8,r11}
        0x0000c36a:    e8ac09c0    ....    STM      r12!,{r6-r8,r11}
        0x0000c36e:    468d        .F      MOV      sp,r1
        0x0000c370:    4770        pG      BX       lr
    .text
    exit
        0x0000c372:    b510        ..      PUSH     {r4,lr}
        0x0000c374:    4604        .F      MOV      r4,r0
        0x0000c376:    f3af8000    ....    NOP.W    
        0x0000c37a:    4620         F      MOV      r0,r4
        0x0000c37c:    e8bd4010    ...@    POP      {r4,lr}
        0x0000c380:    f7ffbf45    ..E.    B.W      __rt_exit ; 0xc20e
    .text
    __user_libspace
    __user_perproc_libspace
    __user_perthread_libspace
        0x0000c384:    4800        .H      LDR      r0,[pc,#0] ; [0xc388] = 0x100045fc
        0x0000c386:    4770        pG      BX       lr
    $d
        0x0000c388:    100045fc    .E..    DCD    268453372
    $t
    .text
    _sys_exit
        0x0000c38c:    4901        .I      LDR      r1,[pc,#4] ; [0xc394] = 0x20026
        0x0000c38e:    2018        .       MOVS     r0,#0x18
        0x0000c390:    beab        ..      BKPT     #0xab
        0x0000c392:    e7fe        ..      B        0xc392 ; _sys_exit + 6
    $d
        0x0000c394:    00020026    &...    DCD    131110
    $t
    .text
    __I$use$semihosting
    __use_no_semihosting_swi
        0x0000c398:    4770        pG      BX       lr
    i.__NVIC_EnableIRQ
    __NVIC_EnableIRQ
    .text
    __semihosting_library_function
        0x0000c39a:    2800        .(      CMP      r0,#0
        0x0000c39c:    db0d        ..      BLT      0xc3ba ; __NVIC_EnableIRQ + 32
        0x0000c39e:    bf00        ..      NOP      
        0x0000c3a0:    bf00        ..      NOP      
        0x0000c3a2:    f000021f    ....    AND      r2,r0,#0x1f
        0x0000c3a6:    2101        .!      MOVS     r1,#1
        0x0000c3a8:    4091        .@      LSLS     r1,r1,r2
        0x0000c3aa:    0942        B.      LSRS     r2,r0,#5
        0x0000c3ac:    0092        ..      LSLS     r2,r2,#2
        0x0000c3ae:    f10222e0    ..."    ADD      r2,r2,#0xe000e000
        0x0000c3b2:    f8c21100    ....    STR      r1,[r2,#0x100]
        0x0000c3b6:    bf00        ..      NOP      
        0x0000c3b8:    bf00        ..      NOP      
        0x0000c3ba:    4770        pG      BX       lr
    i.am_bsp_itm_printf_enable
    am_bsp_itm_printf_enable
        0x0000c3bc:    b500        ..      PUSH     {lr}
        0x0000c3be:    490a        .I      LDR      r1,[pc,#40] ; [0xc3e8] = 0x1000002c
        0x0000c3c0:    b085        ..      SUB      sp,sp,#0x14
        0x0000c3c2:    2001        .       MOVS     r0,#1
        0x0000c3c4:    6008        .`      STR      r0,[r1,#0]
        0x0000c3c6:    f001ff51    ..Q.    BL       am_hal_itm_enable ; 0xe26c
        0x0000c3ca:    4808        .H      LDR      r0,[pc,#32] ; [0xc3ec] = 0xf4240
        0x0000c3cc:    9000        ..      STR      r0,[sp,#0]
        0x0000c3ce:    4668        hF      MOV      r0,sp
        0x0000c3d0:    f002fa80    ....    BL       am_hal_tpiu_enable ; 0xe8d4
        0x0000c3d4:    4806        .H      LDR      r0,[pc,#24] ; [0xc3f0] = 0x10e7c
        0x0000c3d6:    6801        .h      LDR      r1,[r0,#0]
        0x0000c3d8:    2029        )       MOVS     r0,#0x29
        0x0000c3da:    f001fdc7    ....    BL       am_hal_gpio_pinconfig ; 0xdf6c
        0x0000c3de:    4805        .H      LDR      r0,[pc,#20] ; [0xc3f4] = 0xe2b5
        0x0000c3e0:    f003f9d2    ....    BL       am_util_stdio_printf_init ; 0xf788
        0x0000c3e4:    b005        ..      ADD      sp,sp,#0x14
        0x0000c3e6:    bd00        ..      POP      {pc}
    $d
        0x0000c3e8:    1000002c    ,...    DCD    268435500
        0x0000c3ec:    000f4240    @B..    DCD    1000000
        0x0000c3f0:    00010e7c    |...    DCD    69244
        0x0000c3f4:    0000e2b5    ....    DCD    58037
    $t
    i.am_bsp_low_power_init
    am_bsp_low_power_init
        0x0000c3f8:    e92d41f0    -..A    PUSH     {r4-r8,lr}
        0x0000c3fc:    f002f80e    ....    BL       am_hal_pwrctrl_low_power_init ; 0xe41c
        0x0000c400:    f002fa5e    ..^.    BL       am_hal_rtc_osc_disable ; 0xe8c0
        0x0000c404:    4f0b        .O      LDR      r7,[pc,#44] ; [0xc434] = 0x10000034
        0x0000c406:    4e0c        .N      LDR      r6,[pc,#48] ; [0xc438] = 0x10df8
        0x0000c408:    2400        .$      MOVS     r4,#0
        0x0000c40a:    bf00        ..      NOP      
        0x0000c40c:    f8575034    W.4P    LDR      r5,[r7,r4,LSL #3]
        0x0000c410:    6831        1h      LDR      r1,[r6,#0]
        0x0000c412:    4628        (F      MOV      r0,r5
        0x0000c414:    f001fdaa    ....    BL       am_hal_gpio_pinconfig ; 0xdf6c
        0x0000c418:    2103        .!      MOVS     r1,#3
        0x0000c41a:    4628        (F      MOV      r0,r5
        0x0000c41c:    f001fee6    ....    BL       am_hal_gpio_state_write ; 0xe1ec
        0x0000c420:    2100        .!      MOVS     r1,#0
        0x0000c422:    4628        (F      MOV      r0,r5
        0x0000c424:    f001fee2    ....    BL       am_hal_gpio_state_write ; 0xe1ec
        0x0000c428:    1c64        d.      ADDS     r4,r4,#1
        0x0000c42a:    2c05        .,      CMP      r4,#5
        0x0000c42c:    d3ee        ..      BCC      0xc40c ; am_bsp_low_power_init + 20
        0x0000c42e:    e8bd81f0    ....    POP      {r4-r8,pc}
    $d
        0x0000c432:    0000        ..      DCW    0
        0x0000c434:    10000034    4...    DCD    268435508
        0x0000c438:    00010df8    ....    DCD    69112
    $t
    i.am_hal_ble_blocking_hci_read
    am_hal_ble_blocking_hci_read
        0x0000c43c:    b570        p.      PUSH     {r4-r6,lr}
        0x0000c43e:    f8dfc090    ....    LDR      r12,[pc,#144] ; [0xc4d0] = 0x10c28
        0x0000c442:    4614        .F      MOV      r4,r2
        0x0000c444:    460e        .F      MOV      r6,r1
        0x0000c446:    0005        ..      MOVS     r5,r0
        0x0000c448:    e89c100f    ....    LDM      r12,{r0-r3,r12}
        0x0000c44c:    b088        ..      SUB      sp,sp,#0x20
        0x0000c44e:    f10d0e04    ....    ADD      lr,sp,#4
        0x0000c452:    e88e100f    ....    STM      lr,{r0-r3,r12}
        0x0000c456:    a806        ..      ADD      r0,sp,#0x18
        0x0000c458:    9000        ..      STR      r0,[sp,#0]
        0x0000c45a:    bf1c        ..      ITT      NE
        0x0000c45c:    6828        (h      LDRNE    r0,[r5,#0]
        0x0000c45e:    f0107f80    ....    TSTNE    r0,#0x1000000
        0x0000c462:    d031        1.      BEQ      0xc4c8 ; am_hal_ble_blocking_hci_read + 140
        0x0000c464:    491b        .I      LDR      r1,[pc,#108] ; [0xc4d4] = 0x775230
        0x0000c466:    f020407f     ..@    BIC      r0,r0,#0xff000000
        0x0000c46a:    4288        .B      CMP      r0,r1
        0x0000c46c:    d12c        ,.      BNE      0xc4c8 ; am_hal_ble_blocking_hci_read + 140
        0x0000c46e:    481a        .H      LDR      r0,[pc,#104] ; [0xc4d8] = 0x5000c000
        0x0000c470:    f8d0030c    ....    LDR      r0,[r0,#0x30c]
        0x0000c474:    f0100080    ....    ANDS     r0,r0,#0x80
        0x0000c478:    d023        #.      BEQ      0xc4c2 ; am_hal_ble_blocking_hci_read + 134
        0x0000c47a:    4669        iF      MOV      r1,sp
        0x0000c47c:    4628        (F      MOV      r0,r5
        0x0000c47e:    f000f855    ..U.    BL       am_hal_ble_blocking_transfer ; 0xc52c
        0x0000c482:    2800        .(      CMP      r0,#0
        0x0000c484:    bf1c        ..      ITT      NE
        0x0000c486:    b008        ..      ADDNE    sp,sp,#0x20
        0x0000c488:    bd70        p.      POPNE    {r4-r6,pc}
        0x0000c48a:    9600        ..      STR      r6,[sp,#0]
        0x0000c48c:    f89d0018    ....    LDRB     r0,[sp,#0x18]
        0x0000c490:    f89d1019    ....    LDRB     r1,[sp,#0x19]
        0x0000c494:    eb002001    ...     ADD      r0,r0,r1,LSL #8
        0x0000c498:    0400        ..      LSLS     r0,r0,#16
        0x0000c49a:    0c00        ..      LSRS     r0,r0,#16
        0x0000c49c:    f8ad0008    ....    STRH     r0,[sp,#8]
        0x0000c4a0:    d002        ..      BEQ      0xc4a8 ; am_hal_ble_blocking_hci_read + 108
        0x0000c4a2:    f5b07f80    ....    CMP      r0,#0x100
        0x0000c4a6:    d902        ..      BLS      0xc4ae ; am_hal_ble_blocking_hci_read + 114
        0x0000c4a8:    b008        ..      ADD      sp,sp,#0x20
        0x0000c4aa:    2005        .       MOVS     r0,#5
        0x0000c4ac:    bd70        p.      POP      {r4-r6,pc}
        0x0000c4ae:    4669        iF      MOV      r1,sp
        0x0000c4b0:    4628        (F      MOV      r0,r5
        0x0000c4b2:    f000f83b    ..;.    BL       am_hal_ble_blocking_transfer ; 0xc52c
        0x0000c4b6:    2800        .(      CMP      r0,#0
        0x0000c4b8:    bf0e        ..      ITEE     EQ
        0x0000c4ba:    f8bd0008    ....    LDRHEQ   r0,[sp,#8]
        0x0000c4be:    b008        ..      ADDNE    sp,sp,#0x20
        0x0000c4c0:    bd70        p.      POPNE    {r4-r6,pc}
        0x0000c4c2:    2c00        .,      CMP      r4,#0
        0x0000c4c4:    bf18        ..      IT       NE
        0x0000c4c6:    6020         `      STRNE    r0,[r4,#0]
        0x0000c4c8:    2000        .       MOVS     r0,#0
        0x0000c4ca:    b008        ..      ADD      sp,sp,#0x20
        0x0000c4cc:    bd70        p.      POP      {r4-r6,pc}
    $d
        0x0000c4ce:    0000        ..      DCW    0
        0x0000c4d0:    00010c28    (...    DCD    68648
        0x0000c4d4:    00775230    0Rw.    DCD    7819824
        0x0000c4d8:    5000c000    ...P    DCD    1342226432
    $t
    i.am_hal_ble_blocking_hci_write
    am_hal_ble_blocking_hci_write
        0x0000c4dc:    b5f0        ..      PUSH     {r4-r7,lr}
        0x0000c4de:    4f11        .O      LDR      r7,[pc,#68] ; [0xc524] = 0x10c10
        0x0000c4e0:    b087        ..      SUB      sp,sp,#0x1c
        0x0000c4e2:    2800        .(      CMP      r0,#0
        0x0000c4e4:    e89710f0    ....    LDM      r7,{r4-r7,r12}
        0x0000c4e8:    e88d10f4    ....    STM      sp,{r2,r4-r7,r12}
        0x0000c4ec:    f88d1004    ....    STRB     r1,[sp,#4]
        0x0000c4f0:    f8ad3008    ...0    STRH     r3,[sp,#8]
        0x0000c4f4:    bf1c        ..      ITT      NE
        0x0000c4f6:    6802        .h      LDRNE    r2,[r0,#0]
        0x0000c4f8:    f0127f80    ....    TSTNE    r2,#0x1000000
        0x0000c4fc:    d004        ..      BEQ      0xc508 ; am_hal_ble_blocking_hci_write + 44
        0x0000c4fe:    4b0a        .K      LDR      r3,[pc,#40] ; [0xc528] = 0x775230
        0x0000c500:    f022427f    "..B    BIC      r2,r2,#0xff000000
        0x0000c504:    429a        .B      CMP      r2,r3
        0x0000c506:    d002        ..      BEQ      0xc50e ; am_hal_ble_blocking_hci_write + 50
        0x0000c508:    b007        ..      ADD      sp,sp,#0x1c
        0x0000c50a:    2000        .       MOVS     r0,#0
        0x0000c50c:    bdf0        ..      POP      {r4-r7,pc}
        0x0000c50e:    2900        .)      CMP      r1,#0
        0x0000c510:    bf1c        ..      ITT      NE
        0x0000c512:    2101        .!      MOVNE    r1,#1
        0x0000c514:    f88d1007    ....    STRBNE   r1,[sp,#7]
        0x0000c518:    4669        iF      MOV      r1,sp
        0x0000c51a:    f000f807    ....    BL       am_hal_ble_blocking_transfer ; 0xc52c
        0x0000c51e:    b007        ..      ADD      sp,sp,#0x1c
        0x0000c520:    bdf0        ..      POP      {r4-r7,pc}
    $d
        0x0000c522:    0000        ..      DCW    0
        0x0000c524:    00010c10    ....    DCD    68624
        0x0000c528:    00775230    0Rw.    DCD    7819824
    $t
    i.am_hal_ble_blocking_transfer
    am_hal_ble_blocking_transfer
        0x0000c52c:    e92d4ff8    -..O    PUSH     {r3-r11,lr}
        0x0000c530:    4689        .F      MOV      r9,r1
        0x0000c532:    0005        ..      MOVS     r5,r0
        0x0000c534:    bf1c        ..      ITT      NE
        0x0000c536:    6828        (h      LDRNE    r0,[r5,#0]
        0x0000c538:    f0107f80    ....    TSTNE    r0,#0x1000000
        0x0000c53c:    d005        ..      BEQ      0xc54a ; am_hal_ble_blocking_transfer + 30
        0x0000c53e:    f8dfb410    ....    LDR      r11,[pc,#1040] ; [0xc950] = 0x775230
        0x0000c542:    f020407f     ..@    BIC      r0,r0,#0xff000000
        0x0000c546:    4558        XE      CMP      r0,r11
        0x0000c548:    d002        ..      BEQ      0xc550 ; am_hal_ble_blocking_transfer + 36
        0x0000c54a:    2002        .       MOVS     r0,#2
        0x0000c54c:    e8bd8ff8    ....    POP      {r3-r11,pc}
        0x0000c550:    f8b90008    ....    LDRH     r0,[r9,#8]
        0x0000c554:    2800        .(      CMP      r0,#0
        0x0000c556:    bf08        ..      IT       EQ
        0x0000c558:    e8bd8ff8    ....    POPEQ    {r3-r11,pc}
        0x0000c55c:    4cfd        .L      LDR      r4,[pc,#1012] ; [0xc954] = 0x5000c000
        0x0000c55e:    f8d4a220    .. .    LDR      r10,[r4,#0x220]
        0x0000c562:    f8d40220    .. .    LDR      r0,[r4,#0x220]
        0x0000c566:    f0200080     ...    BIC      r0,r0,#0x80
        0x0000c56a:    f8c40220    .. .    STR      r0,[r4,#0x220]
        0x0000c56e:    f8d40220    .. .    LDR      r0,[r4,#0x220]
        0x0000c572:    f4207080     ..p    BIC      r0,r0,#0x100
        0x0000c576:    f8c40220    .. .    STR      r0,[r4,#0x220]
        0x0000c57a:    f8d40220    .. .    LDR      r0,[r4,#0x220]
        0x0000c57e:    f0200001     ...    BIC      r0,r0,#1
        0x0000c582:    f8c40220    .. .    STR      r0,[r4,#0x220]
        0x0000c586:    f8d40220    .. .    LDR      r0,[r4,#0x220]
        0x0000c58a:    f0200002     ...    BIC      r0,r0,#2
        0x0000c58e:    f8c40220    .. .    STR      r0,[r4,#0x220]
        0x0000c592:    f8d40228    ..(.    LDR      r0,[r4,#0x228]
        0x0000c596:    f0400001    @...    ORR      r0,r0,#1
        0x0000c59a:    f8c40228    ..(.    STR      r0,[r4,#0x228]
        0x0000c59e:    f8d40228    ..(.    LDR      r0,[r4,#0x228]
        0x0000c5a2:    f4407080    @..p    ORR      r0,r0,#0x100
        0x0000c5a6:    f8c40228    ..(.    STR      r0,[r4,#0x228]
        0x0000c5aa:    f899000a    ....    LDRB     r0,[r9,#0xa]
        0x0000c5ae:    2801        .(      CMP      r0,#1
        0x0000c5b0:    d019        ..      BEQ      0xc5e6 ; am_hal_ble_blocking_transfer + 186
        0x0000c5b2:    f8d4030c    ....    LDR      r0,[r4,#0x30c]
        0x0000c5b6:    f0100f80    ....    TST      r0,#0x80
        0x0000c5ba:    bf02        ..      ITTT     EQ
        0x0000c5bc:    f8c4a220    .. .    STREQ    r10,[r4,#0x220]
        0x0000c5c0:    48e5        .H      LDREQ    r0,[pc,#916] ; [0xc958] = 0x8000001
        0x0000c5c2:    e8bd8ff8    ....    POPEQ    {r3-r11,pc}
        0x0000c5c6:    f7fffe3f    ..?.    BL       am_hal_interrupt_master_disable ; 0xc248
        0x0000c5ca:    9000        ..      STR      r0,[sp,#0]
        0x0000c5cc:    f8950044    ..D.    LDRB     r0,[r5,#0x44]
        0x0000c5d0:    2800        .(      CMP      r0,#0
        0x0000c5d2:    d07d        }.      BEQ      0xc6d0 ; am_hal_ble_blocking_transfer + 420
        0x0000c5d4:    9800        ..      LDR      r0,[sp,#0]
        0x0000c5d6:    f7fffe3b    ..;.    BL       am_hal_interrupt_master_set ; 0xc250
        0x0000c5da:    f8c4a220    .. .    STR      r10,[r4,#0x220]
        0x0000c5de:    f04f6000    O..`    MOV      r0,#0x8000000
        0x0000c5e2:    e8bd8ff8    ....    POP      {r3-r11,pc}
        0x0000c5e6:    f8950042    ..B.    LDRB     r0,[r5,#0x42]
        0x0000c5ea:    2801        .(      CMP      r0,#1
        0x0000c5ec:    d04d        M.      BEQ      0xc68a ; am_hal_ble_blocking_transfer + 350
        0x0000c5ee:    bf00        ..      NOP      
        0x0000c5f0:    f8950040    ..@.    LDRB     r0,[r5,#0x40]
        0x0000c5f4:    b310        ..      CBZ      r0,0xc63c ; am_hal_ble_blocking_transfer + 272
        0x0000c5f6:    f8950041    ..A.    LDRB     r0,[r5,#0x41]
        0x0000c5fa:    2600        .&      MOVS     r6,#0
        0x0000c5fc:    2800        .(      CMP      r0,#0
        0x0000c5fe:    bf0d        ..      ITEET    EQ
        0x0000c600:    f8d4030c    ....    LDREQ    r0,[r4,#0x30c]
        0x0000c604:    2000        .       MOVNE    r0,#0
        0x0000c606:    f8850041    ..A.    STRBNE   r0,[r5,#0x41]
        0x0000c60a:    f0100f08    ....    TSTEQ    r0,#8
        0x0000c60e:    bf18        ..      IT       NE
        0x0000c610:    2700        .'      MOVNE    r7,#0
        0x0000c612:    d013        ..      BEQ      0xc63c ; am_hal_ble_blocking_transfer + 272
        0x0000c614:    f04f00a0    O...    MOV      r0,#0xa0
        0x0000c618:    f1060601    ....    ADD      r6,r6,#1
        0x0000c61c:    f001fc4e    ..N.    BL       am_hal_flash_delay ; 0xdebc
        0x0000c620:    f5b67f96    ....    CMP      r6,#0x12c
        0x0000c624:    d80a        ..      BHI      0xc63c ; am_hal_ble_blocking_transfer + 272
        0x0000c626:    f8950041    ..A.    LDRB     r0,[r5,#0x41]
        0x0000c62a:    2800        .(      CMP      r0,#0
        0x0000c62c:    bf0a        ..      ITET     EQ
        0x0000c62e:    f8d4030c    ....    LDREQ    r0,[r4,#0x30c]
        0x0000c632:    f8857041    ..Ap    STRBNE   r7,[r5,#0x41]
        0x0000c636:    f0100f08    ....    TSTEQ    r0,#8
        0x0000c63a:    d1eb        ..      BNE      0xc614 ; am_hal_ble_blocking_transfer + 232
        0x0000c63c:    48c7        .H      LDR      r0,[pc,#796] ; [0xc95c] = 0x5000c410
        0x0000c63e:    6801        .h      LDR      r1,[r0,#0]
        0x0000c640:    f0410102    A...    ORR      r1,r1,#2
        0x0000c644:    6001        .`      STR      r1,[r0,#0]
        0x0000c646:    f04f0050    O.P.    MOV      r0,#0x50
        0x0000c64a:    f001fc37    ..7.    BL       am_hal_flash_delay ; 0xdebc
        0x0000c64e:    2101        .!      MOVS     r1,#1
        0x0000c650:    4628        (F      MOV      r0,r5
        0x0000c652:    f001fa13    ....    BL       am_hal_ble_wakeup_set ; 0xda7c
        0x0000c656:    2700        .'      MOVS     r7,#0
        0x0000c658:    f44f7896    O..x    MOV      r8,#0x12c
        0x0000c65c:    ea4f0607    O...    MOV.W    r6,r7
        0x0000c660:    f8950041    ..A.    LDRB     r0,[r5,#0x41]
        0x0000c664:    2800        .(      CMP      r0,#0
        0x0000c666:    bf0a        ..      ITET     EQ
        0x0000c668:    f8d4030c    ....    LDREQ    r0,[r4,#0x30c]
        0x0000c66c:    f8856041    ..A`    STRBNE   r6,[r5,#0x41]
        0x0000c670:    f0100f08    ....    TSTEQ    r0,#8
        0x0000c674:    d015        ..      BEQ      0xc6a2 ; am_hal_ble_blocking_transfer + 374
        0x0000c676:    f7fffde7    ....    BL       am_hal_interrupt_master_disable ; 0xc248
        0x0000c67a:    9000        ..      STR      r0,[sp,#0]
        0x0000c67c:    f8950044    ..D.    LDRB     r0,[r5,#0x44]
        0x0000c680:    b338        8.      CBZ      r0,0xc6d2 ; am_hal_ble_blocking_transfer + 422
        0x0000c682:    9800        ..      LDR      r0,[sp,#0]
        0x0000c684:    f7fffde4    ....    BL       am_hal_interrupt_master_set ; 0xc250
        0x0000c688:    e044        D.      B        0xc714 ; am_hal_ble_blocking_transfer + 488
        0x0000c68a:    f8950040    ..@.    LDRB     r0,[r5,#0x40]
        0x0000c68e:    2800        .(      CMP      r0,#0
        0x0000c690:    bf04        ..      ITT      EQ
        0x0000c692:    f64b3080    K..0    MOVEQ    r0,#0xbb80
        0x0000c696:    f001fc11    ....    BLEQ     am_hal_flash_delay ; 0xdebc
        0x0000c69a:    2000        .       MOVS     r0,#0
        0x0000c69c:    f8850042    ..B.    STRB     r0,[r5,#0x42]
        0x0000c6a0:    e7a6        ..      B        0xc5f0 ; am_hal_ble_blocking_transfer + 196
        0x0000c6a2:    4547        GE      CMP      r7,r8
        0x0000c6a4:    d204        ..      BCS      0xc6b0 ; am_hal_ble_blocking_transfer + 388
        0x0000c6a6:    f8d4030c    ....    LDR      r0,[r4,#0x30c]
        0x0000c6aa:    f0100f80    ....    TST      r0,#0x80
        0x0000c6ae:    d031        1.      BEQ      0xc714 ; am_hal_ble_blocking_transfer + 488
        0x0000c6b0:    4bab        .K      LDR      r3,[pc,#684] ; [0xc960] = 0x8000002
        0x0000c6b2:    0028        (.      MOVS     r0,r5
        0x0000c6b4:    bf1c        ..      ITT      NE
        0x0000c6b6:    6828        (h      LDRNE    r0,[r5,#0]
        0x0000c6b8:    f0107f80    ....    TSTNE    r0,#0x1000000
        0x0000c6bc:    d01b        ..      BEQ      0xc6f6 ; am_hal_ble_blocking_transfer + 458
        0x0000c6be:    f020407f     ..@    BIC      r0,r0,#0xff000000
        0x0000c6c2:    4558        XE      CMP      r0,r11
        0x0000c6c4:    d117        ..      BNE      0xc6f6 ; am_hal_ble_blocking_transfer + 458
        0x0000c6c6:    f8d40304    ....    LDR      r0,[r4,#0x304]
        0x0000c6ca:    f020000c     ...    BIC      r0,r0,#0xc
        0x0000c6ce:    e001        ..      B        0xc6d4 ; am_hal_ble_blocking_transfer + 424
        0x0000c6d0:    e025        %.      B        0xc71e ; am_hal_ble_blocking_transfer + 498
        0x0000c6d2:    e003        ..      B        0xc6dc ; am_hal_ble_blocking_transfer + 432
        0x0000c6d4:    3008        .0      ADDS     r0,r0,#8
        0x0000c6d6:    f8c40304    ....    STR      r0,[r4,#0x304]
        0x0000c6da:    e00c        ..      B        0xc6f6 ; am_hal_ble_blocking_transfer + 458
        0x0000c6dc:    2001        .       MOVS     r0,#1
        0x0000c6de:    f8850044    ..D.    STRB     r0,[r5,#0x44]
        0x0000c6e2:    f8856045    ..E`    STRB     r6,[r5,#0x45]
        0x0000c6e6:    f8856046    ..F`    STRB     r6,[r5,#0x46]
        0x0000c6ea:    f8856047    ..G`    STRB     r6,[r5,#0x47]
        0x0000c6ee:    9800        ..      LDR      r0,[sp,#0]
        0x0000c6f0:    f7fffdae    ....    BL       am_hal_interrupt_master_set ; 0xc250
        0x0000c6f4:    2300        .#      MOVS     r3,#0
        0x0000c6f6:    4899        .H      LDR      r0,[pc,#612] ; [0xc95c] = 0x5000c410
        0x0000c6f8:    6801        .h      LDR      r1,[r0,#0]
        0x0000c6fa:    f0210102    !...    BIC      r1,r1,#2
        0x0000c6fe:    6001        .`      STR      r1,[r0,#0]
        0x0000c700:    b1d3        ..      CBZ      r3,0xc738 ; am_hal_ble_blocking_transfer + 524
        0x0000c702:    f8c4a220    .. .    STR      r10,[r4,#0x220]
        0x0000c706:    2100        .!      MOVS     r1,#0
        0x0000c708:    4628        (F      MOV      r0,r5
        0x0000c70a:    f001f9b7    ....    BL       am_hal_ble_wakeup_set ; 0xda7c
        0x0000c70e:    4618        .F      MOV      r0,r3
        0x0000c710:    e8bd8ff8    ....    POP      {r3-r11,pc}
        0x0000c714:    20a0        .       MOVS     r0,#0xa0
        0x0000c716:    1c7f        ..      ADDS     r7,r7,#1
        0x0000c718:    f001fbd0    ....    BL       am_hal_flash_delay ; 0xdebc
        0x0000c71c:    e7a0        ..      B        0xc660 ; am_hal_ble_blocking_transfer + 308
        0x0000c71e:    2001        .       MOVS     r0,#1
        0x0000c720:    f8850044    ..D.    STRB     r0,[r5,#0x44]
        0x0000c724:    2000        .       MOVS     r0,#0
        0x0000c726:    f8850045    ..E.    STRB     r0,[r5,#0x45]
        0x0000c72a:    f8850046    ..F.    STRB     r0,[r5,#0x46]
        0x0000c72e:    f8850047    ..G.    STRB     r0,[r5,#0x47]
        0x0000c732:    9800        ..      LDR      r0,[sp,#0]
        0x0000c734:    f7fffd8c    ....    BL       am_hal_interrupt_master_set ; 0xc250
        0x0000c738:    f899000c    ....    LDRB     r0,[r9,#0xc]
        0x0000c73c:    2800        .(      CMP      r0,#0
        0x0000c73e:    bf1c        ..      ITT      NE
        0x0000c740:    2101        .!      MOVNE    r1,#1
        0x0000c742:    f8851041    ..A.    STRBNE   r1,[r5,#0x41]
        0x0000c746:    e89910ce    ....    LDM      r9,{r1-r3,r6,r7,r12}
        0x0000c74a:    f105000c    ....    ADD      r0,r5,#0xc
        0x0000c74e:    e88000ce    ....    STM      r0,{r1-r3,r6,r7}
        0x0000c752:    f8c5c020    .. .    STR      r12,[r5,#0x20]
        0x0000c756:    f7fffd77    ..w.    BL       am_hal_interrupt_master_disable ; 0xc248
        0x0000c75a:    9000        ..      STR      r0,[sp,#0]
        0x0000c75c:    4649        IF      MOV      r1,r9
        0x0000c75e:    4628        (F      MOV      r0,r5
        0x0000c760:    f000f904    ....    BL       am_hal_ble_cmd_write ; 0xc96c
        0x0000c764:    f899000a    ....    LDRB     r0,[r9,#0xa]
        0x0000c768:    2801        .(      CMP      r0,#1
        0x0000c76a:    d033        3.      BEQ      0xc7d4 ; am_hal_ble_blocking_transfer + 680
        0x0000c76c:    8aa8        ..      LDRH     r0,[r5,#0x14]
        0x0000c76e:    6be9        .k      LDR      r1,[r5,#0x3c]
        0x0000c770:    4281        .B      CMP      r1,r0
        0x0000c772:    bf38        8.      IT       CC
        0x0000c774:    2700        .'      MOVCC    r7,#0
        0x0000c776:    d27b        {.      BCS      0xc870 ; am_hal_ble_blocking_transfer + 836
        0x0000c778:    002e        ..      MOVS     r6,r5
        0x0000c77a:    bf1c        ..      ITT      NE
        0x0000c77c:    6830        0h      LDRNE    r0,[r6,#0]
        0x0000c77e:    f0107f80    ....    TSTNE    r0,#0x1000000
        0x0000c782:    d076        v.      BEQ      0xc872 ; am_hal_ble_blocking_transfer + 838
        0x0000c784:    f020407f     ..@    BIC      r0,r0,#0xff000000
        0x0000c788:    4558        XE      CMP      r0,r11
        0x0000c78a:    d172        r.      BNE      0xc872 ; am_hal_ble_blocking_transfer + 838
        0x0000c78c:    f8d40100    ....    LDR      r0,[r4,#0x100]
        0x0000c790:    f106010c    ....    ADD      r1,r6,#0xc
        0x0000c794:    8ab3        ..      LDRH     r3,[r6,#0x14]
        0x0000c796:    6bf2        .k      LDR      r2,[r6,#0x3c]
        0x0000c798:    f3c04007    ...@    UBFX     r0,r0,#16,#8
        0x0000c79c:    eba30802    ....    SUB      r8,r3,r2
        0x0000c7a0:    2804        .(      CMP      r0,#4
        0x0000c7a2:    d375        u.      BCC      0xc890 ; am_hal_ble_blocking_transfer + 868
        0x0000c7a4:    4283        .B      CMP      r3,r0
        0x0000c7a6:    bf88        ..      IT       HI
        0x0000c7a8:    f0200803     ...    BICHI    r8,r0,#3
        0x0000c7ac:    6808        .h      LDR      r0,[r1,#0]
        0x0000c7ae:    f0220103    "...    BIC      r1,r2,#3
        0x0000c7b2:    4401        .D      ADD      r1,r1,r0
        0x0000c7b4:    2000        .       MOVS     r0,#0
        0x0000c7b6:    f1080203    ....    ADD      r2,r8,#3
        0x0000c7ba:    2a03        .*      CMP      r2,#3
        0x0000c7bc:    d97a        z.      BLS      0xc8b4 ; am_hal_ble_blocking_transfer + 904
        0x0000c7be:    f1b84f00    ...O    CMP      r8,#0x80000000
        0x0000c7c2:    d277        w.      BCS      0xc8b4 ; am_hal_ble_blocking_transfer + 904
        0x0000c7c4:    f1080c03    ....    ADD      r12,r8,#3
        0x0000c7c8:    ea4f73ec    O..s    ASR      r3,r12,#31
        0x0000c7cc:    2201        ."      MOVS     r2,#1
        0x0000c7ce:    eb0c7393    ...s    ADD      r3,r12,r3,LSR #30
        0x0000c7d2:    e057        W.      B        0xc884 ; am_hal_ble_blocking_transfer + 856
        0x0000c7d4:    4628        (F      MOV      r0,r5
        0x0000c7d6:    8aae        ..      LDRH     r6,[r5,#0x14]
        0x0000c7d8:    4649        IF      MOV      r1,r9
        0x0000c7da:    f8d5800c    ....    LDR      r8,[r5,#0xc]
        0x0000c7de:    f000f8c5    ....    BL       am_hal_ble_cmd_write ; 0xc96c
        0x0000c7e2:    2e00        ..      CMP      r6,#0
        0x0000c7e4:    bf18        ..      IT       NE
        0x0000c7e6:    f8dfb17c    ..|.    LDRNE    r11,[pc,#380] ; [0xc964] = 0x7a120
        0x0000c7ea:    d02a        *.      BEQ      0xc842 ; am_hal_ble_blocking_transfer + 790
        0x0000c7ec:    f8d40100    ....    LDR      r0,[r4,#0x100]
        0x0000c7f0:    2700        .'      MOVS     r7,#0
        0x0000c7f2:    f3c02007    ...     UBFX     r0,r0,#8,#8
        0x0000c7f6:    2804        .(      CMP      r0,#4
        0x0000c7f8:    d215        ..      BCS      0xc826 ; am_hal_ble_blocking_transfer + 762
        0x0000c7fa:    bf00        ..      NOP      
        0x0000c7fc:    f8d41224    ..$.    LDR      r1,[r4,#0x224]
        0x0000c800:    f0110f01    ....    TST      r1,#1
        0x0000c804:    d11d        ..      BNE      0xc842 ; am_hal_ble_blocking_transfer + 790
        0x0000c806:    4639        9F      MOV      r1,r7
        0x0000c808:    1c7f        ..      ADDS     r7,r7,#1
        0x0000c80a:    4559        YE      CMP      r1,r11
        0x0000c80c:    d209        ..      BCS      0xc822 ; am_hal_ble_blocking_transfer + 758
        0x0000c80e:    2010        .       MOVS     r0,#0x10
        0x0000c810:    f001fb54    ..T.    BL       am_hal_flash_delay ; 0xdebc
        0x0000c814:    f8d40100    ....    LDR      r0,[r4,#0x100]
        0x0000c818:    f3c02007    ...     UBFX     r0,r0,#8,#8
        0x0000c81c:    2804        .(      CMP      r0,#4
        0x0000c81e:    d3ed        ..      BCC      0xc7fc ; am_hal_ble_blocking_transfer + 720
        0x0000c820:    e001        ..      B        0xc826 ; am_hal_ble_blocking_transfer + 762
        0x0000c822:    2804        .(      CMP      r0,#4
        0x0000c824:    d30d        ..      BCC      0xc842 ; am_hal_ble_blocking_transfer + 790
        0x0000c826:    b166        f.      CBZ      r6,0xc842 ; am_hal_ble_blocking_transfer + 790
        0x0000c828:    f8581b04    X...    LDR      r1,[r8],#4
        0x0000c82c:    f8c4110c    ....    STR      r1,[r4,#0x10c]
        0x0000c830:    1f00        ..      SUBS     r0,r0,#4
        0x0000c832:    2e04        ..      CMP      r6,#4
        0x0000c834:    bf2c        ,.      ITE      CS
        0x0000c836:    1f36        6.      SUBCS    r6,r6,#4
        0x0000c838:    2600        .&      MOVCC    r6,#0
        0x0000c83a:    2804        .(      CMP      r0,#4
        0x0000c83c:    d2f3        ..      BCS      0xc826 ; am_hal_ble_blocking_transfer + 762
        0x0000c83e:    2e00        ..      CMP      r6,#0
        0x0000c840:    d1d4        ..      BNE      0xc7ec ; am_hal_ble_blocking_transfer + 704
        0x0000c842:    f8d40224    ..$.    LDR      r0,[r4,#0x224]
        0x0000c846:    2600        .&      MOVS     r6,#0
        0x0000c848:    f0100f01    ....    TST      r0,#1
        0x0000c84c:    d10c        ..      BNE      0xc868 ; am_hal_ble_blocking_transfer + 828
        0x0000c84e:    e002        ..      B        0xc856 ; am_hal_ble_blocking_transfer + 810
        0x0000c850:    f5b66ffa    ...o    CMP      r6,#0x7d0
        0x0000c854:    d208        ..      BCS      0xc868 ; am_hal_ble_blocking_transfer + 828
        0x0000c856:    2010        .       MOVS     r0,#0x10
        0x0000c858:    f001fb30    ..0.    BL       am_hal_flash_delay ; 0xdebc
        0x0000c85c:    f8d40224    ..$.    LDR      r0,[r4,#0x224]
        0x0000c860:    1c76        v.      ADDS     r6,r6,#1
        0x0000c862:    f0100f01    ....    TST      r0,#1
        0x0000c866:    d0f3        ..      BEQ      0xc850 ; am_hal_ble_blocking_transfer + 804
        0x0000c868:    2100        .!      MOVS     r1,#0
        0x0000c86a:    4628        (F      MOV      r0,r5
        0x0000c86c:    f001f906    ....    BL       am_hal_ble_wakeup_set ; 0xda7c
        0x0000c870:    e013        ..      B        0xc89a ; am_hal_ble_blocking_transfer + 878
        0x0000c872:    e00d        ..      B        0xc890 ; am_hal_ble_blocking_transfer + 868
        0x0000c874:    f8d4c108    ....    LDR      r12,[r4,#0x108]
        0x0000c878:    f841c020    A. .    STR      r12,[r1,r0,LSL #2]
        0x0000c87c:    f8c47108    ...q    STR      r7,[r4,#0x108]
        0x0000c880:    1c40        @.      ADDS     r0,r0,#1
        0x0000c882:    1c52        R.      ADDS     r2,r2,#1
        0x0000c884:    ebb20fa3    ....    CMP      r2,r3,ASR #2
        0x0000c888:    ddf4        ..      BLE      0xc874 ; am_hal_ble_blocking_transfer + 840
        0x0000c88a:    6bf0        .k      LDR      r0,[r6,#0x3c]
        0x0000c88c:    4440        @D      ADD      r0,r0,r8
        0x0000c88e:    63e8        .c      STR      r0,[r5,#0x3c]
        0x0000c890:    8aa8        ..      LDRH     r0,[r5,#0x14]
        0x0000c892:    6be9        .k      LDR      r1,[r5,#0x3c]
        0x0000c894:    4281        .B      CMP      r1,r0
        0x0000c896:    f4ffaf6f    ..o.    BCC      0xc778 ; am_hal_ble_blocking_transfer + 588
        0x0000c89a:    9800        ..      LDR      r0,[sp,#0]
        0x0000c89c:    f7fffcd8    ....    BL       am_hal_interrupt_master_set ; 0xc250
        0x0000c8a0:    f8d40224    ..$.    LDR      r0,[r4,#0x224]
        0x0000c8a4:    2600        .&      MOVS     r6,#0
        0x0000c8a6:    f0100f01    ....    TST      r0,#1
        0x0000c8aa:    bf08        ..      IT       EQ
        0x0000c8ac:    f2427710    B..w    MOVEQ    r7,#0x2710
        0x0000c8b0:    d10f        ..      BNE      0xc8d2 ; am_hal_ble_blocking_transfer + 934
        0x0000c8b2:    e005        ..      B        0xc8c0 ; am_hal_ble_blocking_transfer + 916
        0x0000c8b4:    e03d        =.      B        0xc932 ; am_hal_ble_blocking_transfer + 1030
        0x0000c8b6:    42be        .B      CMP      r6,r7
        0x0000c8b8:    d302        ..      BCC      0xc8c0 ; am_hal_ble_blocking_transfer + 916
        0x0000c8ba:    482b        +H      LDR      r0,[pc,#172] ; [0xc968] = 0x8000009
        0x0000c8bc:    e8bd8ff8    ....    POP      {r3-r11,pc}
        0x0000c8c0:    2010        .       MOVS     r0,#0x10
        0x0000c8c2:    f001fafb    ....    BL       am_hal_flash_delay ; 0xdebc
        0x0000c8c6:    f8d40224    ..$.    LDR      r0,[r4,#0x224]
        0x0000c8ca:    1c76        v.      ADDS     r6,r6,#1
        0x0000c8cc:    f0100f01    ....    TST      r0,#1
        0x0000c8d0:    d0f1        ..      BEQ      0xc8b6 ; am_hal_ble_blocking_transfer + 906
        0x0000c8d2:    f8d40228    ..(.    LDR      r0,[r4,#0x228]
        0x0000c8d6:    f0400001    @...    ORR      r0,r0,#1
        0x0000c8da:    f8c40228    ..(.    STR      r0,[r4,#0x228]
        0x0000c8de:    f8d40228    ..(.    LDR      r0,[r4,#0x228]
        0x0000c8e2:    f0400002    @...    ORR      r0,r0,#2
        0x0000c8e6:    f8c40228    ..(.    STR      r0,[r4,#0x228]
        0x0000c8ea:    2300        .#      MOVS     r3,#0
        0x0000c8ec:    60eb        .`      STR      r3,[r5,#0xc]
        0x0000c8ee:    612b        +a      STR      r3,[r5,#0x10]
        0x0000c8f0:    616b        ka      STR      r3,[r5,#0x14]
        0x0000c8f2:    61ab        .a      STR      r3,[r5,#0x18]
        0x0000c8f4:    61eb        .a      STR      r3,[r5,#0x1c]
        0x0000c8f6:    622b        +b      STR      r3,[r5,#0x20]
        0x0000c8f8:    63eb        .c      STR      r3,[r5,#0x3c]
        0x0000c8fa:    f899000a    ....    LDRB     r0,[r9,#0xa]
        0x0000c8fe:    2801        .(      CMP      r0,#1
        0x0000c900:    d106        ..      BNE      0xc910 ; am_hal_ble_blocking_transfer + 996
        0x0000c902:    2100        .!      MOVS     r1,#0
        0x0000c904:    4628        (F      MOV      r0,r5
        0x0000c906:    f001f8b9    ....    BL       am_hal_ble_wakeup_set ; 0xda7c
        0x0000c90a:    2001        .       MOVS     r0,#1
        0x0000c90c:    f8850042    ..B.    STRB     r0,[r5,#0x42]
        0x0000c910:    f899000a    ....    LDRB     r0,[r9,#0xa]
        0x0000c914:    2802        .(      CMP      r0,#2
        0x0000c916:    bf02        ..      ITTT     EQ
        0x0000c918:    f8950040    ..@.    LDRBEQ   r0,[r5,#0x40]
        0x0000c91c:    2801        .(      CMPEQ    r0,#1
        0x0000c91e:    f8853042    ..B0    STRBEQ   r3,[r5,#0x42]
        0x0000c922:    f8c4a220    .. .    STR      r10,[r4,#0x220]
        0x0000c926:    f8853044    ..D0    STRB     r3,[r5,#0x44]
        0x0000c92a:    f04f0000    O...    MOV      r0,#0
        0x0000c92e:    e8bd8ff8    ....    POP      {r3-r11,pc}
        0x0000c932:    f1b80f00    ....    CMP      r8,#0
        0x0000c936:    d9a8        ..      BLS      0xc88a ; am_hal_ble_blocking_transfer + 862
        0x0000c938:    f8d42108    ...!    LDR      r2,[r4,#0x108]
        0x0000c93c:    f8412020    A.      STR      r2,[r1,r0,LSL #2]
        0x0000c940:    f8c47108    ...q    STR      r7,[r4,#0x108]
        0x0000c944:    1c40        @.      ADDS     r0,r0,#1
        0x0000c946:    ebb80f80    ....    CMP      r8,r0,LSL #2
        0x0000c94a:    d8f5        ..      BHI      0xc938 ; am_hal_ble_blocking_transfer + 1036
        0x0000c94c:    e79d        ..      B        0xc88a ; am_hal_ble_blocking_transfer + 862
    $d
        0x0000c94e:    0000        ..      DCW    0
        0x0000c950:    00775230    0Rw.    DCD    7819824
        0x0000c954:    5000c000    ...P    DCD    1342226432
        0x0000c958:    08000001    ....    DCD    134217729
        0x0000c95c:    5000c410    ...P    DCD    1342227472
        0x0000c960:    08000002    ....    DCD    134217730
        0x0000c964:    0007a120     ...    DCD    500000
        0x0000c968:    08000009    ....    DCD    134217737
    $t
    i.am_hal_ble_cmd_write
    am_hal_ble_cmd_write
        0x0000c96c:    b410        ..      PUSH     {r4}
        0x0000c96e:    2800        .(      CMP      r0,#0
        0x0000c970:    bf1c        ..      ITT      NE
        0x0000c972:    6800        .h      LDRNE    r0,[r0,#0]
        0x0000c974:    f0107f80    ....    TSTNE    r0,#0x1000000
        0x0000c978:    d004        ..      BEQ      0xc984 ; am_hal_ble_cmd_write + 24
        0x0000c97a:    4a20         J      LDR      r2,[pc,#128] ; [0xc9fc] = 0x775230
        0x0000c97c:    f020407f     ..@    BIC      r0,r0,#0xff000000
        0x0000c980:    4290        .B      CMP      r0,r2
        0x0000c982:    d002        ..      BEQ      0xc98a ; am_hal_ble_cmd_write + 30
        0x0000c984:    bc10        ..      POP      {r4}
        0x0000c986:    2002        .       MOVS     r0,#2
        0x0000c988:    4770        pG      BX       lr
        0x0000c98a:    79cb        .y      LDRB     r3,[r1,#7]
        0x0000c98c:    2b00        .+      CMP      r3,#0
        0x0000c98e:    bf08        ..      IT       EQ
        0x0000c990:    2200        ."      MOVEQ    r2,#0
        0x0000c992:    d02c        ,.      BEQ      0xc9ee ; am_hal_ble_cmd_write + 130
        0x0000c994:    2b01        .+      CMP      r3,#1
        0x0000c996:    bf04        ..      ITT      EQ
        0x0000c998:    7908        .y      LDRBEQ   r0,[r1,#4]
        0x0000c99a:    0602        ..      LSLEQ    r2,r0,#24
        0x0000c99c:    d027        '.      BEQ      0xc9ee ; am_hal_ble_cmd_write + 130
        0x0000c99e:    2b02        .+      CMP      r3,#2
        0x0000c9a0:    d027        '.      BEQ      0xc9f2 ; am_hal_ble_cmd_write + 134
        0x0000c9a2:    2b03        .+      CMP      r3,#3
        0x0000c9a4:    bf1e        ..      ITTT     NE
        0x0000c9a6:    2006        .       MOVNE    r0,#6
        0x0000c9a8:    bc10        ..      POPNE    {r4}
        0x0000c9aa:    4770        pG      BXNE     lr
        0x0000c9ac:    7988        .y      LDRB     r0,[r1,#6]
        0x0000c9ae:    0602        ..      LSLS     r2,r0,#24
        0x0000c9b0:    8888        ..      LDRH     r0,[r1,#4]
        0x0000c9b2:    ba40        @.      REV16    r0,r0
        0x0000c9b4:    2460        `$      MOVS     r4,#0x60
        0x0000c9b6:    f891c00a    ....    LDRB     r12,[r1,#0xa]
        0x0000c9ba:    ea041343    ..C.    AND      r3,r4,r3,LSL #5
        0x0000c9be:    ea4c0303    L...    ORR      r3,r12,r3
        0x0000c9c2:    f8b1c008    ....    LDRH     r12,[r1,#8]
        0x0000c9c6:    f46f0470    o.p.    MVN      r4,#0xf00000
        0x0000c9ca:    ea042c0c    ...,    AND      r12,r4,r12,LSL #8
        0x0000c9ce:    7b09        .{      LDRB     r1,[r1,#0xc]
        0x0000c9d0:    2480        .$      MOVS     r4,#0x80
        0x0000c9d2:    ea0411c1    ....    AND      r1,r4,r1,LSL #7
        0x0000c9d6:    ea4c0101    L...    ORR      r1,r12,r1
        0x0000c9da:    4319        .C      ORRS     r1,r1,r3
        0x0000c9dc:    430a        .C      ORRS     r2,r2,r1
        0x0000c9de:    4908        .I      LDR      r1,[pc,#32] ; [0xca00] = 0x5000c000
        0x0000c9e0:    f8c10214    ....    STR      r0,[r1,#0x214]
        0x0000c9e4:    f8c1220c    ..."    STR      r2,[r1,#0x20c]
        0x0000c9e8:    bc10        ..      POP      {r4}
        0x0000c9ea:    2000        .       MOVS     r0,#0
        0x0000c9ec:    4770        pG      BX       lr
        0x0000c9ee:    2000        .       MOVS     r0,#0
        0x0000c9f0:    e7e0        ..      B        0xc9b4 ; am_hal_ble_cmd_write + 72
        0x0000c9f2:    7948        Hy      LDRB     r0,[r1,#5]
        0x0000c9f4:    0602        ..      LSLS     r2,r0,#24
        0x0000c9f6:    7908        .y      LDRB     r0,[r1,#4]
        0x0000c9f8:    e7dc        ..      B        0xc9b4 ; am_hal_ble_cmd_write + 72
    $d
        0x0000c9fa:    0000        ..      DCW    0
        0x0000c9fc:    00775230    0Rw.    DCD    7819824
        0x0000ca00:    5000c000    ...P    DCD    1342226432
    $t
    i.am_hal_ble_config
    am_hal_ble_config
        0x0000ca04:    2800        .(      CMP      r0,#0
        0x0000ca06:    bf1c        ..      ITT      NE
        0x0000ca08:    6802        .h      LDRNE    r2,[r0,#0]
        0x0000ca0a:    f0127f80    ....    TSTNE    r2,#0x1000000
        0x0000ca0e:    d004        ..      BEQ      0xca1a ; am_hal_ble_config + 22
        0x0000ca10:    4b49        IK      LDR      r3,[pc,#292] ; [0xcb38] = 0x775230
        0x0000ca12:    f022427f    "..B    BIC      r2,r2,#0xff000000
        0x0000ca16:    429a        .B      CMP      r2,r3
        0x0000ca18:    d001        ..      BEQ      0xca1e ; am_hal_ble_config + 26
        0x0000ca1a:    2002        .       MOVS     r0,#2
        0x0000ca1c:    4770        pG      BX       lr
        0x0000ca1e:    b470        p.      PUSH     {r4-r6}
        0x0000ca20:    6845        Eh      LDR      r5,[r0,#4]
        0x0000ca22:    4846        FH      LDR      r0,[pc,#280] ; [0xcb3c] = 0x5000c000
        0x0000ca24:    2203        ."      MOVS     r2,#3
        0x0000ca26:    f8c02300    ...#    STR      r2,[r0,#0x300]
        0x0000ca2a:    f8d02300    ...#    LDR      r2,[r0,#0x300]
        0x0000ca2e:    f4223200    "..2    BIC      r2,r2,#0x20000
        0x0000ca32:    f8c02300    ...#    STR      r2,[r0,#0x300]
        0x0000ca36:    f8d02300    ...#    LDR      r2,[r0,#0x300]
        0x0000ca3a:    f4223280    "..2    BIC      r2,r2,#0x10000
        0x0000ca3e:    f8c02300    ...#    STR      r2,[r0,#0x300]
        0x0000ca42:    f8d02300    ...#    LDR      r2,[r0,#0x300]
        0x0000ca46:    f4421200    B...    ORR      r2,r2,#0x200000
        0x0000ca4a:    f8c02300    ...#    STR      r2,[r0,#0x300]
        0x0000ca4e:    7a0b        .z      LDRB     r3,[r1,#8]
        0x0000ca50:    f8d02104    ...!    LDR      r2,[r0,#0x104]
        0x0000ca54:    f363220d    c.."    BFI      r2,r3,#8,#6
        0x0000ca58:    f8c02104    ...!    STR      r2,[r0,#0x104]
        0x0000ca5c:    790b        .y      LDRB     r3,[r1,#4]
        0x0000ca5e:    f8d02104    ...!    LDR      r2,[r0,#0x104]
        0x0000ca62:    f3630205    c...    BFI      r2,r3,#0,#6
        0x0000ca66:    f8c02104    ...!    STR      r2,[r0,#0x104]
        0x0000ca6a:    f8d02110    ...!    LDR      r2,[r0,#0x110]
        0x0000ca6e:    f0420201    B...    ORR      r2,r2,#1
        0x0000ca72:    f8c02110    ...!    STR      r2,[r0,#0x110]
        0x0000ca76:    680a        .h      LDR      r2,[r1,#0]
        0x0000ca78:    f44f63e0    O..c    MOV      r3,#0x700
        0x0000ca7c:    ea032202    ..."    AND      r2,r3,r2,LSL #8
        0x0000ca80:    68cb        .h      LDR      r3,[r1,#0xc]
        0x0000ca82:    f0420201    B...    ORR      r2,r2,#1
        0x0000ca86:    2b02        .+      CMP      r3,#2
        0x0000ca88:    bf08        ..      IT       EQ
        0x0000ca8a:    f4426200    B..b    ORREQ    r2,r2,#0x800
        0x0000ca8e:    f8c02200    ..."    STR      r2,[r0,#0x200]
        0x0000ca92:    482b        +H      LDR      r0,[pc,#172] ; [0xcb40] = 0x40020000
        0x0000ca94:    68c0        .h      LDR      r0,[r0,#0xc]
        0x0000ca96:    b2c0        ..      UXTB     r0,r0
        0x0000ca98:    2812        .(      CMP      r0,#0x12
        0x0000ca9a:    d142        B.      BNE      0xcb22 ; am_hal_ble_config + 286
        0x0000ca9c:    4c29        )L      LDR      r4,[pc,#164] ; [0xcb44] = 0x10000294
        0x0000ca9e:    7b0a        .{      LDRB     r2,[r1,#0xc]
        0x0000caa0:    68e0        .h      LDR      r0,[r4,#0xc]
        0x0000caa2:    f880202f    ../     STRB     r2,[r0,#0x2f]
        0x0000caa6:    7c0a        .|      LDRB     r2,[r1,#0x10]
        0x0000caa8:    f8802021    ..!     STRB     r2,[r0,#0x21]
        0x0000caac:    8a0a        ..      LDRH     r2,[r1,#0x10]
        0x0000caae:    0a12        ..      LSRS     r2,r2,#8
        0x0000cab0:    f8802022    .."     STRB     r2,[r0,#0x22]
        0x0000cab4:    7d0a        .}      LDRB     r2,[r1,#0x14]
        0x0000cab6:    f8802026    ..&     STRB     r2,[r0,#0x26]
        0x0000caba:    8a8a        ..      LDRH     r2,[r1,#0x14]
        0x0000cabc:    0a12        ..      LSRS     r2,r2,#8
        0x0000cabe:    f8802027    ..'     STRB     r2,[r0,#0x27]
        0x0000cac2:    7e4a        J~      LDRB     r2,[r1,#0x19]
        0x0000cac4:    2a01        .*      CMP      r2,#1
        0x0000cac6:    bf18        ..      IT       NE
        0x0000cac8:    2200        ."      MOVNE    r2,#0
        0x0000caca:    f8802058    ..X     STRB     r2,[r0,#0x58]
        0x0000cace:    7e0a        .~      LDRB     r2,[r1,#0x18]
        0x0000cad0:    2a01        .*      CMP      r2,#1
        0x0000cad2:    bf18        ..      IT       NE
        0x0000cad4:    2200        ."      MOVNE    r2,#0
        0x0000cad6:    f8802080    ...     STRB     r2,[r0,#0x80]
        0x0000cada:    6863        ch      LDR      r3,[r4,#4]
        0x0000cadc:    2200        ."      MOVS     r2,#0
        0x0000cade:    b1fb        ..      CBZ      r3,0xcb20 ; am_hal_ble_config + 284
        0x0000cae0:    4e19        .N      LDR      r6,[pc,#100] ; [0xcb48] = 0x10a0c
        0x0000cae2:    f0130f01    ....    TST      r3,#1
        0x0000cae6:    f1a00001    ....    SUB      r0,r0,#1
        0x0000caea:    d003        ..      BEQ      0xcaf4 ; am_hal_ble_config + 240
        0x0000caec:    f8102f01    .../    LDRB     r2,[r0,#1]!
        0x0000caf0:    f8362012    6..     LDRH     r2,[r6,r2,LSL #1]
        0x0000caf4:    085b        [.      LSRS     r3,r3,#1
        0x0000caf6:    d013        ..      BEQ      0xcb20 ; am_hal_ble_config + 284
        0x0000caf8:    f890c001    ....    LDRB     r12,[r0,#1]
        0x0000cafc:    1e5b        [.      SUBS     r3,r3,#1
        0x0000cafe:    ea8c2c12    ...,    EOR      r12,r12,r2,LSR #8
        0x0000cb02:    f836c01c    6...    LDRH     r12,[r6,r12,LSL #1]
        0x0000cb06:    ea8c2202    ..."    EOR      r2,r12,r2,LSL #8
        0x0000cb0a:    f810cf02    ....    LDRB     r12,[r0,#2]!
        0x0000cb0e:    b292        ..      UXTH     r2,r2
        0x0000cb10:    ea8c2c12    ...,    EOR      r12,r12,r2,LSR #8
        0x0000cb14:    f836c01c    6...    LDRH     r12,[r6,r12,LSL #1]
        0x0000cb18:    ea8c2202    ..."    EOR      r2,r12,r2,LSL #8
        0x0000cb1c:    b292        ..      UXTH     r2,r2
        0x0000cb1e:    d1eb        ..      BNE      0xcaf8 ; am_hal_ble_config + 244
        0x0000cb20:    60a2        .`      STR      r2,[r4,#8]
        0x0000cb22:    7e88        .~      LDRB     r0,[r1,#0x1a]
        0x0000cb24:    4a09        .J      LDR      r2,[pc,#36] ; [0xcb4c] = 0x10004460
        0x0000cb26:    eb0501c5    ....    ADD      r1,r5,r5,LSL #3
        0x0000cb2a:    eb0201c1    ....    ADD      r1,r2,r1,LSL #3
        0x0000cb2e:    7208        .r      STRB     r0,[r1,#8]
        0x0000cb30:    bc70        p.      POP      {r4-r6}
        0x0000cb32:    2000        .       MOVS     r0,#0
        0x0000cb34:    4770        pG      BX       lr
    $d
        0x0000cb36:    0000        ..      DCW    0
        0x0000cb38:    00775230    0Rw.    DCD    7819824
        0x0000cb3c:    5000c000    ...P    DCD    1342226432
        0x0000cb40:    40020000    ...@    DCD    1073872896
        0x0000cb44:    10000294    ....    DCD    268436116
        0x0000cb48:    00010a0c    ....    DCD    68108
        0x0000cb4c:    10004460    `D..    DCD    268452960
    $t
    i.am_hal_ble_default_copy_patch_apply
    am_hal_ble_default_copy_patch_apply
        0x0000cb50:    b570        p.      PUSH     {r4-r6,lr}
        0x0000cb52:    4604        .F      MOV      r4,r0
        0x0000cb54:    4819        .H      LDR      r0,[pc,#100] ; [0xcbbc] = 0x1000009c
        0x0000cb56:    2100        .!      MOVS     r1,#0
        0x0000cb58:    6805        .h      LDR      r5,[r0,#0]
        0x0000cb5a:    6828        (h      LDR      r0,[r5,#0]
        0x0000cb5c:    6843        Ch      LDR      r3,[r0,#4]
        0x0000cb5e:    68c2        .h      LDR      r2,[r0,#0xc]
        0x0000cb60:    b1fb        ..      CBZ      r3,0xcba2 ; am_hal_ble_default_copy_patch_apply + 82
        0x0000cb62:    f8dfc05c    ..\.    LDR      r12,[pc,#92] ; [0xcbc0] = 0x10a0c
        0x0000cb66:    f0130f01    ....    TST      r3,#1
        0x0000cb6a:    f1a20201    ....    SUB      r2,r2,#1
        0x0000cb6e:    d003        ..      BEQ      0xcb78 ; am_hal_ble_default_copy_patch_apply + 40
        0x0000cb70:    f8121f01    ....    LDRB     r1,[r2,#1]!
        0x0000cb74:    f83c1011    <...    LDRH     r1,[r12,r1,LSL #1]
        0x0000cb78:    085b        [.      LSRS     r3,r3,#1
        0x0000cb7a:    d012        ..      BEQ      0xcba2 ; am_hal_ble_default_copy_patch_apply + 82
        0x0000cb7c:    7856        Vx      LDRB     r6,[r2,#1]
        0x0000cb7e:    1e5b        [.      SUBS     r3,r3,#1
        0x0000cb80:    ea862611    ...&    EOR      r6,r6,r1,LSR #8
        0x0000cb84:    f83c6016    <..`    LDRH     r6,[r12,r6,LSL #1]
        0x0000cb88:    ea862101    ...!    EOR      r1,r6,r1,LSL #8
        0x0000cb8c:    f8126f02    ...o    LDRB     r6,[r2,#2]!
        0x0000cb90:    b289        ..      UXTH     r1,r1
        0x0000cb92:    ea862611    ...&    EOR      r6,r6,r1,LSR #8
        0x0000cb96:    f83c6016    <..`    LDRH     r6,[r12,r6,LSL #1]
        0x0000cb9a:    ea862101    ...!    EOR      r1,r6,r1,LSL #8
        0x0000cb9e:    b289        ..      UXTH     r1,r1
        0x0000cba0:    d1ec        ..      BNE      0xcb7c ; am_hal_ble_default_copy_patch_apply + 44
        0x0000cba2:    6081        .`      STR      r1,[r0,#8]
        0x0000cba4:    4620         F      MOV      r0,r4
        0x0000cba6:    6829        )h      LDR      r1,[r5,#0]
        0x0000cba8:    f000f920    .. .    BL       am_hal_ble_patch_apply ; 0xcdec
        0x0000cbac:    2800        .(      CMP      r0,#0
        0x0000cbae:    bf18        ..      IT       NE
        0x0000cbb0:    bd70        p.      POPNE    {r4-r6,pc}
        0x0000cbb2:    4620         F      MOV      r0,r4
        0x0000cbb4:    e8bd4070    ..p@    POP      {r4-r6,lr}
        0x0000cbb8:    f000bc1a    ....    B.W      am_hal_ble_patch_copy_end_apply ; 0xd3f0
    $d
        0x0000cbbc:    1000009c    ....    DCD    268435612
        0x0000cbc0:    00010a0c    ....    DCD    68108
    $t
    i.am_hal_ble_default_patch_apply
    am_hal_ble_default_patch_apply
        0x0000cbc4:    e92d41f0    -..A    PUSH     {r4-r8,lr}
        0x0000cbc8:    4680        .F      MOV      r8,r0
        0x0000cbca:    4826        &H      LDR      r0,[pc,#152] ; [0xcc64] = 0x40020000
        0x0000cbcc:    2500        .%      MOVS     r5,#0
        0x0000cbce:    68c1        .h      LDR      r1,[r0,#0xc]
        0x0000cbd0:    b2c9        ..      UXTB     r1,r1
        0x0000cbd2:    2911        .)      CMP      r1,#0x11
        0x0000cbd4:    d042        B.      BEQ      0xcc5c ; am_hal_ble_default_patch_apply + 152
        0x0000cbd6:    68c0        .h      LDR      r0,[r0,#0xc]
        0x0000cbd8:    b2c0        ..      UXTB     r0,r0
        0x0000cbda:    2812        .(      CMP      r0,#0x12
        0x0000cbdc:    d03e        >.      BEQ      0xcc5c ; am_hal_ble_default_patch_apply + 152
        0x0000cbde:    4822        "H      LDR      r0,[pc,#136] ; [0xcc68] = 0x124d0
        0x0000cbe0:    6807        .h      LDR      r7,[r0,#0]
        0x0000cbe2:    4822        "H      LDR      r0,[pc,#136] ; [0xcc6c] = 0x100002b0
        0x0000cbe4:    2f00        ./      CMP      r7,#0
        0x0000cbe6:    6806        .h      LDR      r6,[r0,#0]
        0x0000cbe8:    bf88        ..      IT       HI
        0x0000cbea:    4c21        !L      LDRHI    r4,[pc,#132] ; [0xcc70] = 0x10a0c
        0x0000cbec:    d933        3.      BLS      0xcc56 ; am_hal_ble_default_patch_apply + 146
        0x0000cbee:    bf00        ..      NOP      
        0x0000cbf0:    f856c025    V.%.    LDR      r12,[r6,r5,LSL #2]
        0x0000cbf4:    2100        .!      MOVS     r1,#0
        0x0000cbf6:    f8dc200c    ...     LDR      r2,[r12,#0xc]
        0x0000cbfa:    f8dc0004    ....    LDR      r0,[r12,#4]
        0x0000cbfe:    b1e0        ..      CBZ      r0,0xcc3a ; am_hal_ble_default_patch_apply + 118
        0x0000cc00:    1e52        R.      SUBS     r2,r2,#1
        0x0000cc02:    f0100f01    ....    TST      r0,#1
        0x0000cc06:    d003        ..      BEQ      0xcc10 ; am_hal_ble_default_patch_apply + 76
        0x0000cc08:    f8121f01    ....    LDRB     r1,[r2,#1]!
        0x0000cc0c:    f8341011    4...    LDRH     r1,[r4,r1,LSL #1]
        0x0000cc10:    0843        C.      LSRS     r3,r0,#1
        0x0000cc12:    d012        ..      BEQ      0xcc3a ; am_hal_ble_default_patch_apply + 118
        0x0000cc14:    7850        Px      LDRB     r0,[r2,#1]
        0x0000cc16:    1e5b        [.      SUBS     r3,r3,#1
        0x0000cc18:    ea802011    ...     EOR      r0,r0,r1,LSR #8
        0x0000cc1c:    f8340010    4...    LDRH     r0,[r4,r0,LSL #1]
        0x0000cc20:    ea802001    ...     EOR      r0,r0,r1,LSL #8
        0x0000cc24:    f8121f02    ....    LDRB     r1,[r2,#2]!
        0x0000cc28:    b280        ..      UXTH     r0,r0
        0x0000cc2a:    ea812110    ...!    EOR      r1,r1,r0,LSR #8
        0x0000cc2e:    f8341011    4...    LDRH     r1,[r4,r1,LSL #1]
        0x0000cc32:    ea812000    ...     EOR      r0,r1,r0,LSL #8
        0x0000cc36:    b281        ..      UXTH     r1,r0
        0x0000cc38:    d1ec        ..      BNE      0xcc14 ; am_hal_ble_default_patch_apply + 80
        0x0000cc3a:    f8cc1008    ....    STR      r1,[r12,#8]
        0x0000cc3e:    f8561025    V.%.    LDR      r1,[r6,r5,LSL #2]
        0x0000cc42:    4640        @F      MOV      r0,r8
        0x0000cc44:    f000f8d2    ....    BL       am_hal_ble_patch_apply ; 0xcdec
        0x0000cc48:    2800        .(      CMP      r0,#0
        0x0000cc4a:    bf18        ..      IT       NE
        0x0000cc4c:    e8bd81f0    ....    POPNE    {r4-r8,pc}
        0x0000cc50:    1c6d        m.      ADDS     r5,r5,#1
        0x0000cc52:    42bd        .B      CMP      r5,r7
        0x0000cc54:    d3cc        ..      BCC      0xcbf0 ; am_hal_ble_default_patch_apply + 44
        0x0000cc56:    2000        .       MOVS     r0,#0
        0x0000cc58:    e8bd81f0    ....    POP      {r4-r8,pc}
        0x0000cc5c:    4805        .H      LDR      r0,[pc,#20] ; [0xcc74] = 0x10e80
        0x0000cc5e:    6807        .h      LDR      r7,[r0,#0]
        0x0000cc60:    4805        .H      LDR      r0,[pc,#20] ; [0xcc78] = 0x10000098
        0x0000cc62:    e7bf        ..      B        0xcbe4 ; am_hal_ble_default_patch_apply + 32
    $d
        0x0000cc64:    40020000    ...@    DCD    1073872896
        0x0000cc68:    000124d0    .$..    DCD    74960
        0x0000cc6c:    100002b0    ....    DCD    268436144
        0x0000cc70:    00010a0c    ....    DCD    68108
        0x0000cc74:    00010e80    ....    DCD    69248
        0x0000cc78:    10000098    ....    DCD    268435608
    $t
    i.am_hal_ble_default_trim_set_ramcode
    am_hal_ble_default_trim_set_ramcode
        0x0000cc7c:    4810        .H      LDR      r0,[pc,#64] ; [0xccc0] = 0x40020000
        0x0000cc7e:    68c0        .h      LDR      r0,[r0,#0xc]
        0x0000cc80:    b2c0        ..      UXTB     r0,r0
        0x0000cc82:    2821        !(      CMP      r0,#0x21
        0x0000cc84:    bf0c        ..      ITE      EQ
        0x0000cc86:    480f        .H      LDREQ    r0,[pc,#60] ; [0xccc4] = 0x10001568
        0x0000cc88:    480f        .H      LDRNE    r0,[pc,#60] ; [0xccc8] = 0x100001b4
        0x0000cc8a:    68c0        .h      LDR      r0,[r0,#0xc]
        0x0000cc8c:    490f        .I      LDR      r1,[pc,#60] ; [0xcccc] = 0x50023800
        0x0000cc8e:    6809        .h      LDR      r1,[r1,#0]
        0x0000cc90:    ba09        ..      REV      r1,r1
        0x0000cc92:    f1b13fff    ...?    CMP      r1,#0xffffffff
        0x0000cc96:    bf18        ..      IT       NE
        0x0000cc98:    6081        .`      STRNE    r1,[r0,#8]
        0x0000cc9a:    490d        .I      LDR      r1,[pc,#52] ; [0xccd0] = 0x50023804
        0x0000cc9c:    6809        .h      LDR      r1,[r1,#0]
        0x0000cc9e:    f1b13fff    ...?    CMP      r1,#0xffffffff
        0x0000cca2:    bf18        ..      IT       NE
        0x0000cca4:    f1014180    ...A    ADDNE    r1,r1,#0x40000000
        0x0000cca8:    ba09        ..      REV      r1,r1
        0x0000ccaa:    f1b13fff    ...?    CMP      r1,#0xffffffff
        0x0000ccae:    d004        ..      BEQ      0xccba ; am_hal_ble_default_trim_set_ramcode + 62
        0x0000ccb0:    68c2        .h      LDR      r2,[r0,#0xc]
        0x0000ccb2:    f42272f8    "..r    BIC      r2,r2,#0x1f0
        0x0000ccb6:    4311        .C      ORRS     r1,r1,r2
        0x0000ccb8:    60c1        .`      STR      r1,[r0,#0xc]
        0x0000ccba:    2000        .       MOVS     r0,#0
        0x0000ccbc:    4770        pG      BX       lr
    $d
        0x0000ccbe:    0000        ..      DCW    0
        0x0000ccc0:    40020000    ...@    DCD    1073872896
        0x0000ccc4:    10001568    h...    DCD    268440936
        0x0000ccc8:    100001b4    ....    DCD    268435892
        0x0000cccc:    50023800    .8.P    DCD    1342322688
        0x0000ccd0:    50023804    .8.P    DCD    1342322692
    $t
    i.am_hal_ble_deinitialize
    am_hal_ble_deinitialize
        0x0000ccd4:    2800        .(      CMP      r0,#0
        0x0000ccd6:    bf1c        ..      ITT      NE
        0x0000ccd8:    6801        .h      LDRNE    r1,[r0,#0]
        0x0000ccda:    f0117f80    ....    TSTNE    r1,#0x1000000
        0x0000ccde:    d004        ..      BEQ      0xccea ; am_hal_ble_deinitialize + 22
        0x0000cce0:    4a11        .J      LDR      r2,[pc,#68] ; [0xcd28] = 0x775230
        0x0000cce2:    f021417f    !..A    BIC      r1,r1,#0xff000000
        0x0000cce6:    4291        .B      CMP      r1,r2
        0x0000cce8:    d001        ..      BEQ      0xccee ; am_hal_ble_deinitialize + 26
        0x0000ccea:    2002        .       MOVS     r0,#2
        0x0000ccec:    4770        pG      BX       lr
        0x0000ccee:    2100        .!      MOVS     r1,#0
        0x0000ccf0:    60c1        .`      STR      r1,[r0,#0xc]
        0x0000ccf2:    6101        .a      STR      r1,[r0,#0x10]
        0x0000ccf4:    6141        Aa      STR      r1,[r0,#0x14]
        0x0000ccf6:    6181        .a      STR      r1,[r0,#0x18]
        0x0000ccf8:    61c1        .a      STR      r1,[r0,#0x1c]
        0x0000ccfa:    6201        .b      STR      r1,[r0,#0x20]
        0x0000ccfc:    6802        .h      LDR      r2,[r0,#0]
        0x0000ccfe:    f002427e    ..~B    AND      r2,r2,#0xfe000000
        0x0000cd02:    e9c02100    ...!    STRD     r2,r1,[r0,#0]
        0x0000cd06:    63c1        .c      STR      r1,[r0,#0x3c]
        0x0000cd08:    f8801040    ..@.    STRB     r1,[r0,#0x40]
        0x0000cd0c:    f8801041    ..A.    STRB     r1,[r0,#0x41]
        0x0000cd10:    f8801043    ..C.    STRB     r1,[r0,#0x43]
        0x0000cd14:    f8801044    ..D.    STRB     r1,[r0,#0x44]
        0x0000cd18:    f8801045    ..E.    STRB     r1,[r0,#0x45]
        0x0000cd1c:    f8801046    ..F.    STRB     r1,[r0,#0x46]
        0x0000cd20:    f8801047    ..G.    STRB     r1,[r0,#0x47]
        0x0000cd24:    2000        .       MOVS     r0,#0
        0x0000cd26:    4770        pG      BX       lr
    $d
        0x0000cd28:    00775230    0Rw.    DCD    7819824
    $t
    i.am_hal_ble_initialize
    am_hal_ble_initialize
        0x0000cd2c:    2800        .(      CMP      r0,#0
        0x0000cd2e:    bf1c        ..      ITT      NE
        0x0000cd30:    2005        .       MOVNE    r0,#5
        0x0000cd32:    4770        pG      BXNE     lr
        0x0000cd34:    2900        .)      CMP      r1,#0
        0x0000cd36:    bf04        ..      ITT      EQ
        0x0000cd38:    2006        .       MOVEQ    r0,#6
        0x0000cd3a:    4770        pG      BXEQ     lr
        0x0000cd3c:    2200        ."      MOVS     r2,#0
        0x0000cd3e:    4817        .H      LDR      r0,[pc,#92] ; [0xcd9c] = 0x10004460
        0x0000cd40:    6803        .h      LDR      r3,[r0,#0]
        0x0000cd42:    f0137f80    ....    TST      r3,#0x1000000
        0x0000cd46:    bf1c        ..      ITT      NE
        0x0000cd48:    2007        .       MOVNE    r0,#7
        0x0000cd4a:    4770        pG      BXNE     lr
        0x0000cd4c:    60c2        .`      STR      r2,[r0,#0xc]
        0x0000cd4e:    6102        .a      STR      r2,[r0,#0x10]
        0x0000cd50:    6142        Ba      STR      r2,[r0,#0x14]
        0x0000cd52:    6182        .a      STR      r2,[r0,#0x18]
        0x0000cd54:    61c2        .a      STR      r2,[r0,#0x1c]
        0x0000cd56:    6202        .b      STR      r2,[r0,#0x20]
        0x0000cd58:    6242        Bb      STR      r2,[r0,#0x24]
        0x0000cd5a:    6282        .b      STR      r2,[r0,#0x28]
        0x0000cd5c:    62c2        .b      STR      r2,[r0,#0x2c]
        0x0000cd5e:    6302        .c      STR      r2,[r0,#0x30]
        0x0000cd60:    f8dfc03c    ..<.    LDR      r12,[pc,#60] ; [0xcda0] = 0x775230
        0x0000cd64:    6342        Bc      STR      r2,[r0,#0x34]
        0x0000cd66:    f0437380    C..s    ORR      r3,r3,#0x1000000
        0x0000cd6a:    f36c0317    l...    BFI      r3,r12,#0,#24
        0x0000cd6e:    6382        .c      STR      r2,[r0,#0x38]
        0x0000cd70:    e9c03200    ...2    STRD     r3,r2,[r0,#0]
        0x0000cd74:    63c2        .c      STR      r2,[r0,#0x3c]
        0x0000cd76:    f8802040    ..@     STRB     r2,[r0,#0x40]
        0x0000cd7a:    f8802041    ..A     STRB     r2,[r0,#0x41]
        0x0000cd7e:    f8802043    ..C     STRB     r2,[r0,#0x43]
        0x0000cd82:    f8802044    ..D     STRB     r2,[r0,#0x44]
        0x0000cd86:    f8802045    ..E     STRB     r2,[r0,#0x45]
        0x0000cd8a:    f8802046    ..F     STRB     r2,[r0,#0x46]
        0x0000cd8e:    f8802047    ..G     STRB     r2,[r0,#0x47]
        0x0000cd92:    7202        .r      STRB     r2,[r0,#8]
        0x0000cd94:    6008        .`      STR      r0,[r1,#0]
        0x0000cd96:    2000        .       MOVS     r0,#0
        0x0000cd98:    4770        pG      BX       lr
    $d
        0x0000cd9a:    0000        ..      DCW    0
        0x0000cd9c:    10004460    `D..    DCD    268452960
        0x0000cda0:    00775230    0Rw.    DCD    7819824
    $t
    i.am_hal_ble_int_clear
    am_hal_ble_int_clear
        0x0000cda4:    2800        .(      CMP      r0,#0
        0x0000cda6:    bf1c        ..      ITT      NE
        0x0000cda8:    6800        .h      LDRNE    r0,[r0,#0]
        0x0000cdaa:    f0107f80    ....    TSTNE    r0,#0x1000000
        0x0000cdae:    d004        ..      BEQ      0xcdba ; am_hal_ble_int_clear + 22
        0x0000cdb0:    4a05        .J      LDR      r2,[pc,#20] ; [0xcdc8] = 0x775230
        0x0000cdb2:    f020407f     ..@    BIC      r0,r0,#0xff000000
        0x0000cdb6:    4290        .B      CMP      r0,r2
        0x0000cdb8:    d001        ..      BEQ      0xcdbe ; am_hal_ble_int_clear + 26
        0x0000cdba:    2002        .       MOVS     r0,#2
        0x0000cdbc:    4770        pG      BX       lr
        0x0000cdbe:    4803        .H      LDR      r0,[pc,#12] ; [0xcdcc] = 0x5000c000
        0x0000cdc0:    f8c01228    ..(.    STR      r1,[r0,#0x228]
        0x0000cdc4:    2000        .       MOVS     r0,#0
        0x0000cdc6:    4770        pG      BX       lr
    $d
        0x0000cdc8:    00775230    0Rw.    DCD    7819824
        0x0000cdcc:    5000c000    ...P    DCD    1342226432
    $t
    i.am_hal_ble_int_status
    am_hal_ble_int_status
        0x0000cdd0:    4805        .H      LDR      r0,[pc,#20] ; [0xcde8] = 0x5000c000
        0x0000cdd2:    2900        .)      CMP      r1,#0
        0x0000cdd4:    bf04        ..      ITT      EQ
        0x0000cdd6:    f8d00224    ..$.    LDREQ    r0,[r0,#0x224]
        0x0000cdda:    4770        pG      BXEQ     lr
        0x0000cddc:    f8d01220    .. .    LDR      r1,[r0,#0x220]
        0x0000cde0:    f8d00224    ..$.    LDR      r0,[r0,#0x224]
        0x0000cde4:    4008        .@      ANDS     r0,r0,r1
        0x0000cde6:    4770        pG      BX       lr
    $d
        0x0000cde8:    5000c000    ...P    DCD    1342226432
    $t
    i.am_hal_ble_patch_apply
    am_hal_ble_patch_apply
        0x0000cdec:    e92d4ff0    -..O    PUSH     {r4-r11,lr}
        0x0000cdf0:    b091        ..      SUB      sp,sp,#0x44
        0x0000cdf2:    460d        .F      MOV      r5,r1
        0x0000cdf4:    ea5f0900    _...    MOVS     r9,r0
        0x0000cdf8:    bf1c        ..      ITT      NE
        0x0000cdfa:    f8d90000    ....    LDRNE    r0,[r9,#0]
        0x0000cdfe:    f0107f80    ....    TSTNE    r0,#0x1000000
        0x0000ce02:    d004        ..      BEQ      0xce0e ; am_hal_ble_patch_apply + 34
        0x0000ce04:    4ec2        .N      LDR      r6,[pc,#776] ; [0xd110] = 0x775230
        0x0000ce06:    f020407f     ..@    BIC      r0,r0,#0xff000000
        0x0000ce0a:    42b0        .B      CMP      r0,r6
        0x0000ce0c:    d004        ..      BEQ      0xce18 ; am_hal_ble_patch_apply + 44
        0x0000ce0e:    b011        ..      ADD      sp,sp,#0x44
        0x0000ce10:    f04f0002    O...    MOV      r0,#2
        0x0000ce14:    e8bd8ff0    ....    POP      {r4-r11,pc}
        0x0000ce18:    f04f0001    O...    MOV      r0,#1
        0x0000ce1c:    f88d0000    ....    STRB     r0,[sp,#0]
        0x0000ce20:    7828        (x      LDRB     r0,[r5,#0]
        0x0000ce22:    f88d0001    ....    STRB     r0,[sp,#1]
        0x0000ce26:    f04f00f1    O...    MOV      r0,#0xf1
        0x0000ce2a:    f88d0002    ....    STRB     r0,[sp,#2]
        0x0000ce2e:    f04f0002    O...    MOV      r0,#2
        0x0000ce32:    f88d0003    ....    STRB     r0,[sp,#3]
        0x0000ce36:    7928        (y      LDRB     r0,[r5,#4]
        0x0000ce38:    f88d0004    ....    STRB     r0,[sp,#4]
        0x0000ce3c:    88a8        ..      LDRH     r0,[r5,#4]
        0x0000ce3e:    f8df82d4    ....    LDR      r8,[pc,#724] ; [0xd114] = 0x10a0c
        0x0000ce42:    ea4f2010    O..     LSR      r0,r0,#8
        0x0000ce46:    f88d0005    ....    STRB     r0,[sp,#5]
        0x0000ce4a:    f04f0400    O...    MOV      r4,#0
        0x0000ce4e:    f04f0706    O...    MOV      r7,#6
        0x0000ce52:    bf00        ..      NOP      
        0x0000ce54:    f5087301    ...s    ADD      r3,r8,#0x204
        0x0000ce58:    4669        iF      MOV      r1,sp
        0x0000ce5a:    e8935c08    ...\    LDM      r3,{r3,r10-r12,lr}
        0x0000ce5e:    e9cd130a    ....    STRD     r1,r3,[sp,#0x28]
        0x0000ce62:    a90c        ..      ADD      r1,sp,#0x30
        0x0000ce64:    f04f0200    O...    MOV      r2,#0
        0x0000ce68:    e8815c00    ...\    STM      r1,{r10-r12,lr}
        0x0000ce6c:    ea5f0009    _...    MOVS     r0,r9
        0x0000ce70:    f88d202c    ..,     STRB     r2,[sp,#0x2c]
        0x0000ce74:    f8ad7030    ..0p    STRH     r7,[sp,#0x30]
        0x0000ce78:    bf1c        ..      ITT      NE
        0x0000ce7a:    6801        .h      LDRNE    r1,[r0,#0]
        0x0000ce7c:    f0117f80    ....    TSTNE    r1,#0x1000000
        0x0000ce80:    d00f        ..      BEQ      0xcea2 ; am_hal_ble_patch_apply + 182
        0x0000ce82:    f021417f    !..A    BIC      r1,r1,#0xff000000
        0x0000ce86:    42b1        .B      CMP      r1,r6
        0x0000ce88:    d10b        ..      BNE      0xcea2 ; am_hal_ble_patch_apply + 182
        0x0000ce8a:    a90a        ..      ADD      r1,sp,#0x28
        0x0000ce8c:    f7fffb4e    ..N.    BL       am_hal_ble_blocking_transfer ; 0xc52c
        0x0000ce90:    b138        8.      CBZ      r0,0xcea2 ; am_hal_ble_patch_apply + 182
        0x0000ce92:    f2413188    A..1    MOV      r1,#0x1388
        0x0000ce96:    1c64        d.      ADDS     r4,r4,#1
        0x0000ce98:    428c        .B      CMP      r4,r1
        0x0000ce9a:    d3db        ..      BCC      0xce54 ; am_hal_ble_patch_apply + 104
        0x0000ce9c:    b011        ..      ADD      sp,sp,#0x44
        0x0000ce9e:    e8bd8ff0    ....    POP      {r4-r11,pc}
        0x0000cea2:    4e9d        .N      LDR      r6,[pc,#628] ; [0xd118] = 0x5000c000
        0x0000cea4:    2400        .$      MOVS     r4,#0
        0x0000cea6:    f8d6030c    ....    LDR      r0,[r6,#0x30c]
        0x0000ceaa:    f0100f80    ....    TST      r0,#0x80
        0x0000ceae:    bf08        ..      IT       EQ
        0x0000ceb0:    4f9a        .O      LDREQ    r7,[pc,#616] ; [0xd11c] = 0xf4240
        0x0000ceb2:    d10c        ..      BNE      0xcece ; am_hal_ble_patch_apply + 226
        0x0000ceb4:    e002        ..      B        0xcebc ; am_hal_ble_patch_apply + 208
        0x0000ceb6:    42bc        .B      CMP      r4,r7
        0x0000ceb8:    f08080e5    ....    BCS.W    0xd086 ; am_hal_ble_patch_apply + 666
        0x0000cebc:    2010        .       MOVS     r0,#0x10
        0x0000cebe:    f000fffd    ....    BL       am_hal_flash_delay ; 0xdebc
        0x0000cec2:    f8d6030c    ....    LDR      r0,[r6,#0x30c]
        0x0000cec6:    1c64        d.      ADDS     r4,r4,#1
        0x0000cec8:    f0100f80    ....    TST      r0,#0x80
        0x0000cecc:    d0f3        ..      BEQ      0xceb6 ; am_hal_ble_patch_apply + 202
        0x0000cece:    f04f0800    O...    MOV      r8,#0
        0x0000ced2:    f8cd8018    ....    STR      r8,[sp,#0x18]
        0x0000ced6:    2002        .       MOVS     r0,#2
        0x0000ced8:    f88d001a    ....    STRB     r0,[sp,#0x1a]
        0x0000cedc:    2005        .       MOVS     r0,#5
        0x0000cede:    f8cd8024    ..$.    STR      r8,[sp,#0x24]
        0x0000cee2:    f8ad0018    ....    STRH     r0,[sp,#0x18]
        0x0000cee6:    f8cd8014    ....    STR      r8,[sp,#0x14]
        0x0000ceea:    f8cd801c    ....    STR      r8,[sp,#0x1c]
        0x0000ceee:    f8cd8020    .. .    STR      r8,[sp,#0x20]
        0x0000cef2:    f8cdd010    ....    STR      sp,[sp,#0x10]
        0x0000cef6:    a904        ..      ADD      r1,sp,#0x10
        0x0000cef8:    4648        HF      MOV      r0,r9
        0x0000cefa:    f7fffb17    ....    BL       am_hal_ble_blocking_transfer ; 0xc52c
        0x0000cefe:    2800        .(      CMP      r0,#0
        0x0000cf00:    bf1c        ..      ITT      NE
        0x0000cf02:    b011        ..      ADDNE    sp,sp,#0x44
        0x0000cf04:    e8bd8ff0    ....    POPNE    {r4-r11,pc}
        0x0000cf08:    7828        (x      LDRB     r0,[r5,#0]
        0x0000cf0a:    f89d2000    ...     LDRB     r2,[sp,#0]
        0x0000cf0e:    2a04        .*      CMP      r2,#4
        0x0000cf10:    bf04        ..      ITT      EQ
        0x0000cf12:    f89d2001    ...     LDRBEQ   r2,[sp,#1]
        0x0000cf16:    4282        .B      CMPEQ    r2,r0
        0x0000cf18:    f04080f5    @...    BNE.W    0xd106 ; am_hal_ble_patch_apply + 794
        0x0000cf1c:    f89d0002    ....    LDRB     r0,[sp,#2]
        0x0000cf20:    28f1        .(      CMP      r0,#0xf1
        0x0000cf22:    bf01        ..      ITTTT    EQ
        0x0000cf24:    f89d0003    ....    LDRBEQ   r0,[sp,#3]
        0x0000cf28:    2801        .(      CMPEQ    r0,#1
        0x0000cf2a:    f89d0004    ....    LDRBEQ   r0,[sp,#4]
        0x0000cf2e:    2800        .(      CMPEQ    r0,#0
        0x0000cf30:    f04080e9    @...    BNE.W    0xd106 ; am_hal_ble_patch_apply + 794
        0x0000cf34:    f8d5a004    ....    LDR      r10,[r5,#4]
        0x0000cf38:    f04f0000    O...    MOV      r0,#0
        0x0000cf3c:    900a        ..      STR      r0,[sp,#0x28]
        0x0000cf3e:    f1ba0f00    ....    CMP      r10,#0
        0x0000cf42:    d07a        z.      BEQ      0xd03a ; am_hal_ble_patch_apply + 590
        0x0000cf44:    f1ba0f80    ....    CMP      r10,#0x80
        0x0000cf48:    bf8c        ..      ITE      HI
        0x0000cf4a:    2780        .'      MOVHI    r7,#0x80
        0x0000cf4c:    4657        WF      MOVLS    r7,r10
        0x0000cf4e:    f8cd8014    ....    STR      r8,[sp,#0x14]
        0x0000cf52:    f8cd8018    ....    STR      r8,[sp,#0x18]
        0x0000cf56:    2001        .       MOVS     r0,#1
        0x0000cf58:    4b71        qK      LDR      r3,[pc,#452] ; [0xd120] = 0x100044a8
        0x0000cf5a:    f8cd801c    ....    STR      r8,[sp,#0x1c]
        0x0000cf5e:    f8cd8024    ..$.    STR      r8,[sp,#0x24]
        0x0000cf62:    f88d001a    ....    STRB     r0,[sp,#0x1a]
        0x0000cf66:    1d39        9.      ADDS     r1,r7,#4
        0x0000cf68:    f8cd8020    .. .    STR      r8,[sp,#0x20]
        0x0000cf6c:    9304        ..      STR      r3,[sp,#0x10]
        0x0000cf6e:    f8ad1018    ....    STRH     r1,[sp,#0x18]
        0x0000cf72:    f88d801c    ....    STRB     r8,[sp,#0x1c]
        0x0000cf76:    7018        .p      STRB     r0,[r3,#0]
        0x0000cf78:    7828        (x      LDRB     r0,[r5,#0]
        0x0000cf7a:    7058        Xp      STRB     r0,[r3,#1]
        0x0000cf7c:    20f2        .       MOVS     r0,#0xf2
        0x0000cf7e:    7098        .p      STRB     r0,[r3,#2]
        0x0000cf80:    70df        .p      STRB     r7,[r3,#3]
        0x0000cf82:    980a        ..      LDR      r0,[sp,#0x28]
        0x0000cf84:    68e9        .h      LDR      r1,[r5,#0xc]
        0x0000cf86:    f0200003     ...    BIC      r0,r0,#3
        0x0000cf8a:    4401        .D      ADD      r1,r1,r0
        0x0000cf8c:    463a        :F      MOV      r2,r7
        0x0000cf8e:    1d18        ..      ADDS     r0,r3,#4
        0x0000cf90:    f7fff96e    ..n.    BL       __aeabi_memcpy4 ; 0xc270
        0x0000cf94:    a904        ..      ADD      r1,sp,#0x10
        0x0000cf96:    4648        HF      MOV      r0,r9
        0x0000cf98:    f7fffac8    ....    BL       am_hal_ble_blocking_transfer ; 0xc52c
        0x0000cf9c:    2800        .(      CMP      r0,#0
        0x0000cf9e:    bf1c        ..      ITT      NE
        0x0000cfa0:    b011        ..      ADDNE    sp,sp,#0x44
        0x0000cfa2:    e8bd8ff0    ....    POPNE    {r4-r11,pc}
        0x0000cfa6:    2400        .$      MOVS     r4,#0
        0x0000cfa8:    f8d6030c    ....    LDR      r0,[r6,#0x30c]
        0x0000cfac:    f0100f80    ....    TST      r0,#0x80
        0x0000cfb0:    bf08        ..      IT       EQ
        0x0000cfb2:    f8dfb168    ..h.    LDREQ    r11,[pc,#360] ; [0xd11c] = 0xf4240
        0x0000cfb6:    d10b        ..      BNE      0xcfd0 ; am_hal_ble_patch_apply + 484
        0x0000cfb8:    e001        ..      B        0xcfbe ; am_hal_ble_patch_apply + 466
        0x0000cfba:    455c        \E      CMP      r4,r11
        0x0000cfbc:    d263        c.      BCS      0xd086 ; am_hal_ble_patch_apply + 666
        0x0000cfbe:    2010        .       MOVS     r0,#0x10
        0x0000cfc0:    f000ff7c    ..|.    BL       am_hal_flash_delay ; 0xdebc
        0x0000cfc4:    f8d6030c    ....    LDR      r0,[r6,#0x30c]
        0x0000cfc8:    1c64        d.      ADDS     r4,r4,#1
        0x0000cfca:    f0100f80    ....    TST      r0,#0x80
        0x0000cfce:    d0f4        ..      BEQ      0xcfba ; am_hal_ble_patch_apply + 462
        0x0000cfd0:    f8cd8018    ....    STR      r8,[sp,#0x18]
        0x0000cfd4:    2002        .       MOVS     r0,#2
        0x0000cfd6:    f88d001a    ....    STRB     r0,[sp,#0x1a]
        0x0000cfda:    2005        .       MOVS     r0,#5
        0x0000cfdc:    f8cd8024    ..$.    STR      r8,[sp,#0x24]
        0x0000cfe0:    f8ad0018    ....    STRH     r0,[sp,#0x18]
        0x0000cfe4:    f8cd8014    ....    STR      r8,[sp,#0x14]
        0x0000cfe8:    f8cd801c    ....    STR      r8,[sp,#0x1c]
        0x0000cfec:    f8cd8020    .. .    STR      r8,[sp,#0x20]
        0x0000cff0:    f8cdd010    ....    STR      sp,[sp,#0x10]
        0x0000cff4:    a904        ..      ADD      r1,sp,#0x10
        0x0000cff6:    4648        HF      MOV      r0,r9
        0x0000cff8:    f7fffa98    ....    BL       am_hal_ble_blocking_transfer ; 0xc52c
        0x0000cffc:    2800        .(      CMP      r0,#0
        0x0000cffe:    bf1c        ..      ITT      NE
        0x0000d000:    b011        ..      ADDNE    sp,sp,#0x44
        0x0000d002:    e8bd8ff0    ....    POPNE    {r4-r11,pc}
        0x0000d006:    7828        (x      LDRB     r0,[r5,#0]
        0x0000d008:    f89d1000    ....    LDRB     r1,[sp,#0]
        0x0000d00c:    2904        .)      CMP      r1,#4
        0x0000d00e:    bf04        ..      ITT      EQ
        0x0000d010:    f89d1001    ....    LDRBEQ   r1,[sp,#1]
        0x0000d014:    4281        .B      CMPEQ    r1,r0
        0x0000d016:    d176        v.      BNE      0xd106 ; am_hal_ble_patch_apply + 794
        0x0000d018:    f89d0002    ....    LDRB     r0,[sp,#2]
        0x0000d01c:    28f2        .(      CMP      r0,#0xf2
        0x0000d01e:    bf01        ..      ITTTT    EQ
        0x0000d020:    f89d0003    ....    LDRBEQ   r0,[sp,#3]
        0x0000d024:    2801        .(      CMPEQ    r0,#1
        0x0000d026:    f89d0004    ....    LDRBEQ   r0,[sp,#4]
        0x0000d02a:    2800        .(      CMPEQ    r0,#0
        0x0000d02c:    d16b        k.      BNE      0xd106 ; am_hal_ble_patch_apply + 794
        0x0000d02e:    980a        ..      LDR      r0,[sp,#0x28]
        0x0000d030:    ebba0a07    ....    SUBS     r10,r10,r7
        0x0000d034:    4438        8D      ADD      r0,r0,r7
        0x0000d036:    900a        ..      STR      r0,[sp,#0x28]
        0x0000d038:    d184        ..      BNE      0xcf44 ; am_hal_ble_patch_apply + 344
        0x0000d03a:    2001        .       MOVS     r0,#1
        0x0000d03c:    f88d0000    ....    STRB     r0,[sp,#0]
        0x0000d040:    7828        (x      LDRB     r0,[r5,#0]
        0x0000d042:    f88d0001    ....    STRB     r0,[sp,#1]
        0x0000d046:    20f3        .       MOVS     r0,#0xf3
        0x0000d048:    f88d0002    ....    STRB     r0,[sp,#2]
        0x0000d04c:    2702        .'      MOVS     r7,#2
        0x0000d04e:    f88d7003    ...p    STRB     r7,[sp,#3]
        0x0000d052:    7a28        (z      LDRB     r0,[r5,#8]
        0x0000d054:    f88d0004    ....    STRB     r0,[sp,#4]
        0x0000d058:    8928        (.      LDRH     r0,[r5,#8]
        0x0000d05a:    2306        .#      MOVS     r3,#6
        0x0000d05c:    0a00        ..      LSRS     r0,r0,#8
        0x0000d05e:    f88d0005    ....    STRB     r0,[sp,#5]
        0x0000d062:    466a        jF      MOV      r2,sp
        0x0000d064:    2100        .!      MOVS     r1,#0
        0x0000d066:    4648        HF      MOV      r0,r9
        0x0000d068:    f7fffa38    ..8.    BL       am_hal_ble_blocking_hci_write ; 0xc4dc
        0x0000d06c:    bbf0        ..      CBNZ     r0,0xd0ec ; am_hal_ble_patch_apply + 768
        0x0000d06e:    f8d6030c    ....    LDR      r0,[r6,#0x30c]
        0x0000d072:    2400        .$      MOVS     r4,#0
        0x0000d074:    f0100f80    ....    TST      r0,#0x80
        0x0000d078:    bf08        ..      IT       EQ
        0x0000d07a:    f8dfa0a0    ....    LDREQ    r10,[pc,#160] ; [0xd11c] = 0xf4240
        0x0000d07e:    d10f        ..      BNE      0xd0a0 ; am_hal_ble_patch_apply + 692
        0x0000d080:    e005        ..      B        0xd08e ; am_hal_ble_patch_apply + 674
        0x0000d082:    4554        TE      CMP      r4,r10
        0x0000d084:    d303        ..      BCC      0xd08e ; am_hal_ble_patch_apply + 674
        0x0000d086:    b011        ..      ADD      sp,sp,#0x44
        0x0000d088:    4826        &H      LDR      r0,[pc,#152] ; [0xd124] = 0x8000004
        0x0000d08a:    e8bd8ff0    ....    POP      {r4-r11,pc}
        0x0000d08e:    2010        .       MOVS     r0,#0x10
        0x0000d090:    f000ff14    ....    BL       am_hal_flash_delay ; 0xdebc
        0x0000d094:    f8d6030c    ....    LDR      r0,[r6,#0x30c]
        0x0000d098:    1c64        d.      ADDS     r4,r4,#1
        0x0000d09a:    f0100f80    ....    TST      r0,#0x80
        0x0000d09e:    d0f0        ..      BEQ      0xd082 ; am_hal_ble_patch_apply + 662
        0x0000d0a0:    f8cd8018    ....    STR      r8,[sp,#0x18]
        0x0000d0a4:    f88d701a    ...p    STRB     r7,[sp,#0x1a]
        0x0000d0a8:    2005        .       MOVS     r0,#5
        0x0000d0aa:    f8cd8024    ..$.    STR      r8,[sp,#0x24]
        0x0000d0ae:    f8ad0018    ....    STRH     r0,[sp,#0x18]
        0x0000d0b2:    f8cd8014    ....    STR      r8,[sp,#0x14]
        0x0000d0b6:    f8cd801c    ....    STR      r8,[sp,#0x1c]
        0x0000d0ba:    f8cd8020    .. .    STR      r8,[sp,#0x20]
        0x0000d0be:    f8cdd010    ....    STR      sp,[sp,#0x10]
        0x0000d0c2:    a904        ..      ADD      r1,sp,#0x10
        0x0000d0c4:    4648        HF      MOV      r0,r9
        0x0000d0c6:    f7fffa31    ..1.    BL       am_hal_ble_blocking_transfer ; 0xc52c
        0x0000d0ca:    2800        .(      CMP      r0,#0
        0x0000d0cc:    bf1c        ..      ITT      NE
        0x0000d0ce:    b011        ..      ADDNE    sp,sp,#0x44
        0x0000d0d0:    e8bd8ff0    ....    POPNE    {r4-r11,pc}
        0x0000d0d4:    7828        (x      LDRB     r0,[r5,#0]
        0x0000d0d6:    f89d1000    ....    LDRB     r1,[sp,#0]
        0x0000d0da:    2904        .)      CMP      r1,#4
        0x0000d0dc:    bf04        ..      ITT      EQ
        0x0000d0de:    f89d1001    ....    LDRBEQ   r1,[sp,#1]
        0x0000d0e2:    4281        .B      CMPEQ    r1,r0
        0x0000d0e4:    d10f        ..      BNE      0xd106 ; am_hal_ble_patch_apply + 794
        0x0000d0e6:    f89d0002    ....    LDRB     r0,[sp,#2]
        0x0000d0ea:    e000        ..      B        0xd0ee ; am_hal_ble_patch_apply + 770
        0x0000d0ec:    e00b        ..      B        0xd106 ; am_hal_ble_patch_apply + 794
        0x0000d0ee:    28f3        .(      CMP      r0,#0xf3
        0x0000d0f0:    bf01        ..      ITTTT    EQ
        0x0000d0f2:    f89d0003    ....    LDRBEQ   r0,[sp,#3]
        0x0000d0f6:    2801        .(      CMPEQ    r0,#1
        0x0000d0f8:    f89d0004    ....    LDRBEQ   r0,[sp,#4]
        0x0000d0fc:    2800        .(      CMPEQ    r0,#0
        0x0000d0fe:    bf04        ..      ITT      EQ
        0x0000d100:    b011        ..      ADDEQ    sp,sp,#0x44
        0x0000d102:    e8bd8ff0    ....    POPEQ    {r4-r11,pc}
        0x0000d106:    f04f0001    O...    MOV      r0,#1
        0x0000d10a:    b011        ..      ADD      sp,sp,#0x44
        0x0000d10c:    e8bd8ff0    ....    POP      {r4-r11,pc}
    $d
        0x0000d110:    00775230    0Rw.    DCD    7819824
        0x0000d114:    00010a0c    ....    DCD    68108
        0x0000d118:    5000c000    ...P    DCD    1342226432
        0x0000d11c:    000f4240    @B..    DCD    1000000
        0x0000d120:    100044a8    .D..    DCD    268453032
        0x0000d124:    08000004    ....    DCD    134217732
    $t
    i.am_hal_ble_patch_complete
    am_hal_ble_patch_complete
        0x0000d128:    e92d4ff0    -..O    PUSH     {r4-r11,lr}
        0x0000d12c:    b093        ..      SUB      sp,sp,#0x4c
        0x0000d12e:    0005        ..      MOVS     r5,r0
        0x0000d130:    bf1c        ..      ITT      NE
        0x0000d132:    6828        (h      LDRNE    r0,[r5,#0]
        0x0000d134:    f0107f80    ....    TSTNE    r0,#0x1000000
        0x0000d138:    d004        ..      BEQ      0xd144 ; am_hal_ble_patch_complete + 28
        0x0000d13a:    499f        .I      LDR      r1,[pc,#636] ; [0xd3b8] = 0x775230
        0x0000d13c:    f020407f     ..@    BIC      r0,r0,#0xff000000
        0x0000d140:    4288        .B      CMP      r0,r1
        0x0000d142:    d003        ..      BEQ      0xd14c ; am_hal_ble_patch_complete + 36
        0x0000d144:    b013        ..      ADD      sp,sp,#0x4c
        0x0000d146:    2002        .       MOVS     r0,#2
        0x0000d148:    e8bd8ff0    ....    POP      {r4-r11,pc}
        0x0000d14c:    f04f0b00    O...    MOV      r11,#0
        0x0000d150:    f8cdb014    ....    STR      r11,[sp,#0x14]
        0x0000d154:    a80a        ..      ADD      r0,sp,#0x28
        0x0000d156:    2601        .&      MOVS     r6,#1
        0x0000d158:    9000        ..      STR      r0,[sp,#0]
        0x0000d15a:    f8cdb008    ....    STR      r11,[sp,#8]
        0x0000d15e:    f88d600a    ...`    STRB     r6,[sp,#0xa]
        0x0000d162:    2006        .       MOVS     r0,#6
        0x0000d164:    f8ad0008    ....    STRH     r0,[sp,#8]
        0x0000d168:    f88d6028    ..(`    STRB     r6,[sp,#0x28]
        0x0000d16c:    20ee        .       MOVS     r0,#0xee
        0x0000d16e:    f88d0029    ..).    STRB     r0,[sp,#0x29]
        0x0000d172:    20f1        .       MOVS     r0,#0xf1
        0x0000d174:    f8cdb004    ....    STR      r11,[sp,#4]
        0x0000d178:    f88d002a    ..*.    STRB     r0,[sp,#0x2a]
        0x0000d17c:    f04f0902    O...    MOV      r9,#2
        0x0000d180:    f88db02c    ..,.    STRB     r11,[sp,#0x2c]
        0x0000d184:    f8cdb00c    ....    STR      r11,[sp,#0xc]
        0x0000d188:    f8cdb010    ....    STR      r11,[sp,#0x10]
        0x0000d18c:    f88d902b    ..+.    STRB     r9,[sp,#0x2b]
        0x0000d190:    f88db02d    ..-.    STRB     r11,[sp,#0x2d]
        0x0000d194:    2400        .$      MOVS     r4,#0
        0x0000d196:    f2413a88    A..:    MOV      r10,#0x1388
        0x0000d19a:    4669        iF      MOV      r1,sp
        0x0000d19c:    4628        (F      MOV      r0,r5
        0x0000d19e:    f7fff9c5    ....    BL       am_hal_ble_blocking_transfer ; 0xc52c
        0x0000d1a2:    2800        .(      CMP      r0,#0
        0x0000d1a4:    bf1c        ..      ITT      NE
        0x0000d1a6:    1c64        d.      ADDNE    r4,r4,#1
        0x0000d1a8:    4554        TE      CMPNE    r4,r10
        0x0000d1aa:    d3f6        ..      BCC      0xd19a ; am_hal_ble_patch_complete + 114
        0x0000d1ac:    4f83        .O      LDR      r7,[pc,#524] ; [0xd3bc] = 0x5000c000
        0x0000d1ae:    2400        .$      MOVS     r4,#0
        0x0000d1b0:    f8d7030c    ....    LDR      r0,[r7,#0x30c]
        0x0000d1b4:    f8df8208    ....    LDR      r8,[pc,#520] ; [0xd3c0] = 0x186a0
        0x0000d1b8:    f0100f80    ....    TST      r0,#0x80
        0x0000d1bc:    d10b        ..      BNE      0xd1d6 ; am_hal_ble_patch_complete + 174
        0x0000d1be:    e001        ..      B        0xd1c4 ; am_hal_ble_patch_complete + 156
        0x0000d1c0:    4544        DE      CMP      r4,r8
        0x0000d1c2:    d26a        j.      BCS      0xd29a ; am_hal_ble_patch_complete + 370
        0x0000d1c4:    2010        .       MOVS     r0,#0x10
        0x0000d1c6:    f000fe79    ..y.    BL       am_hal_flash_delay ; 0xdebc
        0x0000d1ca:    f8d7030c    ....    LDR      r0,[r7,#0x30c]
        0x0000d1ce:    1c64        d.      ADDS     r4,r4,#1
        0x0000d1d0:    f0100f80    ....    TST      r0,#0x80
        0x0000d1d4:    d0f4        ..      BEQ      0xd1c0 ; am_hal_ble_patch_complete + 152
        0x0000d1d6:    a806        ..      ADD      r0,sp,#0x18
        0x0000d1d8:    f88d900a    ....    STRB     r9,[sp,#0xa]
        0x0000d1dc:    9000        ..      STR      r0,[sp,#0]
        0x0000d1de:    f8ad9008    ....    STRH     r9,[sp,#8]
        0x0000d1e2:    4669        iF      MOV      r1,sp
        0x0000d1e4:    4628        (F      MOV      r0,r5
        0x0000d1e6:    f7fff9a1    ....    BL       am_hal_ble_blocking_transfer ; 0xc52c
        0x0000d1ea:    2800        .(      CMP      r0,#0
        0x0000d1ec:    bf1c        ..      ITT      NE
        0x0000d1ee:    b013        ..      ADDNE    sp,sp,#0x4c
        0x0000d1f0:    e8bd8ff0    ....    POPNE    {r4-r11,pc}
        0x0000d1f4:    f89d0019    ....    LDRB     r0,[sp,#0x19]
        0x0000d1f8:    28ee        .(      CMP      r0,#0xee
        0x0000d1fa:    d010        ..      BEQ      0xd21e ; am_hal_ble_patch_complete + 246
        0x0000d1fc:    f89d1018    ....    LDRB     r1,[sp,#0x18]
        0x0000d200:    eb012000    ...     ADD      r0,r1,r0,LSL #8
        0x0000d204:    f8ad0008    ....    STRH     r0,[sp,#8]
        0x0000d208:    4669        iF      MOV      r1,sp
        0x0000d20a:    4628        (F      MOV      r0,r5
        0x0000d20c:    f7fff98e    ....    BL       am_hal_ble_blocking_transfer ; 0xc52c
        0x0000d210:    2800        .(      CMP      r0,#0
        0x0000d212:    bf08        ..      IT       EQ
        0x0000d214:    f8856040    ..@`    STRBEQ   r6,[r5,#0x40]
        0x0000d218:    b013        ..      ADD      sp,sp,#0x4c
        0x0000d21a:    e8bd8ff0    ....    POP      {r4-r11,pc}
        0x0000d21e:    2003        .       MOVS     r0,#3
        0x0000d220:    f8ad0008    ....    STRH     r0,[sp,#8]
        0x0000d224:    4669        iF      MOV      r1,sp
        0x0000d226:    4628        (F      MOV      r0,r5
        0x0000d228:    f7fff980    ....    BL       am_hal_ble_blocking_transfer ; 0xc52c
        0x0000d22c:    2800        .(      CMP      r0,#0
        0x0000d22e:    bf1c        ..      ITT      NE
        0x0000d230:    b013        ..      ADDNE    sp,sp,#0x4c
        0x0000d232:    e8bd8ff0    ....    POPNE    {r4-r11,pc}
        0x0000d236:    f8cdb004    ....    STR      r11,[sp,#4]
        0x0000d23a:    f8cdb014    ....    STR      r11,[sp,#0x14]
        0x0000d23e:    a80a        ..      ADD      r0,sp,#0x28
        0x0000d240:    9000        ..      STR      r0,[sp,#0]
        0x0000d242:    f8cdb008    ....    STR      r11,[sp,#8]
        0x0000d246:    f88d600a    ...`    STRB     r6,[sp,#0xa]
        0x0000d24a:    2005        .       MOVS     r0,#5
        0x0000d24c:    f8ad0008    ....    STRH     r0,[sp,#8]
        0x0000d250:    f88d6028    ..(`    STRB     r6,[sp,#0x28]
        0x0000d254:    2004        .       MOVS     r0,#4
        0x0000d256:    f88d0029    ..).    STRB     r0,[sp,#0x29]
        0x0000d25a:    20fd        .       MOVS     r0,#0xfd
        0x0000d25c:    f88d002a    ..*.    STRB     r0,[sp,#0x2a]
        0x0000d260:    f8cdb00c    ....    STR      r11,[sp,#0xc]
        0x0000d264:    f8cdb010    ....    STR      r11,[sp,#0x10]
        0x0000d268:    f88d602b    ..+`    STRB     r6,[sp,#0x2b]
        0x0000d26c:    f88d602c    ..,`    STRB     r6,[sp,#0x2c]
        0x0000d270:    2400        .$      MOVS     r4,#0
        0x0000d272:    4669        iF      MOV      r1,sp
        0x0000d274:    4628        (F      MOV      r0,r5
        0x0000d276:    f7fff959    ..Y.    BL       am_hal_ble_blocking_transfer ; 0xc52c
        0x0000d27a:    b128        (.      CBZ      r0,0xd288 ; am_hal_ble_patch_complete + 352
        0x0000d27c:    1c64        d.      ADDS     r4,r4,#1
        0x0000d27e:    4554        TE      CMP      r4,r10
        0x0000d280:    d3f7        ..      BCC      0xd272 ; am_hal_ble_patch_complete + 330
        0x0000d282:    b013        ..      ADD      sp,sp,#0x4c
        0x0000d284:    e8bd8ff0    ....    POP      {r4-r11,pc}
        0x0000d288:    f8d7030c    ....    LDR      r0,[r7,#0x30c]
        0x0000d28c:    2400        .$      MOVS     r4,#0
        0x0000d28e:    f0100f80    ....    TST      r0,#0x80
        0x0000d292:    d10f        ..      BNE      0xd2b4 ; am_hal_ble_patch_complete + 396
        0x0000d294:    e005        ..      B        0xd2a2 ; am_hal_ble_patch_complete + 378
        0x0000d296:    4544        DE      CMP      r4,r8
        0x0000d298:    d303        ..      BCC      0xd2a2 ; am_hal_ble_patch_complete + 378
        0x0000d29a:    b013        ..      ADD      sp,sp,#0x4c
        0x0000d29c:    4849        IH      LDR      r0,[pc,#292] ; [0xd3c4] = 0x8000004
        0x0000d29e:    e8bd8ff0    ....    POP      {r4-r11,pc}
        0x0000d2a2:    2010        .       MOVS     r0,#0x10
        0x0000d2a4:    f000fe0a    ....    BL       am_hal_flash_delay ; 0xdebc
        0x0000d2a8:    f8d7030c    ....    LDR      r0,[r7,#0x30c]
        0x0000d2ac:    1c64        d.      ADDS     r4,r4,#1
        0x0000d2ae:    f0100f80    ....    TST      r0,#0x80
        0x0000d2b2:    d0f0        ..      BEQ      0xd296 ; am_hal_ble_patch_complete + 366
        0x0000d2b4:    a806        ..      ADD      r0,sp,#0x18
        0x0000d2b6:    9000        ..      STR      r0,[sp,#0]
        0x0000d2b8:    f88d900a    ....    STRB     r9,[sp,#0xa]
        0x0000d2bc:    2009        .       MOVS     r0,#9
        0x0000d2be:    f8ad0008    ....    STRH     r0,[sp,#8]
        0x0000d2c2:    4669        iF      MOV      r1,sp
        0x0000d2c4:    4628        (F      MOV      r0,r5
        0x0000d2c6:    f7fff931    ..1.    BL       am_hal_ble_blocking_transfer ; 0xc52c
        0x0000d2ca:    2800        .(      CMP      r0,#0
        0x0000d2cc:    bf1c        ..      ITT      NE
        0x0000d2ce:    b013        ..      ADDNE    sp,sp,#0x4c
        0x0000d2d0:    e8bd8ff0    ....    POPNE    {r4-r11,pc}
        0x0000d2d4:    2100        .!      MOVS     r1,#0
        0x0000d2d6:    4628        (F      MOV      r0,r5
        0x0000d2d8:    f000fbd0    ....    BL       am_hal_ble_wakeup_set ; 0xda7c
        0x0000d2dc:    f8856040    ..@`    STRB     r6,[r5,#0x40]
        0x0000d2e0:    4839        9H      LDR      r0,[pc,#228] ; [0xd3c8] = 0x7a1200
        0x0000d2e2:    f000fdeb    ....    BL       am_hal_flash_delay ; 0xdebc
        0x0000d2e6:    4839        9H      LDR      r0,[pc,#228] ; [0xd3cc] = 0x50023808
        0x0000d2e8:    6800        .h      LDR      r0,[r0,#0]
        0x0000d2ea:    4a39        9J      LDR      r2,[pc,#228] ; [0xd3d0] = 0x18240600
        0x0000d2ec:    f02001ff     ...    BIC      r1,r0,#0xff
        0x0000d2f0:    4291        .B      CMP      r1,r2
        0x0000d2f2:    d158        X.      BNE      0xd3a6 ; am_hal_ble_patch_complete + 638
        0x0000d2f4:    b2c1        ..      UXTB     r1,r0
        0x0000d2f6:    f1a10020    .. .    SUB      r0,r1,#0x20
        0x0000d2fa:    2831        1(      CMP      r0,#0x31
        0x0000d2fc:    d253        S.      BCS      0xd3a6 ; am_hal_ble_patch_complete + 638
        0x0000d2fe:    2900        .)      CMP      r1,#0
        0x0000d300:    d051        Q.      BEQ      0xd3a6 ; am_hal_ble_patch_complete + 638
        0x0000d302:    4f34        4O      LDR      r7,[pc,#208] ; [0xd3d4] = 0x43000004
        0x0000d304:    f001047f    ....    AND      r4,r1,#0x7f
        0x0000d308:    aa10        ..      ADD      r2,sp,#0x40
        0x0000d30a:    4639        9F      MOV      r1,r7
        0x0000d30c:    4628        (F      MOV      r0,r5
        0x0000d30e:    f8cdb03c    ..<.    STR      r11,[sp,#0x3c]
        0x0000d312:    f000f917    ....    BL       am_hal_ble_plf_reg_read ; 0xd544
        0x0000d316:    f04f32ff    O..2    MOV      r2,#0xffffffff
        0x0000d31a:    4639        9F      MOV      r1,r7
        0x0000d31c:    4628        (F      MOV      r0,r5
        0x0000d31e:    f000f983    ....    BL       am_hal_ble_plf_reg_write ; 0xd628
        0x0000d322:    f8df80b4    ....    LDR      r8,[pc,#180] ; [0xd3d8] = 0x52000008
        0x0000d326:    aa0f        ..      ADD      r2,sp,#0x3c
        0x0000d328:    4641        AF      MOV      r1,r8
        0x0000d32a:    4628        (F      MOV      r0,r5
        0x0000d32c:    f000f90a    ....    BL       am_hal_ble_plf_reg_read ; 0xd544
        0x0000d330:    980f        ..      LDR      r0,[sp,#0x3c]
        0x0000d332:    aa0d        ..      ADD      r2,sp,#0x34
        0x0000d334:    f0400008    @...    ORR      r0,r0,#8
        0x0000d338:    900f        ..      STR      r0,[sp,#0x3c]
        0x0000d33a:    f04f41a4    O..A    MOV      r1,#0x52000000
        0x0000d33e:    4628        (F      MOV      r0,r5
        0x0000d340:    f000f900    ....    BL       am_hal_ble_plf_reg_read ; 0xd544
        0x0000d344:    980d        ..      LDR      r0,[sp,#0x34]
        0x0000d346:    f04f41a4    O..A    MOV      r1,#0x52000000
        0x0000d34a:    f4406280    @..b    ORR      r2,r0,#0x400
        0x0000d34e:    4628        (F      MOV      r0,r5
        0x0000d350:    920d        ..      STR      r2,[sp,#0x34]
        0x0000d352:    f000f969    ..i.    BL       am_hal_ble_plf_reg_write ; 0xd628
        0x0000d356:    f8df9084    ....    LDR      r9,[pc,#132] ; [0xd3dc] = 0x45800070
        0x0000d35a:    aa11        ..      ADD      r2,sp,#0x44
        0x0000d35c:    4649        IF      MOV      r1,r9
        0x0000d35e:    4628        (F      MOV      r0,r5
        0x0000d360:    f000f8f0    ....    BL       am_hal_ble_plf_reg_read ; 0xd544
        0x0000d364:    9811        ..      LDR      r0,[sp,#0x44]
        0x0000d366:    4649        IF      MOV      r1,r9
        0x0000d368:    f0400208    @...    ORR      r2,r0,#8
        0x0000d36c:    4628        (F      MOV      r0,r5
        0x0000d36e:    f000f95b    ..[.    BL       am_hal_ble_plf_reg_write ; 0xd628
        0x0000d372:    ea460244    F.D.    ORR      r2,r6,r4,LSL #1
        0x0000d376:    491a        .I      LDR      r1,[pc,#104] ; [0xd3e0] = 0x52000014
        0x0000d378:    4628        (F      MOV      r0,r5
        0x0000d37a:    f000f955    ..U.    BL       am_hal_ble_plf_reg_write ; 0xd628
        0x0000d37e:    4641        AF      MOV      r1,r8
        0x0000d380:    4628        (F      MOV      r0,r5
        0x0000d382:    9a0f        ..      LDR      r2,[sp,#0x3c]
        0x0000d384:    f000f950    ..P.    BL       am_hal_ble_plf_reg_write ; 0xd628
        0x0000d388:    4816        .H      LDR      r0,[pc,#88] ; [0xd3e4] = 0x40020000
        0x0000d38a:    68c0        .h      LDR      r0,[r0,#0xc]
        0x0000d38c:    4622        "F      MOV      r2,r4
        0x0000d38e:    b2c0        ..      UXTB     r0,r0
        0x0000d390:    2821        !(      CMP      r0,#0x21
        0x0000d392:    d00c        ..      BEQ      0xd3ae ; am_hal_ble_patch_complete + 646
        0x0000d394:    4914        .I      LDR      r1,[pc,#80] ; [0xd3e8] = 0x20006070
        0x0000d396:    4628        (F      MOV      r0,r5
        0x0000d398:    f000f946    ..F.    BL       am_hal_ble_plf_reg_write ; 0xd628
        0x0000d39c:    4639        9F      MOV      r1,r7
        0x0000d39e:    4628        (F      MOV      r0,r5
        0x0000d3a0:    9a10        ..      LDR      r2,[sp,#0x40]
        0x0000d3a2:    f000f941    ..A.    BL       am_hal_ble_plf_reg_write ; 0xd628
        0x0000d3a6:    b013        ..      ADD      sp,sp,#0x4c
        0x0000d3a8:    2000        .       MOVS     r0,#0
        0x0000d3aa:    e8bd8ff0    ....    POP      {r4-r11,pc}
        0x0000d3ae:    490f        .I      LDR      r1,[pc,#60] ; [0xd3ec] = 0x20006874
        0x0000d3b0:    4628        (F      MOV      r0,r5
        0x0000d3b2:    f000f939    ..9.    BL       am_hal_ble_plf_reg_write ; 0xd628
        0x0000d3b6:    e7f1        ..      B        0xd39c ; am_hal_ble_patch_complete + 628
    $d
        0x0000d3b8:    00775230    0Rw.    DCD    7819824
        0x0000d3bc:    5000c000    ...P    DCD    1342226432
        0x0000d3c0:    000186a0    ....    DCD    100000
        0x0000d3c4:    08000004    ....    DCD    134217732
        0x0000d3c8:    007a1200    ..z.    DCD    8000000
        0x0000d3cc:    50023808    .8.P    DCD    1342322696
        0x0000d3d0:    18240600    ..$.    DCD    405014016
        0x0000d3d4:    43000004    ...C    DCD    1124073476
        0x0000d3d8:    52000008    ...R    DCD    1375731720
        0x0000d3dc:    45800070    p..E    DCD    1166016624
        0x0000d3e0:    52000014    ...R    DCD    1375731732
        0x0000d3e4:    40020000    ...@    DCD    1073872896
        0x0000d3e8:    20006070    p`.     DCD    536895600
        0x0000d3ec:    20006874    th.     DCD    536897652
    $t
    i.am_hal_ble_patch_copy_end_apply
    am_hal_ble_patch_copy_end_apply
        0x0000d3f0:    e92d4ff0    -..O    PUSH     {r4-r11,lr}
        0x0000d3f4:    b095        ..      SUB      sp,sp,#0x54
        0x0000d3f6:    0004        ..      MOVS     r4,r0
        0x0000d3f8:    bf1c        ..      ITT      NE
        0x0000d3fa:    6820         h      LDRNE    r0,[r4,#0]
        0x0000d3fc:    f0107f80    ....    TSTNE    r0,#0x1000000
        0x0000d400:    d004        ..      BEQ      0xd40c ; am_hal_ble_patch_copy_end_apply + 28
        0x0000d402:    4e4b        KN      LDR      r6,[pc,#300] ; [0xd530] = 0x775230
        0x0000d404:    f020407f     ..@    BIC      r0,r0,#0xff000000
        0x0000d408:    42b0        .B      CMP      r0,r6
        0x0000d40a:    d004        ..      BEQ      0xd416 ; am_hal_ble_patch_copy_end_apply + 38
        0x0000d40c:    b015        ..      ADD      sp,sp,#0x54
        0x0000d40e:    f04f0002    O...    MOV      r0,#2
        0x0000d412:    e8bd8ff0    ....    POP      {r4-r11,pc}
        0x0000d416:    f04f0001    O...    MOV      r0,#1
        0x0000d41a:    f88d0000    ....    STRB     r0,[sp,#0]
        0x0000d41e:    f04f00ee    O...    MOV      r0,#0xee
        0x0000d422:    f88d0001    ....    STRB     r0,[sp,#1]
        0x0000d426:    f04f00f1    O...    MOV      r0,#0xf1
        0x0000d42a:    f04f0700    O...    MOV      r7,#0
        0x0000d42e:    f88d0002    ....    STRB     r0,[sp,#2]
        0x0000d432:    f04f0002    O...    MOV      r0,#2
        0x0000d436:    f88d7004    ...p    STRB     r7,[sp,#4]
        0x0000d43a:    f8df90f8    ....    LDR      r9,[pc,#248] ; [0xd534] = 0x10a0c
        0x0000d43e:    f88d0003    ....    STRB     r0,[sp,#3]
        0x0000d442:    f88d7005    ...p    STRB     r7,[sp,#5]
        0x0000d446:    463d        =F      MOV      r5,r7
        0x0000d448:    f04f0806    O...    MOV      r8,#6
        0x0000d44c:    f5097301    ...s    ADD      r3,r9,#0x204
        0x0000d450:    466a        jF      MOV      r2,sp
        0x0000d452:    e8935c08    ...\    LDM      r3,{r3,r10-r12,lr}
        0x0000d456:    e9cd2306    ...#    STRD     r2,r3,[sp,#0x18]
        0x0000d45a:    aa08        ..      ADD      r2,sp,#0x20
        0x0000d45c:    f04f0100    O...    MOV      r1,#0
        0x0000d460:    e8825c00    ...\    STM      r2,{r10-r12,lr}
        0x0000d464:    0020         .      MOVS     r0,r4
        0x0000d466:    f88d101c    ....    STRB     r1,[sp,#0x1c]
        0x0000d46a:    f8ad8020    .. .    STRH     r8,[sp,#0x20]
        0x0000d46e:    bf1c        ..      ITT      NE
        0x0000d470:    6801        .h      LDRNE    r1,[r0,#0]
        0x0000d472:    f0117f80    ....    TSTNE    r1,#0x1000000
        0x0000d476:    d00f        ..      BEQ      0xd498 ; am_hal_ble_patch_copy_end_apply + 168
        0x0000d478:    f021417f    !..A    BIC      r1,r1,#0xff000000
        0x0000d47c:    42b1        .B      CMP      r1,r6
        0x0000d47e:    d10b        ..      BNE      0xd498 ; am_hal_ble_patch_copy_end_apply + 168
        0x0000d480:    a906        ..      ADD      r1,sp,#0x18
        0x0000d482:    f7fff853    ..S.    BL       am_hal_ble_blocking_transfer ; 0xc52c
        0x0000d486:    b138        8.      CBZ      r0,0xd498 ; am_hal_ble_patch_copy_end_apply + 168
        0x0000d488:    f2413188    A..1    MOV      r1,#0x1388
        0x0000d48c:    1c6d        m.      ADDS     r5,r5,#1
        0x0000d48e:    428d        .B      CMP      r5,r1
        0x0000d490:    d3dc        ..      BCC      0xd44c ; am_hal_ble_patch_copy_end_apply + 92
        0x0000d492:    b015        ..      ADD      sp,sp,#0x54
        0x0000d494:    e8bd8ff0    ....    POP      {r4-r11,pc}
        0x0000d498:    4e27        'N      LDR      r6,[pc,#156] ; [0xd538] = 0x5000c000
        0x0000d49a:    2500        .%      MOVS     r5,#0
        0x0000d49c:    f8d6030c    ....    LDR      r0,[r6,#0x30c]
        0x0000d4a0:    f0100f80    ....    TST      r0,#0x80
        0x0000d4a4:    bf08        ..      IT       EQ
        0x0000d4a6:    f8df8094    ....    LDREQ    r8,[pc,#148] ; [0xd53c] = 0xf4240
        0x0000d4aa:    d10f        ..      BNE      0xd4cc ; am_hal_ble_patch_copy_end_apply + 220
        0x0000d4ac:    e005        ..      B        0xd4ba ; am_hal_ble_patch_copy_end_apply + 202
        0x0000d4ae:    4545        EE      CMP      r5,r8
        0x0000d4b0:    d303        ..      BCC      0xd4ba ; am_hal_ble_patch_copy_end_apply + 202
        0x0000d4b2:    b015        ..      ADD      sp,sp,#0x54
        0x0000d4b4:    4822        "H      LDR      r0,[pc,#136] ; [0xd540] = 0x8000004
        0x0000d4b6:    e8bd8ff0    ....    POP      {r4-r11,pc}
        0x0000d4ba:    2010        .       MOVS     r0,#0x10
        0x0000d4bc:    f000fcfe    ....    BL       am_hal_flash_delay ; 0xdebc
        0x0000d4c0:    f8d6030c    ....    LDR      r0,[r6,#0x30c]
        0x0000d4c4:    1c6d        m.      ADDS     r5,r5,#1
        0x0000d4c6:    f0100f80    ....    TST      r0,#0x80
        0x0000d4ca:    d0f0        ..      BEQ      0xd4ae ; am_hal_ble_patch_copy_end_apply + 190
        0x0000d4cc:    970e        ..      STR      r7,[sp,#0x38]
        0x0000d4ce:    2002        .       MOVS     r0,#2
        0x0000d4d0:    f88d003a    ..:.    STRB     r0,[sp,#0x3a]
        0x0000d4d4:    2005        .       MOVS     r0,#5
        0x0000d4d6:    9711        ..      STR      r7,[sp,#0x44]
        0x0000d4d8:    f8ad0038    ..8.    STRH     r0,[sp,#0x38]
        0x0000d4dc:    970d        ..      STR      r7,[sp,#0x34]
        0x0000d4de:    970f        ..      STR      r7,[sp,#0x3c]
        0x0000d4e0:    9710        ..      STR      r7,[sp,#0x40]
        0x0000d4e2:    f8cdd030    ..0.    STR      sp,[sp,#0x30]
        0x0000d4e6:    a90c        ..      ADD      r1,sp,#0x30
        0x0000d4e8:    4620         F      MOV      r0,r4
        0x0000d4ea:    f7fff81f    ....    BL       am_hal_ble_blocking_transfer ; 0xc52c
        0x0000d4ee:    2800        .(      CMP      r0,#0
        0x0000d4f0:    bf1c        ..      ITT      NE
        0x0000d4f2:    b015        ..      ADDNE    sp,sp,#0x54
        0x0000d4f4:    e8bd8ff0    ....    POPNE    {r4-r11,pc}
        0x0000d4f8:    f89d0000    ....    LDRB     r0,[sp,#0]
        0x0000d4fc:    2804        .(      CMP      r0,#4
        0x0000d4fe:    bf04        ..      ITT      EQ
        0x0000d500:    f89d0001    ....    LDRBEQ   r0,[sp,#1]
        0x0000d504:    28ee        .(      CMPEQ    r0,#0xee
        0x0000d506:    d10d        ..      BNE      0xd524 ; am_hal_ble_patch_copy_end_apply + 308
        0x0000d508:    f89d0002    ....    LDRB     r0,[sp,#2]
        0x0000d50c:    28f1        .(      CMP      r0,#0xf1
        0x0000d50e:    bf01        ..      ITTTT    EQ
        0x0000d510:    f89d0003    ....    LDRBEQ   r0,[sp,#3]
        0x0000d514:    2801        .(      CMPEQ    r0,#1
        0x0000d516:    f89d0004    ....    LDRBEQ   r0,[sp,#4]
        0x0000d51a:    2800        .(      CMPEQ    r0,#0
        0x0000d51c:    bf04        ..      ITT      EQ
        0x0000d51e:    b015        ..      ADDEQ    sp,sp,#0x54
        0x0000d520:    e8bd8ff0    ....    POPEQ    {r4-r11,pc}
        0x0000d524:    f04f0001    O...    MOV      r0,#1
        0x0000d528:    b015        ..      ADD      sp,sp,#0x54
        0x0000d52a:    e8bd8ff0    ....    POP      {r4-r11,pc}
    $d
        0x0000d52e:    0000        ..      DCW    0
        0x0000d530:    00775230    0Rw.    DCD    7819824
        0x0000d534:    00010a0c    ....    DCD    68108
        0x0000d538:    5000c000    ...P    DCD    1342226432
        0x0000d53c:    000f4240    @B..    DCD    1000000
        0x0000d540:    08000004    ....    DCD    134217732
    $t
    i.am_hal_ble_plf_reg_read
    am_hal_ble_plf_reg_read
        0x0000d544:    e92d43f0    -..C    PUSH     {r4-r9,lr}
        0x0000d548:    b08b        ..      SUB      sp,sp,#0x2c
        0x0000d54a:    4605        .F      MOV      r5,r0
        0x0000d54c:    f88d1028    ..(.    STRB     r1,[sp,#0x28]
        0x0000d550:    0a08        ..      LSRS     r0,r1,#8
        0x0000d552:    f88d0029    ..).    STRB     r0,[sp,#0x29]
        0x0000d556:    0c08        ..      LSRS     r0,r1,#16
        0x0000d558:    f88d002a    ..*.    STRB     r0,[sp,#0x2a]
        0x0000d55c:    0e08        ..      LSRS     r0,r1,#24
        0x0000d55e:    f88d002b    ..+.    STRB     r0,[sp,#0x2b]
        0x0000d562:    2301        .#      MOVS     r3,#1
        0x0000d564:    f88d3000    ...0    STRB     r3,[sp,#0]
        0x0000d568:    2302        .#      MOVS     r3,#2
        0x0000d56a:    f88d3001    ...0    STRB     r3,[sp,#1]
        0x0000d56e:    23fd        .#      MOVS     r3,#0xfd
        0x0000d570:    2000        .       MOVS     r0,#0
        0x0000d572:    f88d3002    ...0    STRB     r3,[sp,#2]
        0x0000d576:    2304        .#      MOVS     r3,#4
        0x0000d578:    f88d3003    ...0    STRB     r3,[sp,#3]
        0x0000d57c:    4616        .F      MOV      r6,r2
        0x0000d57e:    9002        ..      STR      r0,[sp,#8]
        0x0000d580:    9003        ..      STR      r0,[sp,#0xc]
        0x0000d582:    9004        ..      STR      r0,[sp,#0x10]
        0x0000d584:    f10d0c27    ..'.    ADD      r12,sp,#0x27
        0x0000d588:    f10d0303    ....    ADD      r3,sp,#3
        0x0000d58c:    f05f0102    _...    MOVS.W   r1,#2
        0x0000d590:    f89c2001    ...     LDRB     r2,[r12,#1]
        0x0000d594:    705a        Zp      STRB     r2,[r3,#1]
        0x0000d596:    f81c2f02    .../    LDRB     r2,[r12,#2]!
        0x0000d59a:    f8032f02    .../    STRB     r2,[r3,#2]!
        0x0000d59e:    1e49        I.      SUBS     r1,r1,#1
        0x0000d5a0:    d1f6        ..      BNE      0xd590 ; am_hal_ble_plf_reg_read + 76
        0x0000d5a2:    4f1d        .O      LDR      r7,[pc,#116] ; [0xd618] = 0x5000c000
        0x0000d5a4:    f8d78220    .. .    LDR      r8,[r7,#0x220]
        0x0000d5a8:    f8c70220    .. .    STR      r0,[r7,#0x220]
        0x0000d5ac:    2308        .#      MOVS     r3,#8
        0x0000d5ae:    466a        jF      MOV      r2,sp
        0x0000d5b0:    4628        (F      MOV      r0,r5
        0x0000d5b2:    f7feff93    ....    BL       am_hal_ble_blocking_hci_write ; 0xc4dc
        0x0000d5b6:    4819        .H      LDR      r0,[pc,#100] ; [0xd61c] = 0x5000c410
        0x0000d5b8:    6801        .h      LDR      r1,[r0,#0]
        0x0000d5ba:    f0410102    A...    ORR      r1,r1,#2
        0x0000d5be:    6001        .`      STR      r1,[r0,#0]
        0x0000d5c0:    f8d7030c    ....    LDR      r0,[r7,#0x30c]
        0x0000d5c4:    2400        .$      MOVS     r4,#0
        0x0000d5c6:    f0100f80    ....    TST      r0,#0x80
        0x0000d5ca:    bf08        ..      IT       EQ
        0x0000d5cc:    f8df9050    ..P.    LDREQ    r9,[pc,#80] ; [0xd620] = 0x7a120
        0x0000d5d0:    d10f        ..      BNE      0xd5f2 ; am_hal_ble_plf_reg_read + 174
        0x0000d5d2:    e005        ..      B        0xd5e0 ; am_hal_ble_plf_reg_read + 156
        0x0000d5d4:    454c        LE      CMP      r4,r9
        0x0000d5d6:    d303        ..      BCC      0xd5e0 ; am_hal_ble_plf_reg_read + 156
        0x0000d5d8:    b00b        ..      ADD      sp,sp,#0x2c
        0x0000d5da:    4812        .H      LDR      r0,[pc,#72] ; [0xd624] = 0x8000004
        0x0000d5dc:    e8bd83f0    ....    POP      {r4-r9,pc}
        0x0000d5e0:    2010        .       MOVS     r0,#0x10
        0x0000d5e2:    f000fc6b    ..k.    BL       am_hal_flash_delay ; 0xdebc
        0x0000d5e6:    f8d7030c    ....    LDR      r0,[r7,#0x30c]
        0x0000d5ea:    1c64        d.      ADDS     r4,r4,#1
        0x0000d5ec:    f0100f80    ....    TST      r0,#0x80
        0x0000d5f0:    d0f0        ..      BEQ      0xd5d4 ; am_hal_ble_plf_reg_read + 144
        0x0000d5f2:    2200        ."      MOVS     r2,#0
        0x0000d5f4:    a902        ..      ADD      r1,sp,#8
        0x0000d5f6:    4628        (F      MOV      r0,r5
        0x0000d5f8:    f7feff20    .. .    BL       am_hal_ble_blocking_hci_read ; 0xc43c
        0x0000d5fc:    9803        ..      LDR      r0,[sp,#0xc]
        0x0000d5fe:    9904        ..      LDR      r1,[sp,#0x10]
        0x0000d600:    0e00        ..      LSRS     r0,r0,#24
        0x0000d602:    ea402001    @..     ORR      r0,r0,r1,LSL #8
        0x0000d606:    6030        0`      STR      r0,[r6,#0]
        0x0000d608:    f8c78228    ..(.    STR      r8,[r7,#0x228]
        0x0000d60c:    f8c78220    .. .    STR      r8,[r7,#0x220]
        0x0000d610:    b00b        ..      ADD      sp,sp,#0x2c
        0x0000d612:    2000        .       MOVS     r0,#0
        0x0000d614:    e8bd83f0    ....    POP      {r4-r9,pc}
    $d
        0x0000d618:    5000c000    ...P    DCD    1342226432
        0x0000d61c:    5000c410    ...P    DCD    1342227472
        0x0000d620:    0007a120     ...    DCD    500000
        0x0000d624:    08000004    ....    DCD    134217732
    $t
    i.am_hal_ble_plf_reg_write
    am_hal_ble_plf_reg_write
        0x0000d628:    e92d41f0    -..A    PUSH     {r4-r8,lr}
        0x0000d62c:    b08a        ..      SUB      sp,sp,#0x28
        0x0000d62e:    4605        .F      MOV      r5,r0
        0x0000d630:    f88d1000    ....    STRB     r1,[sp,#0]
        0x0000d634:    0a08        ..      LSRS     r0,r1,#8
        0x0000d636:    f88d0001    ....    STRB     r0,[sp,#1]
        0x0000d63a:    0c08        ..      LSRS     r0,r1,#16
        0x0000d63c:    f88d0002    ....    STRB     r0,[sp,#2]
        0x0000d640:    0e08        ..      LSRS     r0,r1,#24
        0x0000d642:    f88d0003    ....    STRB     r0,[sp,#3]
        0x0000d646:    f88d2004    ...     STRB     r2,[sp,#4]
        0x0000d64a:    0a10        ..      LSRS     r0,r2,#8
        0x0000d64c:    f88d0005    ....    STRB     r0,[sp,#5]
        0x0000d650:    0c10        ..      LSRS     r0,r2,#16
        0x0000d652:    f88d0006    ....    STRB     r0,[sp,#6]
        0x0000d656:    0e10        ..      LSRS     r0,r2,#24
        0x0000d658:    2201        ."      MOVS     r2,#1
        0x0000d65a:    f88d2008    ...     STRB     r2,[sp,#8]
        0x0000d65e:    2203        ."      MOVS     r2,#3
        0x0000d660:    f88d2009    ...     STRB     r2,[sp,#9]
        0x0000d664:    22fd        ."      MOVS     r2,#0xfd
        0x0000d666:    f88d200a    ...     STRB     r2,[sp,#0xa]
        0x0000d66a:    2208        ."      MOVS     r2,#8
        0x0000d66c:    f88d0007    ....    STRB     r0,[sp,#7]
        0x0000d670:    f88d200b    ...     STRB     r2,[sp,#0xb]
        0x0000d674:    2000        .       MOVS     r0,#0
        0x0000d676:    f10d33ff    ...3    ADD      r3,sp,#0xffffffff
        0x0000d67a:    f10d020b    ....    ADD      r2,sp,#0xb
        0x0000d67e:    2104        .!      MOVS     r1,#4
        0x0000d680:    f893c001    ....    LDRB     r12,[r3,#1]
        0x0000d684:    f882c001    ....    STRB     r12,[r2,#1]
        0x0000d688:    f813cf02    ....    LDRB     r12,[r3,#2]!
        0x0000d68c:    f802cf02    ....    STRB     r12,[r2,#2]!
        0x0000d690:    1e49        I.      SUBS     r1,r1,#1
        0x0000d692:    d1f5        ..      BNE      0xd680 ; am_hal_ble_plf_reg_write + 88
        0x0000d694:    4f1a        .O      LDR      r7,[pc,#104] ; [0xd700] = 0x5000c000
        0x0000d696:    f8d76220    .. b    LDR      r6,[r7,#0x220]
        0x0000d69a:    f8c70220    .. .    STR      r0,[r7,#0x220]
        0x0000d69e:    230c        .#      MOVS     r3,#0xc
        0x0000d6a0:    aa02        ..      ADD      r2,sp,#8
        0x0000d6a2:    4628        (F      MOV      r0,r5
        0x0000d6a4:    f7feff1a    ....    BL       am_hal_ble_blocking_hci_write ; 0xc4dc
        0x0000d6a8:    4816        .H      LDR      r0,[pc,#88] ; [0xd704] = 0x5000c410
        0x0000d6aa:    6801        .h      LDR      r1,[r0,#0]
        0x0000d6ac:    f0410102    A...    ORR      r1,r1,#2
        0x0000d6b0:    6001        .`      STR      r1,[r0,#0]
        0x0000d6b2:    f8d7030c    ....    LDR      r0,[r7,#0x30c]
        0x0000d6b6:    2400        .$      MOVS     r4,#0
        0x0000d6b8:    f0100f80    ....    TST      r0,#0x80
        0x0000d6bc:    bf08        ..      IT       EQ
        0x0000d6be:    f24c3850    L.P8    MOVEQ    r8,#0xc350
        0x0000d6c2:    d10f        ..      BNE      0xd6e4 ; am_hal_ble_plf_reg_write + 188
        0x0000d6c4:    e005        ..      B        0xd6d2 ; am_hal_ble_plf_reg_write + 170
        0x0000d6c6:    4544        DE      CMP      r4,r8
        0x0000d6c8:    d303        ..      BCC      0xd6d2 ; am_hal_ble_plf_reg_write + 170
        0x0000d6ca:    b00a        ..      ADD      sp,sp,#0x28
        0x0000d6cc:    480e        .H      LDR      r0,[pc,#56] ; [0xd708] = 0x8000004
        0x0000d6ce:    e8bd81f0    ....    POP      {r4-r8,pc}
        0x0000d6d2:    2010        .       MOVS     r0,#0x10
        0x0000d6d4:    f000fbf2    ....    BL       am_hal_flash_delay ; 0xdebc
        0x0000d6d8:    f8d7030c    ....    LDR      r0,[r7,#0x30c]
        0x0000d6dc:    1c64        d.      ADDS     r4,r4,#1
        0x0000d6de:    f0100f80    ....    TST      r0,#0x80
        0x0000d6e2:    d0f0        ..      BEQ      0xd6c6 ; am_hal_ble_plf_reg_write + 158
        0x0000d6e4:    2200        ."      MOVS     r2,#0
        0x0000d6e6:    a906        ..      ADD      r1,sp,#0x18
        0x0000d6e8:    4628        (F      MOV      r0,r5
        0x0000d6ea:    f7fefea7    ....    BL       am_hal_ble_blocking_hci_read ; 0xc43c
        0x0000d6ee:    f8c76228    ..(b    STR      r6,[r7,#0x228]
        0x0000d6f2:    f8c76220    .. b    STR      r6,[r7,#0x220]
        0x0000d6f6:    b00a        ..      ADD      sp,sp,#0x28
        0x0000d6f8:    2000        .       MOVS     r0,#0
        0x0000d6fa:    e8bd81f0    ....    POP      {r4-r8,pc}
    $d
        0x0000d6fe:    0000        ..      DCW    0
        0x0000d700:    5000c000    ...P    DCD    1342226432
        0x0000d704:    5000c410    ...P    DCD    1342227472
        0x0000d708:    08000004    ....    DCD    134217732
    $t
    i.am_hal_ble_power_control
    am_hal_ble_power_control
        0x0000d70c:    e92d47f0    -..G    PUSH     {r4-r10,lr}
        0x0000d710:    2800        .(      CMP      r0,#0
        0x0000d712:    bf1c        ..      ITT      NE
        0x0000d714:    6800        .h      LDRNE    r0,[r0,#0]
        0x0000d716:    f0107f80    ....    TSTNE    r0,#0x1000000
        0x0000d71a:    d004        ..      BEQ      0xd726 ; am_hal_ble_power_control + 26
        0x0000d71c:    4a4c        LJ      LDR      r2,[pc,#304] ; [0xd850] = 0x775230
        0x0000d71e:    f020407f     ..@    BIC      r0,r0,#0xff000000
        0x0000d722:    4290        .B      CMP      r0,r2
        0x0000d724:    d002        ..      BEQ      0xd72c ; am_hal_ble_power_control + 32
        0x0000d726:    2002        .       MOVS     r0,#2
        0x0000d728:    e8bd87f0    ....    POP      {r4-r10,pc}
        0x0000d72c:    4f49        IO      LDR      r7,[pc,#292] ; [0xd854] = 0x5000c410
        0x0000d72e:    4e4a        JN      LDR      r6,[pc,#296] ; [0xd858] = 0x40020000
        0x0000d730:    4c4a        JL      LDR      r4,[pc,#296] ; [0xd85c] = 0x5000c000
        0x0000d732:    b361        a.      CBZ      r1,0xd78e ; am_hal_ble_power_control + 130
        0x0000d734:    2901        .)      CMP      r1,#1
        0x0000d736:    bf1c        ..      ITT      NE
        0x0000d738:    2007        .       MOVNE    r0,#7
        0x0000d73a:    e8bd87f0    ....    POPNE    {r4-r10,pc}
        0x0000d73e:    2000        .       MOVS     r0,#0
        0x0000d740:    f8c40200    ....    STR      r0,[r4,#0x200]
        0x0000d744:    6838        8h      LDR      r0,[r7,#0]
        0x0000d746:    f0000007    ....    AND      r0,r0,#7
        0x0000d74a:    6038        8`      STR      r0,[r7,#0]
        0x0000d74c:    68f0        .h      LDR      r0,[r6,#0xc]
        0x0000d74e:    b2c0        ..      UXTB     r0,r0
        0x0000d750:    2812        .(      CMP      r0,#0x12
        0x0000d752:    f8d60198    ....    LDR      r0,[r6,#0x198]
        0x0000d756:    bf2c        ,.      ITE      CS
        0x0000d758:    f0200020     . .    BICCS    r0,r0,#0x20
        0x0000d75c:    f0200004     ...    BICCC    r0,r0,#4
        0x0000d760:    f8c60198    ....    STR      r0,[r6,#0x198]
        0x0000d764:    f8d40304    ....    LDR      r0,[r4,#0x304]
        0x0000d768:    f0200001     ...    BIC      r0,r0,#1
        0x0000d76c:    f8c40304    ....    STR      r0,[r4,#0x304]
        0x0000d770:    200e        .       MOVS     r0,#0xe
        0x0000d772:    f000ff49    ..I.    BL       am_hal_pwrctrl_periph_disable ; 0xe608
        0x0000d776:    2800        .(      CMP      r0,#0
        0x0000d778:    bf1c        ..      ITT      NE
        0x0000d77a:    4839        9H      LDRNE    r0,[pc,#228] ; [0xd860] = 0x8000006
        0x0000d77c:    e8bd87f0    ....    POPNE    {r4-r10,pc}
        0x0000d780:    f44f60c8    O..`    MOV      r0,#0x640
        0x0000d784:    f000fb9a    ....    BL       am_hal_flash_delay ; 0xdebc
        0x0000d788:    2000        .       MOVS     r0,#0
        0x0000d78a:    e8bd87f0    ....    POP      {r4-r10,pc}
        0x0000d78e:    4835        5H      LDR      r0,[pc,#212] ; [0xd864] = 0x40021000
        0x0000d790:    6980        .i      LDR      r0,[r0,#0x18]
        0x0000d792:    f4107f80    ....    TST      r0,#0x100
        0x0000d796:    d1f7        ..      BNE      0xd788 ; am_hal_ble_power_control + 124
        0x0000d798:    69b0        .i      LDR      r0,[r6,#0x18]
        0x0000d79a:    f0400001    @...    ORR      r0,r0,#1
        0x0000d79e:    61b0        .a      STR      r0,[r6,#0x18]
        0x0000d7a0:    69b0        .i      LDR      r0,[r6,#0x18]
        0x0000d7a2:    2500        .%      MOVS     r5,#0
        0x0000d7a4:    f04f0807    O...    MOV      r8,#7
        0x0000d7a8:    ea380000    8...    BICS     r0,r8,r0
        0x0000d7ac:    bf18        ..      IT       NE
        0x0000d7ae:    f8df90b8    ....    LDRNE    r9,[pc,#184] ; [0xd868] = 0x186a0
        0x0000d7b2:    d105        ..      BNE      0xd7c0 ; am_hal_ble_power_control + 180
        0x0000d7b4:    e00c        ..      B        0xd7d0 ; am_hal_ble_power_control + 196
        0x0000d7b6:    45a9        .E      CMP      r9,r5
        0x0000d7b8:    d802        ..      BHI      0xd7c0 ; am_hal_ble_power_control + 180
        0x0000d7ba:    482c        ,H      LDR      r0,[pc,#176] ; [0xd86c] = 0x8000005
        0x0000d7bc:    e8bd87f0    ....    POP      {r4-r10,pc}
        0x0000d7c0:    2010        .       MOVS     r0,#0x10
        0x0000d7c2:    f000fb7b    ..{.    BL       am_hal_flash_delay ; 0xdebc
        0x0000d7c6:    69b0        .i      LDR      r0,[r6,#0x18]
        0x0000d7c8:    1c6d        m.      ADDS     r5,r5,#1
        0x0000d7ca:    ea380000    8...    BICS     r0,r8,r0
        0x0000d7ce:    d1f2        ..      BNE      0xd7b6 ; am_hal_ble_power_control + 170
        0x0000d7d0:    200e        .       MOVS     r0,#0xe
        0x0000d7d2:    f000ff77    ..w.    BL       am_hal_pwrctrl_periph_enable ; 0xe6c4
        0x0000d7d6:    2800        .(      CMP      r0,#0
        0x0000d7d8:    bf1c        ..      ITT      NE
        0x0000d7da:    4825        %H      LDRNE    r0,[pc,#148] ; [0xd870] = 0x8000007
        0x0000d7dc:    e8bd87f0    ....    POPNE    {r4-r10,pc}
        0x0000d7e0:    f44f6000    O..`    MOV      r0,#0x800
        0x0000d7e4:    f8c40200    ....    STR      r0,[r4,#0x200]
        0x0000d7e8:    6838        8h      LDR      r0,[r7,#0]
        0x0000d7ea:    f0000007    ....    AND      r0,r0,#7
        0x0000d7ee:    f5003000    ...0    ADD      r0,r0,#0x20000
        0x0000d7f2:    6038        8`      STR      r0,[r7,#0]
        0x0000d7f4:    68f0        .h      LDR      r0,[r6,#0xc]
        0x0000d7f6:    b2c0        ..      UXTB     r0,r0
        0x0000d7f8:    2812        .(      CMP      r0,#0x12
        0x0000d7fa:    bf26        &.      ITTE     CS
        0x0000d7fc:    f8d60198    ....    LDRCS    r0,[r6,#0x198]
        0x0000d800:    f0400020    @. .    ORRCS    r0,r0,#0x20
        0x0000d804:    2004        .       MOVCC    r0,#4
        0x0000d806:    f8c60198    ....    STR      r0,[r6,#0x198]
        0x0000d80a:    481a        .H      LDR      r0,[pc,#104] ; [0xd874] = 0x13880
        0x0000d80c:    f000fb56    ..V.    BL       am_hal_flash_delay ; 0xdebc
        0x0000d810:    f8d40304    ....    LDR      r0,[r4,#0x304]
        0x0000d814:    f0400001    @...    ORR      r0,r0,#1
        0x0000d818:    f8c40304    ....    STR      r0,[r4,#0x304]
        0x0000d81c:    f8d4030c    ....    LDR      r0,[r4,#0x30c]
        0x0000d820:    2500        .%      MOVS     r5,#0
        0x0000d822:    f3c02002    ...     UBFX     r0,r0,#8,#3
        0x0000d826:    2803        .(      CMP      r0,#3
        0x0000d828:    bf18        ..      IT       NE
        0x0000d82a:    4e13        .N      LDRNE    r6,[pc,#76] ; [0xd878] = 0xf4240
        0x0000d82c:    d0ac        ..      BEQ      0xd788 ; am_hal_ble_power_control + 124
        0x0000d82e:    e004        ..      B        0xd83a ; am_hal_ble_power_control + 302
        0x0000d830:    42b5        .B      CMP      r5,r6
        0x0000d832:    d302        ..      BCC      0xd83a ; am_hal_ble_power_control + 302
        0x0000d834:    4811        .H      LDR      r0,[pc,#68] ; [0xd87c] = 0x8000008
        0x0000d836:    e8bd87f0    ....    POP      {r4-r10,pc}
        0x0000d83a:    2010        .       MOVS     r0,#0x10
        0x0000d83c:    f000fb3e    ..>.    BL       am_hal_flash_delay ; 0xdebc
        0x0000d840:    f8d4030c    ....    LDR      r0,[r4,#0x30c]
        0x0000d844:    1c6d        m.      ADDS     r5,r5,#1
        0x0000d846:    f3c02002    ...     UBFX     r0,r0,#8,#3
        0x0000d84a:    2803        .(      CMP      r0,#3
        0x0000d84c:    d09c        ..      BEQ      0xd788 ; am_hal_ble_power_control + 124
        0x0000d84e:    e7ef        ..      B        0xd830 ; am_hal_ble_power_control + 292
    $d
        0x0000d850:    00775230    0Rw.    DCD    7819824
        0x0000d854:    5000c410    ...P    DCD    1342227472
        0x0000d858:    40020000    ...@    DCD    1073872896
        0x0000d85c:    5000c000    ...P    DCD    1342226432
        0x0000d860:    08000006    ....    DCD    134217734
        0x0000d864:    40021000    ...@    DCD    1073876992
        0x0000d868:    000186a0    ....    DCD    100000
        0x0000d86c:    08000005    ....    DCD    134217733
        0x0000d870:    08000007    ....    DCD    134217735
        0x0000d874:    00013880    .8..    DCD    80000
        0x0000d878:    000f4240    @B..    DCD    1000000
        0x0000d87c:    08000008    ....    DCD    134217736
    $t
    i.am_hal_ble_sleep_set
    am_hal_ble_sleep_set
        0x0000d880:    e92d43f8    -..C    PUSH     {r3-r9,lr}
        0x0000d884:    4604        .F      MOV      r4,r0
        0x0000d886:    4e18        .N      LDR      r6,[pc,#96] ; [0xd8e8] = 0x40020000
        0x0000d888:    2000        .       MOVS     r0,#0
        0x0000d88a:    9000        ..      STR      r0,[sp,#0]
        0x0000d88c:    68f0        .h      LDR      r0,[r6,#0xc]
        0x0000d88e:    460d        .F      MOV      r5,r1
        0x0000d890:    b2c0        ..      UXTB     r0,r0
        0x0000d892:    4f16        .O      LDR      r7,[pc,#88] ; [0xd8ec] = 0x20006e18
        0x0000d894:    f8df8058    ..X.    LDR      r8,[pc,#88] ; [0xd8f0] = 0x200067c4
        0x0000d898:    2821        !(      CMP      r0,#0x21
        0x0000d89a:    466a        jF      MOV      r2,sp
        0x0000d89c:    d01a        ..      BEQ      0xd8d4 ; am_hal_ble_sleep_set + 84
        0x0000d89e:    4641        AF      MOV      r1,r8
        0x0000d8a0:    4620         F      MOV      r0,r4
        0x0000d8a2:    f7fffe4f    ..O.    BL       am_hal_ble_plf_reg_read ; 0xd544
        0x0000d8a6:    9800        ..      LDR      r0,[sp,#0]
        0x0000d8a8:    f02000ff     ...    BIC      r0,r0,#0xff
        0x0000d8ac:    f420407e     .~@    BIC      r0,r0,#0xfe00
        0x0000d8b0:    9000        ..      STR      r0,[sp,#0]
        0x0000d8b2:    b11d        ..      CBZ      r5,0xd8bc ; am_hal_ble_sleep_set + 60
        0x0000d8b4:    f2401101    @...    MOV      r1,#0x101
        0x0000d8b8:    4308        .C      ORRS     r0,r0,r1
        0x0000d8ba:    9000        ..      STR      r0,[sp,#0]
        0x0000d8bc:    68f0        .h      LDR      r0,[r6,#0xc]
        0x0000d8be:    9a00        ..      LDR      r2,[sp,#0]
        0x0000d8c0:    b2c0        ..      UXTB     r0,r0
        0x0000d8c2:    2821        !(      CMP      r0,#0x21
        0x0000d8c4:    d00b        ..      BEQ      0xd8de ; am_hal_ble_sleep_set + 94
        0x0000d8c6:    4641        AF      MOV      r1,r8
        0x0000d8c8:    4620         F      MOV      r0,r4
        0x0000d8ca:    f7fffead    ....    BL       am_hal_ble_plf_reg_write ; 0xd628
        0x0000d8ce:    2000        .       MOVS     r0,#0
        0x0000d8d0:    e8bd83f8    ....    POP      {r3-r9,pc}
        0x0000d8d4:    4639        9F      MOV      r1,r7
        0x0000d8d6:    4620         F      MOV      r0,r4
        0x0000d8d8:    f7fffe34    ..4.    BL       am_hal_ble_plf_reg_read ; 0xd544
        0x0000d8dc:    e7e3        ..      B        0xd8a6 ; am_hal_ble_sleep_set + 38
        0x0000d8de:    4639        9F      MOV      r1,r7
        0x0000d8e0:    4620         F      MOV      r0,r4
        0x0000d8e2:    f7fffea1    ....    BL       am_hal_ble_plf_reg_write ; 0xd628
        0x0000d8e6:    e7f2        ..      B        0xd8ce ; am_hal_ble_sleep_set + 78
    $d
        0x0000d8e8:    40020000    ...@    DCD    1073872896
        0x0000d8ec:    20006e18    .n.     DCD    536899096
        0x0000d8f0:    200067c4    .g.     DCD    536897476
    $t
    i.am_hal_ble_transmitter_modex_set
    am_hal_ble_transmitter_modex_set
        0x0000d8f4:    e92d41f0    -..A    PUSH     {r4-r8,lr}
        0x0000d8f8:    b084        ..      SUB      sp,sp,#0x10
        0x0000d8fa:    4605        .F      MOV      r5,r0
        0x0000d8fc:    2000        .       MOVS     r0,#0
        0x0000d8fe:    4e2d        -N      LDR      r6,[pc,#180] ; [0xd9b4] = 0x43000004
        0x0000d900:    f001047f    ....    AND      r4,r1,#0x7f
        0x0000d904:    9000        ..      STR      r0,[sp,#0]
        0x0000d906:    aa02        ..      ADD      r2,sp,#8
        0x0000d908:    4631        1F      MOV      r1,r6
        0x0000d90a:    4628        (F      MOV      r0,r5
        0x0000d90c:    f7fffe1a    ....    BL       am_hal_ble_plf_reg_read ; 0xd544
        0x0000d910:    f04f32ff    O..2    MOV      r2,#0xffffffff
        0x0000d914:    4631        1F      MOV      r1,r6
        0x0000d916:    4628        (F      MOV      r0,r5
        0x0000d918:    f7fffe86    ....    BL       am_hal_ble_plf_reg_write ; 0xd628
        0x0000d91c:    4f26        &O      LDR      r7,[pc,#152] ; [0xd9b8] = 0x52000008
        0x0000d91e:    466a        jF      MOV      r2,sp
        0x0000d920:    4639        9F      MOV      r1,r7
        0x0000d922:    4628        (F      MOV      r0,r5
        0x0000d924:    f7fffe0e    ....    BL       am_hal_ble_plf_reg_read ; 0xd544
        0x0000d928:    9800        ..      LDR      r0,[sp,#0]
        0x0000d92a:    aa01        ..      ADD      r2,sp,#4
        0x0000d92c:    f0400008    @...    ORR      r0,r0,#8
        0x0000d930:    9000        ..      STR      r0,[sp,#0]
        0x0000d932:    f04f41a4    O..A    MOV      r1,#0x52000000
        0x0000d936:    4628        (F      MOV      r0,r5
        0x0000d938:    f7fffe04    ....    BL       am_hal_ble_plf_reg_read ; 0xd544
        0x0000d93c:    9801        ..      LDR      r0,[sp,#4]
        0x0000d93e:    f04f41a4    O..A    MOV      r1,#0x52000000
        0x0000d942:    f4406280    @..b    ORR      r2,r0,#0x400
        0x0000d946:    4628        (F      MOV      r0,r5
        0x0000d948:    9201        ..      STR      r2,[sp,#4]
        0x0000d94a:    f7fffe6d    ..m.    BL       am_hal_ble_plf_reg_write ; 0xd628
        0x0000d94e:    f8df806c    ..l.    LDR      r8,[pc,#108] ; [0xd9bc] = 0x45800070
        0x0000d952:    aa03        ..      ADD      r2,sp,#0xc
        0x0000d954:    4641        AF      MOV      r1,r8
        0x0000d956:    4628        (F      MOV      r0,r5
        0x0000d958:    f7fffdf4    ....    BL       am_hal_ble_plf_reg_read ; 0xd544
        0x0000d95c:    9803        ..      LDR      r0,[sp,#0xc]
        0x0000d95e:    4641        AF      MOV      r1,r8
        0x0000d960:    f0400208    @...    ORR      r2,r0,#8
        0x0000d964:    4628        (F      MOV      r0,r5
        0x0000d966:    f7fffe5f    .._.    BL       am_hal_ble_plf_reg_write ; 0xd628
        0x0000d96a:    2001        .       MOVS     r0,#1
        0x0000d96c:    ea400244    @.D.    ORR      r2,r0,r4,LSL #1
        0x0000d970:    4913        .I      LDR      r1,[pc,#76] ; [0xd9c0] = 0x52000014
        0x0000d972:    4628        (F      MOV      r0,r5
        0x0000d974:    f7fffe58    ..X.    BL       am_hal_ble_plf_reg_write ; 0xd628
        0x0000d978:    4639        9F      MOV      r1,r7
        0x0000d97a:    4628        (F      MOV      r0,r5
        0x0000d97c:    9a00        ..      LDR      r2,[sp,#0]
        0x0000d97e:    f7fffe53    ..S.    BL       am_hal_ble_plf_reg_write ; 0xd628
        0x0000d982:    4810        .H      LDR      r0,[pc,#64] ; [0xd9c4] = 0x40020000
        0x0000d984:    68c0        .h      LDR      r0,[r0,#0xc]
        0x0000d986:    4622        "F      MOV      r2,r4
        0x0000d988:    b2c0        ..      UXTB     r0,r0
        0x0000d98a:    2821        !(      CMP      r0,#0x21
        0x0000d98c:    d00c        ..      BEQ      0xd9a8 ; am_hal_ble_transmitter_modex_set + 180
        0x0000d98e:    490e        .I      LDR      r1,[pc,#56] ; [0xd9c8] = 0x20006070
        0x0000d990:    4628        (F      MOV      r0,r5
        0x0000d992:    f7fffe49    ..I.    BL       am_hal_ble_plf_reg_write ; 0xd628
        0x0000d996:    4631        1F      MOV      r1,r6
        0x0000d998:    4628        (F      MOV      r0,r5
        0x0000d99a:    9a02        ..      LDR      r2,[sp,#8]
        0x0000d99c:    f7fffe44    ..D.    BL       am_hal_ble_plf_reg_write ; 0xd628
        0x0000d9a0:    b004        ..      ADD      sp,sp,#0x10
        0x0000d9a2:    2000        .       MOVS     r0,#0
        0x0000d9a4:    e8bd81f0    ....    POP      {r4-r8,pc}
        0x0000d9a8:    4908        .I      LDR      r1,[pc,#32] ; [0xd9cc] = 0x20006874
        0x0000d9aa:    4628        (F      MOV      r0,r5
        0x0000d9ac:    f7fffe3c    ..<.    BL       am_hal_ble_plf_reg_write ; 0xd628
        0x0000d9b0:    e7f1        ..      B        0xd996 ; am_hal_ble_transmitter_modex_set + 162
    $d
        0x0000d9b2:    0000        ..      DCW    0
        0x0000d9b4:    43000004    ...C    DCD    1124073476
        0x0000d9b8:    52000008    ...R    DCD    1375731720
        0x0000d9bc:    45800070    p..E    DCD    1166016624
        0x0000d9c0:    52000014    ...R    DCD    1375731732
        0x0000d9c4:    40020000    ...@    DCD    1073872896
        0x0000d9c8:    20006070    p`.     DCD    536895600
        0x0000d9cc:    20006874    th.     DCD    536897652
    $t
    i.am_hal_ble_tx_power_set
    am_hal_ble_tx_power_set
        0x0000d9d0:    e92d41f0    -..A    PUSH     {r4-r8,lr}
        0x0000d9d4:    b082        ..      SUB      sp,sp,#8
        0x0000d9d6:    4605        .F      MOV      r5,r0
        0x0000d9d8:    2000        .       MOVS     r0,#0
        0x0000d9da:    460c        .F      MOV      r4,r1
        0x0000d9dc:    9000        ..      STR      r0,[sp,#0]
        0x0000d9de:    2008        .       MOVS     r0,#8
        0x0000d9e0:    f001010f    ....    AND      r1,r1,#0xf
        0x0000d9e4:    ea404601    @..F    ORR      r6,r0,r1,LSL #16
        0x0000d9e8:    4f1f        .O      LDR      r7,[pc,#124] ; [0xda68] = 0x43000004
        0x0000d9ea:    aa01        ..      ADD      r2,sp,#4
        0x0000d9ec:    4639        9F      MOV      r1,r7
        0x0000d9ee:    4628        (F      MOV      r0,r5
        0x0000d9f0:    f7fffda8    ....    BL       am_hal_ble_plf_reg_read ; 0xd544
        0x0000d9f4:    f04f32ff    O..2    MOV      r2,#0xffffffff
        0x0000d9f8:    4639        9F      MOV      r1,r7
        0x0000d9fa:    4628        (F      MOV      r0,r5
        0x0000d9fc:    f7fffe14    ....    BL       am_hal_ble_plf_reg_write ; 0xd628
        0x0000da00:    4632        2F      MOV      r2,r6
        0x0000da02:    491a        .I      LDR      r1,[pc,#104] ; [0xda6c] = 0x52400018
        0x0000da04:    4628        (F      MOV      r0,r5
        0x0000da06:    f7fffe0f    ....    BL       am_hal_ble_plf_reg_write ; 0xd628
        0x0000da0a:    4639        9F      MOV      r1,r7
        0x0000da0c:    4628        (F      MOV      r0,r5
        0x0000da0e:    9a01        ..      LDR      r2,[sp,#4]
        0x0000da10:    f7fffe0a    ....    BL       am_hal_ble_plf_reg_write ; 0xd628
        0x0000da14:    4e16        .N      LDR      r6,[pc,#88] ; [0xda70] = 0x40020000
        0x0000da16:    68f0        .h      LDR      r0,[r6,#0xc]
        0x0000da18:    4f16        .O      LDR      r7,[pc,#88] ; [0xda74] = 0x20006838
        0x0000da1a:    b2c0        ..      UXTB     r0,r0
        0x0000da1c:    f8df8058    ..X.    LDR      r8,[pc,#88] ; [0xda78] = 0x20006038
        0x0000da20:    2821        !(      CMP      r0,#0x21
        0x0000da22:    466a        jF      MOV      r2,sp
        0x0000da24:    d015        ..      BEQ      0xda52 ; am_hal_ble_tx_power_set + 130
        0x0000da26:    4641        AF      MOV      r1,r8
        0x0000da28:    4628        (F      MOV      r0,r5
        0x0000da2a:    f7fffd8b    ....    BL       am_hal_ble_plf_reg_read ; 0xd544
        0x0000da2e:    9800        ..      LDR      r0,[sp,#0]
        0x0000da30:    f02000ff     ...    BIC      r0,r0,#0xff
        0x0000da34:    ea400204    @...    ORR      r2,r0,r4
        0x0000da38:    9200        ..      STR      r2,[sp,#0]
        0x0000da3a:    68f0        .h      LDR      r0,[r6,#0xc]
        0x0000da3c:    b2c0        ..      UXTB     r0,r0
        0x0000da3e:    2821        !(      CMP      r0,#0x21
        0x0000da40:    d00c        ..      BEQ      0xda5c ; am_hal_ble_tx_power_set + 140
        0x0000da42:    4641        AF      MOV      r1,r8
        0x0000da44:    4628        (F      MOV      r0,r5
        0x0000da46:    f7fffdef    ....    BL       am_hal_ble_plf_reg_write ; 0xd628
        0x0000da4a:    b002        ..      ADD      sp,sp,#8
        0x0000da4c:    2000        .       MOVS     r0,#0
        0x0000da4e:    e8bd81f0    ....    POP      {r4-r8,pc}
        0x0000da52:    4639        9F      MOV      r1,r7
        0x0000da54:    4628        (F      MOV      r0,r5
        0x0000da56:    f7fffd75    ..u.    BL       am_hal_ble_plf_reg_read ; 0xd544
        0x0000da5a:    e7e8        ..      B        0xda2e ; am_hal_ble_tx_power_set + 94
        0x0000da5c:    4639        9F      MOV      r1,r7
        0x0000da5e:    4628        (F      MOV      r0,r5
        0x0000da60:    f7fffde2    ....    BL       am_hal_ble_plf_reg_write ; 0xd628
        0x0000da64:    e7f1        ..      B        0xda4a ; am_hal_ble_tx_power_set + 122
    $d
        0x0000da66:    0000        ..      DCW    0
        0x0000da68:    43000004    ...C    DCD    1124073476
        0x0000da6c:    52400018    ..@R    DCD    1379926040
        0x0000da70:    40020000    ...@    DCD    1073872896
        0x0000da74:    20006838    8h.     DCD    536897592
        0x0000da78:    20006038    8`.     DCD    536895544
    $t
    i.am_hal_ble_wakeup_set
    am_hal_ble_wakeup_set
        0x0000da7c:    2800        .(      CMP      r0,#0
        0x0000da7e:    bf1c        ..      ITT      NE
        0x0000da80:    6800        .h      LDRNE    r0,[r0,#0]
        0x0000da82:    f0107f80    ....    TSTNE    r0,#0x1000000
        0x0000da86:    d004        ..      BEQ      0xda92 ; am_hal_ble_wakeup_set + 22
        0x0000da88:    4a0a        .J      LDR      r2,[pc,#40] ; [0xdab4] = 0x775230
        0x0000da8a:    f020407f     ..@    BIC      r0,r0,#0xff000000
        0x0000da8e:    4290        .B      CMP      r0,r2
        0x0000da90:    d001        ..      BEQ      0xda96 ; am_hal_ble_wakeup_set + 26
        0x0000da92:    2002        .       MOVS     r0,#2
        0x0000da94:    4770        pG      BX       lr
        0x0000da96:    4808        .H      LDR      r0,[pc,#32] ; [0xdab8] = 0x5000c000
        0x0000da98:    2900        .)      CMP      r1,#0
        0x0000da9a:    f8d01304    ....    LDR      r1,[r0,#0x304]
        0x0000da9e:    bf12        ..      ITEE     NE
        0x0000daa0:    f041010c    A...    ORRNE    r1,r1,#0xc
        0x0000daa4:    f021010c    !...    BICEQ    r1,r1,#0xc
        0x0000daa8:    3108        .1      ADDEQ    r1,r1,#8
        0x0000daaa:    f8c01304    ....    STR      r1,[r0,#0x304]
        0x0000daae:    2000        .       MOVS     r0,#0
        0x0000dab0:    4770        pG      BX       lr
    $d
        0x0000dab2:    0000        ..      DCW    0
        0x0000dab4:    00775230    0Rw.    DCD    7819824
        0x0000dab8:    5000c000    ...P    DCD    1342226432
    $t
    i.am_hal_cachectrl_control
    am_hal_cachectrl_control
        0x0000dabc:    b538        8.      PUSH     {r3-r5,lr}
        0x0000dabe:    2812        .(      CMP      r0,#0x12
        0x0000dac0:    f080814a    ..J.    BCS.W    0xdd58 ; am_hal_cachectrl_control + 668
        0x0000dac4:    e8dff000    ....    TBB      [pc,r0]
    $d
        0x0000dac8:    140b09fd    ....    DCD    336267773
        0x0000dacc:    1e1c1a17    ....    DCD    505158167
        0x0000dad0:    3f332721    !'3?    DCD    1060316961
        0x0000dad4:    fce1ab75    u...    DCD    4242647925
        0x0000dad8:    fafb        ..      DCW    64251
    $t
        0x0000dada:    2001        .       MOVS     r0,#1
        0x0000dadc:    e017        ..      B        0xdb0e ; am_hal_cachectrl_control + 82
        0x0000dade:    48a9        .H      LDR      r0,[pc,#676] ; [0xdd84] = 0x40018000
        0x0000dae0:    6800        .h      LDR      r0,[r0,#0]
        0x0000dae2:    f0107f80    ....    TST      r0,#0x1000000
        0x0000dae6:    bf0a        ..      ITET     EQ
        0x0000dae8:    2007        .       MOVEQ    r0,#7
        0x0000daea:    2002        .       MOVNE    r0,#2
        0x0000daec:    bd38        8.      POPEQ    {r3-r5,pc}
        0x0000daee:    e00e        ..      B        0xdb0e ; am_hal_cachectrl_control + 82
        0x0000daf0:    f44f6088    O..`    MOV      r0,#0x440
        0x0000daf4:    e00b        ..      B        0xdb0e ; am_hal_cachectrl_control + 82
        0x0000daf6:    f44f7008    O..p    MOV      r0,#0x220
        0x0000dafa:    e008        ..      B        0xdb0e ; am_hal_cachectrl_control + 82
        0x0000dafc:    2040        @       MOVS     r0,#0x40
        0x0000dafe:    e006        ..      B        0xdb0e ; am_hal_cachectrl_control + 82
        0x0000db00:    2020                MOVS     r0,#0x20
        0x0000db02:    e004        ..      B        0xdb0e ; am_hal_cachectrl_control + 82
        0x0000db04:    f44f6080    O..`    MOV      r0,#0x400
        0x0000db08:    e001        ..      B        0xdb0e ; am_hal_cachectrl_control + 82
        0x0000db0a:    f44f7000    O..p    MOV      r0,#0x200
        0x0000db0e:    499d        .I      LDR      r1,[pc,#628] ; [0xdd84] = 0x40018000
        0x0000db10:    6088        .`      STR      r0,[r1,#8]
        0x0000db12:    2000        .       MOVS     r0,#0
        0x0000db14:    bd38        8.      POP      {r3-r5,pc}
        0x0000db16:    f7fefb97    ....    BL       am_hal_interrupt_master_disable ; 0xc248
        0x0000db1a:    9000        ..      STR      r0,[sp,#0]
        0x0000db1c:    4899        .H      LDR      r0,[pc,#612] ; [0xdd84] = 0x40018000
        0x0000db1e:    6801        .h      LDR      r1,[r0,#0]
        0x0000db20:    f0417180    A..q    ORR      r1,r1,#0x1000000
        0x0000db24:    6001        .`      STR      r1,[r0,#0]
        0x0000db26:    9800        ..      LDR      r0,[sp,#0]
        0x0000db28:    f7fefb92    ....    BL       am_hal_interrupt_master_set ; 0xc250
        0x0000db2c:    e7f1        ..      B        0xdb12 ; am_hal_cachectrl_control + 86
        0x0000db2e:    f7fefb8b    ....    BL       am_hal_interrupt_master_disable ; 0xc248
        0x0000db32:    9000        ..      STR      r0,[sp,#0]
        0x0000db34:    4893        .H      LDR      r0,[pc,#588] ; [0xdd84] = 0x40018000
        0x0000db36:    6801        .h      LDR      r1,[r0,#0]
        0x0000db38:    f0217180    !..q    BIC      r1,r1,#0x1000000
        0x0000db3c:    6001        .`      STR      r1,[r0,#0]
        0x0000db3e:    9800        ..      LDR      r0,[sp,#0]
        0x0000db40:    f7fefb86    ....    BL       am_hal_interrupt_master_set ; 0xc250
        0x0000db44:    e7e5        ..      B        0xdb12 ; am_hal_cachectrl_control + 86
        0x0000db46:    4c90        .L      LDR      r4,[pc,#576] ; [0xdd88] = 0x40018004
        0x0000db48:    f7fefb7e    ..~.    BL       am_hal_interrupt_master_disable ; 0xc248
        0x0000db4c:    9000        ..      STR      r0,[sp,#0]
        0x0000db4e:    4620         F      MOV      r0,r4
        0x0000db50:    f000f9f4    ....    BL       am_hal_flash_load_ui32 ; 0xdf3c
        0x0000db54:    f420507c     .|P    BIC      r0,r0,#0x3f00
        0x0000db58:    f44061e0    @..a    ORR      r1,r0,#0x700
        0x0000db5c:    4620         F      MOV      r0,r4
        0x0000db5e:    f000f9f1    ....    BL       am_hal_flash_store_ui32 ; 0xdf44
        0x0000db62:    9800        ..      LDR      r0,[sp,#0]
        0x0000db64:    f7fefb74    ..t.    BL       am_hal_interrupt_master_set ; 0xc250
        0x0000db68:    f7fefb6e    ..n.    BL       am_hal_interrupt_master_disable ; 0xc248
        0x0000db6c:    9000        ..      STR      r0,[sp,#0]
        0x0000db6e:    4620         F      MOV      r0,r4
        0x0000db70:    f000f9e4    ....    BL       am_hal_flash_load_ui32 ; 0xdf3c
        0x0000db74:    f4206077     .w`    BIC      r0,r0,#0xf70
        0x0000db78:    f44061ee    @..a    ORR      r1,r0,#0x770
        0x0000db7c:    4620         F      MOV      r0,r4
        0x0000db7e:    f000f9e1    ....    BL       am_hal_flash_store_ui32 ; 0xdf44
        0x0000db82:    9800        ..      LDR      r0,[sp,#0]
        0x0000db84:    f7fefb64    ..d.    BL       am_hal_interrupt_master_set ; 0xc250
        0x0000db88:    f7fefb5e    ..^.    BL       am_hal_interrupt_master_disable ; 0xc248
        0x0000db8c:    9000        ..      STR      r0,[sp,#0]
        0x0000db8e:    4620         F      MOV      r0,r4
        0x0000db90:    f000f9d4    ....    BL       am_hal_flash_load_ui32 ; 0xdf3c
        0x0000db94:    f020000f     ...    BIC      r0,r0,#0xf
        0x0000db98:    f4206070     .p`    BIC      r0,r0,#0xf00
        0x0000db9c:    f0400003    @...    ORR      r0,r0,#3
        0x0000dba0:    f44061e0    @..a    ORR      r1,r0,#0x700
        0x0000dba4:    4620         F      MOV      r0,r4
        0x0000dba6:    f000f9cd    ....    BL       am_hal_flash_store_ui32 ; 0xdf44
        0x0000dbaa:    9800        ..      LDR      r0,[sp,#0]
        0x0000dbac:    f7fefb50    ..P.    BL       am_hal_interrupt_master_set ; 0xc250
        0x0000dbb0:    e7af        ..      B        0xdb12 ; am_hal_cachectrl_control + 86
        0x0000dbb2:    4c75        uL      LDR      r4,[pc,#468] ; [0xdd88] = 0x40018004
        0x0000dbb4:    f7fefb48    ..H.    BL       am_hal_interrupt_master_disable ; 0xc248
        0x0000dbb8:    9000        ..      STR      r0,[sp,#0]
        0x0000dbba:    4620         F      MOV      r0,r4
        0x0000dbbc:    f000f9be    ....    BL       am_hal_flash_load_ui32 ; 0xdf3c
        0x0000dbc0:    f420507c     .|P    BIC      r0,r0,#0x3f00
        0x0000dbc4:    f44051b8    @..Q    ORR      r1,r0,#0x1700
        0x0000dbc8:    4620         F      MOV      r0,r4
        0x0000dbca:    f000f9bb    ....    BL       am_hal_flash_store_ui32 ; 0xdf44
        0x0000dbce:    9800        ..      LDR      r0,[sp,#0]
        0x0000dbd0:    f7fefb3e    ..>.    BL       am_hal_interrupt_master_set ; 0xc250
        0x0000dbd4:    f7fefb38    ..8.    BL       am_hal_interrupt_master_disable ; 0xc248
        0x0000dbd8:    9000        ..      STR      r0,[sp,#0]
        0x0000dbda:    4620         F      MOV      r0,r4
        0x0000dbdc:    f000f9ae    ....    BL       am_hal_flash_load_ui32 ; 0xdf3c
        0x0000dbe0:    f4206077     .w`    BIC      r0,r0,#0xf70
        0x0000dbe4:    f44061ea    @..a    ORR      r1,r0,#0x750
        0x0000dbe8:    4620         F      MOV      r0,r4
        0x0000dbea:    f000f9ab    ....    BL       am_hal_flash_store_ui32 ; 0xdf44
        0x0000dbee:    9800        ..      LDR      r0,[sp,#0]
        0x0000dbf0:    f7fefb2e    ....    BL       am_hal_interrupt_master_set ; 0xc250
        0x0000dbf4:    f7fefb28    ..(.    BL       am_hal_interrupt_master_disable ; 0xc248
        0x0000dbf8:    9000        ..      STR      r0,[sp,#0]
        0x0000dbfa:    4620         F      MOV      r0,r4
        0x0000dbfc:    f000f99e    ....    BL       am_hal_flash_load_ui32 ; 0xdf3c
        0x0000dc00:    f020000f     ...    BIC      r0,r0,#0xf
        0x0000dc04:    f4206070     .p`    BIC      r0,r0,#0xf00
        0x0000dc08:    f0400001    @...    ORR      r0,r0,#1
        0x0000dc0c:    f44061e0    @..a    ORR      r1,r0,#0x700
        0x0000dc10:    4620         F      MOV      r0,r4
        0x0000dc12:    f000f997    ....    BL       am_hal_flash_store_ui32 ; 0xdf44
        0x0000dc16:    9800        ..      LDR      r0,[sp,#0]
        0x0000dc18:    f7fefb1a    ....    BL       am_hal_interrupt_master_set ; 0xc250
        0x0000dc1c:    e779        y.      B        0xdb12 ; am_hal_cachectrl_control + 86
        0x0000dc1e:    4c5a        ZL      LDR      r4,[pc,#360] ; [0xdd88] = 0x40018004
        0x0000dc20:    f7fefb12    ....    BL       am_hal_interrupt_master_disable ; 0xc248
        0x0000dc24:    9000        ..      STR      r0,[sp,#0]
        0x0000dc26:    4620         F      MOV      r0,r4
        0x0000dc28:    f000f988    ....    BL       am_hal_flash_load_ui32 ; 0xdf3c
        0x0000dc2c:    f420507c     .|P    BIC      r0,r0,#0x3f00
        0x0000dc30:    f44051b8    @..Q    ORR      r1,r0,#0x1700
        0x0000dc34:    4620         F      MOV      r0,r4
        0x0000dc36:    f000f985    ....    BL       am_hal_flash_store_ui32 ; 0xdf44
        0x0000dc3a:    9800        ..      LDR      r0,[sp,#0]
        0x0000dc3c:    f7fefb08    ....    BL       am_hal_interrupt_master_set ; 0xc250
        0x0000dc40:    f7fefb02    ....    BL       am_hal_interrupt_master_disable ; 0xc248
        0x0000dc44:    9000        ..      STR      r0,[sp,#0]
        0x0000dc46:    4620         F      MOV      r0,r4
        0x0000dc48:    f000f978    ..x.    BL       am_hal_flash_load_ui32 ; 0xdf3c
        0x0000dc4c:    f4206077     .w`    BIC      r0,r0,#0xf70
        0x0000dc50:    f44061ec    @..a    ORR      r1,r0,#0x760
        0x0000dc54:    4620         F      MOV      r0,r4
        0x0000dc56:    f000f975    ..u.    BL       am_hal_flash_store_ui32 ; 0xdf44
        0x0000dc5a:    9800        ..      LDR      r0,[sp,#0]
        0x0000dc5c:    f7fefaf8    ....    BL       am_hal_interrupt_master_set ; 0xc250
        0x0000dc60:    f7fefaf2    ....    BL       am_hal_interrupt_master_disable ; 0xc248
        0x0000dc64:    9000        ..      STR      r0,[sp,#0]
        0x0000dc66:    4620         F      MOV      r0,r4
        0x0000dc68:    f000f968    ..h.    BL       am_hal_flash_load_ui32 ; 0xdf3c
        0x0000dc6c:    f020000f     ...    BIC      r0,r0,#0xf
        0x0000dc70:    f4206070     .p`    BIC      r0,r0,#0xf00
        0x0000dc74:    f0400001    @...    ORR      r0,r0,#1
        0x0000dc78:    f44061e0    @..a    ORR      r1,r0,#0x700
        0x0000dc7c:    4620         F      MOV      r0,r4
        0x0000dc7e:    f000f961    ..a.    BL       am_hal_flash_store_ui32 ; 0xdf44
        0x0000dc82:    9800        ..      LDR      r0,[sp,#0]
        0x0000dc84:    f7fefae4    ....    BL       am_hal_interrupt_master_set ; 0xc250
        0x0000dc88:    e743        C.      B        0xdb12 ; am_hal_cachectrl_control + 86
        0x0000dc8a:    2900        .)      CMP      r1,#0
        0x0000dc8c:    d064        d.      BEQ      0xdd58 ; am_hal_cachectrl_control + 668
        0x0000dc8e:    680c        .h      LDR      r4,[r1,#0]
        0x0000dc90:    2c03        .,      CMP      r4,#3
        0x0000dc92:    d839        9.      BHI      0xdd08 ; am_hal_cachectrl_control + 588
        0x0000dc94:    4d3c        <M      LDR      r5,[pc,#240] ; [0xdd88] = 0x40018004
        0x0000dc96:    f7fefad7    ....    BL       am_hal_interrupt_master_disable ; 0xc248
        0x0000dc9a:    9000        ..      STR      r0,[sp,#0]
        0x0000dc9c:    4628        (F      MOV      r0,r5
        0x0000dc9e:    f000f94d    ..M.    BL       am_hal_flash_load_ui32 ; 0xdf3c
        0x0000dca2:    f44f5140    O.@Q    MOV      r1,#0x3000
        0x0000dca6:    f420507c     .|P    BIC      r0,r0,#0x3f00
        0x0000dcaa:    ea013104    ...1    AND      r1,r1,r4,LSL #12
        0x0000dcae:    4308        .C      ORRS     r0,r0,r1
        0x0000dcb0:    f44061e0    @..a    ORR      r1,r0,#0x700
        0x0000dcb4:    4628        (F      MOV      r0,r5
        0x0000dcb6:    f000f945    ..E.    BL       am_hal_flash_store_ui32 ; 0xdf44
        0x0000dcba:    e003        ..      B        0xdcc4 ; am_hal_cachectrl_control + 520
        0x0000dcbc:    e03e        >.      B        0xdd3c ; am_hal_cachectrl_control + 640
        0x0000dcbe:    e01f        ..      B        0xdd00 ; am_hal_cachectrl_control + 580
        0x0000dcc0:    e004        ..      B        0xdccc ; am_hal_cachectrl_control + 528
        0x0000dcc2:    e03a        :.      B        0xdd3a ; am_hal_cachectrl_control + 638
        0x0000dcc4:    9800        ..      LDR      r0,[sp,#0]
        0x0000dcc6:    f7fefac3    ....    BL       am_hal_interrupt_master_set ; 0xc250
        0x0000dcca:    e722        ".      B        0xdb12 ; am_hal_cachectrl_control + 86
        0x0000dccc:    b3a9        ..      CBZ      r1,0xdd3a ; am_hal_cachectrl_control + 638
        0x0000dcce:    680c        .h      LDR      r4,[r1,#0]
        0x0000dcd0:    2c07        .,      CMP      r4,#7
        0x0000dcd2:    d819        ..      BHI      0xdd08 ; am_hal_cachectrl_control + 588
        0x0000dcd4:    4d2c        ,M      LDR      r5,[pc,#176] ; [0xdd88] = 0x40018004
        0x0000dcd6:    f7fefab7    ....    BL       am_hal_interrupt_master_disable ; 0xc248
        0x0000dcda:    9000        ..      STR      r0,[sp,#0]
        0x0000dcdc:    4628        (F      MOV      r0,r5
        0x0000dcde:    f000f92d    ..-.    BL       am_hal_flash_load_ui32 ; 0xdf3c
        0x0000dce2:    2170        p!      MOVS     r1,#0x70
        0x0000dce4:    f4206077     .w`    BIC      r0,r0,#0xf70
        0x0000dce8:    ea011104    ....    AND      r1,r1,r4,LSL #4
        0x0000dcec:    4308        .C      ORRS     r0,r0,r1
        0x0000dcee:    f44061e0    @..a    ORR      r1,r0,#0x700
        0x0000dcf2:    4628        (F      MOV      r0,r5
        0x0000dcf4:    f000f926    ..&.    BL       am_hal_flash_store_ui32 ; 0xdf44
        0x0000dcf8:    9800        ..      LDR      r0,[sp,#0]
        0x0000dcfa:    f7fefaa9    ....    BL       am_hal_interrupt_master_set ; 0xc250
        0x0000dcfe:    e708        ..      B        0xdb12 ; am_hal_cachectrl_control + 86
        0x0000dd00:    b1d9        ..      CBZ      r1,0xdd3a ; am_hal_cachectrl_control + 638
        0x0000dd02:    680c        .h      LDR      r4,[r1,#0]
        0x0000dd04:    2c0f        .,      CMP      r4,#0xf
        0x0000dd06:    d901        ..      BLS      0xdd0c ; am_hal_cachectrl_control + 592
        0x0000dd08:    2001        .       MOVS     r0,#1
        0x0000dd0a:    bd38        8.      POP      {r3-r5,pc}
        0x0000dd0c:    4d1e        .M      LDR      r5,[pc,#120] ; [0xdd88] = 0x40018004
        0x0000dd0e:    f7fefa9b    ....    BL       am_hal_interrupt_master_disable ; 0xc248
        0x0000dd12:    9000        ..      STR      r0,[sp,#0]
        0x0000dd14:    4628        (F      MOV      r0,r5
        0x0000dd16:    f000f911    ....    BL       am_hal_flash_load_ui32 ; 0xdf3c
        0x0000dd1a:    f020000f     ...    BIC      r0,r0,#0xf
        0x0000dd1e:    f4206070     .p`    BIC      r0,r0,#0xf00
        0x0000dd22:    f004010f    ....    AND      r1,r4,#0xf
        0x0000dd26:    4308        .C      ORRS     r0,r0,r1
        0x0000dd28:    f44061e0    @..a    ORR      r1,r0,#0x700
        0x0000dd2c:    4628        (F      MOV      r0,r5
        0x0000dd2e:    f000f909    ....    BL       am_hal_flash_store_ui32 ; 0xdf44
        0x0000dd32:    9800        ..      LDR      r0,[sp,#0]
        0x0000dd34:    f7fefa8c    ....    BL       am_hal_interrupt_master_set ; 0xc250
        0x0000dd38:    e6eb        ..      B        0xdb12 ; am_hal_cachectrl_control + 86
        0x0000dd3a:    e00d        ..      B        0xdd58 ; am_hal_cachectrl_control + 668
        0x0000dd3c:    b161        a.      CBZ      r1,0xdd58 ; am_hal_cachectrl_control + 668
        0x0000dd3e:    6848        Hh      LDR      r0,[r1,#4]
        0x0000dd40:    4602        .F      MOV      r2,r0
        0x0000dd42:    f36f121a    o...    BFC      r2,#4,#23
        0x0000dd46:    b93a        :.      CBNZ     r2,0xdd58 ; am_hal_cachectrl_control + 668
        0x0000dd48:    688a        .h      LDR      r2,[r1,#8]
        0x0000dd4a:    f36f121a    o...    BFC      r2,#4,#23
        0x0000dd4e:    b91a        ..      CBNZ     r2,0xdd58 ; am_hal_cachectrl_control + 668
        0x0000dd50:    780a        .x      LDRB     r2,[r1,#0]
        0x0000dd52:    b11a        ..      CBZ      r2,0xdd5c ; am_hal_cachectrl_control + 672
        0x0000dd54:    2a01        .*      CMP      r2,#1
        0x0000dd56:    d00a        ..      BEQ      0xdd6e ; am_hal_cachectrl_control + 690
        0x0000dd58:    2006        .       MOVS     r0,#6
        0x0000dd5a:    bd38        8.      POP      {r3-r5,pc}
        0x0000dd5c:    4a09        .J      LDR      r2,[pc,#36] ; [0xdd84] = 0x40018000
        0x0000dd5e:    6110        .a      STR      r0,[r2,#0x10]
        0x0000dd60:    6888        .h      LDR      r0,[r1,#8]
        0x0000dd62:    6150        Pa      STR      r0,[r2,#0x14]
        0x0000dd64:    7849        Ix      LDRB     r1,[r1,#1]
        0x0000dd66:    6810        .h      LDR      r0,[r2,#0]
        0x0000dd68:    f3610082    a...    BFI      r0,r1,#2,#1
        0x0000dd6c:    e007        ..      B        0xdd7e ; am_hal_cachectrl_control + 706
        0x0000dd6e:    4a05        .J      LDR      r2,[pc,#20] ; [0xdd84] = 0x40018000
        0x0000dd70:    6190        .a      STR      r0,[r2,#0x18]
        0x0000dd72:    6888        .h      LDR      r0,[r1,#8]
        0x0000dd74:    61d0        .a      STR      r0,[r2,#0x1c]
        0x0000dd76:    7849        Ix      LDRB     r1,[r1,#1]
        0x0000dd78:    6810        .h      LDR      r0,[r2,#0]
        0x0000dd7a:    f36100c3    a...    BFI      r0,r1,#3,#1
        0x0000dd7e:    6010        .`      STR      r0,[r2,#0]
        0x0000dd80:    e6c7        ..      B        0xdb12 ; am_hal_cachectrl_control + 86
    $d
        0x0000dd82:    0000        ..      DCW    0
        0x0000dd84:    40018000    ...@    DCD    1073840128
        0x0000dd88:    40018004    ...@    DCD    1073840132
    $t
    i.am_hal_clkgen_control
    am_hal_clkgen_control
        0x0000dd8c:    b510        ..      PUSH     {r4,lr}
        0x0000dd8e:    460c        .F      MOV      r4,r1
        0x0000dd90:    4939        9I      LDR      r1,[pc,#228] ; [0xde78] = 0x10000084
        0x0000dd92:    680a        .h      LDR      r2,[r1,#0]
        0x0000dd94:    b912        ..      CBNZ     r2,0xdd9c ; am_hal_clkgen_control + 16
        0x0000dd96:    4a39        9J      LDR      r2,[pc,#228] ; [0xde7c] = 0x4ffff000
        0x0000dd98:    6812        .h      LDR      r2,[r2,#0]
        0x0000dd9a:    600a        .`      STR      r2,[r1,#0]
        0x0000dd9c:    280a        .(      CMP      r0,#0xa
        0x0000dd9e:    d269        i.      BCS      0xde74 ; am_hal_clkgen_control + 232
        0x0000dda0:    e8dff000    ....    TBB      [pc,r0]
    $d
        0x0000dda4:    27151b05    ...'    DCD    655694597
        0x0000dda8:    3a400c21    !.@:    DCD    977275937
        0x0000ddac:    6047        G`      DCW    24647
    $t
        0x0000ddae:    f04f2040    O.@     MOV      r0,#0x40004000
        0x0000ddb2:    2147        G!      MOVS     r1,#0x47
        0x0000ddb4:    6141        Aa      STR      r1,[r0,#0x14]
        0x0000ddb6:    2100        .!      MOVS     r1,#0
        0x0000ddb8:    6181        .a      STR      r1,[r0,#0x18]
        0x0000ddba:    e006        ..      B        0xddca ; am_hal_clkgen_control + 62
        0x0000ddbc:    f04f2040    O.@     MOV      r0,#0x40004000
        0x0000ddc0:    2147        G!      MOVS     r1,#0x47
        0x0000ddc2:    6141        Aa      STR      r1,[r0,#0x14]
        0x0000ddc4:    2101        .!      MOVS     r1,#1
        0x0000ddc6:    6181        .a      STR      r1,[r0,#0x18]
        0x0000ddc8:    2100        .!      MOVS     r1,#0
        0x0000ddca:    6141        Aa      STR      r1,[r0,#0x14]
        0x0000ddcc:    e050        P.      B        0xde70 ; am_hal_clkgen_control + 228
        0x0000ddce:    f04f2040    O.@     MOV      r0,#0x40004000
        0x0000ddd2:    68c1        .h      LDR      r1,[r0,#0xc]
        0x0000ddd4:    f0210102    !...    BIC      r1,r1,#2
        0x0000ddd8:    e029        ).      B        0xde2e ; am_hal_clkgen_control + 162
        0x0000ddda:    f04f2040    O.@     MOV      r0,#0x40004000
        0x0000ddde:    68c1        .h      LDR      r1,[r0,#0xc]
        0x0000dde0:    f0210101    !...    BIC      r1,r1,#1
        0x0000dde4:    e023        #.      B        0xde2e ; am_hal_clkgen_control + 162
        0x0000dde6:    f04f2040    O.@     MOV      r0,#0x40004000
        0x0000ddea:    68c1        .h      LDR      r1,[r0,#0xc]
        0x0000ddec:    f0410102    A...    ORR      r1,r1,#2
        0x0000ddf0:    e01d        ..      B        0xde2e ; am_hal_clkgen_control + 162
        0x0000ddf2:    4823        #H      LDR      r0,[pc,#140] ; [0xde80] = 0x40020000
        0x0000ddf4:    68c1        .h      LDR      r1,[r0,#0xc]
        0x0000ddf6:    b2c9        ..      UXTB     r1,r1
        0x0000ddf8:    2921        !)      CMP      r1,#0x21
        0x0000ddfa:    d107        ..      BNE      0xde0c ; am_hal_clkgen_control + 128
        0x0000ddfc:    f8d01120    .. .    LDR      r1,[r0,#0x120]
        0x0000de00:    f4217140    !.@q    BIC      r1,r1,#0x300
        0x0000de04:    f5017180    ...q    ADD      r1,r1,#0x100
        0x0000de08:    f8c01120    .. .    STR      r1,[r0,#0x120]
        0x0000de0c:    f04f2040    O.@     MOV      r0,#0x40004000
        0x0000de10:    68c1        .h      LDR      r1,[r0,#0xc]
        0x0000de12:    f0410101    A...    ORR      r1,r1,#1
        0x0000de16:    e00a        ..      B        0xde2e ; am_hal_clkgen_control + 162
        0x0000de18:    f04f2040    O.@     MOV      r0,#0x40004000
        0x0000de1c:    68c1        .h      LDR      r1,[r0,#0xc]
        0x0000de1e:    f0410180    A...    ORR      r1,r1,#0x80
        0x0000de22:    e004        ..      B        0xde2e ; am_hal_clkgen_control + 162
        0x0000de24:    f04f2040    O.@     MOV      r0,#0x40004000
        0x0000de28:    68c1        .h      LDR      r1,[r0,#0xc]
        0x0000de2a:    f0210180    !...    BIC      r1,r1,#0x80
        0x0000de2e:    60c1        .`      STR      r1,[r0,#0xc]
        0x0000de30:    e01e        ..      B        0xde70 ; am_hal_clkgen_control + 228
        0x0000de32:    4813        .H      LDR      r0,[pc,#76] ; [0xde80] = 0x40020000
        0x0000de34:    68c1        .h      LDR      r1,[r0,#0xc]
        0x0000de36:    b2c9        ..      UXTB     r1,r1
        0x0000de38:    2921        !)      CMP      r1,#0x21
        0x0000de3a:    d109        ..      BNE      0xde50 ; am_hal_clkgen_control + 196
        0x0000de3c:    f8d01120    .. .    LDR      r1,[r0,#0x120]
        0x0000de40:    f4417140    A.@q    ORR      r1,r1,#0x300
        0x0000de44:    f8c01120    .. .    STR      r1,[r0,#0x120]
        0x0000de48:    f44f507a    O.zP    MOV      r0,#0x3e80
        0x0000de4c:    f000f836    ..6.    BL       am_hal_flash_delay ; 0xdebc
        0x0000de50:    2c00        .,      CMP      r4,#0
        0x0000de52:    bf0c        ..      ITE      EQ
        0x0000de54:    480b        .H      LDREQ    r0,[pc,#44] ; [0xde84] = 0x25b801
        0x0000de56:    6820         h      LDRNE    r0,[r4,#0]
        0x0000de58:    f0400001    @...    ORR      r0,r0,#1
        0x0000de5c:    f04f2140    O.@!    MOV      r1,#0x40004000
        0x0000de60:    6208        .b      STR      r0,[r1,#0x20]
        0x0000de62:    e005        ..      B        0xde70 ; am_hal_clkgen_control + 228
        0x0000de64:    f04f2040    O.@     MOV      r0,#0x40004000
        0x0000de68:    6a01        .j      LDR      r1,[r0,#0x20]
        0x0000de6a:    f0210101    !...    BIC      r1,r1,#1
        0x0000de6e:    6201        .b      STR      r1,[r0,#0x20]
        0x0000de70:    2000        .       MOVS     r0,#0
        0x0000de72:    bd10        ..      POP      {r4,pc}
        0x0000de74:    2006        .       MOVS     r0,#6
        0x0000de76:    bd10        ..      POP      {r4,pc}
    $d
        0x0000de78:    10000084    ....    DCD    268435588
        0x0000de7c:    4ffff000    ...O    DCD    1342173184
        0x0000de80:    40020000    ...@    DCD    1073872896
        0x0000de84:    0025b801    ..%.    DCD    2471937
    $t
    i.am_hal_clkgen_status_get
    am_hal_clkgen_status_get
        0x0000de88:    2800        .(      CMP      r0,#0
        0x0000de8a:    bf04        ..      ITT      EQ
        0x0000de8c:    2006        .       MOVEQ    r0,#6
        0x0000de8e:    4770        pG      BXEQ     lr
        0x0000de90:    f04f2140    O.@!    MOV      r1,#0x40004000
        0x0000de94:    698a        .i      LDR      r2,[r1,#0x18]
        0x0000de96:    f0120f01    ....    TST      r2,#1
        0x0000de9a:    bf14        ..      ITE      NE
        0x0000de9c:    4a05        .J      LDRNE    r2,[pc,#20] ; [0xdeb4] = 0x16e3600
        0x0000de9e:    4a06        .J      LDREQ    r2,[pc,#24] ; [0xdeb8] = 0x2dc6c00
        0x0000dea0:    6002        .`      STR      r2,[r0,#0]
        0x0000dea2:    69c9        .i      LDR      r1,[r1,#0x1c]
        0x0000dea4:    f0010201    ....    AND      r2,r1,#1
        0x0000dea8:    f3c10140    ..@.    UBFX     r1,r1,#1,#1
        0x0000deac:    6042        B`      STR      r2,[r0,#4]
        0x0000deae:    7201        .r      STRB     r1,[r0,#8]
        0x0000deb0:    2000        .       MOVS     r0,#0
        0x0000deb2:    4770        pG      BX       lr
    $d
        0x0000deb4:    016e3600    .6n.    DCD    24000000
        0x0000deb8:    02dc6c00    .l..    DCD    48000000
    $t
    i.am_hal_flash_delay
    am_hal_flash_delay
        0x0000debc:    f04f2140    O.@!    MOV      r1,#0x40004000
        0x0000dec0:    6b49        Ik      LDR      r1,[r1,#0x34]
        0x0000dec2:    f0110f04    ....    TST      r1,#4
        0x0000dec6:    bf1a        ..      ITTE     NE
        0x0000dec8:    0040        @.      LSLNE    r0,r0,#1
        0x0000deca:    210e        .!      MOVNE    r1,#0xe
        0x0000decc:    210b        .!      MOVEQ    r1,#0xb
        0x0000dece:    4288        .B      CMP      r0,r1
        0x0000ded0:    bf98        ..      IT       LS
        0x0000ded2:    4770        pG      BXLS     lr
        0x0000ded4:    1a40        @.      SUBS     r0,r0,r1
        0x0000ded6:    4901        .I      LDR      r1,[pc,#4] ; [0xdedc] = 0x800009d
        0x0000ded8:    4708        .G      BX       r1
    $d
        0x0000deda:    0000        ..      DCW    0
        0x0000dedc:    0800009d    ....    DCD    134217885
    $t
    i.am_hal_flash_delay_status_check
    am_hal_flash_delay_status_check
        0x0000dee0:    e92d47f0    -..G    PUSH     {r4-r10,lr}
        0x0000dee4:    f8dfa050    ..P.    LDR      r10,[pc,#80] ; [0xdf38] = 0x800009d
        0x0000dee8:    f8dd8020    .. .    LDR      r8,[sp,#0x20]
        0x0000deec:    461c        .F      MOV      r4,r3
        0x0000deee:    4615        .F      MOV      r5,r2
        0x0000def0:    460e        .F      MOV      r6,r1
        0x0000def2:    4607        .F      MOV      r7,r0
        0x0000def4:    f04f2940    O.@)    MOV      r9,#0x40004000
        0x0000def8:    6830        0h      LDR      r0,[r6,#0]
        0x0000defa:    f1b80f00    ....    CMP      r8,#0
        0x0000defe:    ea000005    ....    AND      r0,r0,r5
        0x0000df02:    d002        ..      BEQ      0xdf0a ; am_hal_flash_delay_status_check + 42
        0x0000df04:    42a0        .B      CMP      r0,r4
        0x0000df06:    d002        ..      BEQ      0xdf0e ; am_hal_flash_delay_status_check + 46
        0x0000df08:    e004        ..      B        0xdf14 ; am_hal_flash_delay_status_check + 52
        0x0000df0a:    42a0        .B      CMP      r0,r4
        0x0000df0c:    d002        ..      BEQ      0xdf14 ; am_hal_flash_delay_status_check + 52
        0x0000df0e:    2000        .       MOVS     r0,#0
        0x0000df10:    e8bd87f0    ....    POP      {r4-r10,pc}
        0x0000df14:    1e7f        ..      SUBS     r7,r7,#1
        0x0000df16:    d30b        ..      BCC      0xdf30 ; am_hal_flash_delay_status_check + 80
        0x0000df18:    f8d91034    ..4.    LDR      r1,[r9,#0x34]
        0x0000df1c:    2010        .       MOVS     r0,#0x10
        0x0000df1e:    f0110f04    ....    TST      r1,#4
        0x0000df22:    bf1a        ..      ITTE     NE
        0x0000df24:    2020                MOVNE    r0,#0x20
        0x0000df26:    210e        .!      MOVNE    r1,#0xe
        0x0000df28:    210b        .!      MOVEQ    r1,#0xb
        0x0000df2a:    1a40        @.      SUBS     r0,r0,r1
        0x0000df2c:    47d0        .G      BLX      r10
        0x0000df2e:    e7e3        ..      B        0xdef8 ; am_hal_flash_delay_status_check + 24
        0x0000df30:    2004        .       MOVS     r0,#4
        0x0000df32:    e8bd87f0    ....    POP      {r4-r10,pc}
    $d
        0x0000df36:    0000        ..      DCW    0
        0x0000df38:    0800009d    ....    DCD    134217885
    $t
    i.am_hal_flash_load_ui32
    am_hal_flash_load_ui32
        0x0000df3c:    4900        .I      LDR      r1,[pc,#0] ; [0xdf40] = 0x8000075
        0x0000df3e:    4708        .G      BX       r1
    $d
        0x0000df40:    08000075    u...    DCD    134217845
    $t
    i.am_hal_flash_store_ui32
    am_hal_flash_store_ui32
        0x0000df44:    b500        ..      PUSH     {lr}
        0x0000df46:    f8dfc020    .. .    LDR      r12,[pc,#32] ; [0xdf68] = 0x10c88
        0x0000df4a:    b083        ..      SUB      sp,sp,#0xc
        0x0000df4c:    e9dc2300    ...#    LDRD     r2,r3,[r12,#0]
        0x0000df50:    f8dcc008    ....    LDR      r12,[r12,#8]
        0x0000df54:    e9cd2300    ...#    STRD     r2,r3,[sp,#0]
        0x0000df58:    466a        jF      MOV      r2,sp
        0x0000df5a:    f8cdc008    ....    STR      r12,[sp,#8]
        0x0000df5e:    f0420201    B...    ORR      r2,r2,#1
        0x0000df62:    4790        .G      BLX      r2
        0x0000df64:    b003        ..      ADD      sp,sp,#0xc
        0x0000df66:    bd00        ..      POP      {pc}
    $d
        0x0000df68:    00010c88    ....    DCD    68744
    $t
    i.am_hal_gpio_pinconfig
    am_hal_gpio_pinconfig
        0x0000df6c:    e92d4ff0    -..O    PUSH     {r4-r11,lr}
        0x0000df70:    2500        .%      MOVS     r5,#0
        0x0000df72:    b08b        ..      SUB      sp,sp,#0x2c
        0x0000df74:    4604        .F      MOV      r4,r0
        0x0000df76:    2832        2(      CMP      r0,#0x32
        0x0000df78:    bf22        ".      ITTT     CS
        0x0000df7a:    2006        .       MOVCS    r0,#6
        0x0000df7c:    b00b        ..      ADDCS    sp,sp,#0x2c
        0x0000df7e:    e8bd8ff0    ....    POPCS    {r4-r11,pc}
        0x0000df82:    2200        ."      MOVS     r2,#0
        0x0000df84:    f0010307    ....    AND      r3,r1,#7
        0x0000df88:    4f8b        .O      LDR      r7,[pc,#556] ; [0xe1b8] = 0x10cca
        0x0000df8a:    f3c10cc1    ....    UBFX     r12,r1,#3,#2
        0x0000df8e:    ea4200c3    B...    ORR      r0,r2,r3,LSL #3
        0x0000df92:    f0110fe0    ....    TST      r1,#0xe0
        0x0000df96:    d021        !.      BEQ      0xdfdc ; am_hal_gpio_pinconfig + 112
        0x0000df98:    f3c11642    ..B.    UBFX     r6,r1,#5,#3
        0x0000df9c:    f1a60902    ....    SUB      r9,r6,#2
        0x0000dfa0:    f8df8218    ....    LDR      r8,[pc,#536] ; [0xe1bc] = 0x8000100
        0x0000dfa4:    f0400001    @...    ORR      r0,r0,#1
        0x0000dfa8:    f1b90f03    ....    CMP      r9,#3
        0x0000dfac:    d809        ..      BHI      0xdfc2 ; am_hal_gpio_pinconfig + 86
        0x0000dfae:    f06f097f    o...    MVN      r9,#0x7f
        0x0000dfb2:    eb091686    ....    ADD      r6,r9,r6,LSL #6
        0x0000dfb6:    4330        0C      ORRS     r0,r0,r6
        0x0000dfb8:    5d3e        >]      LDRB     r6,[r7,r4]
        0x0000dfba:    f0160f01    ....    TST      r6,#1
        0x0000dfbe:    d10d        ..      BNE      0xdfdc ; am_hal_gpio_pinconfig + 112
        0x0000dfc0:    e016        ..      B        0xdff0 ; am_hal_gpio_pinconfig + 132
        0x0000dfc2:    2e06        ..      CMP      r6,#6
        0x0000dfc4:    d004        ..      BEQ      0xdfd0 ; am_hal_gpio_pinconfig + 100
        0x0000dfc6:    2e01        ..      CMP      r6,#1
        0x0000dfc8:    bf08        ..      IT       EQ
        0x0000dfca:    2c14        .,      CMPEQ    r4,#0x14
        0x0000dfcc:    d010        ..      BEQ      0xdff0 ; am_hal_gpio_pinconfig + 132
        0x0000dfce:    e005        ..      B        0xdfdc ; am_hal_gpio_pinconfig + 112
        0x0000dfd0:    2c14        .,      CMP      r4,#0x14
        0x0000dfd2:    bf1e        ..      ITTT     NE
        0x0000dfd4:    487a        zH      LDRNE    r0,[pc,#488] ; [0xe1c0] = 0x8000101
        0x0000dfd6:    b00b        ..      ADDNE    sp,sp,#0x2c
        0x0000dfd8:    e8bd8ff0    ....    POPNE    {r4-r11,pc}
        0x0000dfdc:    f1bc0f00    ....    CMP      r12,#0
        0x0000dfe0:    d012        ..      BEQ      0xe008 ; am_hal_gpio_pinconfig + 156
        0x0000dfe2:    f1bc0f01    ....    CMP      r12,#1
        0x0000dfe6:    d007        ..      BEQ      0xdff8 ; am_hal_gpio_pinconfig + 140
        0x0000dfe8:    f1bc0f02    ....    CMP      r12,#2
        0x0000dfec:    d03a        :.      BEQ      0xe064 ; am_hal_gpio_pinconfig + 248
        0x0000dfee:    e041        A.      B        0xe074 ; am_hal_gpio_pinconfig + 264
        0x0000dff0:    b00b        ..      ADD      sp,sp,#0x2c
        0x0000dff2:    4640        @F      MOV      r0,r8
        0x0000dff4:    e8bd8ff0    ....    POP      {r4-r11,pc}
        0x0000dff8:    f817c004    ....    LDRB     r12,[r7,r4]
        0x0000dffc:    f01c0f02    ....    TST      r12,#2
        0x0000e000:    bf18        ..      IT       NE
        0x0000e002:    f0400040    @.@.    ORRNE    r0,r0,#0x40
        0x0000e006:    d035        5.      BEQ      0xe074 ; am_hal_gpio_pinconfig + 264
        0x0000e008:    f8dfc1b8    ....    LDR      r12,[pc,#440] ; [0xe1c4] = 0x10c98
        0x0000e00c:    f81c6004    ...`    LDRB     r6,[r12,r4]
        0x0000e010:    f04f0c01    O...    MOV      r12,#1
        0x0000e014:    fa0cfc03    ....    LSL      r12,r12,r3
        0x0000e018:    ea160c0c    ....    ANDS     r12,r6,r12
        0x0000e01c:    bf18        ..      IT       NE
        0x0000e01e:    f04f0c02    O...    MOVNE    r12,#2
        0x0000e022:    ea4c0000    L...    ORR      r0,r12,r0
        0x0000e026:    f8dfc1a0    ....    LDR      r12,[pc,#416] ; [0xe1c8] = 0x10cfc
        0x0000e02a:    f81cc004    ....    LDRB     r12,[r12,r4]
        0x0000e02e:    459c        .E      CMP      r12,r3
        0x0000e030:    d132        2.      BNE      0xe098 ; am_hal_gpio_pinconfig + 300
        0x0000e032:    f3c14302    ...C    UBFX     r3,r1,#16,#3
        0x0000e036:    2b06        .+      CMP      r3,#6
        0x0000e038:    bf82        ..      ITTT     HI
        0x0000e03a:    4864        dH      LDRHI    r0,[pc,#400] ; [0xe1cc] = 0x8000103
        0x0000e03c:    b00b        ..      ADDHI    sp,sp,#0x2c
        0x0000e03e:    e8bd8ff0    ....    POPHI    {r4-r11,pc}
        0x0000e042:    f3c14cc1    ...L    UBFX     r12,r1,#19,#2
        0x0000e046:    ea4c1603    L...    ORR      r6,r12,r3,LSL #4
        0x0000e04a:    f8dfc184    ....    LDR      r12,[pc,#388] ; [0xe1d0] = 0x10d2e
        0x0000e04e:    2300        .#      MOVS     r3,#0
        0x0000e050:    eb0c0c84    ....    ADD      r12,r12,r4,LSL #2
        0x0000e054:    f81c7003    ...p    LDRB     r7,[r12,r3]
        0x0000e058:    42b7        .B      CMP      r7,r6
        0x0000e05a:    d00f        ..      BEQ      0xe07c ; am_hal_gpio_pinconfig + 272
        0x0000e05c:    1c5b        [.      ADDS     r3,r3,#1
        0x0000e05e:    2b04        .+      CMP      r3,#4
        0x0000e060:    d3f8        ..      BCC      0xe054 ; am_hal_gpio_pinconfig + 232
        0x0000e062:    e00d        ..      B        0xe080 ; am_hal_gpio_pinconfig + 276
        0x0000e064:    f817c004    ....    LDRB     r12,[r7,r4]
        0x0000e068:    f01c0f04    ....    TST      r12,#4
        0x0000e06c:    bf18        ..      IT       NE
        0x0000e06e:    f0400080    @...    ORRNE    r0,r0,#0x80
        0x0000e072:    d1c9        ..      BNE      0xe008 ; am_hal_gpio_pinconfig + 156
        0x0000e074:    b00b        ..      ADD      sp,sp,#0x2c
        0x0000e076:    4857        WH      LDR      r0,[pc,#348] ; [0xe1d4] = 0x8000102
        0x0000e078:    e8bd8ff0    ....    POP      {r4-r11,pc}
        0x0000e07c:    2b04        .+      CMP      r3,#4
        0x0000e07e:    d303        ..      BCC      0xe088 ; am_hal_gpio_pinconfig + 284
        0x0000e080:    b00b        ..      ADD      sp,sp,#0x2c
        0x0000e082:    4855        UH      LDR      r0,[pc,#340] ; [0xe1d8] = 0x8000104
        0x0000e084:    e8bd8ff0    ....    POP      {r4-r11,pc}
        0x0000e088:    005b        [.      LSLS     r3,r3,#1
        0x0000e08a:    f3c15c40    ..@\    UBFX     r12,r1,#21,#1
        0x0000e08e:    ea430ccc    C...    ORR      r12,r3,r12,LSL #3
        0x0000e092:    ea4c0302    L...    ORR      r3,r12,r2
        0x0000e096:    e022        ".      B        0xe0de ; am_hal_gpio_pinconfig + 370
        0x0000e098:    f3c13300    ...3    UBFX     r3,r1,#12,#1
        0x0000e09c:    f3c12c81    ...,    UBFX     r12,r1,#10,#2
        0x0000e0a0:    ea400043    @.C.    ORR      r0,r0,r3,LSL #1
        0x0000e0a4:    ea4f064c    O.L.    LSL      r6,r12,#1
        0x0000e0a8:    f3c13340    ..@3    UBFX     r3,r1,#13,#1
        0x0000e0ac:    ea4603c3    F...    ORR      r3,r6,r3,LSL #3
        0x0000e0b0:    f3c13641    ..A6    UBFX     r6,r1,#13,#2
        0x0000e0b4:    ea430356    C.V.    ORR      r3,r3,r6,LSR #1
        0x0000e0b8:    f1bc0f01    ....    CMP      r12,#1
        0x0000e0bc:    d005        ..      BEQ      0xe0ca ; am_hal_gpio_pinconfig + 350
        0x0000e0be:    f8dfc11c    ....    LDR      r12,[pc,#284] ; [0xe1dc] = 0x10c94
        0x0000e0c2:    f8dcc000    ....    LDR      r12,[r12,#0]
        0x0000e0c6:    4561        aE      CMP      r1,r12
        0x0000e0c8:    d100        ..      BNE      0xe0cc ; am_hal_gpio_pinconfig + 352
        0x0000e0ca:    2501        .%      MOVS     r5,#1
        0x0000e0cc:    f4114fc0    ...O    TST      r1,#0x6000
        0x0000e0d0:    d105        ..      BNE      0xe0de ; am_hal_gpio_pinconfig + 370
        0x0000e0d2:    f0230301    #...    BIC      r3,r3,#1
        0x0000e0d6:    f3c13cc0    ...<    UBFX     r12,r1,#15,#1
        0x0000e0da:    ea4c0303    L...    ORR      r3,r12,r3
        0x0000e0de:    f3c12101    ...!    UBFX     r1,r1,#8,#2
        0x0000e0e2:    b179        y.      CBZ      r1,0xe104 ; am_hal_gpio_pinconfig + 408
        0x0000e0e4:    2901        .)      CMP      r1,#1
        0x0000e0e6:    bf08        ..      IT       EQ
        0x0000e0e8:    f0400004    @...    ORREQ    r0,r0,#4
        0x0000e0ec:    d00a        ..      BEQ      0xe104 ; am_hal_gpio_pinconfig + 408
        0x0000e0ee:    2902        .)      CMP      r1,#2
        0x0000e0f0:    bf08        ..      IT       EQ
        0x0000e0f2:    f0420201    B...    ORREQ    r2,r2,#1
        0x0000e0f6:    d005        ..      BEQ      0xe104 ; am_hal_gpio_pinconfig + 408
        0x0000e0f8:    2903        .)      CMP      r1,#3
        0x0000e0fa:    bf04        ..      ITT      EQ
        0x0000e0fc:    f0400004    @...    ORREQ    r0,r0,#4
        0x0000e100:    f0420201    B...    ORREQ    r2,r2,#1
        0x0000e104:    f06f0103    o...    MVN      r1,#3
        0x0000e108:    f8dfc0d4    ....    LDR      r12,[pc,#212] ; [0xe1e0] = 0x40010040
        0x0000e10c:    ea010154    ..T.    AND      r1,r1,r4,LSR #1
        0x0000e110:    eb01090c    ....    ADD      r9,r1,r12
        0x0000e114:    f0240103    $...    BIC      r1,r4,#3
        0x0000e118:    f8dfc0c8    ....    LDR      r12,[pc,#200] ; [0xe1e4] = 0x400100e0
        0x0000e11c:    f1014880    ...H    ADD      r8,r1,#0x40000000
        0x0000e120:    eb01070c    ....    ADD      r7,r1,r12
        0x0000e124:    0761        a.      LSLS     r1,r4,#29
        0x0000e126:    ea4f6cd1    O..l    LSR      r12,r1,#27
        0x0000e12a:    07a1        ..      LSLS     r1,r4,#30
        0x0000e12c:    0ec9        ..      LSRS     r1,r1,#27
        0x0000e12e:    260f        .&      MOVS     r6,#0xf
        0x0000e130:    fa06f60c    ....    LSL      r6,r6,r12
        0x0000e134:    ea6f0a06    o...    MVN      r10,r6
        0x0000e138:    26ff        .&      MOVS     r6,#0xff
        0x0000e13a:    408e        .@      LSLS     r6,r6,r1
        0x0000e13c:    4088        .@      LSLS     r0,r0,r1
        0x0000e13e:    9000        ..      STR      r0,[sp,#0]
        0x0000e140:    fa02f001    ....    LSL      r0,r2,r1
        0x0000e144:    f5083880    ...8    ADD      r8,r8,#0x10000
        0x0000e148:    43f6        .C      MVNS     r6,r6
        0x0000e14a:    fa03fb0c    ....    LSL      r11,r3,r12
        0x0000e14e:    9002        ..      STR      r0,[sp,#8]
        0x0000e150:    f7fef87a    ..z.    BL       am_hal_interrupt_master_disable ; 0xc248
        0x0000e154:    9003        ..      STR      r0,[sp,#0xc]
        0x0000e156:    b165        e.      CBZ      r5,0xe172 ; am_hal_gpio_pinconfig + 518
        0x0000e158:    f004011f    ....    AND      r1,r4,#0x1f
        0x0000e15c:    2001        .       MOVS     r0,#1
        0x0000e15e:    4088        .@      LSLS     r0,r0,r1
        0x0000e160:    2104        .!      MOVS     r1,#4
        0x0000e162:    ea0101d4    ....    AND      r1,r1,r4,LSR #3
        0x0000e166:    f1014180    ...A    ADD      r1,r1,#0x40000000
        0x0000e16a:    f5013180    ...1    ADD      r1,r1,#0x10000
        0x0000e16e:    f8c100b4    ....    STR      r0,[r1,#0xb4]
        0x0000e172:    481d        .H      LDR      r0,[pc,#116] ; [0xe1e8] = 0x40010000
        0x0000e174:    2173        s!      MOVS     r1,#0x73
        0x0000e176:    6601        .f      STR      r1,[r0,#0x60]
        0x0000e178:    f8d81000    ....    LDR      r1,[r8,#0]
        0x0000e17c:    ea010206    ....    AND      r2,r1,r6
        0x0000e180:    9900        ..      LDR      r1,[sp,#0]
        0x0000e182:    4311        .C      ORRS     r1,r1,r2
        0x0000e184:    f8c81000    ....    STR      r1,[r8,#0]
        0x0000e188:    f8d91000    ....    LDR      r1,[r9,#0]
        0x0000e18c:    ea01010a    ....    AND      r1,r1,r10
        0x0000e190:    ea41010b    A...    ORR      r1,r1,r11
        0x0000e194:    f8c91000    ....    STR      r1,[r9,#0]
        0x0000e198:    6839        9h      LDR      r1,[r7,#0]
        0x0000e19a:    ea010206    ....    AND      r2,r1,r6
        0x0000e19e:    9902        ..      LDR      r1,[sp,#8]
        0x0000e1a0:    4311        .C      ORRS     r1,r1,r2
        0x0000e1a2:    6039        9`      STR      r1,[r7,#0]
        0x0000e1a4:    2100        .!      MOVS     r1,#0
        0x0000e1a6:    6601        .f      STR      r1,[r0,#0x60]
        0x0000e1a8:    9803        ..      LDR      r0,[sp,#0xc]
        0x0000e1aa:    f7fef851    ..Q.    BL       am_hal_interrupt_master_set ; 0xc250
        0x0000e1ae:    b00b        ..      ADD      sp,sp,#0x2c
        0x0000e1b0:    2000        .       MOVS     r0,#0
        0x0000e1b2:    e8bd8ff0    ....    POP      {r4-r11,pc}
    $d
        0x0000e1b6:    0000        ..      DCW    0
        0x0000e1b8:    00010cca    ....    DCD    68810
        0x0000e1bc:    08000100    ....    DCD    134217984
        0x0000e1c0:    08000101    ....    DCD    134217985
        0x0000e1c4:    00010c98    ....    DCD    68760
        0x0000e1c8:    00010cfc    ....    DCD    68860
        0x0000e1cc:    08000103    ....    DCD    134217987
        0x0000e1d0:    00010d2e    ....    DCD    68910
        0x0000e1d4:    08000102    ....    DCD    134217986
        0x0000e1d8:    08000104    ....    DCD    134217988
        0x0000e1dc:    00010c94    ....    DCD    68756
        0x0000e1e0:    40010040    @..@    DCD    1073807424
        0x0000e1e4:    400100e0    ...@    DCD    1073807584
        0x0000e1e8:    40010000    ...@    DCD    1073807360
    $t
    i.am_hal_gpio_state_write
    am_hal_gpio_state_write
        0x0000e1ec:    b5f8        ..      PUSH     {r3-r7,lr}
        0x0000e1ee:    2700        .'      MOVS     r7,#0
        0x0000e1f0:    460d        .F      MOV      r5,r1
        0x0000e1f2:    4606        .F      MOV      r6,r0
        0x0000e1f4:    2832        2(      CMP      r0,#0x32
        0x0000e1f6:    bf24        $.      ITT      CS
        0x0000e1f8:    2005        .       MOVCS    r0,#5
        0x0000e1fa:    bdf8        ..      POPCS    {r3-r7,pc}
        0x0000e1fc:    2d05        .-      CMP      r5,#5
        0x0000e1fe:    bf84        ..      ITT      HI
        0x0000e200:    2006        .       MOVHI    r0,#6
        0x0000e202:    bdf8        ..      POPHI    {r3-r7,pc}
        0x0000e204:    f006001f    ....    AND      r0,r6,#0x1f
        0x0000e208:    2101        .!      MOVS     r1,#1
        0x0000e20a:    fa01f400    ....    LSL      r4,r1,r0
        0x0000e20e:    f7fef81b    ....    BL       am_hal_interrupt_master_disable ; 0xc248
        0x0000e212:    9000        ..      STR      r0,[sp,#0]
        0x0000e214:    2004        .       MOVS     r0,#4
        0x0000e216:    ea0000d6    ....    AND      r0,r0,r6,LSR #3
        0x0000e21a:    f1004080    ...@    ADD      r0,r0,#0x40000000
        0x0000e21e:    f5003080    ...0    ADD      r0,r0,#0x10000
        0x0000e222:    2d06        .-      CMP      r5,#6
        0x0000e224:    d21c        ..      BCS      0xe260 ; am_hal_gpio_state_write + 116
        0x0000e226:    e8dff005    ....    TBB      [pc,r5]
    $d
        0x0000e22a:    0306        ..      DCW    774
        0x0000e22c:    150f1209    ....    DCD    353309193
    $t
        0x0000e230:    f8c04090    ...@    STR      r4,[r0,#0x90]
        0x0000e234:    e015        ..      B        0xe262 ; am_hal_gpio_state_write + 118
        0x0000e236:    f8c04098    ...@    STR      r4,[r0,#0x98]
        0x0000e23a:    e012        ..      B        0xe262 ; am_hal_gpio_state_write + 118
        0x0000e23c:    f8d01088    ....    LDR      r1,[r0,#0x88]
        0x0000e240:    4061        a@      EORS     r1,r1,r4
        0x0000e242:    f8c01088    ....    STR      r1,[r0,#0x88]
        0x0000e246:    e00c        ..      B        0xe262 ; am_hal_gpio_state_write + 118
        0x0000e248:    f8c040a8    ...@    STR      r4,[r0,#0xa8]
        0x0000e24c:    e009        ..      B        0xe262 ; am_hal_gpio_state_write + 118
        0x0000e24e:    f8c040b4    ...@    STR      r4,[r0,#0xb4]
        0x0000e252:    e006        ..      B        0xe262 ; am_hal_gpio_state_write + 118
        0x0000e254:    f8d010b4    ....    LDR      r1,[r0,#0xb4]
        0x0000e258:    4061        a@      EORS     r1,r1,r4
        0x0000e25a:    f8c010b4    ....    STR      r1,[r0,#0xb4]
        0x0000e25e:    e000        ..      B        0xe262 ; am_hal_gpio_state_write + 118
        0x0000e260:    2706        .'      MOVS     r7,#6
        0x0000e262:    9800        ..      LDR      r0,[sp,#0]
        0x0000e264:    f7fdfff4    ....    BL       am_hal_interrupt_master_set ; 0xc250
        0x0000e268:    4638        8F      MOV      r0,r7
        0x0000e26a:    bdf8        ..      POP      {r3-r7,pc}
    i.am_hal_itm_enable
    am_hal_itm_enable
        0x0000e26c:    480a        .H      LDR      r0,[pc,#40] ; [0xe298] = 0xe000edfc
        0x0000e26e:    6801        .h      LDR      r1,[r0,#0]
        0x0000e270:    f0417180    A..q    ORR      r1,r1,#0x1000000
        0x0000e274:    6001        .`      STR      r1,[r0,#0]
        0x0000e276:    6801        .h      LDR      r1,[r0,#0]
        0x0000e278:    f0117f80    ....    TST      r1,#0x1000000
        0x0000e27c:    d0fb        ..      BEQ      0xe276 ; am_hal_itm_enable + 10
        0x0000e27e:    4908        .I      LDR      r1,[pc,#32] ; [0xe2a0] = 0xe0000fb0
        0x0000e280:    4806        .H      LDR      r0,[pc,#24] ; [0xe29c] = 0xc5acce55
        0x0000e282:    6008        .`      STR      r0,[r1,#0]
        0x0000e284:    4907        .I      LDR      r1,[pc,#28] ; [0xe2a4] = 0xe0000e40
        0x0000e286:    200f        .       MOVS     r0,#0xf
        0x0000e288:    6008        .`      STR      r0,[r1,#0]
        0x0000e28a:    1748        H.      ASRS     r0,r1,#29
        0x0000e28c:    4906        .I      LDR      r1,[pc,#24] ; [0xe2a8] = 0xe0000e00
        0x0000e28e:    6008        .`      STR      r0,[r1,#0]
        0x0000e290:    4907        .I      LDR      r1,[pc,#28] ; [0xe2b0] = 0xe0000e80
        0x0000e292:    4806        .H      LDR      r0,[pc,#24] ; [0xe2ac] = 0x150511
        0x0000e294:    6008        .`      STR      r0,[r1,#0]
        0x0000e296:    4770        pG      BX       lr
    $d
        0x0000e298:    e000edfc    ....    DCD    3758157308
        0x0000e29c:    c5acce55    U...    DCD    3316436565
        0x0000e2a0:    e0000fb0    ....    DCD    3758100400
        0x0000e2a4:    e0000e40    @...    DCD    3758100032
        0x0000e2a8:    e0000e00    ....    DCD    3758099968
        0x0000e2ac:    00150511    ....    DCD    1377553
        0x0000e2b0:    e0000e80    ....    DCD    3758100096
    $t
    i.am_hal_itm_print
    am_hal_itm_print
        0x0000e2b4:    7802        .x      LDRB     r2,[r0,#0]
        0x0000e2b6:    2100        .!      MOVS     r1,#0
        0x0000e2b8:    2a00        .*      CMP      r2,#0
        0x0000e2ba:    bf08        ..      IT       EQ
        0x0000e2bc:    4770        pG      BXEQ     lr
        0x0000e2be:    1c49        I.      ADDS     r1,r1,#1
        0x0000e2c0:    5c42        B\      LDRB     r2,[r0,r1]
        0x0000e2c2:    2a00        .*      CMP      r2,#0
        0x0000e2c4:    d1fb        ..      BNE      0xe2be ; am_hal_itm_print + 10
        0x0000e2c6:    2900        .)      CMP      r1,#0
        0x0000e2c8:    bf08        ..      IT       EQ
        0x0000e2ca:    4770        pG      BXEQ     lr
        0x0000e2cc:    f810cb01    ....    LDRB     r12,[r0],#1
        0x0000e2d0:    f04f4260    O.`B    MOV      r2,#0xe0000000
        0x0000e2d4:    6813        .h      LDR      r3,[r2,#0]
        0x0000e2d6:    2b00        .+      CMP      r3,#0
        0x0000e2d8:    d0fc        ..      BEQ      0xe2d4 ; am_hal_itm_print + 32
        0x0000e2da:    f882c000    ....    STRB     r12,[r2,#0]
        0x0000e2de:    1e49        I.      SUBS     r1,r1,#1
        0x0000e2e0:    d1f4        ..      BNE      0xe2cc ; am_hal_itm_print + 24
        0x0000e2e2:    4770        pG      BX       lr
    i.am_hal_mcuctrl_info_get
    am_hal_mcuctrl_info_get
        0x0000e2e4:    b129        ).      CBZ      r1,0xe2f2 ; am_hal_mcuctrl_info_get + 14
        0x0000e2e6:    4a45        EJ      LDR      r2,[pc,#276] ; [0xe3fc] = 0x40020000
        0x0000e2e8:    b128        (.      CBZ      r0,0xe2f6 ; am_hal_mcuctrl_info_get + 18
        0x0000e2ea:    2801        .(      CMP      r0,#1
        0x0000e2ec:    d017        ..      BEQ      0xe31e ; am_hal_mcuctrl_info_get + 58
        0x0000e2ee:    2802        .(      CMP      r0,#2
        0x0000e2f0:    d069        i.      BEQ      0xe3c6 ; am_hal_mcuctrl_info_get + 226
        0x0000e2f2:    2006        .       MOVS     r0,#6
        0x0000e2f4:    4770        pG      BX       lr
        0x0000e2f6:    6990        .i      LDR      r0,[r2,#0x18]
        0x0000e2f8:    f3c01380    ....    UBFX     r3,r0,#6,#1
        0x0000e2fc:    700b        .p      STRB     r3,[r1,#0]
        0x0000e2fe:    f3c00080    ....    UBFX     r0,r0,#2,#1
        0x0000e302:    7048        Hp      STRB     r0,[r1,#1]
        0x0000e304:    f8d201a0    ....    LDR      r0,[r2,#0x1a0]
        0x0000e308:    f3c06081    ...`    UBFX     r0,r0,#26,#2
        0x0000e30c:    7108        .q      STRB     r0,[r1,#4]
        0x0000e30e:    6950        Pi      LDR      r0,[r2,#0x14]
        0x0000e310:    f3c00240    ..@.    UBFX     r2,r0,#1,#1
        0x0000e314:    708a        .p      STRB     r2,[r1,#2]
        0x0000e316:    f0000001    ....    AND      r0,r0,#1
        0x0000e31a:    70c8        .p      STRB     r0,[r1,#3]
        0x0000e31c:    e06b        k.      B        0xe3f6 ; am_hal_mcuctrl_info_get + 274
        0x0000e31e:    6810        .h      LDR      r0,[r2,#0]
        0x0000e320:    6008        .`      STR      r0,[r1,#0]
        0x0000e322:    6853        Sh      LDR      r3,[r2,#4]
        0x0000e324:    604b        K`      STR      r3,[r1,#4]
        0x0000e326:    6893        .h      LDR      r3,[r2,#8]
        0x0000e328:    608b        .`      STR      r3,[r1,#8]
        0x0000e32a:    68d3        .h      LDR      r3,[r2,#0xc]
        0x0000e32c:    60cb        .`      STR      r3,[r1,#0xc]
        0x0000e32e:    6913        .i      LDR      r3,[r2,#0x10]
        0x0000e330:    610b        .a      STR      r3,[r1,#0x10]
        0x0000e332:    6952        Ri      LDR      r2,[r2,#0x14]
        0x0000e334:    614a        Ja      STR      r2,[r1,#0x14]
        0x0000e336:    f0000201    ....    AND      r2,r0,#1
        0x0000e33a:    618a        .a      STR      r2,[r1,#0x18]
        0x0000e33c:    223c        <"      MOVS     r2,#0x3c
        0x0000e33e:    ea024390    ...C    AND      r3,r2,r0,LSR #18
        0x0000e342:    f8dfc0bc    ....    LDR      r12,[pc,#188] ; [0xe400] = 0x10dfc
        0x0000e346:    ea023090    ...0    AND      r0,r2,r0,LSR #14
        0x0000e34a:    f10c0240    ..@.    ADD      r2,r12,#0x40
        0x0000e34e:    f85c3003    \..0    LDR      r3,[r12,r3]
        0x0000e352:    61cb        .a      STR      r3,[r1,#0x1c]
        0x0000e354:    5810        .X      LDR      r0,[r2,r0]
        0x0000e356:    6208        .b      STR      r0,[r1,#0x20]
        0x0000e358:    482a        *H      LDR      r0,[pc,#168] ; [0xe404] = 0xf0000fe0
        0x0000e35a:    6800        .h      LDR      r0,[r0,#0]
        0x0000e35c:    4a2a        *J      LDR      r2,[pc,#168] ; [0xe408] = 0xf0000fe4
        0x0000e35e:    b2c0        ..      UXTB     r0,r0
        0x0000e360:    6248        Hb      STR      r0,[r1,#0x24]
        0x0000e362:    6813        .h      LDR      r3,[r2,#0]
        0x0000e364:    f003030f    ....    AND      r3,r3,#0xf
        0x0000e368:    ea402003    @..     ORR      r0,r0,r3,LSL #8
        0x0000e36c:    6248        Hb      STR      r0,[r1,#0x24]
        0x0000e36e:    6810        .h      LDR      r0,[r2,#0]
        0x0000e370:    1d12        ..      ADDS     r2,r2,#4
        0x0000e372:    f3c01003    ....    UBFX     r0,r0,#4,#4
        0x0000e376:    6288        .b      STR      r0,[r1,#0x28]
        0x0000e378:    6813        .h      LDR      r3,[r2,#0]
        0x0000e37a:    f003030f    ....    AND      r3,r3,#0xf
        0x0000e37e:    ea401003    @...    ORR      r0,r0,r3,LSL #4
        0x0000e382:    6288        .b      STR      r0,[r1,#0x28]
        0x0000e384:    6810        .h      LDR      r0,[r2,#0]
        0x0000e386:    f3c01003    ....    UBFX     r0,r0,#4,#4
        0x0000e38a:    0100        ..      LSLS     r0,r0,#4
        0x0000e38c:    1d12        ..      ADDS     r2,r2,#4
        0x0000e38e:    62c8        .b      STR      r0,[r1,#0x2c]
        0x0000e390:    6812        .h      LDR      r2,[r2,#0]
        0x0000e392:    f3c21203    ....    UBFX     r2,r2,#4,#4
        0x0000e396:    4310        .C      ORRS     r0,r0,r2
        0x0000e398:    62c8        .b      STR      r0,[r1,#0x2c]
        0x0000e39a:    481c        .H      LDR      r0,[pc,#112] ; [0xe40c] = 0xf0000ffc
        0x0000e39c:    6800        .h      LDR      r0,[r0,#0]
        0x0000e39e:    4a1c        .J      LDR      r2,[pc,#112] ; [0xe410] = 0xf0000ff8
        0x0000e3a0:    0600        ..      LSLS     r0,r0,#24
        0x0000e3a2:    6308        .c      STR      r0,[r1,#0x30]
        0x0000e3a4:    6812        .h      LDR      r2,[r2,#0]
        0x0000e3a6:    b2d2        ..      UXTB     r2,r2
        0x0000e3a8:    ea404002    @..@    ORR      r0,r0,r2,LSL #16
        0x0000e3ac:    4a19        .J      LDR      r2,[pc,#100] ; [0xe414] = 0xf0000ff4
        0x0000e3ae:    6308        .c      STR      r0,[r1,#0x30]
        0x0000e3b0:    6812        .h      LDR      r2,[r2,#0]
        0x0000e3b2:    b2d2        ..      UXTB     r2,r2
        0x0000e3b4:    ea402002    @..     ORR      r0,r0,r2,LSL #8
        0x0000e3b8:    4a17        .J      LDR      r2,[pc,#92] ; [0xe418] = 0xf0000ff0
        0x0000e3ba:    6308        .c      STR      r0,[r1,#0x30]
        0x0000e3bc:    6812        .h      LDR      r2,[r2,#0]
        0x0000e3be:    b2d2        ..      UXTB     r2,r2
        0x0000e3c0:    4310        .C      ORRS     r0,r0,r2
        0x0000e3c2:    6308        .c      STR      r0,[r1,#0x30]
        0x0000e3c4:    e017        ..      B        0xe3f6 ; am_hal_mcuctrl_info_get + 274
        0x0000e3c6:    f8d201cc    ....    LDR      r0,[r2,#0x1cc]
        0x0000e3ca:    f0000301    ....    AND      r3,r0,#1
        0x0000e3ce:    700b        .p      STRB     r3,[r1,#0]
        0x0000e3d0:    f3c00340    ..@.    UBFX     r3,r0,#1,#1
        0x0000e3d4:    720b        .r      STRB     r3,[r1,#8]
        0x0000e3d6:    f3c00080    ....    UBFX     r0,r0,#2,#1
        0x0000e3da:    7408        .t      STRB     r0,[r1,#0x10]
        0x0000e3dc:    f8d201c4    ....    LDR      r0,[r2,#0x1c4]
        0x0000e3e0:    60c8        .`      STR      r0,[r1,#0xc]
        0x0000e3e2:    6848        Hh      LDR      r0,[r1,#4]
        0x0000e3e4:    f8d231c0    ...1    LDR      r3,[r2,#0x1c0]
        0x0000e3e8:    4318        .C      ORRS     r0,r0,r3
        0x0000e3ea:    6048        H`      STR      r0,[r1,#4]
        0x0000e3ec:    6948        Hi      LDR      r0,[r1,#0x14]
        0x0000e3ee:    f8d221c8    ...!    LDR      r2,[r2,#0x1c8]
        0x0000e3f2:    4310        .C      ORRS     r0,r0,r2
        0x0000e3f4:    6148        Ha      STR      r0,[r1,#0x14]
        0x0000e3f6:    2000        .       MOVS     r0,#0
        0x0000e3f8:    4770        pG      BX       lr
    $d
        0x0000e3fa:    0000        ..      DCW    0
        0x0000e3fc:    40020000    ...@    DCD    1073872896
        0x0000e400:    00010dfc    ....    DCD    69116
        0x0000e404:    f0000fe0    ....    DCD    4026535904
        0x0000e408:    f0000fe4    ....    DCD    4026535908
        0x0000e40c:    f0000ffc    ....    DCD    4026535932
        0x0000e410:    f0000ff8    ....    DCD    4026535928
        0x0000e414:    f0000ff4    ....    DCD    4026535924
        0x0000e418:    f0000ff0    ....    DCD    4026535920
    $t
    i.am_hal_pwrctrl_low_power_init
    am_hal_pwrctrl_low_power_init
        0x0000e41c:    e92d4ff8    -..O    PUSH     {r3-r11,lr}
        0x0000e420:    4873        sH      LDR      r0,[pc,#460] ; [0xe5f0] = 0x10000084
        0x0000e422:    6801        .h      LDR      r1,[r0,#0]
        0x0000e424:    b911        ..      CBNZ     r1,0xe42c ; am_hal_pwrctrl_low_power_init + 16
        0x0000e426:    4973        sI      LDR      r1,[pc,#460] ; [0xe5f4] = 0x4ffff000
        0x0000e428:    6809        .h      LDR      r1,[r1,#0]
        0x0000e42a:    6001        .`      STR      r1,[r0,#0]
        0x0000e42c:    4c72        rL      LDR      r4,[pc,#456] ; [0xe5f8] = 0x40020000
        0x0000e42e:    68e0        .h      LDR      r0,[r4,#0xc]
        0x0000e430:    4d72        rM      LDR      r5,[pc,#456] ; [0xe5fc] = 0x40021000
        0x0000e432:    b2c0        ..      UXTB     r0,r0
        0x0000e434:    f04f0901    O...    MOV      r9,#1
        0x0000e438:    2812        .(      CMP      r0,#0x12
        0x0000e43a:    d131        1.      BNE      0xe4a0 ; am_hal_pwrctrl_low_power_init + 132
        0x0000e43c:    6868        hh      LDR      r0,[r5,#4]
        0x0000e43e:    f0100f01    ....    TST      r0,#1
        0x0000e442:    d02d        -.      BEQ      0xe4a0 ; am_hal_pwrctrl_low_power_init + 132
        0x0000e444:    270d        .'      MOVS     r7,#0xd
        0x0000e446:    f7fdfeff    ....    BL       am_hal_interrupt_master_disable ; 0xc248
        0x0000e44a:    9000        ..      STR      r0,[sp,#0]
        0x0000e44c:    68a8        .h      LDR      r0,[r5,#8]
        0x0000e44e:    f8df81b0    ....    LDR      r8,[pc,#432] ; [0xe600] = 0x12bf4
        0x0000e452:    f8d8109c    ....    LDR      r1,[r8,#0x9c]
        0x0000e456:    4308        .C      ORRS     r0,r0,r1
        0x0000e458:    60a8        .`      STR      r0,[r5,#8]
        0x0000e45a:    9800        ..      LDR      r0,[sp,#0]
        0x0000e45c:    f7fdfef8    ....    BL       am_hal_interrupt_master_set ; 0xc250
        0x0000e460:    eb070a47    ..G.    ADD      r10,r7,r7,LSL #1
        0x0000e464:    2600        .&      MOVS     r6,#0
        0x0000e466:    eb08078a    ....    ADD      r7,r8,r10,LSL #2
        0x0000e46a:    20a0        .       MOVS     r0,#0xa0
        0x0000e46c:    f7fffd26    ..&.    BL       am_hal_flash_delay ; 0xdebc
        0x0000e470:    69a8        .i      LDR      r0,[r5,#0x18]
        0x0000e472:    6879        yh      LDR      r1,[r7,#4]
        0x0000e474:    4208        .B      TST      r0,r1
        0x0000e476:    d102        ..      BNE      0xe47e ; am_hal_pwrctrl_low_power_init + 98
        0x0000e478:    360a        .6      ADDS     r6,r6,#0xa
        0x0000e47a:    2e14        ..      CMP      r6,#0x14
        0x0000e47c:    d3f5        ..      BCC      0xe46a ; am_hal_pwrctrl_low_power_init + 78
        0x0000e47e:    69a8        .i      LDR      r0,[r5,#0x18]
        0x0000e480:    4208        .B      TST      r0,r1
        0x0000e482:    d10d        ..      BNE      0xe4a0 ; am_hal_pwrctrl_low_power_init + 132
        0x0000e484:    f7fdfee0    ....    BL       am_hal_interrupt_master_disable ; 0xc248
        0x0000e488:    9000        ..      STR      r0,[sp,#0]
        0x0000e48a:    68a8        .h      LDR      r0,[r5,#8]
        0x0000e48c:    f858102a    X.*.    LDR      r1,[r8,r10,LSL #2]
        0x0000e490:    4388        .C      BICS     r0,r0,r1
        0x0000e492:    60a8        .`      STR      r0,[r5,#8]
        0x0000e494:    9800        ..      LDR      r0,[sp,#0]
        0x0000e496:    f7fdfedb    ....    BL       am_hal_interrupt_master_set ; 0xc250
        0x0000e49a:    4648        HF      MOV      r0,r9
        0x0000e49c:    e8bd8ff8    ....    POP      {r3-r11,pc}
        0x0000e4a0:    68e0        .h      LDR      r0,[r4,#0xc]
        0x0000e4a2:    b2c0        ..      UXTB     r0,r0
        0x0000e4a4:    2821        !(      CMP      r0,#0x21
        0x0000e4a6:    d33c        <.      BCC      0xe522 ; am_hal_pwrctrl_low_power_init + 262
        0x0000e4a8:    f8d40354    ..T.    LDR      r0,[r4,#0x354]
        0x0000e4ac:    f4202070     .p     BIC      r0,r0,#0xf0000
        0x0000e4b0:    f5003000    ...0    ADD      r0,r0,#0x20000
        0x0000e4b4:    f8c40354    ..T.    STR      r0,[r4,#0x354]
        0x0000e4b8:    f8d40354    ..T.    LDR      r0,[r4,#0x354]
        0x0000e4bc:    f4200070     .p.    BIC      r0,r0,#0xf00000
        0x0000e4c0:    f5001040    ..@.    ADD      r0,r0,#0x300000
        0x0000e4c4:    f8c40354    ..T.    STR      r0,[r4,#0x354]
        0x0000e4c8:    f8d40358    ..X.    LDR      r0,[r4,#0x358]
        0x0000e4cc:    f020000f     ...    BIC      r0,r0,#0xf
        0x0000e4d0:    1d40        @.      ADDS     r0,r0,#5
        0x0000e4d2:    f8c40358    ..X.    STR      r0,[r4,#0x358]
        0x0000e4d6:    f8d40358    ..X.    LDR      r0,[r4,#0x358]
        0x0000e4da:    f02000f0     ...    BIC      r0,r0,#0xf0
        0x0000e4de:    3020         0      ADDS     r0,r0,#0x20
        0x0000e4e0:    f8c40358    ..X.    STR      r0,[r4,#0x358]
        0x0000e4e4:    f8d40358    ..X.    LDR      r0,[r4,#0x358]
        0x0000e4e8:    f4206070     .p`    BIC      r0,r0,#0xf00
        0x0000e4ec:    f50060c0    ...`    ADD      r0,r0,#0x600
        0x0000e4f0:    f8c40358    ..X.    STR      r0,[r4,#0x358]
        0x0000e4f4:    f8d40358    ..X.    LDR      r0,[r4,#0x358]
        0x0000e4f8:    f4204070     .p@    BIC      r0,r0,#0xf000
        0x0000e4fc:    f5005080    ...P    ADD      r0,r0,#0x1000
        0x0000e500:    f8c40358    ..X.    STR      r0,[r4,#0x358]
        0x0000e504:    f8d40358    ..X.    LDR      r0,[r4,#0x358]
        0x0000e508:    f02040f0     ..@    BIC      r0,r0,#0x78000000
        0x0000e50c:    f10050c0    ...P    ADD      r0,r0,#0x18000000
        0x0000e510:    f8c40358    ..X.    STR      r0,[r4,#0x358]
        0x0000e514:    f8d4035c    ..\.    LDR      r0,[r4,#0x35c]
        0x0000e518:    f020000f     ...    BIC      r0,r0,#0xf
        0x0000e51c:    1cc0        ..      ADDS     r0,r0,#3
        0x0000e51e:    f8c4035c    ..\.    STR      r0,[r4,#0x35c]
        0x0000e522:    68e0        .h      LDR      r0,[r4,#0xc]
        0x0000e524:    b2c0        ..      UXTB     r0,r0
        0x0000e526:    2812        .(      CMP      r0,#0x12
        0x0000e528:    d305        ..      BCC      0xe536 ; am_hal_pwrctrl_low_power_init + 282
        0x0000e52a:    f8d4035c    ..\.    LDR      r0,[r4,#0x35c]
        0x0000e52e:    f0207080     ..p    BIC      r0,r0,#0x1000000
        0x0000e532:    f8c4035c    ..\.    STR      r0,[r4,#0x35c]
        0x0000e536:    2100        .!      MOVS     r1,#0
        0x0000e538:    200c        .       MOVS     r0,#0xc
        0x0000e53a:    f7fffabf    ....    BL       am_hal_cachectrl_control ; 0xdabc
        0x0000e53e:    69a8        .i      LDR      r0,[r5,#0x18]
        0x0000e540:    f4107f80    ....    TST      r0,#0x100
        0x0000e544:    d151        Q.      BNE      0xe5ea ; am_hal_pwrctrl_low_power_init + 462
        0x0000e546:    68e0        .h      LDR      r0,[r4,#0xc]
        0x0000e548:    b2c0        ..      UXTB     r0,r0
        0x0000e54a:    2812        .(      CMP      r0,#0x12
        0x0000e54c:    d31a        ..      BCC      0xe584 ; am_hal_pwrctrl_low_power_init + 360
        0x0000e54e:    f7fdfe7b    ..{.    BL       am_hal_interrupt_master_disable ; 0xc248
        0x0000e552:    9000        ..      STR      r0,[sp,#0]
        0x0000e554:    f8d40368    ..h.    LDR      r0,[r4,#0x368]
        0x0000e558:    f420607c     .|`    BIC      r0,r0,#0xfc0
        0x0000e55c:    f50060c8    ...`    ADD      r0,r0,#0x640
        0x0000e560:    f8c40368    ..h.    STR      r0,[r4,#0x368]
        0x0000e564:    f8d40368    ..h.    LDR      r0,[r4,#0x368]
        0x0000e568:    f020003f     .?.    BIC      r0,r0,#0x3f
        0x0000e56c:    300c        .0      ADDS     r0,r0,#0xc
        0x0000e56e:    f8c40368    ..h.    STR      r0,[r4,#0x368]
        0x0000e572:    f04f2040    O.@     MOV      r0,#0x40004000
        0x0000e576:    6bc1        .k      LDR      r1,[r0,#0x3c]
        0x0000e578:    f4210180    !...    BIC      r1,r1,#0x400000
        0x0000e57c:    63c1        .c      STR      r1,[r0,#0x3c]
        0x0000e57e:    9800        ..      LDR      r0,[sp,#0]
        0x0000e580:    f7fdfe66    ..f.    BL       am_hal_interrupt_master_set ; 0xc250
        0x0000e584:    69a0        .i      LDR      r0,[r4,#0x18]
        0x0000e586:    f0400001    @...    ORR      r0,r0,#1
        0x0000e58a:    61a0        .a      STR      r0,[r4,#0x18]
        0x0000e58c:    2307        .#      MOVS     r3,#7
        0x0000e58e:    461a        .F      MOV      r2,r3
        0x0000e590:    491c        .I      LDR      r1,[pc,#112] ; [0xe604] = 0x40020018
        0x0000e592:    f2427010    B..p    MOV      r0,#0x2710
        0x0000e596:    f8cd9000    ....    STR      r9,[sp,#0]
        0x0000e59a:    f7fffca1    ....    BL       am_hal_flash_delay_status_check ; 0xdee0
        0x0000e59e:    2800        .(      CMP      r0,#0
        0x0000e5a0:    bf1c        ..      ITT      NE
        0x0000e5a2:    2004        .       MOVNE    r0,#4
        0x0000e5a4:    e8bd8ff8    ....    POPNE    {r3-r11,pc}
        0x0000e5a8:    6828        (h      LDR      r0,[r5,#0]
        0x0000e5aa:    f0400001    @...    ORR      r0,r0,#1
        0x0000e5ae:    6028        (`      STR      r0,[r5,#0]
        0x0000e5b0:    6a68        hj      LDR      r0,[r5,#0x24]
        0x0000e5b2:    f0400040    @.@.    ORR      r0,r0,#0x40
        0x0000e5b6:    6268        hb      STR      r0,[r5,#0x24]
        0x0000e5b8:    68e0        .h      LDR      r0,[r4,#0xc]
        0x0000e5ba:    b2c0        ..      UXTB     r0,r0
        0x0000e5bc:    2811        .(      CMP      r0,#0x11
        0x0000e5be:    d114        ..      BNE      0xe5ea ; am_hal_pwrctrl_low_power_init + 462
        0x0000e5c0:    f8d4035c    ..\.    LDR      r0,[r4,#0x35c]
        0x0000e5c4:    f42000c0     ...    BIC      r0,r0,#0x600000
        0x0000e5c8:    f8c4035c    ..\.    STR      r0,[r4,#0x35c]
        0x0000e5cc:    f8d40368    ..h.    LDR      r0,[r4,#0x368]
        0x0000e5d0:    f420607c     .|`    BIC      r0,r0,#0xfc0
        0x0000e5d4:    f5007070    ..pp    ADD      r0,r0,#0x3c0
        0x0000e5d8:    f8c40368    ..h.    STR      r0,[r4,#0x368]
        0x0000e5dc:    f8d40368    ..h.    LDR      r0,[r4,#0x368]
        0x0000e5e0:    f020003f     .?.    BIC      r0,r0,#0x3f
        0x0000e5e4:    300f        .0      ADDS     r0,r0,#0xf
        0x0000e5e6:    f8c40368    ..h.    STR      r0,[r4,#0x368]
        0x0000e5ea:    2000        .       MOVS     r0,#0
        0x0000e5ec:    e8bd8ff8    ....    POP      {r3-r11,pc}
    $d
        0x0000e5f0:    10000084    ....    DCD    268435588
        0x0000e5f4:    4ffff000    ...O    DCD    1342173184
        0x0000e5f8:    40020000    ...@    DCD    1073872896
        0x0000e5fc:    40021000    ...@    DCD    1073876992
        0x0000e600:    00012bf4    .+..    DCD    76788
        0x0000e604:    40020018    ...@    DCD    1073872920
    $t
    i.am_hal_pwrctrl_periph_disable
    am_hal_pwrctrl_periph_disable
        0x0000e608:    e92d43f8    -..C    PUSH     {r3-r9,lr}
        0x0000e60c:    4604        .F      MOV      r4,r0
        0x0000e60e:    f7fdfe1b    ....    BL       am_hal_interrupt_master_disable ; 0xc248
        0x0000e612:    f8df80a8    ....    LDR      r8,[pc,#168] ; [0xe6bc] = 0x40021000
        0x0000e616:    9000        ..      STR      r0,[sp,#0]
        0x0000e618:    f8d80008    ....    LDR      r0,[r8,#8]
        0x0000e61c:    4f28        (O      LDR      r7,[pc,#160] ; [0xe6c0] = 0x12bf4
        0x0000e61e:    eb040544    ..D.    ADD      r5,r4,r4,LSL #1
        0x0000e622:    f8571025    W.%.    LDR      r1,[r7,r5,LSL #2]
        0x0000e626:    4388        .C      BICS     r0,r0,r1
        0x0000e628:    f8c80008    ....    STR      r0,[r8,#8]
        0x0000e62c:    9800        ..      LDR      r0,[sp,#0]
        0x0000e62e:    f7fdfe0f    ....    BL       am_hal_interrupt_master_set ; 0xc250
        0x0000e632:    2400        .$      MOVS     r4,#0
        0x0000e634:    eb070685    ....    ADD      r6,r7,r5,LSL #2
        0x0000e638:    20a0        .       MOVS     r0,#0xa0
        0x0000e63a:    f7fffc3f    ..?.    BL       am_hal_flash_delay ; 0xdebc
        0x0000e63e:    f8d80018    ....    LDR      r0,[r8,#0x18]
        0x0000e642:    6871        qh      LDR      r1,[r6,#4]
        0x0000e644:    4208        .B      TST      r0,r1
        0x0000e646:    d002        ..      BEQ      0xe64e ; am_hal_pwrctrl_periph_disable + 70
        0x0000e648:    340a        .4      ADDS     r4,r4,#0xa
        0x0000e64a:    2c14        .,      CMP      r4,#0x14
        0x0000e64c:    d3f4        ..      BCC      0xe638 ; am_hal_pwrctrl_periph_disable + 48
        0x0000e64e:    f8d80018    ....    LDR      r0,[r8,#0x18]
        0x0000e652:    460a        .F      MOV      r2,r1
        0x0000e654:    4010        .@      ANDS     r0,r0,r2
        0x0000e656:    bf08        ..      IT       EQ
        0x0000e658:    e8bd83f8    ....    POPEQ    {r3-r9,pc}
        0x0000e65c:    2001        .       MOVS     r0,#1
        0x0000e65e:    f8d81008    ....    LDR      r1,[r8,#8]
        0x0000e662:    2a04        .*      CMP      r2,#4
        0x0000e664:    d010        ..      BEQ      0xe688 ; am_hal_pwrctrl_periph_disable + 128
        0x0000e666:    2a08        .*      CMP      r2,#8
        0x0000e668:    d01d        ..      BEQ      0xe6a6 ; am_hal_pwrctrl_periph_disable + 158
        0x0000e66a:    2a10        .*      CMP      r2,#0x10
        0x0000e66c:    bf18        ..      IT       NE
        0x0000e66e:    e8bd83f8    ....    POPNE    {r3-r9,pc}
        0x0000e672:    f0110f70    ..p.    TST      r1,#0x70
        0x0000e676:    bf08        ..      IT       EQ
        0x0000e678:    e8bd83f8    ....    POPEQ    {r3-r9,pc}
        0x0000e67c:    f8572025    W.%     LDR      r2,[r7,r5,LSL #2]
        0x0000e680:    420a        .B      TST      r2,r1
        0x0000e682:    d00d        ..      BEQ      0xe6a0 ; am_hal_pwrctrl_periph_disable + 152
        0x0000e684:    e8bd83f8    ....    POP      {r3-r9,pc}
        0x0000e688:    f2405281    @..R    MOV      r2,#0x581
        0x0000e68c:    4211        .B      TST      r1,r2
        0x0000e68e:    bf08        ..      IT       EQ
        0x0000e690:    e8bd83f8    ....    POPEQ    {r3-r9,pc}
        0x0000e694:    f8572025    W.%     LDR      r2,[r7,r5,LSL #2]
        0x0000e698:    420a        .B      TST      r2,r1
        0x0000e69a:    bf18        ..      IT       NE
        0x0000e69c:    e8bd83f8    ....    POPNE    {r3-r9,pc}
        0x0000e6a0:    2000        .       MOVS     r0,#0
        0x0000e6a2:    e8bd83f8    ....    POP      {r3-r9,pc}
        0x0000e6a6:    f0110f0e    ....    TST      r1,#0xe
        0x0000e6aa:    bf08        ..      IT       EQ
        0x0000e6ac:    e8bd83f8    ....    POPEQ    {r3-r9,pc}
        0x0000e6b0:    f8572025    W.%     LDR      r2,[r7,r5,LSL #2]
        0x0000e6b4:    420a        .B      TST      r2,r1
        0x0000e6b6:    d0f3        ..      BEQ      0xe6a0 ; am_hal_pwrctrl_periph_disable + 152
        0x0000e6b8:    e8bd83f8    ....    POP      {r3-r9,pc}
    $d
        0x0000e6bc:    40021000    ...@    DCD    1073876992
        0x0000e6c0:    00012bf4    .+..    DCD    76788
    $t
    i.am_hal_pwrctrl_periph_enable
    am_hal_pwrctrl_periph_enable
        0x0000e6c4:    e92d43f8    -..C    PUSH     {r3-r9,lr}
        0x0000e6c8:    4605        .F      MOV      r5,r0
        0x0000e6ca:    f7fdfdbd    ....    BL       am_hal_interrupt_master_disable ; 0xc248
        0x0000e6ce:    4c17        .L      LDR      r4,[pc,#92] ; [0xe72c] = 0x40021000
        0x0000e6d0:    9000        ..      STR      r0,[sp,#0]
        0x0000e6d2:    68a0        .h      LDR      r0,[r4,#8]
        0x0000e6d4:    f8df8058    ..X.    LDR      r8,[pc,#88] ; [0xe730] = 0x12bf4
        0x0000e6d8:    eb050645    ..E.    ADD      r6,r5,r5,LSL #1
        0x0000e6dc:    f8581026    X.&.    LDR      r1,[r8,r6,LSL #2]
        0x0000e6e0:    4308        .C      ORRS     r0,r0,r1
        0x0000e6e2:    60a0        .`      STR      r0,[r4,#8]
        0x0000e6e4:    9800        ..      LDR      r0,[sp,#0]
        0x0000e6e6:    f7fdfdb3    ....    BL       am_hal_interrupt_master_set ; 0xc250
        0x0000e6ea:    2500        .%      MOVS     r5,#0
        0x0000e6ec:    eb080786    ....    ADD      r7,r8,r6,LSL #2
        0x0000e6f0:    20a0        .       MOVS     r0,#0xa0
        0x0000e6f2:    f7fffbe3    ....    BL       am_hal_flash_delay ; 0xdebc
        0x0000e6f6:    69a0        .i      LDR      r0,[r4,#0x18]
        0x0000e6f8:    6879        yh      LDR      r1,[r7,#4]
        0x0000e6fa:    4208        .B      TST      r0,r1
        0x0000e6fc:    d102        ..      BNE      0xe704 ; am_hal_pwrctrl_periph_enable + 64
        0x0000e6fe:    350a        .5      ADDS     r5,r5,#0xa
        0x0000e700:    2d14        .-      CMP      r5,#0x14
        0x0000e702:    d3f5        ..      BCC      0xe6f0 ; am_hal_pwrctrl_periph_enable + 44
        0x0000e704:    69a0        .i      LDR      r0,[r4,#0x18]
        0x0000e706:    4208        .B      TST      r0,r1
        0x0000e708:    bf1c        ..      ITT      NE
        0x0000e70a:    2000        .       MOVNE    r0,#0
        0x0000e70c:    e8bd83f8    ....    POPNE    {r3-r9,pc}
        0x0000e710:    f7fdfd9a    ....    BL       am_hal_interrupt_master_disable ; 0xc248
        0x0000e714:    9000        ..      STR      r0,[sp,#0]
        0x0000e716:    68a0        .h      LDR      r0,[r4,#8]
        0x0000e718:    f8581026    X.&.    LDR      r1,[r8,r6,LSL #2]
        0x0000e71c:    4388        .C      BICS     r0,r0,r1
        0x0000e71e:    60a0        .`      STR      r0,[r4,#8]
        0x0000e720:    9800        ..      LDR      r0,[sp,#0]
        0x0000e722:    f7fdfd95    ....    BL       am_hal_interrupt_master_set ; 0xc250
        0x0000e726:    2001        .       MOVS     r0,#1
        0x0000e728:    e8bd83f8    ....    POP      {r3-r9,pc}
    $d
        0x0000e72c:    40021000    ...@    DCD    1073876992
        0x0000e730:    00012bf4    .+..    DCD    76788
    $t
    i.am_hal_queue_init
    am_hal_queue_init
        0x0000e734:    f04f0c00    O...    MOV      r12,#0
        0x0000e738:    f8c0c000    ....    STR      r12,[r0,#0]
        0x0000e73c:    f8c0c004    ....    STR      r12,[r0,#4]
        0x0000e740:    e9c02104    ...!    STRD     r2,r1,[r0,#0x10]
        0x0000e744:    e9c0c302    ....    STRD     r12,r3,[r0,#8]
        0x0000e748:    4770        pG      BX       lr
    i.am_hal_queue_item_add
    am_hal_queue_item_add
        0x0000e74a:    b5f8        ..      PUSH     {r3-r7,lr}
        0x0000e74c:    4604        .F      MOV      r4,r0
        0x0000e74e:    6900        .i      LDR      r0,[r0,#0x10]
        0x0000e750:    460d        .F      MOV      r5,r1
        0x0000e752:    fb00f602    ....    MUL      r6,r0,r2
        0x0000e756:    2700        .'      MOVS     r7,#0
        0x0000e758:    f7fdfd76    ..v.    BL       am_hal_interrupt_master_disable ; 0xc248
        0x0000e75c:    9000        ..      STR      r0,[sp,#0]
        0x0000e75e:    e9d41002    ....    LDRD     r1,r0,[r4,#8]
        0x0000e762:    1a40        @.      SUBS     r0,r0,r1
        0x0000e764:    42b0        .B      CMP      r0,r6
        0x0000e766:    d33d        =.      BCC      0xe7e4 ; am_hal_queue_item_add + 154
        0x0000e768:    2e00        ..      CMP      r6,#0
        0x0000e76a:    d037        7.      BEQ      0xe7dc ; am_hal_queue_item_add + 146
        0x0000e76c:    1e68        h.      SUBS     r0,r5,#1
        0x0000e76e:    f0160f01    ....    TST      r6,#1
        0x0000e772:    d00d        ..      BEQ      0xe790 ; am_hal_queue_item_add + 70
        0x0000e774:    b11d        ..      CBZ      r5,0xe77e ; am_hal_queue_item_add + 52
        0x0000e776:    6823        #h      LDR      r3,[r4,#0]
        0x0000e778:    6962        bi      LDR      r2,[r4,#0x14]
        0x0000e77a:    7841        Ax      LDRB     r1,[r0,#1]
        0x0000e77c:    54d1        .T      STRB     r1,[r2,r3]
        0x0000e77e:    6821        !h      LDR      r1,[r4,#0]
        0x0000e780:    68e2        .h      LDR      r2,[r4,#0xc]
        0x0000e782:    1c49        I.      ADDS     r1,r1,#1
        0x0000e784:    fbb1f3f2    ....    UDIV     r3,r1,r2
        0x0000e788:    fb021113    ....    MLS      r1,r2,r3,r1
        0x0000e78c:    1c40        @.      ADDS     r0,r0,#1
        0x0000e78e:    6021        !`      STR      r1,[r4,#0]
        0x0000e790:    0871        q.      LSRS     r1,r6,#1
        0x0000e792:    d023        #.      BEQ      0xe7dc ; am_hal_queue_item_add + 146
        0x0000e794:    2d00        .-      CMP      r5,#0
        0x0000e796:    d005        ..      BEQ      0xe7a4 ; am_hal_queue_item_add + 90
        0x0000e798:    f8d4c000    ....    LDR      r12,[r4,#0]
        0x0000e79c:    6963        ci      LDR      r3,[r4,#0x14]
        0x0000e79e:    7842        Bx      LDRB     r2,[r0,#1]
        0x0000e7a0:    f803200c    ...     STRB     r2,[r3,r12]
        0x0000e7a4:    6822        "h      LDR      r2,[r4,#0]
        0x0000e7a6:    68e3        .h      LDR      r3,[r4,#0xc]
        0x0000e7a8:    f1020201    ....    ADD      r2,r2,#1
        0x0000e7ac:    fbb2fcf3    ....    UDIV     r12,r2,r3
        0x0000e7b0:    fb03221c    ..."    MLS      r2,r3,r12,r2
        0x0000e7b4:    6022        "`      STR      r2,[r4,#0]
        0x0000e7b6:    d005        ..      BEQ      0xe7c4 ; am_hal_queue_item_add + 122
        0x0000e7b8:    f8d4c014    ....    LDR      r12,[r4,#0x14]
        0x0000e7bc:    7883        .x      LDRB     r3,[r0,#2]
        0x0000e7be:    f80c3002    ...0    STRB     r3,[r12,r2]
        0x0000e7c2:    6822        "h      LDR      r2,[r4,#0]
        0x0000e7c4:    f1000002    ....    ADD      r0,r0,#2
        0x0000e7c8:    f1020301    ....    ADD      r3,r2,#1
        0x0000e7cc:    68e2        .h      LDR      r2,[r4,#0xc]
        0x0000e7ce:    1e49        I.      SUBS     r1,r1,#1
        0x0000e7d0:    fbb3fcf2    ....    UDIV     r12,r3,r2
        0x0000e7d4:    fb02321c    ...2    MLS      r2,r2,r12,r3
        0x0000e7d8:    6022        "`      STR      r2,[r4,#0]
        0x0000e7da:    d1db        ..      BNE      0xe794 ; am_hal_queue_item_add + 74
        0x0000e7dc:    68a0        .h      LDR      r0,[r4,#8]
        0x0000e7de:    2701        .'      MOVS     r7,#1
        0x0000e7e0:    4430        0D      ADD      r0,r0,r6
        0x0000e7e2:    60a0        .`      STR      r0,[r4,#8]
        0x0000e7e4:    9800        ..      LDR      r0,[sp,#0]
        0x0000e7e6:    f7fdfd33    ..3.    BL       am_hal_interrupt_master_set ; 0xc250
        0x0000e7ea:    4638        8F      MOV      r0,r7
        0x0000e7ec:    bdf8        ..      POP      {r3-r7,pc}
    i.am_hal_queue_item_get
    am_hal_queue_item_get
        0x0000e7ee:    b5f8        ..      PUSH     {r3-r7,lr}
        0x0000e7f0:    4604        .F      MOV      r4,r0
        0x0000e7f2:    6900        .i      LDR      r0,[r0,#0x10]
        0x0000e7f4:    460d        .F      MOV      r5,r1
        0x0000e7f6:    fb00f602    ....    MUL      r6,r0,r2
        0x0000e7fa:    2700        .'      MOVS     r7,#0
        0x0000e7fc:    f7fdfd24    ..$.    BL       am_hal_interrupt_master_disable ; 0xc248
        0x0000e800:    9000        ..      STR      r0,[sp,#0]
        0x0000e802:    68a0        .h      LDR      r0,[r4,#8]
        0x0000e804:    42b0        .B      CMP      r0,r6
        0x0000e806:    d339        9.      BCC      0xe87c ; am_hal_queue_item_get + 142
        0x0000e808:    2e00        ..      CMP      r6,#0
        0x0000e80a:    d033        3.      BEQ      0xe874 ; am_hal_queue_item_get + 134
        0x0000e80c:    1e68        h.      SUBS     r0,r5,#1
        0x0000e80e:    f0160f01    ....    TST      r6,#1
        0x0000e812:    d00d        ..      BEQ      0xe830 ; am_hal_queue_item_get + 66
        0x0000e814:    b11d        ..      CBZ      r5,0xe81e ; am_hal_queue_item_get + 48
        0x0000e816:    6862        bh      LDR      r2,[r4,#4]
        0x0000e818:    6961        ai      LDR      r1,[r4,#0x14]
        0x0000e81a:    5c89        .\      LDRB     r1,[r1,r2]
        0x0000e81c:    7041        Ap      STRB     r1,[r0,#1]
        0x0000e81e:    6861        ah      LDR      r1,[r4,#4]
        0x0000e820:    68e2        .h      LDR      r2,[r4,#0xc]
        0x0000e822:    1c49        I.      ADDS     r1,r1,#1
        0x0000e824:    fbb1f3f2    ....    UDIV     r3,r1,r2
        0x0000e828:    fb021113    ....    MLS      r1,r2,r3,r1
        0x0000e82c:    1c40        @.      ADDS     r0,r0,#1
        0x0000e82e:    6061        a`      STR      r1,[r4,#4]
        0x0000e830:    0871        q.      LSRS     r1,r6,#1
        0x0000e832:    d01f        ..      BEQ      0xe874 ; am_hal_queue_item_get + 134
        0x0000e834:    2d00        .-      CMP      r5,#0
        0x0000e836:    d003        ..      BEQ      0xe840 ; am_hal_queue_item_get + 82
        0x0000e838:    6863        ch      LDR      r3,[r4,#4]
        0x0000e83a:    6962        bi      LDR      r2,[r4,#0x14]
        0x0000e83c:    5cd2        .\      LDRB     r2,[r2,r3]
        0x0000e83e:    7042        Bp      STRB     r2,[r0,#1]
        0x0000e840:    6862        bh      LDR      r2,[r4,#4]
        0x0000e842:    68e3        .h      LDR      r3,[r4,#0xc]
        0x0000e844:    f1020201    ....    ADD      r2,r2,#1
        0x0000e848:    fbb2fcf3    ....    UDIV     r12,r2,r3
        0x0000e84c:    fb03221c    ..."    MLS      r2,r3,r12,r2
        0x0000e850:    6062        b`      STR      r2,[r4,#4]
        0x0000e852:    d003        ..      BEQ      0xe85c ; am_hal_queue_item_get + 110
        0x0000e854:    6963        ci      LDR      r3,[r4,#0x14]
        0x0000e856:    5c9a        .\      LDRB     r2,[r3,r2]
        0x0000e858:    7082        .p      STRB     r2,[r0,#2]
        0x0000e85a:    6862        bh      LDR      r2,[r4,#4]
        0x0000e85c:    68e3        .h      LDR      r3,[r4,#0xc]
        0x0000e85e:    f1020201    ....    ADD      r2,r2,#1
        0x0000e862:    fbb2fcf3    ....    UDIV     r12,r2,r3
        0x0000e866:    fb03221c    ..."    MLS      r2,r3,r12,r2
        0x0000e86a:    f1000002    ....    ADD      r0,r0,#2
        0x0000e86e:    6062        b`      STR      r2,[r4,#4]
        0x0000e870:    1e49        I.      SUBS     r1,r1,#1
        0x0000e872:    d1df        ..      BNE      0xe834 ; am_hal_queue_item_get + 70
        0x0000e874:    68a0        .h      LDR      r0,[r4,#8]
        0x0000e876:    1b80        ..      SUBS     r0,r0,r6
        0x0000e878:    2701        .'      MOVS     r7,#1
        0x0000e87a:    60a0        .`      STR      r0,[r4,#8]
        0x0000e87c:    9800        ..      LDR      r0,[sp,#0]
        0x0000e87e:    f7fdfce7    ....    BL       am_hal_interrupt_master_set ; 0xc250
        0x0000e882:    4638        8F      MOV      r0,r7
        0x0000e884:    bdf8        ..      POP      {r3-r7,pc}
        0x0000e886:    0000        ..      MOVS     r0,r0
    i.am_hal_reset_control
    am_hal_reset_control
        0x0000e888:    f04f4180    O..A    MOV      r1,#0x40000000
        0x0000e88c:    2800        .(      CMP      r0,#0
        0x0000e88e:    bf04        ..      ITT      EQ
        0x0000e890:    20d4        .       MOVEQ    r0,#0xd4
        0x0000e892:    6088        .`      STREQ    r0,[r1,#8]
        0x0000e894:    d010        ..      BEQ      0xe8b8 ; am_hal_reset_control + 48
        0x0000e896:    2801        .(      CMP      r0,#1
        0x0000e898:    bf04        ..      ITT      EQ
        0x0000e89a:    201b        .       MOVEQ    r0,#0x1b
        0x0000e89c:    6048        H`      STREQ    r0,[r1,#4]
        0x0000e89e:    d00b        ..      BEQ      0xe8b8 ; am_hal_reset_control + 48
        0x0000e8a0:    2802        .(      CMP      r0,#2
        0x0000e8a2:    d006        ..      BEQ      0xe8b2 ; am_hal_reset_control + 42
        0x0000e8a4:    2803        .(      CMP      r0,#3
        0x0000e8a6:    bf06        ..      ITTE     EQ
        0x0000e8a8:    2001        .       MOVEQ    r0,#1
        0x0000e8aa:    6148        Ha      STREQ    r0,[r1,#0x14]
        0x0000e8ac:    2006        .       MOVNE    r0,#6
        0x0000e8ae:    d003        ..      BEQ      0xe8b8 ; am_hal_reset_control + 48
        0x0000e8b0:    4770        pG      BX       lr
        0x0000e8b2:    4902        .I      LDR      r1,[pc,#8] ; [0xe8bc] = 0x4ffff000
        0x0000e8b4:    2000        .       MOVS     r0,#0
        0x0000e8b6:    6008        .`      STR      r0,[r1,#0]
        0x0000e8b8:    2000        .       MOVS     r0,#0
        0x0000e8ba:    4770        pG      BX       lr
    $d
        0x0000e8bc:    4ffff000    ...O    DCD    1342173184
    $t
    i.am_hal_rtc_osc_disable
    am_hal_rtc_osc_disable
        0x0000e8c0:    f04f2040    O.@     MOV      r0,#0x40004000
        0x0000e8c4:    f8d01250    ..P.    LDR      r1,[r0,#0x250]
        0x0000e8c8:    f0410110    A...    ORR      r1,r1,#0x10
        0x0000e8cc:    f8c01250    ..P.    STR      r1,[r0,#0x250]
        0x0000e8d0:    4770        pG      BX       lr
        0x0000e8d2:    0000        ..      MOVS     r0,r0
    i.am_hal_tpiu_enable
    am_hal_tpiu_enable
        0x0000e8d4:    e92d41f0    -..A    PUSH     {r4-r8,lr}
        0x0000e8d8:    4c1d        .L      LDR      r4,[pc,#116] ; [0xe950] = 0xe0040000
        0x0000e8da:    b084        ..      SUB      sp,sp,#0x10
        0x0000e8dc:    2600        .&      MOVS     r6,#0
        0x0000e8de:    6805        .h      LDR      r5,[r0,#0]
        0x0000e8e0:    f8c46304    ...c    STR      r6,[r4,#0x304]
        0x0000e8e4:    4f1b        .O      LDR      r7,[pc,#108] ; [0xe954] = 0xe0040f00
        0x0000e8e6:    f8df8070    ..p.    LDR      r8,[pc,#112] ; [0xe958] = 0x40020000
        0x0000e8ea:    2101        .!      MOVS     r1,#1
        0x0000e8ec:    b31d        ..      CBZ      r5,0xe936 ; am_hal_tpiu_enable + 98
        0x0000e8ee:    6061        a`      STR      r1,[r4,#4]
        0x0000e8f0:    491a        .I      LDR      r1,[pc,#104] ; [0xe95c] = 0x1da381
        0x0000e8f2:    f5a54061    ..a@    SUB      r0,r5,#0xe100
        0x0000e8f6:    4288        .B      CMP      r0,r1
        0x0000e8f8:    bf28        (.      IT       CS
        0x0000e8fa:    4d19        .M      LDRCS    r5,[pc,#100] ; [0xe960] = 0xf4240
        0x0000e8fc:    4668        hF      MOV      r0,sp
        0x0000e8fe:    f7fffac3    ....    BL       am_hal_clkgen_status_get ; 0xde88
        0x0000e902:    9800        ..      LDR      r0,[sp,#0]
        0x0000e904:    f1b03fff    ...?    CMP      r0,#0xffffffff
        0x0000e908:    bf1d        ..      ITTTE    NE
        0x0000e90a:    08c0        ..      LSRNE    r0,r0,#3
        0x0000e90c:    fbb0f0f5    ....    UDIVNE   r0,r0,r5
        0x0000e910:    1e40        @.      SUBNE    r0,r0,#1
        0x0000e912:    2005        .       MOVEQ    r0,#5
        0x0000e914:    b280        ..      UXTH     r0,r0
        0x0000e916:    6120         a      STR      r0,[r4,#0x10]
        0x0000e918:    2002        .       MOVS     r0,#2
        0x0000e91a:    f8c400f0    ....    STR      r0,[r4,#0xf0]
        0x0000e91e:    603e        >`      STR      r6,[r7,#0]
        0x0000e920:    f2402001    @..     MOV      r0,#0x201
        0x0000e924:    f8c80250    ..P.    STR      r0,[r8,#0x250]
        0x0000e928:    f44f7048    O.Hp    MOV      r0,#0x320
        0x0000e92c:    f7fffac6    ....    BL       am_hal_flash_delay ; 0xdebc
        0x0000e930:    b004        ..      ADD      sp,sp,#0x10
        0x0000e932:    e8bd81f0    ....    POP      {r4-r8,pc}
        0x0000e936:    6902        .i      LDR      r2,[r0,#0x10]
        0x0000e938:    6122        "a      STR      r2,[r4,#0x10]
        0x0000e93a:    6882        .h      LDR      r2,[r0,#8]
        0x0000e93c:    f8c420f0    ...     STR      r2,[r4,#0xf0]
        0x0000e940:    7b02        .{      LDRB     r2,[r0,#0xc]
        0x0000e942:    1e52        R.      SUBS     r2,r2,#1
        0x0000e944:    4091        .@      LSLS     r1,r1,r2
        0x0000e946:    6061        a`      STR      r1,[r4,#4]
        0x0000e948:    603e        >`      STR      r6,[r7,#0]
        0x0000e94a:    6840        @h      LDR      r0,[r0,#4]
        0x0000e94c:    e7ea        ..      B        0xe924 ; am_hal_tpiu_enable + 80
    $d
        0x0000e94e:    0000        ..      DCW    0
        0x0000e950:    e0040000    ....    DCD    3758358528
        0x0000e954:    e0040f00    ....    DCD    3758362368
        0x0000e958:    40020000    ...@    DCD    1073872896
        0x0000e95c:    001da381    ....    DCD    1942401
        0x0000e960:    000f4240    @B..    DCD    1000000
    $t
    i.am_hal_uart_configure
    am_hal_uart_configure
        0x0000e964:    e92d43f8    -..C    PUSH     {r3-r9,lr}
        0x0000e968:    0004        ..      MOVS     r4,r0
        0x0000e96a:    460e        .F      MOV      r6,r1
        0x0000e96c:    6a60        `j      LDR      r0,[r4,#0x24]
        0x0000e96e:    bf1c        ..      ITT      NE
        0x0000e970:    6821        !h      LDRNE    r1,[r4,#0]
        0x0000e972:    f0117f80    ....    TSTNE    r1,#0x1000000
        0x0000e976:    d005        ..      BEQ      0xe984 ; am_hal_uart_configure + 32
        0x0000e978:    f8df8234    ..4.    LDR      r8,[pc,#564] ; [0xebb0] = 0xea9e06
        0x0000e97c:    f021417f    !..A    BIC      r1,r1,#0xff000000
        0x0000e980:    4541        AE      CMP      r1,r8
        0x0000e982:    d002        ..      BEQ      0xe98a ; am_hal_uart_configure + 38
        0x0000e984:    2002        .       MOVS     r0,#2
        0x0000e986:    e8bd83f8    ....    POP      {r3-r9,pc}
        0x0000e98a:    2700        .'      MOVS     r7,#0
        0x0000e98c:    0300        ..      LSLS     r0,r0,#12
        0x0000e98e:    f1004580    ...E    ADD      r5,r0,#0x40000000
        0x0000e992:    f50535e0    ...5    ADD      r5,r5,#0x1c000
        0x0000e996:    632f        /c      STR      r7,[r5,#0x30]
        0x0000e998:    f8940064    ..d.    LDRB     r0,[r4,#0x64]
        0x0000e99c:    2806        .(      CMP      r0,#6
        0x0000e99e:    bf24        $.      ITT      CS
        0x0000e9a0:    2006        .       MOVCS    r0,#6
        0x0000e9a2:    e8bd83f8    ....    POPCS    {r3-r9,pc}
        0x0000e9a6:    2800        .(      CMP      r0,#0
        0x0000e9a8:    bf0e        ..      ITEE     EQ
        0x0000e9aa:    f04f0901    O...    MOVEQ    r9,#1
        0x0000e9ae:    1e40        @.      SUBNE    r0,r0,#1
        0x0000e9b0:    f00009ff    ....    ANDNE    r9,r0,#0xff
        0x0000e9b4:    f7fdfc48    ..H.    BL       am_hal_interrupt_master_disable ; 0xc248
        0x0000e9b8:    9000        ..      STR      r0,[sp,#0]
        0x0000e9ba:    6b28        (k      LDR      r0,[r5,#0x30]
        0x0000e9bc:    f0400008    @...    ORR      r0,r0,#8
        0x0000e9c0:    6328        (c      STR      r0,[r5,#0x30]
        0x0000e9c2:    6b28        (k      LDR      r0,[r5,#0x30]
        0x0000e9c4:    f3691006    i...    BFI      r0,r9,#4,#3
        0x0000e9c8:    6328        (c      STR      r0,[r5,#0x30]
        0x0000e9ca:    9800        ..      LDR      r0,[sp,#0]
        0x0000e9cc:    f7fdfc40    ..@.    BL       am_hal_interrupt_master_set ; 0xc250
        0x0000e9d0:    f7fdfc3a    ..:.    BL       am_hal_interrupt_master_disable ; 0xc248
        0x0000e9d4:    9000        ..      STR      r0,[sp,#0]
        0x0000e9d6:    6b28        (k      LDR      r0,[r5,#0x30]
        0x0000e9d8:    f0200001     ...    BIC      r0,r0,#1
        0x0000e9dc:    6328        (c      STR      r0,[r5,#0x30]
        0x0000e9de:    6b28        (k      LDR      r0,[r5,#0x30]
        0x0000e9e0:    f4207000     ..p    BIC      r0,r0,#0x200
        0x0000e9e4:    6328        (c      STR      r0,[r5,#0x30]
        0x0000e9e6:    6b28        (k      LDR      r0,[r5,#0x30]
        0x0000e9e8:    f4207080     ..p    BIC      r0,r0,#0x100
        0x0000e9ec:    6328        (c      STR      r0,[r5,#0x30]
        0x0000e9ee:    9800        ..      LDR      r0,[sp,#0]
        0x0000e9f0:    f7fdfc2e    ....    BL       am_hal_interrupt_master_set ; 0xc250
        0x0000e9f4:    486f        oH      LDR      r0,[pc,#444] ; [0xebb4] = 0x40020000
        0x0000e9f6:    6831        1h      LDR      r1,[r6,#0]
        0x0000e9f8:    68c2        .h      LDR      r2,[r0,#0xc]
        0x0000e9fa:    b2d3        ..      UXTB     r3,r2
        0x0000e9fc:    4a6e        nJ      LDR      r2,[pc,#440] ; [0xebb8] = 0x8000003
        0x0000e9fe:    2b12        .+      CMP      r3,#0x12
        0x0000ea00:    d102        ..      BNE      0xea08 ; am_hal_uart_configure + 164
        0x0000ea02:    f5b12f61    ..a/    CMP      r1,#0xe1000
        0x0000ea06:    d81b        ..      BHI      0xea40 ; am_hal_uart_configure + 220
        0x0000ea08:    68c0        .h      LDR      r0,[r0,#0xc]
        0x0000ea0a:    b2c0        ..      UXTB     r0,r0
        0x0000ea0c:    2821        !(      CMP      r0,#0x21
        0x0000ea0e:    bf24        $.      ITT      CS
        0x0000ea10:    486a        jH      LDRCS    r0,[pc,#424] ; [0xebbc] = 0x16e360
        0x0000ea12:    4281        .B      CMPCS    r1,r0
        0x0000ea14:    d814        ..      BHI      0xea40 ; am_hal_uart_configure + 220
        0x0000ea16:    6b28        (k      LDR      r0,[r5,#0x30]
        0x0000ea18:    f3c01002    ....    UBFX     r0,r0,#4,#3
        0x0000ea1c:    2801        .(      CMP      r0,#1
        0x0000ea1e:    bf08        ..      IT       EQ
        0x0000ea20:    4867        gH      LDREQ    r0,[pc,#412] ; [0xebc0] = 0x16e3600
        0x0000ea22:    d010        ..      BEQ      0xea46 ; am_hal_uart_configure + 226
        0x0000ea24:    2802        .(      CMP      r0,#2
        0x0000ea26:    bf08        ..      IT       EQ
        0x0000ea28:    4866        fH      LDREQ    r0,[pc,#408] ; [0xebc4] = 0xb71b00
        0x0000ea2a:    d00c        ..      BEQ      0xea46 ; am_hal_uart_configure + 226
        0x0000ea2c:    2803        .(      CMP      r0,#3
        0x0000ea2e:    bf08        ..      IT       EQ
        0x0000ea30:    4865        eH      LDREQ    r0,[pc,#404] ; [0xebc8] = 0x5b8d80
        0x0000ea32:    d008        ..      BEQ      0xea46 ; am_hal_uart_configure + 226
        0x0000ea34:    2804        .(      CMP      r0,#4
        0x0000ea36:    bf1a        ..      ITTE     NE
        0x0000ea38:    6627        'f      STRNE    r7,[r4,#0x60]
        0x0000ea3a:    4a64        dJ      LDRNE    r2,[pc,#400] ; [0xebcc] = 0x8000002
        0x0000ea3c:    4864        dH      LDREQ    r0,[pc,#400] ; [0xebd0] = 0x2dc6c0
        0x0000ea3e:    d002        ..      BEQ      0xea46 ; am_hal_uart_configure + 226
        0x0000ea40:    4610        .F      MOV      r0,r2
        0x0000ea42:    e8bd83f8    ....    POP      {r3-r9,pc}
        0x0000ea46:    0109        ..      LSLS     r1,r1,#4
        0x0000ea48:    fbb0f3f1    ....    UDIV     r3,r0,r1
        0x0000ea4c:    ea4f1c80    O...    LSL      r12,r0,#6
        0x0000ea50:    fbbcf1f1    ....    UDIV     r1,r12,r1
        0x0000ea54:    ea4f1c83    O...    LSL      r12,r3,#6
        0x0000ea58:    ebb1010c    ....    SUBS     r1,r1,r12
        0x0000ea5c:    2b00        .+      CMP      r3,#0
        0x0000ea5e:    bf08        ..      IT       EQ
        0x0000ea60:    6627        'f      STREQ    r7,[r4,#0x60]
        0x0000ea62:    d0ed        ..      BEQ      0xea40 ; am_hal_uart_configure + 220
        0x0000ea64:    626b        kb      STR      r3,[r5,#0x24]
        0x0000ea66:    626b        kb      STR      r3,[r5,#0x24]
        0x0000ea68:    62a9        .b      STR      r1,[r5,#0x28]
        0x0000ea6a:    011a        ..      LSLS     r2,r3,#4
        0x0000ea6c:    eb020191    ....    ADD      r1,r2,r1,LSR #2
        0x0000ea70:    fbb0f1f1    ....    UDIV     r1,r0,r1
        0x0000ea74:    6621        !f      STR      r1,[r4,#0x60]
        0x0000ea76:    6b28        (k      LDR      r0,[r5,#0x30]
        0x0000ea78:    f4204080     ..@    BIC      r0,r0,#0x4000
        0x0000ea7c:    6328        (c      STR      r0,[r5,#0x30]
        0x0000ea7e:    6b28        (k      LDR      r0,[r5,#0x30]
        0x0000ea80:    f4204000     ..@    BIC      r0,r0,#0x8000
        0x0000ea84:    6328        (c      STR      r0,[r5,#0x30]
        0x0000ea86:    6b28        (k      LDR      r0,[r5,#0x30]
        0x0000ea88:    6931        1i      LDR      r1,[r6,#0x10]
        0x0000ea8a:    4308        .C      ORRS     r0,r0,r1
        0x0000ea8c:    6328        (c      STR      r0,[r5,#0x30]
        0x0000ea8e:    6970        pi      LDR      r0,[r6,#0x14]
        0x0000ea90:    6368        hc      STR      r0,[r5,#0x34]
        0x0000ea92:    e9d60101    ....    LDRD     r0,r1,[r6,#4]
        0x0000ea96:    4308        .C      ORRS     r0,r0,r1
        0x0000ea98:    68f1        .h      LDR      r1,[r6,#0xc]
        0x0000ea9a:    f0410110    A...    ORR      r1,r1,#0x10
        0x0000ea9e:    4308        .C      ORRS     r0,r0,r1
        0x0000eaa0:    62e8        .b      STR      r0,[r5,#0x2c]
        0x0000eaa2:    f7fdfbd1    ....    BL       am_hal_interrupt_master_disable ; 0xc248
        0x0000eaa6:    9000        ..      STR      r0,[sp,#0]
        0x0000eaa8:    6b28        (k      LDR      r0,[r5,#0x30]
        0x0000eaaa:    f0400001    @...    ORR      r0,r0,#1
        0x0000eaae:    6328        (c      STR      r0,[r5,#0x30]
        0x0000eab0:    6b28        (k      LDR      r0,[r5,#0x30]
        0x0000eab2:    f4407000    @..p    ORR      r0,r0,#0x200
        0x0000eab6:    6328        (c      STR      r0,[r5,#0x30]
        0x0000eab8:    6b28        (k      LDR      r0,[r5,#0x30]
        0x0000eaba:    f4407080    @..p    ORR      r0,r0,#0x100
        0x0000eabe:    6328        (c      STR      r0,[r5,#0x30]
        0x0000eac0:    9800        ..      LDR      r0,[sp,#0]
        0x0000eac2:    f7fdfbc5    ....    BL       am_hal_interrupt_master_set ; 0xc250
        0x0000eac6:    3618        .6      ADDS     r6,r6,#0x18
        0x0000eac8:    6820         h      LDR      r0,[r4,#0]
        0x0000eaca:    ce6a        j.      LDM      r6,{r1,r3,r5,r6}
        0x0000eacc:    f0107f80    ....    TST      r0,#0x1000000
        0x0000ead0:    d06b        k.      BEQ      0xebaa ; am_hal_uart_configure + 582
        0x0000ead2:    f020407f     ..@    BIC      r0,r0,#0xff000000
        0x0000ead6:    4540        @E      CMP      r0,r8
        0x0000ead8:    d167        g.      BNE      0xebaa ; am_hal_uart_configure + 582
        0x0000eada:    f04f0901    O...    MOV      r9,#1
        0x0000eade:    2900        .)      CMP      r1,#0
        0x0000eae0:    bf18        ..      IT       NE
        0x0000eae2:    2b00        .+      CMPNE    r3,#0
        0x0000eae4:    d019        ..      BEQ      0xeb1a ; am_hal_uart_configure + 438
        0x0000eae6:    f8849028    ..(.    STRB     r9,[r4,#0x28]
        0x0000eaea:    f04f0201    O...    MOV      r2,#1
        0x0000eaee:    f104002c    ..,.    ADD      r0,r4,#0x2c
        0x0000eaf2:    f7fffe1f    ....    BL       am_hal_queue_init ; 0xe734
        0x0000eaf6:    6820         h      LDR      r0,[r4,#0]
        0x0000eaf8:    6a61        aj      LDR      r1,[r4,#0x24]
        0x0000eafa:    f0107f80    ....    TST      r0,#0x1000000
        0x0000eafe:    d054        T.      BEQ      0xebaa ; am_hal_uart_configure + 582
        0x0000eb00:    f020407f     ..@    BIC      r0,r0,#0xff000000
        0x0000eb04:    4540        @E      CMP      r0,r8
        0x0000eb06:    d150        P.      BNE      0xebaa ; am_hal_uart_configure + 582
        0x0000eb08:    0308        ..      LSLS     r0,r1,#12
        0x0000eb0a:    f1004080    ...@    ADD      r0,r0,#0x40000000
        0x0000eb0e:    f50030e0    ...0    ADD      r0,r0,#0x1c000
        0x0000eb12:    6b81        .k      LDR      r1,[r0,#0x38]
        0x0000eb14:    f0410120    A. .    ORR      r1,r1,#0x20
        0x0000eb18:    e012        ..      B        0xeb40 ; am_hal_uart_configure + 476
        0x0000eb1a:    f8847028    ..(p    STRB     r7,[r4,#0x28]
        0x0000eb1e:    6820         h      LDR      r0,[r4,#0]
        0x0000eb20:    6a61        aj      LDR      r1,[r4,#0x24]
        0x0000eb22:    f0107f80    ....    TST      r0,#0x1000000
        0x0000eb26:    d040        @.      BEQ      0xebaa ; am_hal_uart_configure + 582
        0x0000eb28:    f020407f     ..@    BIC      r0,r0,#0xff000000
        0x0000eb2c:    4540        @E      CMP      r0,r8
        0x0000eb2e:    d13c        <.      BNE      0xebaa ; am_hal_uart_configure + 582
        0x0000eb30:    0308        ..      LSLS     r0,r1,#12
        0x0000eb32:    f1004080    ...@    ADD      r0,r0,#0x40000000
        0x0000eb36:    f50030e0    ...0    ADD      r0,r0,#0x1c000
        0x0000eb3a:    6b81        .k      LDR      r1,[r0,#0x38]
        0x0000eb3c:    f0210120    !. .    BIC      r1,r1,#0x20
        0x0000eb40:    6381        .c      STR      r1,[r0,#0x38]
        0x0000eb42:    2d00        .-      CMP      r5,#0
        0x0000eb44:    bf18        ..      IT       NE
        0x0000eb46:    2e00        ..      CMPNE    r6,#0
        0x0000eb48:    d01b        ..      BEQ      0xeb82 ; am_hal_uart_configure + 542
        0x0000eb4a:    f8849044    ..D.    STRB     r9,[r4,#0x44]
        0x0000eb4e:    4633        3F      MOV      r3,r6
        0x0000eb50:    f04f0201    O...    MOV      r2,#1
        0x0000eb54:    4629        )F      MOV      r1,r5
        0x0000eb56:    f1040048    ..H.    ADD      r0,r4,#0x48
        0x0000eb5a:    f7fffdeb    ....    BL       am_hal_queue_init ; 0xe734
        0x0000eb5e:    6821        !h      LDR      r1,[r4,#0]
        0x0000eb60:    6a60        `j      LDR      r0,[r4,#0x24]
        0x0000eb62:    f0117f80    ....    TST      r1,#0x1000000
        0x0000eb66:    d020         .      BEQ      0xebaa ; am_hal_uart_configure + 582
        0x0000eb68:    f021417f    !..A    BIC      r1,r1,#0xff000000
        0x0000eb6c:    4541        AE      CMP      r1,r8
        0x0000eb6e:    d11c        ..      BNE      0xebaa ; am_hal_uart_configure + 582
        0x0000eb70:    0300        ..      LSLS     r0,r0,#12
        0x0000eb72:    f1004080    ...@    ADD      r0,r0,#0x40000000
        0x0000eb76:    f50030e0    ...0    ADD      r0,r0,#0x1c000
        0x0000eb7a:    6b81        .k      LDR      r1,[r0,#0x38]
        0x0000eb7c:    f0410150    A.P.    ORR      r1,r1,#0x50
        0x0000eb80:    e012        ..      B        0xeba8 ; am_hal_uart_configure + 580
        0x0000eb82:    f8847044    ..Dp    STRB     r7,[r4,#0x44]
        0x0000eb86:    6821        !h      LDR      r1,[r4,#0]
        0x0000eb88:    6a60        `j      LDR      r0,[r4,#0x24]
        0x0000eb8a:    f0117f80    ....    TST      r1,#0x1000000
        0x0000eb8e:    d00c        ..      BEQ      0xebaa ; am_hal_uart_configure + 582
        0x0000eb90:    f021417f    !..A    BIC      r1,r1,#0xff000000
        0x0000eb94:    4541        AE      CMP      r1,r8
        0x0000eb96:    d108        ..      BNE      0xebaa ; am_hal_uart_configure + 582
        0x0000eb98:    0300        ..      LSLS     r0,r0,#12
        0x0000eb9a:    f1004080    ...@    ADD      r0,r0,#0x40000000
        0x0000eb9e:    f50030e0    ...0    ADD      r0,r0,#0x1c000
        0x0000eba2:    6b81        .k      LDR      r1,[r0,#0x38]
        0x0000eba4:    f0210150    !.P.    BIC      r1,r1,#0x50
        0x0000eba8:    6381        .c      STR      r1,[r0,#0x38]
        0x0000ebaa:    2000        .       MOVS     r0,#0
        0x0000ebac:    e8bd83f8    ....    POP      {r3-r9,pc}
    $d
        0x0000ebb0:    00ea9e06    ....    DCD    15375878
        0x0000ebb4:    40020000    ...@    DCD    1073872896
        0x0000ebb8:    08000003    ....    DCD    134217731
        0x0000ebbc:    0016e360    `...    DCD    1500000
        0x0000ebc0:    016e3600    .6n.    DCD    24000000
        0x0000ebc4:    00b71b00    ....    DCD    12000000
        0x0000ebc8:    005b8d80    ..[.    DCD    6000000
        0x0000ebcc:    08000002    ....    DCD    134217730
        0x0000ebd0:    002dc6c0    ..-.    DCD    3000000
    $t
    i.am_hal_uart_initialize
    am_hal_uart_initialize
        0x0000ebd4:    2802        .(      CMP      r0,#2
        0x0000ebd6:    bf24        $.      ITT      CS
        0x0000ebd8:    2005        .       MOVCS    r0,#5
        0x0000ebda:    4770        pG      BXCS     lr
        0x0000ebdc:    2900        .)      CMP      r1,#0
        0x0000ebde:    bf04        ..      ITT      EQ
        0x0000ebe0:    2006        .       MOVEQ    r0,#6
        0x0000ebe2:    4770        pG      BXEQ     lr
        0x0000ebe4:    b410        ..      PUSH     {r4}
        0x0000ebe6:    eb000280    ....    ADD      r2,r0,r0,LSL #2
        0x0000ebea:    eb0203c0    ....    ADD      r3,r2,r0,LSL #3
        0x0000ebee:    4a0c        .J      LDR      r2,[pc,#48] ; [0xec20] = 0x1000452c
        0x0000ebf0:    f852c033    R.3.    LDR      r12,[r2,r3,LSL #3]
        0x0000ebf4:    f01c7f80    ....    TST      r12,#0x1000000
        0x0000ebf8:    bf1e        ..      ITTT     NE
        0x0000ebfa:    2007        .       MOVNE    r0,#7
        0x0000ebfc:    bc10        ..      POPNE    {r4}
        0x0000ebfe:    4770        pG      BXNE     lr
        0x0000ec00:    f04c7c80    L..|    ORR      r12,r12,#0x1000000
        0x0000ec04:    4c07        .L      LDR      r4,[pc,#28] ; [0xec24] = 0xea9e06
        0x0000ec06:    f3640c17    d...    BFI      r12,r4,#0,#24
        0x0000ec0a:    f842c033    B.3.    STR      r12,[r2,r3,LSL #3]
        0x0000ec0e:    eb0202c3    ....    ADD      r2,r2,r3,LSL #3
        0x0000ec12:    6250        Pb      STR      r0,[r2,#0x24]
        0x0000ec14:    2000        .       MOVS     r0,#0
        0x0000ec16:    7110        .q      STRB     r0,[r2,#4]
        0x0000ec18:    6610        .f      STR      r0,[r2,#0x60]
        0x0000ec1a:    600a        .`      STR      r2,[r1,#0]
        0x0000ec1c:    bc10        ..      POP      {r4}
        0x0000ec1e:    4770        pG      BX       lr
    $d
        0x0000ec20:    1000452c    ,E..    DCD    268453164
        0x0000ec24:    00ea9e06    ....    DCD    15375878
    $t
    i.am_hal_uart_interrupt_clear
    am_hal_uart_interrupt_clear
        0x0000ec28:    6a42        Bj      LDR      r2,[r0,#0x24]
        0x0000ec2a:    2800        .(      CMP      r0,#0
        0x0000ec2c:    bf1c        ..      ITT      NE
        0x0000ec2e:    6800        .h      LDRNE    r0,[r0,#0]
        0x0000ec30:    f0107f80    ....    TSTNE    r0,#0x1000000
        0x0000ec34:    d004        ..      BEQ      0xec40 ; am_hal_uart_interrupt_clear + 24
        0x0000ec36:    4b07        .K      LDR      r3,[pc,#28] ; [0xec54] = 0xea9e06
        0x0000ec38:    f020407f     ..@    BIC      r0,r0,#0xff000000
        0x0000ec3c:    4298        .B      CMP      r0,r3
        0x0000ec3e:    d001        ..      BEQ      0xec44 ; am_hal_uart_interrupt_clear + 28
        0x0000ec40:    2002        .       MOVS     r0,#2
        0x0000ec42:    4770        pG      BX       lr
        0x0000ec44:    0310        ..      LSLS     r0,r2,#12
        0x0000ec46:    f1004080    ...@    ADD      r0,r0,#0x40000000
        0x0000ec4a:    f50030e0    ...0    ADD      r0,r0,#0x1c000
        0x0000ec4e:    6441        Ad      STR      r1,[r0,#0x44]
        0x0000ec50:    2000        .       MOVS     r0,#0
        0x0000ec52:    4770        pG      BX       lr
    $d
        0x0000ec54:    00ea9e06    ....    DCD    15375878
    $t
    i.am_hal_uart_interrupt_enable
    am_hal_uart_interrupt_enable
        0x0000ec58:    6a42        Bj      LDR      r2,[r0,#0x24]
        0x0000ec5a:    2800        .(      CMP      r0,#0
        0x0000ec5c:    bf1c        ..      ITT      NE
        0x0000ec5e:    6800        .h      LDRNE    r0,[r0,#0]
        0x0000ec60:    f0107f80    ....    TSTNE    r0,#0x1000000
        0x0000ec64:    d004        ..      BEQ      0xec70 ; am_hal_uart_interrupt_enable + 24
        0x0000ec66:    4b08        .K      LDR      r3,[pc,#32] ; [0xec88] = 0xea9e06
        0x0000ec68:    f020407f     ..@    BIC      r0,r0,#0xff000000
        0x0000ec6c:    4298        .B      CMP      r0,r3
        0x0000ec6e:    d001        ..      BEQ      0xec74 ; am_hal_uart_interrupt_enable + 28
        0x0000ec70:    2002        .       MOVS     r0,#2
        0x0000ec72:    4770        pG      BX       lr
        0x0000ec74:    0310        ..      LSLS     r0,r2,#12
        0x0000ec76:    f1004080    ...@    ADD      r0,r0,#0x40000000
        0x0000ec7a:    f50030e0    ...0    ADD      r0,r0,#0x1c000
        0x0000ec7e:    6b82        .k      LDR      r2,[r0,#0x38]
        0x0000ec80:    4311        .C      ORRS     r1,r1,r2
        0x0000ec82:    6381        .c      STR      r1,[r0,#0x38]
        0x0000ec84:    2000        .       MOVS     r0,#0
        0x0000ec86:    4770        pG      BX       lr
    $d
        0x0000ec88:    00ea9e06    ....    DCD    15375878
    $t
    i.am_hal_uart_interrupt_service
    am_hal_uart_interrupt_service
        0x0000ec8c:    e92d4ff0    -..O    PUSH     {r4-r11,lr}
        0x0000ec90:    0004        ..      MOVS     r4,r0
        0x0000ec92:    b08b        ..      SUB      sp,sp,#0x2c
        0x0000ec94:    f8d48024    ..$.    LDR      r8,[r4,#0x24]
        0x0000ec98:    4617        .F      MOV      r7,r2
        0x0000ec9a:    4689        .F      MOV      r9,r1
        0x0000ec9c:    4606        .F      MOV      r6,r0
        0x0000ec9e:    bf1c        ..      ITT      NE
        0x0000eca0:    6820         h      LDRNE    r0,[r4,#0]
        0x0000eca2:    f0107f80    ....    TSTNE    r0,#0x1000000
        0x0000eca6:    d004        ..      BEQ      0xecb2 ; am_hal_uart_interrupt_service + 38
        0x0000eca8:    4951        QI      LDR      r1,[pc,#324] ; [0xedf0] = 0xea9e06
        0x0000ecaa:    f020407f     ..@    BIC      r0,r0,#0xff000000
        0x0000ecae:    4288        .B      CMP      r0,r1
        0x0000ecb0:    d004        ..      BEQ      0xecbc ; am_hal_uart_interrupt_service + 48
        0x0000ecb2:    b00b        ..      ADD      sp,sp,#0x2c
        0x0000ecb4:    f04f0002    O...    MOV      r0,#2
        0x0000ecb8:    e8bd8ff0    ....    POP      {r4-r11,pc}
        0x0000ecbc:    f0190f50    ..P.    TST      r9,#0x50
        0x0000ecc0:    bf1c        ..      ITT      NE
        0x0000ecc2:    f8960044    ..D.    LDRBNE   r0,[r6,#0x44]
        0x0000ecc6:    2800        .(      CMPNE    r0,#0
        0x0000ecc8:    d032        2.      BEQ      0xed30 ; am_hal_uart_interrupt_service + 164
        0x0000ecca:    f7fdfabd    ....    BL       am_hal_interrupt_master_disable ; 0xc248
        0x0000ecce:    9008        ..      STR      r0,[sp,#0x20]
        0x0000ecd0:    2000        .       MOVS     r0,#0
        0x0000ecd2:    6a61        aj      LDR      r1,[r4,#0x24]
        0x0000ecd4:    2320         #      MOVS     r3,#0x20
        0x0000ecd6:    0309        ..      LSLS     r1,r1,#12
        0x0000ecd8:    f1014180    ...A    ADD      r1,r1,#0x40000000
        0x0000ecdc:    46ec        .F      MOV      r12,sp
        0x0000ecde:    f10d0a24    ..$.    ADD      r10,sp,#0x24
        0x0000ece2:    4605        .F      MOV      r5,r0
        0x0000ece4:    f50131e0    ...1    ADD      r1,r1,#0x1c000
        0x0000ece8:    698a        .i      LDR      r2,[r1,#0x18]
        0x0000ecea:    f0120f10    ....    TST      r2,#0x10
        0x0000ecee:    d10c        ..      BNE      0xed0a ; am_hal_uart_interrupt_service + 126
        0x0000ecf0:    680a        .h      LDR      r2,[r1,#0]
        0x0000ecf2:    f4126f70    ..po    TST      r2,#0xf00
        0x0000ecf6:    d002        ..      BEQ      0xecfe ; am_hal_uart_interrupt_service + 114
        0x0000ecf8:    f04f6500    O..e    MOV      r5,#0x8000000
        0x0000ecfc:    e005        ..      B        0xed0a ; am_hal_uart_interrupt_service + 126
        0x0000ecfe:    f80c2000    ...     STRB     r2,[r12,r0]
        0x0000ed02:    f1000001    ....    ADD      r0,r0,#1
        0x0000ed06:    4298        .B      CMP      r0,r3
        0x0000ed08:    d3ee        ..      BCC      0xece8 ; am_hal_uart_interrupt_service + 92
        0x0000ed0a:    f1ba0f00    ....    CMP      r10,#0
        0x0000ed0e:    bf18        ..      IT       NE
        0x0000ed10:    9009        ..      STRNE    r0,[sp,#0x24]
        0x0000ed12:    b11d        ..      CBZ      r5,0xed1c ; am_hal_uart_interrupt_service + 144
        0x0000ed14:    9808        ..      LDR      r0,[sp,#0x20]
        0x0000ed16:    f7fdfa9b    ....    BL       am_hal_interrupt_master_set ; 0xc250
        0x0000ed1a:    e024        $.      B        0xed66 ; am_hal_uart_interrupt_service + 218
        0x0000ed1c:    4661        aF      MOV      r1,r12
        0x0000ed1e:    f1040048    ..H.    ADD      r0,r4,#0x48
        0x0000ed22:    9a09        ..      LDR      r2,[sp,#0x24]
        0x0000ed24:    f7fffd11    ....    BL       am_hal_queue_item_add ; 0xe74a
        0x0000ed28:    b1c8        ..      CBZ      r0,0xed5e ; am_hal_uart_interrupt_service + 210
        0x0000ed2a:    9808        ..      LDR      r0,[sp,#0x20]
        0x0000ed2c:    f7fdfa90    ....    BL       am_hal_interrupt_master_set ; 0xc250
        0x0000ed30:    f0190f20    .. .    TST      r9,#0x20
        0x0000ed34:    f04f0900    O...    MOV      r9,#0
        0x0000ed38:    bf1c        ..      ITT      NE
        0x0000ed3a:    f8960028    ..(.    LDRBNE   r0,[r6,#0x28]
        0x0000ed3e:    2800        .(      CMPNE    r0,#0
        0x0000ed40:    d030        0.      BEQ      0xeda4 ; am_hal_uart_interrupt_service + 280
        0x0000ed42:    6a65        ej      LDR      r5,[r4,#0x24]
        0x0000ed44:    f7fdfa80    ....    BL       am_hal_interrupt_master_disable ; 0xc248
        0x0000ed48:    9001        ..      STR      r0,[sp,#4]
        0x0000ed4a:    0328        (.      LSLS     r0,r5,#12
        0x0000ed4c:    f1004580    ...E    ADD      r5,r0,#0x40000000
        0x0000ed50:    f50535e0    ...5    ADD      r5,r5,#0x1c000
        0x0000ed54:    69a8        .i      LDR      r0,[r5,#0x18]
        0x0000ed56:    f0100f20    .. .    TST      r0,#0x20
        0x0000ed5a:    d008        ..      BEQ      0xed6e ; am_hal_uart_interrupt_service + 226
        0x0000ed5c:    e01f        ..      B        0xed9e ; am_hal_uart_interrupt_service + 274
        0x0000ed5e:    4d25        %M      LDR      r5,[pc,#148] ; [0xedf4] = 0x8000001
        0x0000ed60:    9808        ..      LDR      r0,[sp,#0x20]
        0x0000ed62:    f7fdfa75    ..u.    BL       am_hal_interrupt_master_set ; 0xc250
        0x0000ed66:    b00b        ..      ADD      sp,sp,#0x2c
        0x0000ed68:    4628        (F      MOV      r0,r5
        0x0000ed6a:    e8bd8ff0    ....    POP      {r4-r11,pc}
        0x0000ed6e:    2201        ."      MOVS     r2,#1
        0x0000ed70:    4669        iF      MOV      r1,sp
        0x0000ed72:    f104002c    ..,.    ADD      r0,r4,#0x2c
        0x0000ed76:    f7fffd3a    ..:.    BL       am_hal_queue_item_get ; 0xe7ee
        0x0000ed7a:    b180        ..      CBZ      r0,0xed9e ; am_hal_uart_interrupt_service + 274
        0x0000ed7c:    6a60        `j      LDR      r0,[r4,#0x24]
        0x0000ed7e:    0300        ..      LSLS     r0,r0,#12
        0x0000ed80:    f1004080    ...@    ADD      r0,r0,#0x40000000
        0x0000ed84:    f50030e0    ...0    ADD      r0,r0,#0x1c000
        0x0000ed88:    6981        .i      LDR      r1,[r0,#0x18]
        0x0000ed8a:    f0110f20    .. .    TST      r1,#0x20
        0x0000ed8e:    bf04        ..      ITT      EQ
        0x0000ed90:    f89d1000    ....    LDRBEQ   r1,[sp,#0]
        0x0000ed94:    6001        .`      STREQ    r1,[r0,#0]
        0x0000ed96:    69a8        .i      LDR      r0,[r5,#0x18]
        0x0000ed98:    f0100f20    .. .    TST      r0,#0x20
        0x0000ed9c:    d0e7        ..      BEQ      0xed6e ; am_hal_uart_interrupt_service + 226
        0x0000ed9e:    9801        ..      LDR      r0,[sp,#4]
        0x0000eda0:    f7fdfa56    ..V.    BL       am_hal_interrupt_master_set ; 0xc250
        0x0000eda4:    b1ef        ..      CBZ      r7,0xede2 ; am_hal_uart_interrupt_service + 342
        0x0000eda6:    f8961028    ..(.    LDRB     r1,[r6,#0x28]
        0x0000edaa:    2001        .       MOVS     r0,#1
        0x0000edac:    b161        a.      CBZ      r1,0xedc8 ; am_hal_uart_interrupt_service + 316
        0x0000edae:    6b71        qk      LDR      r1,[r6,#0x34]
        0x0000edb0:    b9b9        ..      CBNZ     r1,0xede2 ; am_hal_uart_interrupt_service + 342
        0x0000edb2:    ea4f3108    O..1    LSL      r1,r8,#12
        0x0000edb6:    f1014180    ...A    ADD      r1,r1,#0x40000000
        0x0000edba:    f50131e0    ...1    ADD      r1,r1,#0x1c000
        0x0000edbe:    6989        .i      LDR      r1,[r1,#0x18]
        0x0000edc0:    f0110f08    ....    TST      r1,#8
        0x0000edc4:    d10d        ..      BNE      0xede2 ; am_hal_uart_interrupt_service + 342
        0x0000edc6:    e011        ..      B        0xedec ; am_hal_uart_interrupt_service + 352
        0x0000edc8:    ea4f3108    O..1    LSL      r1,r8,#12
        0x0000edcc:    f1014180    ...A    ADD      r1,r1,#0x40000000
        0x0000edd0:    f50131e0    ...1    ADD      r1,r1,#0x1c000
        0x0000edd4:    6989        .i      LDR      r1,[r1,#0x18]
        0x0000edd6:    f0110f08    ....    TST      r1,#8
        0x0000edda:    bf18        ..      IT       NE
        0x0000eddc:    f8c79000    ....    STRNE    r9,[r7,#0]
        0x0000ede0:    d004        ..      BEQ      0xedec ; am_hal_uart_interrupt_service + 352
        0x0000ede2:    b00b        ..      ADD      sp,sp,#0x2c
        0x0000ede4:    f04f0000    O...    MOV      r0,#0
        0x0000ede8:    e8bd8ff0    ....    POP      {r4-r11,pc}
        0x0000edec:    6038        8`      STR      r0,[r7,#0]
        0x0000edee:    e7f8        ..      B        0xede2 ; am_hal_uart_interrupt_service + 342
    $d
        0x0000edf0:    00ea9e06    ....    DCD    15375878
        0x0000edf4:    08000001    ....    DCD    134217729
    $t
    i.am_hal_uart_interrupt_status_get
    am_hal_uart_interrupt_status_get
        0x0000edf8:    6a43        Cj      LDR      r3,[r0,#0x24]
        0x0000edfa:    2800        .(      CMP      r0,#0
        0x0000edfc:    bf1c        ..      ITT      NE
        0x0000edfe:    6800        .h      LDRNE    r0,[r0,#0]
        0x0000ee00:    f0107f80    ....    TSTNE    r0,#0x1000000
        0x0000ee04:    d005        ..      BEQ      0xee12 ; am_hal_uart_interrupt_status_get + 26
        0x0000ee06:    f8dfc028    ..(.    LDR      r12,[pc,#40] ; [0xee30] = 0xea9e06
        0x0000ee0a:    f020407f     ..@    BIC      r0,r0,#0xff000000
        0x0000ee0e:    4560        `E      CMP      r0,r12
        0x0000ee10:    d001        ..      BEQ      0xee16 ; am_hal_uart_interrupt_status_get + 30
        0x0000ee12:    2002        .       MOVS     r0,#2
        0x0000ee14:    4770        pG      BX       lr
        0x0000ee16:    ea4f3003    O..0    LSL      r0,r3,#12
        0x0000ee1a:    f1004080    ...@    ADD      r0,r0,#0x40000000
        0x0000ee1e:    2a00        .*      CMP      r2,#0
        0x0000ee20:    f50030e0    ...0    ADD      r0,r0,#0x1c000
        0x0000ee24:    bf14        ..      ITE      NE
        0x0000ee26:    6c00        .l      LDRNE    r0,[r0,#0x40]
        0x0000ee28:    6bc0        .k      LDREQ    r0,[r0,#0x3c]
        0x0000ee2a:    6008        .`      STR      r0,[r1,#0]
        0x0000ee2c:    2000        .       MOVS     r0,#0
        0x0000ee2e:    4770        pG      BX       lr
    $d
        0x0000ee30:    00ea9e06    ....    DCD    15375878
    $t
    i.am_hal_uart_power_control
    am_hal_uart_power_control
        0x0000ee34:    e92d43f8    -..C    PUSH     {r3-r9,lr}
        0x0000ee38:    6a45        Ej      LDR      r5,[r0,#0x24]
        0x0000ee3a:    1e04        ..      SUBS     r4,r0,#0
        0x0000ee3c:    f1050308    ....    ADD      r3,r5,#8
        0x0000ee40:    f00308ff    ....    AND      r8,r3,#0xff
        0x0000ee44:    bf1c        ..      ITT      NE
        0x0000ee46:    6820         h      LDRNE    r0,[r4,#0]
        0x0000ee48:    f0107f80    ....    TSTNE    r0,#0x1000000
        0x0000ee4c:    d004        ..      BEQ      0xee58 ; am_hal_uart_power_control + 36
        0x0000ee4e:    4f39        9O      LDR      r7,[pc,#228] ; [0xef34] = 0xea9e06
        0x0000ee50:    f020407f     ..@    BIC      r0,r0,#0xff000000
        0x0000ee54:    42b8        .B      CMP      r0,r7
        0x0000ee56:    d002        ..      BEQ      0xee5e ; am_hal_uart_power_control + 42
        0x0000ee58:    2002        .       MOVS     r0,#2
        0x0000ee5a:    e8bd83f8    ....    POP      {r3-r9,pc}
        0x0000ee5e:    2600        .&      MOVS     r6,#0
        0x0000ee60:    2900        .)      CMP      r1,#0
        0x0000ee62:    d03e        >.      BEQ      0xeee2 ; am_hal_uart_power_control + 174
        0x0000ee64:    2901        .)      CMP      r1,#1
        0x0000ee66:    bf1e        ..      ITTT     NE
        0x0000ee68:    2902        .)      CMPNE    r1,#2
        0x0000ee6a:    2006        .       MOVNE    r0,#6
        0x0000ee6c:    e8bd83f8    ....    POPNE    {r3-r9,pc}
        0x0000ee70:    b1d2        ..      CBZ      r2,0xeea8 ; am_hal_uart_power_control + 116
        0x0000ee72:    f7fdf9e9    ....    BL       am_hal_interrupt_master_disable ; 0xc248
        0x0000ee76:    9000        ..      STR      r0,[sp,#0]
        0x0000ee78:    0328        (.      LSLS     r0,r5,#12
        0x0000ee7a:    f1004080    ...@    ADD      r0,r0,#0x40000000
        0x0000ee7e:    f50030e0    ...0    ADD      r0,r0,#0x1c000
        0x0000ee82:    6a01        .j      LDR      r1,[r0,#0x20]
        0x0000ee84:    60a1        .`      STR      r1,[r4,#8]
        0x0000ee86:    6a41        Aj      LDR      r1,[r0,#0x24]
        0x0000ee88:    60e1        .`      STR      r1,[r4,#0xc]
        0x0000ee8a:    6a81        .j      LDR      r1,[r0,#0x28]
        0x0000ee8c:    6121        !a      STR      r1,[r4,#0x10]
        0x0000ee8e:    6ac1        .j      LDR      r1,[r0,#0x2c]
        0x0000ee90:    6161        aa      STR      r1,[r4,#0x14]
        0x0000ee92:    6b01        .k      LDR      r1,[r0,#0x30]
        0x0000ee94:    61a1        .a      STR      r1,[r4,#0x18]
        0x0000ee96:    6b41        Ak      LDR      r1,[r0,#0x34]
        0x0000ee98:    61e1        .a      STR      r1,[r4,#0x1c]
        0x0000ee9a:    6b80        .k      LDR      r0,[r0,#0x38]
        0x0000ee9c:    6220         b      STR      r0,[r4,#0x20]
        0x0000ee9e:    2001        .       MOVS     r0,#1
        0x0000eea0:    7120         q      STRB     r0,[r4,#4]
        0x0000eea2:    9800        ..      LDR      r0,[sp,#0]
        0x0000eea4:    f7fdf9d4    ....    BL       am_hal_interrupt_master_set ; 0xc250
        0x0000eea8:    6822        "h      LDR      r2,[r4,#0]
        0x0000eeaa:    6a61        aj      LDR      r1,[r4,#0x24]
        0x0000eeac:    f04f30ff    O..0    MOV      r0,#0xffffffff
        0x0000eeb0:    f0127f80    ....    TST      r2,#0x1000000
        0x0000eeb4:    d009        ..      BEQ      0xeeca ; am_hal_uart_power_control + 150
        0x0000eeb6:    f022427f    "..B    BIC      r2,r2,#0xff000000
        0x0000eeba:    42ba        .B      CMP      r2,r7
        0x0000eebc:    d105        ..      BNE      0xeeca ; am_hal_uart_power_control + 150
        0x0000eebe:    0309        ..      LSLS     r1,r1,#12
        0x0000eec0:    f1014180    ...A    ADD      r1,r1,#0x40000000
        0x0000eec4:    f50131e0    ...1    ADD      r1,r1,#0x1c000
        0x0000eec8:    6448        Hd      STR      r0,[r1,#0x44]
        0x0000eeca:    0328        (.      LSLS     r0,r5,#12
        0x0000eecc:    f1004080    ...@    ADD      r0,r0,#0x40000000
        0x0000eed0:    f50030e0    ...0    ADD      r0,r0,#0x1c000
        0x0000eed4:    6306        .c      STR      r6,[r0,#0x30]
        0x0000eed6:    4640        @F      MOV      r0,r8
        0x0000eed8:    f7fffb96    ....    BL       am_hal_pwrctrl_periph_disable ; 0xe608
        0x0000eedc:    2000        .       MOVS     r0,#0
        0x0000eede:    e8bd83f8    ....    POP      {r3-r9,pc}
        0x0000eee2:    b31a        ..      CBZ      r2,0xef2c ; am_hal_uart_power_control + 248
        0x0000eee4:    7920         y      LDRB     r0,[r4,#4]
        0x0000eee6:    2800        .(      CMP      r0,#0
        0x0000eee8:    bf04        ..      ITT      EQ
        0x0000eeea:    2007        .       MOVEQ    r0,#7
        0x0000eeec:    e8bd83f8    ....    POPEQ    {r3-r9,pc}
        0x0000eef0:    4640        @F      MOV      r0,r8
        0x0000eef2:    f7fffbe7    ....    BL       am_hal_pwrctrl_periph_enable ; 0xe6c4
        0x0000eef6:    f7fdf9a7    ....    BL       am_hal_interrupt_master_disable ; 0xc248
        0x0000eefa:    9000        ..      STR      r0,[sp,#0]
        0x0000eefc:    0328        (.      LSLS     r0,r5,#12
        0x0000eefe:    f1004080    ...@    ADD      r0,r0,#0x40000000
        0x0000ef02:    f50030e0    ...0    ADD      r0,r0,#0x1c000
        0x0000ef06:    68a1        .h      LDR      r1,[r4,#8]
        0x0000ef08:    6201        .b      STR      r1,[r0,#0x20]
        0x0000ef0a:    68e1        .h      LDR      r1,[r4,#0xc]
        0x0000ef0c:    6241        Ab      STR      r1,[r0,#0x24]
        0x0000ef0e:    6921        !i      LDR      r1,[r4,#0x10]
        0x0000ef10:    6281        .b      STR      r1,[r0,#0x28]
        0x0000ef12:    6961        ai      LDR      r1,[r4,#0x14]
        0x0000ef14:    62c1        .b      STR      r1,[r0,#0x2c]
        0x0000ef16:    69a1        .i      LDR      r1,[r4,#0x18]
        0x0000ef18:    6301        .c      STR      r1,[r0,#0x30]
        0x0000ef1a:    69e1        .i      LDR      r1,[r4,#0x1c]
        0x0000ef1c:    6341        Ac      STR      r1,[r0,#0x34]
        0x0000ef1e:    6a21        !j      LDR      r1,[r4,#0x20]
        0x0000ef20:    6381        .c      STR      r1,[r0,#0x38]
        0x0000ef22:    7126        &q      STRB     r6,[r4,#4]
        0x0000ef24:    9800        ..      LDR      r0,[sp,#0]
        0x0000ef26:    f7fdf993    ....    BL       am_hal_interrupt_master_set ; 0xc250
        0x0000ef2a:    e7d7        ..      B        0xeedc ; am_hal_uart_power_control + 168
        0x0000ef2c:    4640        @F      MOV      r0,r8
        0x0000ef2e:    f7fffbc9    ....    BL       am_hal_pwrctrl_periph_enable ; 0xe6c4
        0x0000ef32:    e7d3        ..      B        0xeedc ; am_hal_uart_power_control + 168
    $d
        0x0000ef34:    00ea9e06    ....    DCD    15375878
    $t
    i.am_hal_uart_transfer
    am_hal_uart_transfer
        0x0000ef38:    e92d4ff0    -..O    PUSH     {r4-r11,lr}
        0x0000ef3c:    680a        .h      LDR      r2,[r1,#0]
        0x0000ef3e:    b09f        ..      SUB      sp,sp,#0x7c
        0x0000ef40:    460b        .F      MOV      r3,r1
        0x0000ef42:    b1aa        ..      CBZ      r2,0xef70 ; am_hal_uart_transfer + 56
        0x0000ef44:    2a01        .*      CMP      r2,#1
        0x0000ef46:    bf1e        ..      ITTT     NE
        0x0000ef48:    2007        .       MOVNE    r0,#7
        0x0000ef4a:    b01f        ..      ADDNE    sp,sp,#0x7c
        0x0000ef4c:    e8bd8ff0    ....    POPNE    {r4-r11,pc}
        0x0000ef50:    4604        .F      MOV      r4,r0
        0x0000ef52:    e9d3a201    ....    LDRD     r10,r2,[r3,#4]
        0x0000ef56:    f8d1900c    ....    LDR      r9,[r1,#0xc]
        0x0000ef5a:    691f        .i      LDR      r7,[r3,#0x10]
        0x0000ef5c:    f1b90f00    ....    CMP      r9,#0
        0x0000ef60:    d076        v.      BEQ      0xf050 ; am_hal_uart_transfer + 280
        0x0000ef62:    2600        .&      MOVS     r6,#0
        0x0000ef64:    0015        ..      MOVS     r5,r2
        0x0000ef66:    46b0        .F      MOV      r8,r6
        0x0000ef68:    f0008173    ..s.    BEQ.W    0xf252 ; am_hal_uart_transfer + 794
        0x0000ef6c:    f000b96e    ..n.    B.W      0xf24c ; am_hal_uart_transfer + 788
        0x0000ef70:    4604        .F      MOV      r4,r0
        0x0000ef72:    6858        Xh      LDR      r0,[r3,#4]
        0x0000ef74:    9001        ..      STR      r0,[sp,#4]
        0x0000ef76:    689a        .h      LDR      r2,[r3,#8]
        0x0000ef78:    2600        .&      MOVS     r6,#0
        0x0000ef7a:    f8d1900c    ....    LDR      r9,[r1,#0xc]
        0x0000ef7e:    691f        .i      LDR      r7,[r3,#0x10]
        0x0000ef80:    4615        .F      MOV      r5,r2
        0x0000ef82:    46b0        .F      MOV      r8,r6
        0x0000ef84:    f1b90f00    ....    CMP      r9,#0
        0x0000ef88:    d019        ..      BEQ      0xefbe ; am_hal_uart_transfer + 134
        0x0000ef8a:    2d00        .-      CMP      r5,#0
        0x0000ef8c:    d07e        ~.      BEQ      0xf08c ; am_hal_uart_transfer + 340
        0x0000ef8e:    45c8        .E      CMP      r8,r9
        0x0000ef90:    d27c        |.      BCS      0xf08c ; am_hal_uart_transfer + 340
        0x0000ef92:    2000        .       MOVS     r0,#0
        0x0000ef94:    9901        ..      LDR      r1,[sp,#4]
        0x0000ef96:    ab07        ..      ADD      r3,sp,#0x1c
        0x0000ef98:    9007        ..      STR      r0,[sp,#0x1c]
        0x0000ef9a:    f1b40a00    ....    SUBS     r10,r4,#0
        0x0000ef9e:    4431        1D      ADD      r1,r1,r6
        0x0000efa0:    462a        *F      MOV      r2,r5
        0x0000efa2:    930d        ..      STR      r3,[sp,#0x34]
        0x0000efa4:    bf1c        ..      ITT      NE
        0x0000efa6:    f8da3000    ...0    LDRNE    r3,[r10,#0]
        0x0000efaa:    f0137f80    ....    TSTNE    r3,#0x1000000
        0x0000efae:    d004        ..      BEQ      0xefba ; am_hal_uart_transfer + 130
        0x0000efb0:    f0234c7f    #..L    BIC      r12,r3,#0xff000000
        0x0000efb4:    4bb3        .K      LDR      r3,[pc,#716] ; [0xf284] = 0xea9e06
        0x0000efb6:    459c        .E      CMP      r12,r3
        0x0000efb8:    d009        ..      BEQ      0xefce ; am_hal_uart_transfer + 150
        0x0000efba:    2102        .!      MOVS     r1,#2
        0x0000efbc:    e075        u.      B        0xf0aa ; am_hal_uart_transfer + 370
        0x0000efbe:    4601        .F      MOV      r1,r0
        0x0000efc0:    463b        ;F      MOV      r3,r7
        0x0000efc2:    4620         F      MOV      r0,r4
        0x0000efc4:    f001fbe4    ....    BL       write_nonblocking ; 0x10790
        0x0000efc8:    b01f        ..      ADD      sp,sp,#0x7c
        0x0000efca:    e8bd8ff0    ....    POP      {r4-r11,pc}
        0x0000efce:    2000        .       MOVS     r0,#0
        0x0000efd0:    9007        ..      STR      r0,[sp,#0x1c]
        0x0000efd2:    2a00        .*      CMP      r2,#0
        0x0000efd4:    d068        h.      BEQ      0xf0a8 ; am_hal_uart_transfer + 368
        0x0000efd6:    f8940028    ..(.    LDRB     r0,[r4,#0x28]
        0x0000efda:    b3c0        ..      CBZ      r0,0xf04e ; am_hal_uart_transfer + 278
        0x0000efdc:    e9d4030d    ....    LDRD     r0,r3,[r4,#0x34]
        0x0000efe0:    1a18        ..      SUBS     r0,r3,r0
        0x0000efe2:    4282        .B      CMP      r2,r0
        0x0000efe4:    bf28        (.      IT       CS
        0x0000efe6:    4602        .F      MOVCS    r2,r0
        0x0000efe8:    f104002c    ..,.    ADD      r0,r4,#0x2c
        0x0000efec:    920a        ..      STR      r2,[sp,#0x28]
        0x0000efee:    f7fffbac    ....    BL       am_hal_queue_item_add ; 0xe74a
        0x0000eff2:    f8dab024    ..$.    LDR      r11,[r10,#0x24]
        0x0000eff6:    f7fdf927    ..'.    BL       am_hal_interrupt_master_disable ; 0xc248
        0x0000effa:    900e        ..      STR      r0,[sp,#0x38]
        0x0000effc:    ea4f300b    O..0    LSL      r0,r11,#12
        0x0000f000:    f1004b80    ...K    ADD      r11,r0,#0x40000000
        0x0000f004:    f50b3be0    ...;    ADD      r11,r11,#0x1c000
        0x0000f008:    f8db0018    ....    LDR      r0,[r11,#0x18]
        0x0000f00c:    f0100f20    .. .    TST      r0,#0x20
        0x0000f010:    d119        ..      BNE      0xf046 ; am_hal_uart_transfer + 270
        0x0000f012:    2201        ."      MOVS     r2,#1
        0x0000f014:    a902        ..      ADD      r1,sp,#8
        0x0000f016:    f10a002c    ..,.    ADD      r0,r10,#0x2c
        0x0000f01a:    f7fffbe8    ....    BL       am_hal_queue_item_get ; 0xe7ee
        0x0000f01e:    b190        ..      CBZ      r0,0xf046 ; am_hal_uart_transfer + 270
        0x0000f020:    f8da0024    ..$.    LDR      r0,[r10,#0x24]
        0x0000f024:    0300        ..      LSLS     r0,r0,#12
        0x0000f026:    f1004180    ...A    ADD      r1,r0,#0x40000000
        0x0000f02a:    f50131e0    ...1    ADD      r1,r1,#0x1c000
        0x0000f02e:    6988        .i      LDR      r0,[r1,#0x18]
        0x0000f030:    f0100f20    .. .    TST      r0,#0x20
        0x0000f034:    bf04        ..      ITT      EQ
        0x0000f036:    f89d0008    ....    LDRBEQ   r0,[sp,#8]
        0x0000f03a:    6008        .`      STREQ    r0,[r1,#0]
        0x0000f03c:    f8db0018    ....    LDR      r0,[r11,#0x18]
        0x0000f040:    f0100f20    .. .    TST      r0,#0x20
        0x0000f044:    d0e5        ..      BEQ      0xf012 ; am_hal_uart_transfer + 218
        0x0000f046:    980e        ..      LDR      r0,[sp,#0x38]
        0x0000f048:    f7fdf902    ....    BL       am_hal_interrupt_master_set ; 0xc250
        0x0000f04c:    e027        '.      B        0xf09e ; am_hal_uart_transfer + 358
        0x0000f04e:    e000        ..      B        0xf052 ; am_hal_uart_transfer + 282
        0x0000f050:    e046        F.      B        0xf0e0 ; am_hal_uart_transfer + 424
        0x0000f052:    4653        SF      MOV      r3,r10
        0x0000f054:    2000        .       MOVS     r0,#0
        0x0000f056:    f8d3c024    ..$.    LDR      r12,[r3,#0x24]
        0x0000f05a:    f10d0a28    ..(.    ADD      r10,sp,#0x28
        0x0000f05e:    f1b24f00    ...O    CMP      r2,#0x80000000
        0x0000f062:    f08080fb    ....    BCS.W    0xf25c ; am_hal_uart_transfer + 804
        0x0000f066:    2301        .#      MOVS     r3,#1
        0x0000f068:    2a01        .*      CMP      r2,#1
        0x0000f06a:    db14        ..      BLT      0xf096 ; am_hal_uart_transfer + 350
        0x0000f06c:    ea4f3c0c    O..<    LSL      r12,r12,#12
        0x0000f070:    f10c4c80    ...L    ADD      r12,r12,#0x40000000
        0x0000f074:    f50c3ce0    ...<    ADD      r12,r12,#0x1c000
        0x0000f078:    f8dcb018    ....    LDR      r11,[r12,#0x18]
        0x0000f07c:    f01b0f20    .. .    TST      r11,#0x20
        0x0000f080:    d109        ..      BNE      0xf096 ; am_hal_uart_transfer + 350
        0x0000f082:    f811b000    ....    LDRB     r11,[r1,r0]
        0x0000f086:    f8ccb000    ....    STR      r11,[r12,#0]
        0x0000f08a:    e000        ..      B        0xf08e ; am_hal_uart_transfer + 342
        0x0000f08c:    e022        ".      B        0xf0d4 ; am_hal_uart_transfer + 412
        0x0000f08e:    1c40        @.      ADDS     r0,r0,#1
        0x0000f090:    1c5b        [.      ADDS     r3,r3,#1
        0x0000f092:    4293        .B      CMP      r3,r2
        0x0000f094:    ddf0        ..      BLE      0xf078 ; am_hal_uart_transfer + 320
        0x0000f096:    f1ba0f00    ....    CMP      r10,#0
        0x0000f09a:    bf18        ..      IT       NE
        0x0000f09c:    900a        ..      STRNE    r0,[sp,#0x28]
        0x0000f09e:    980d        ..      LDR      r0,[sp,#0x34]
        0x0000f0a0:    2800        .(      CMP      r0,#0
        0x0000f0a2:    bf1c        ..      ITT      NE
        0x0000f0a4:    980a        ..      LDRNE    r0,[sp,#0x28]
        0x0000f0a6:    9007        ..      STRNE    r0,[sp,#0x1c]
        0x0000f0a8:    2100        .!      MOVS     r1,#0
        0x0000f0aa:    9807        ..      LDR      r0,[sp,#0x1c]
        0x0000f0ac:    4406        .D      ADD      r6,r6,r0
        0x0000f0ae:    1a2d        -.      SUBS     r5,r5,r0
        0x0000f0b0:    b131        1.      CBZ      r1,0xf0c0 ; am_hal_uart_transfer + 392
        0x0000f0b2:    2f00        ./      CMP      r7,#0
        0x0000f0b4:    bf18        ..      IT       NE
        0x0000f0b6:    603e        >`      STRNE    r6,[r7,#0]
        0x0000f0b8:    4608        .F      MOV      r0,r1
        0x0000f0ba:    b01f        ..      ADD      sp,sp,#0x7c
        0x0000f0bc:    e8bd8ff0    ....    POP      {r4-r11,pc}
        0x0000f0c0:    b145        E.      CBZ      r5,0xf0d4 ; am_hal_uart_transfer + 412
        0x0000f0c2:    2010        .       MOVS     r0,#0x10
        0x0000f0c4:    f7fefefa    ....    BL       am_hal_flash_delay ; 0xdebc
        0x0000f0c8:    f1b93fff    ...?    CMP      r9,#0xffffffff
        0x0000f0cc:    bf18        ..      IT       NE
        0x0000f0ce:    f1080801    ....    ADDNE    r8,r8,#1
        0x0000f0d2:    e75c        \.      B        0xef8e ; am_hal_uart_transfer + 86
        0x0000f0d4:    2f00        ./      CMP      r7,#0
        0x0000f0d6:    d17d        }.      BNE      0xf1d4 ; am_hal_uart_transfer + 668
        0x0000f0d8:    b01f        ..      ADD      sp,sp,#0x7c
        0x0000f0da:    2000        .       MOVS     r0,#0
        0x0000f0dc:    e8bd8ff0    ....    POP      {r4-r11,pc}
        0x0000f0e0:    463b        ;F      MOV      r3,r7
        0x0000f0e2:    4651        QF      MOV      r1,r10
        0x0000f0e4:    f001fa36    ..6.    BL       read_nonblocking ; 0x10554
        0x0000f0e8:    b01f        ..      ADD      sp,sp,#0x7c
        0x0000f0ea:    e8bd8ff0    ....    POP      {r4-r11,pc}
        0x0000f0ee:    bf00        ..      NOP      
        0x0000f0f0:    f04f0b00    O...    MOV      r11,#0
        0x0000f0f4:    eb0a0006    ....    ADD      r0,r10,r6
        0x0000f0f8:    f8cdb01c    ....    STR      r11,[sp,#0x1c]
        0x0000f0fc:    9002        ..      STR      r0,[sp,#8]
        0x0000f0fe:    a807        ..      ADD      r0,sp,#0x1c
        0x0000f100:    900f        ..      STR      r0,[sp,#0x3c]
        0x0000f102:    2c00        .,      CMP      r4,#0
        0x0000f104:    bf1c        ..      ITT      NE
        0x0000f106:    6820         h      LDRNE    r0,[r4,#0]
        0x0000f108:    f0107f80    ....    TSTNE    r0,#0x1000000
        0x0000f10c:    d004        ..      BEQ      0xf118 ; am_hal_uart_transfer + 480
        0x0000f10e:    f020417f     ..A    BIC      r1,r0,#0xff000000
        0x0000f112:    485c        \H      LDR      r0,[pc,#368] ; [0xf284] = 0xea9e06
        0x0000f114:    4281        .B      CMP      r1,r0
        0x0000f116:    d002        ..      BEQ      0xf11e ; am_hal_uart_transfer + 486
        0x0000f118:    f04f0b02    O...    MOV      r11,#2
        0x0000f11c:    e052        R.      B        0xf1c4 ; am_hal_uart_transfer + 652
        0x0000f11e:    b3ad        ..      CBZ      r5,0xf18c ; am_hal_uart_transfer + 596
        0x0000f120:    f8940044    ..D.    LDRB     r0,[r4,#0x44]
        0x0000f124:    b398        ..      CBZ      r0,0xf18e ; am_hal_uart_transfer + 598
        0x0000f126:    46a3        .F      MOV      r11,r4
        0x0000f128:    941c        ..      STR      r4,[sp,#0x70]
        0x0000f12a:    f7fdf88d    ....    BL       am_hal_interrupt_master_disable ; 0xc248
        0x0000f12e:    f04f0c00    O...    MOV      r12,#0
        0x0000f132:    f8cdc06c    ..l.    STR      r12,[sp,#0x6c]
        0x0000f136:    9018        ..      STR      r0,[sp,#0x60]
        0x0000f138:    f8db0024    ..$.    LDR      r0,[r11,#0x24]
        0x0000f13c:    2220         "      MOVS     r2,#0x20
        0x0000f13e:    0300        ..      LSLS     r0,r0,#12
        0x0000f140:    f1004180    ...A    ADD      r1,r0,#0x40000000
        0x0000f144:    ab10        ..      ADD      r3,sp,#0x40
        0x0000f146:    f10d0e64    ..d.    ADD      lr,sp,#0x64
        0x0000f14a:    f50131e0    ...1    ADD      r1,r1,#0x1c000
        0x0000f14e:    6988        .i      LDR      r0,[r1,#0x18]
        0x0000f150:    f0100f10    ....    TST      r0,#0x10
        0x0000f154:    d10d        ..      BNE      0xf172 ; am_hal_uart_transfer + 570
        0x0000f156:    6808        .h      LDR      r0,[r1,#0]
        0x0000f158:    f4106f70    ..po    TST      r0,#0xf00
        0x0000f15c:    d003        ..      BEQ      0xf166 ; am_hal_uart_transfer + 558
        0x0000f15e:    f04f6000    O..`    MOV      r0,#0x8000000
        0x0000f162:    901b        ..      STR      r0,[sp,#0x6c]
        0x0000f164:    e005        ..      B        0xf172 ; am_hal_uart_transfer + 570
        0x0000f166:    f803000c    ....    STRB     r0,[r3,r12]
        0x0000f16a:    f10c0c01    ....    ADD      r12,r12,#1
        0x0000f16e:    4594        .E      CMP      r12,r2
        0x0000f170:    d3ed        ..      BCC      0xf14e ; am_hal_uart_transfer + 534
        0x0000f172:    f1be0f00    ....    CMP      lr,#0
        0x0000f176:    bf18        ..      IT       NE
        0x0000f178:    f8cdc064    ..d.    STRNE    r12,[sp,#0x64]
        0x0000f17c:    f8ddb06c    ..l.    LDR      r11,[sp,#0x6c]
        0x0000f180:    f1bb0f00    ....    CMP      r11,#0
        0x0000f184:    d004        ..      BEQ      0xf190 ; am_hal_uart_transfer + 600
        0x0000f186:    9818        ..      LDR      r0,[sp,#0x60]
        0x0000f188:    f7fdf862    ..b.    BL       am_hal_interrupt_master_set ; 0xc250
        0x0000f18c:    e01a        ..      B        0xf1c4 ; am_hal_uart_transfer + 652
        0x0000f18e:    e02e        ..      B        0xf1ee ; am_hal_uart_transfer + 694
        0x0000f190:    981c        ..      LDR      r0,[sp,#0x70]
        0x0000f192:    4619        .F      MOV      r1,r3
        0x0000f194:    3048        H0      ADDS     r0,r0,#0x48
        0x0000f196:    9a19        ..      LDR      r2,[sp,#0x64]
        0x0000f198:    f7fffad7    ....    BL       am_hal_queue_item_add ; 0xe74a
        0x0000f19c:    b308        ..      CBZ      r0,0xf1e2 ; am_hal_uart_transfer + 682
        0x0000f19e:    9818        ..      LDR      r0,[sp,#0x60]
        0x0000f1a0:    f7fdf856    ..V.    BL       am_hal_interrupt_master_set ; 0xc250
        0x0000f1a4:    6d22        "m      LDR      r2,[r4,#0x50]
        0x0000f1a6:    4628        (F      MOV      r0,r5
        0x0000f1a8:    4295        .B      CMP      r5,r2
        0x0000f1aa:    bf38        8.      IT       CC
        0x0000f1ac:    4602        .F      MOVCC    r2,r0
        0x0000f1ae:    9208        ..      STR      r2,[sp,#0x20]
        0x0000f1b0:    f1040048    ..H.    ADD      r0,r4,#0x48
        0x0000f1b4:    9902        ..      LDR      r1,[sp,#8]
        0x0000f1b6:    f7fffb1a    ....    BL       am_hal_queue_item_get ; 0xe7ee
        0x0000f1ba:    980f        ..      LDR      r0,[sp,#0x3c]
        0x0000f1bc:    2800        .(      CMP      r0,#0
        0x0000f1be:    bf1c        ..      ITT      NE
        0x0000f1c0:    9808        ..      LDRNE    r0,[sp,#0x20]
        0x0000f1c2:    9007        ..      STRNE    r0,[sp,#0x1c]
        0x0000f1c4:    ea5f000b    _...    MOVS     r0,r11
        0x0000f1c8:    9907        ..      LDR      r1,[sp,#0x1c]
        0x0000f1ca:    440e        .D      ADD      r6,r6,r1
        0x0000f1cc:    eba50501    ....    SUB      r5,r5,r1
        0x0000f1d0:    d033        3.      BEQ      0xf23a ; am_hal_uart_transfer + 770
        0x0000f1d2:    e000        ..      B        0xf1d6 ; am_hal_uart_transfer + 670
        0x0000f1d4:    e040        @.      B        0xf258 ; am_hal_uart_transfer + 800
        0x0000f1d6:    2f00        ./      CMP      r7,#0
        0x0000f1d8:    bf18        ..      IT       NE
        0x0000f1da:    603e        >`      STRNE    r6,[r7,#0]
        0x0000f1dc:    b01f        ..      ADD      sp,sp,#0x7c
        0x0000f1de:    e8bd8ff0    ....    POP      {r4-r11,pc}
        0x0000f1e2:    f8dfb0a4    ....    LDR      r11,[pc,#164] ; [0xf288] = 0x8000001
        0x0000f1e6:    9818        ..      LDR      r0,[sp,#0x60]
        0x0000f1e8:    f7fdf832    ..2.    BL       am_hal_interrupt_master_set ; 0xc250
        0x0000f1ec:    e7ea        ..      B        0xf1c4 ; am_hal_uart_transfer + 652
        0x0000f1ee:    a808        ..      ADD      r0,sp,#0x20
        0x0000f1f0:    900d        ..      STR      r0,[sp,#0x34]
        0x0000f1f2:    f8ddc008    ....    LDR      r12,[sp,#8]
        0x0000f1f6:    f04f0000    O...    MOV      r0,#0
        0x0000f1fa:    6a61        aj      LDR      r1,[r4,#0x24]
        0x0000f1fc:    002b        +.      MOVS     r3,r5
        0x0000f1fe:    4686        .F      MOV      lr,r0
        0x0000f200:    bf1e        ..      ITTT     NE
        0x0000f202:    0309        ..      LSLNE    r1,r1,#12
        0x0000f204:    f1014280    ...B    ADDNE    r2,r1,#0x40000000
        0x0000f208:    f50232e0    ...2    ADDNE    r2,r2,#0x1c000
        0x0000f20c:    d00f        ..      BEQ      0xf22e ; am_hal_uart_transfer + 758
        0x0000f20e:    6991        .i      LDR      r1,[r2,#0x18]
        0x0000f210:    f0110f10    ....    TST      r1,#0x10
        0x0000f214:    d10b        ..      BNE      0xf22e ; am_hal_uart_transfer + 758
        0x0000f216:    6811        .h      LDR      r1,[r2,#0]
        0x0000f218:    f4116f70    ..po    TST      r1,#0xf00
        0x0000f21c:    d002        ..      BEQ      0xf224 ; am_hal_uart_transfer + 748
        0x0000f21e:    f04f6e00    O..n    MOV      lr,#0x8000000
        0x0000f222:    e004        ..      B        0xf22e ; am_hal_uart_transfer + 758
        0x0000f224:    f80c1000    ....    STRB     r1,[r12,r0]
        0x0000f228:    1c40        @.      ADDS     r0,r0,#1
        0x0000f22a:    4298        .B      CMP      r0,r3
        0x0000f22c:    d3ef        ..      BCC      0xf20e ; am_hal_uart_transfer + 726
        0x0000f22e:    990d        ..      LDR      r1,[sp,#0x34]
        0x0000f230:    2900        .)      CMP      r1,#0
        0x0000f232:    bf18        ..      IT       NE
        0x0000f234:    9008        ..      STRNE    r0,[sp,#0x20]
        0x0000f236:    46f3        .F      MOV      r11,lr
        0x0000f238:    e7bf        ..      B        0xf1ba ; am_hal_uart_transfer + 642
        0x0000f23a:    b155        U.      CBZ      r5,0xf252 ; am_hal_uart_transfer + 794
        0x0000f23c:    2010        .       MOVS     r0,#0x10
        0x0000f23e:    f7fefe3d    ..=.    BL       am_hal_flash_delay ; 0xdebc
        0x0000f242:    f1b93fff    ...?    CMP      r9,#0xffffffff
        0x0000f246:    bf18        ..      IT       NE
        0x0000f248:    f1080801    ....    ADDNE    r8,r8,#1
        0x0000f24c:    45c1        .E      CMP      r9,r8
        0x0000f24e:    f63faf4f    ?.O.    BHI      0xf0f0 ; am_hal_uart_transfer + 440
        0x0000f252:    2f00        ./      CMP      r7,#0
        0x0000f254:    f43faf40    ?.@.    BEQ      0xf0d8 ; am_hal_uart_transfer + 416
        0x0000f258:    603e        >`      STR      r6,[r7,#0]
        0x0000f25a:    e73d        =.      B        0xf0d8 ; am_hal_uart_transfer + 416
        0x0000f25c:    ea4f330c    O..3    LSL      r3,r12,#12
        0x0000f260:    f1034380    ...C    ADD      r3,r3,#0x40000000
        0x0000f264:    f50333e0    ...3    ADD      r3,r3,#0x1c000
        0x0000f268:    f8d3c018    ....    LDR      r12,[r3,#0x18]
        0x0000f26c:    f01c0f20    .. .    TST      r12,#0x20
        0x0000f270:    f47faf11    ....    BNE      0xf096 ; am_hal_uart_transfer + 350
        0x0000f274:    f811c000    ....    LDRB     r12,[r1,r0]
        0x0000f278:    f8c3c000    ....    STR      r12,[r3,#0]
        0x0000f27c:    1c40        @.      ADDS     r0,r0,#1
        0x0000f27e:    4290        .B      CMP      r0,r2
        0x0000f280:    d3f2        ..      BCC      0xf268 ; am_hal_uart_transfer + 816
        0x0000f282:    e708        ..      B        0xf096 ; am_hal_uart_transfer + 350
    $d
        0x0000f284:    00ea9e06    ....    DCD    15375878
        0x0000f288:    08000001    ....    DCD    134217729
    $t
    i.am_uart_isr
    am_uart_isr
        0x0000f28c:    b510        ..      PUSH     {r4,lr}
        0x0000f28e:    b088        ..      SUB      sp,sp,#0x20
        0x0000f290:    481b        .H      LDR      r0,[pc,#108] ; [0xf300] = 0x10002e60
        0x0000f292:    491c        .I      LDR      r1,[pc,#112] ; [0xf304] = 0x10000000
        0x0000f294:    6809        .h      LDR      r1,[r1,#0]
        0x0000f296:    1844        D.      ADDS     r4,r0,r1
        0x0000f298:    2201        ."      MOVS     r2,#1
        0x0000f29a:    a907        ..      ADD      r1,sp,#0x1c
        0x0000f29c:    481a        .H      LDR      r0,[pc,#104] ; [0xf308] = 0x1000000c
        0x0000f29e:    6800        .h      LDR      r0,[r0,#0]
        0x0000f2a0:    f7fffdaa    ....    BL       am_hal_uart_interrupt_status_get ; 0xedf8
        0x0000f2a4:    4818        .H      LDR      r0,[pc,#96] ; [0xf308] = 0x1000000c
        0x0000f2a6:    9907        ..      LDR      r1,[sp,#0x1c]
        0x0000f2a8:    6800        .h      LDR      r0,[r0,#0]
        0x0000f2aa:    f7fffcbd    ....    BL       am_hal_uart_interrupt_clear ; 0xec28
        0x0000f2ae:    2200        ."      MOVS     r2,#0
        0x0000f2b0:    4815        .H      LDR      r0,[pc,#84] ; [0xf308] = 0x1000000c
        0x0000f2b2:    9907        ..      LDR      r1,[sp,#0x1c]
        0x0000f2b4:    6800        .h      LDR      r0,[r0,#0]
        0x0000f2b6:    f7fffce9    ....    BL       am_hal_uart_interrupt_service ; 0xec8c
        0x0000f2ba:    9807        ..      LDR      r0,[sp,#0x1c]
        0x0000f2bc:    f0000050    ..P.    AND      r0,r0,#0x50
        0x0000f2c0:    b1e0        ..      CBZ      r0,0xf2fc ; am_uart_isr + 112
        0x0000f2c2:    2214        ."      MOVS     r2,#0x14
        0x0000f2c4:    4911        .I      LDR      r1,[pc,#68] ; [0xf30c] = 0x109bc
        0x0000f2c6:    a801        ..      ADD      r0,sp,#4
        0x0000f2c8:    f7fcffd2    ....    BL       __aeabi_memcpy4 ; 0xc270
        0x0000f2cc:    480c        .H      LDR      r0,[pc,#48] ; [0xf300] = 0x10002e60
        0x0000f2ce:    490d        .I      LDR      r1,[pc,#52] ; [0xf304] = 0x10000000
        0x0000f2d0:    6809        .h      LDR      r1,[r1,#0]
        0x0000f2d2:    4408        .D      ADD      r0,r0,r1
        0x0000f2d4:    9002        ..      STR      r0,[sp,#8]
        0x0000f2d6:    a806        ..      ADD      r0,sp,#0x18
        0x0000f2d8:    9005        ..      STR      r0,[sp,#0x14]
        0x0000f2da:    a901        ..      ADD      r1,sp,#4
        0x0000f2dc:    480a        .H      LDR      r0,[pc,#40] ; [0xf308] = 0x1000000c
        0x0000f2de:    6800        .h      LDR      r0,[r0,#0]
        0x0000f2e0:    f7fffe2a    ..*.    BL       am_hal_uart_transfer ; 0xef38
        0x0000f2e4:    9806        ..      LDR      r0,[sp,#0x18]
        0x0000f2e6:    b281        ..      UXTH     r1,r0
        0x0000f2e8:    4620         F      MOV      r0,r4
        0x0000f2ea:    f000fecd    ....    BL       hciUartRxIncoming ; 0x10088
        0x0000f2ee:    4805        .H      LDR      r0,[pc,#20] ; [0xf304] = 0x10000000
        0x0000f2f0:    6800        .h      LDR      r0,[r0,#0]
        0x0000f2f2:    9906        ..      LDR      r1,[sp,#0x18]
        0x0000f2f4:    4408        .D      ADD      r0,r0,r1
        0x0000f2f6:    4903        .I      LDR      r1,[pc,#12] ; [0xf304] = 0x10000000
        0x0000f2f8:    6008        .`      STR      r0,[r1,#0]
        0x0000f2fa:    bf00        ..      NOP      
        0x0000f2fc:    b008        ..      ADD      sp,sp,#0x20
        0x0000f2fe:    bd10        ..      POP      {r4,pc}
    $d
        0x0000f300:    10002e60    `...    DCD    268447328
        0x0000f304:    10000000    ....    DCD    268435456
        0x0000f308:    1000000c    ....    DCD    268435468
        0x0000f30c:    000109bc    ....    DCD    68028
    $t
    i.am_util_ble_crystal_trim_set
    am_util_ble_crystal_trim_set
        0x0000f310:    b5f8        ..      PUSH     {r3-r7,lr}
        0x0000f312:    4605        .F      MOV      r5,r0
        0x0000f314:    460c        .F      MOV      r4,r1
        0x0000f316:    462e        .F      MOV      r6,r5
        0x0000f318:    f3c4040a    ....    UBFX     r4,r4,#0,#11
        0x0000f31c:    466a        jF      MOV      r2,sp
        0x0000f31e:    490b        .I      LDR      r1,[pc,#44] ; [0xf34c] = 0x43000004
        0x0000f320:    4630        0F      MOV      r0,r6
        0x0000f322:    f7fef90f    ....    BL       am_hal_ble_plf_reg_read ; 0xd544
        0x0000f326:    f04f32ff    O..2    MOV      r2,#0xffffffff
        0x0000f32a:    4908        .I      LDR      r1,[pc,#32] ; [0xf34c] = 0x43000004
        0x0000f32c:    4630        0F      MOV      r0,r6
        0x0000f32e:    f7fef97b    ..{.    BL       am_hal_ble_plf_reg_write ; 0xd628
        0x0000f332:    4622        "F      MOV      r2,r4
        0x0000f334:    4906        .I      LDR      r1,[pc,#24] ; [0xf350] = 0x43800004
        0x0000f336:    4630        0F      MOV      r0,r6
        0x0000f338:    f7fef976    ..v.    BL       am_hal_ble_plf_reg_write ; 0xd628
        0x0000f33c:    4903        .I      LDR      r1,[pc,#12] ; [0xf34c] = 0x43000004
        0x0000f33e:    4630        0F      MOV      r0,r6
        0x0000f340:    9a00        ..      LDR      r2,[sp,#0]
        0x0000f342:    f7fef971    ..q.    BL       am_hal_ble_plf_reg_write ; 0xd628
        0x0000f346:    2000        .       MOVS     r0,#0
        0x0000f348:    bdf8        ..      POP      {r3-r7,pc}
    $d
        0x0000f34a:    0000        ..      DCW    0
        0x0000f34c:    43000004    ...C    DCD    1124073476
        0x0000f350:    43800004    ...C    DCD    1132462084
    $t
    i.am_util_ble_init_rf_channel
    am_util_ble_init_rf_channel
        0x0000f354:    b5f0        ..      PUSH     {r4-r7,lr}
        0x0000f356:    b089        ..      SUB      sp,sp,#0x24
        0x0000f358:    4604        .F      MOV      r4,r0
        0x0000f35a:    4838        8H      LDR      r0,[pc,#224] ; [0xf43c] = 0x40020000
        0x0000f35c:    68c0        .h      LDR      r0,[r0,#0xc]
        0x0000f35e:    b2c0        ..      UXTB     r0,r0
        0x0000f360:    2821        !(      CMP      r0,#0x21
        0x0000f362:    d268        h.      BCS      0xf436 ; am_util_ble_init_rf_channel + 226
        0x0000f364:    4625        %F      MOV      r5,r4
        0x0000f366:    686f        oh      LDR      r7,[r5,#4]
        0x0000f368:    2100        .!      MOVS     r1,#0
        0x0000f36a:    4628        (F      MOV      r0,r5
        0x0000f36c:    f7fefa88    ....    BL       am_hal_ble_sleep_set ; 0xd880
        0x0000f370:    2001        .       MOVS     r0,#1
        0x0000f372:    f88d0014    ....    STRB     r0,[sp,#0x14]
        0x0000f376:    201d        .       MOVS     r0,#0x1d
        0x0000f378:    f88d0015    ....    STRB     r0,[sp,#0x15]
        0x0000f37c:    2020                MOVS     r0,#0x20
        0x0000f37e:    f88d0016    ....    STRB     r0,[sp,#0x16]
        0x0000f382:    2001        .       MOVS     r0,#1
        0x0000f384:    f88d0017    ....    STRB     r0,[sp,#0x17]
        0x0000f388:    2000        .       MOVS     r0,#0
        0x0000f38a:    f88d0018    ....    STRB     r0,[sp,#0x18]
        0x0000f38e:    492c        ,I      LDR      r1,[pc,#176] ; [0xf440] = 0x5000c000
        0x0000f390:    f8d16220    .. b    LDR      r6,[r1,#0x220]
        0x0000f394:    460a        .F      MOV      r2,r1
        0x0000f396:    1881        ..      ADDS     r1,r0,r2
        0x0000f398:    f8c10220    .. .    STR      r0,[r1,#0x220]
        0x0000f39c:    2305        .#      MOVS     r3,#5
        0x0000f39e:    aa05        ..      ADD      r2,sp,#0x14
        0x0000f3a0:    2100        .!      MOVS     r1,#0
        0x0000f3a2:    4628        (F      MOV      r0,r5
        0x0000f3a4:    f7fdf89a    ....    BL       am_hal_ble_blocking_hci_write ; 0xc4dc
        0x0000f3a8:    4925        %I      LDR      r1,[pc,#148] ; [0xf440] = 0x5000c000
        0x0000f3aa:    f8d10410    ....    LDR      r0,[r1,#0x410]
        0x0000f3ae:    f0200002     ...    BIC      r0,r0,#2
        0x0000f3b2:    1c80        ..      ADDS     r0,r0,#2
        0x0000f3b4:    460a        .F      MOV      r2,r1
        0x0000f3b6:    f8c20410    ....    STR      r0,[r2,#0x410]
        0x0000f3ba:    bf00        ..      NOP      
        0x0000f3bc:    4920         I      LDR      r1,[pc,#128] ; [0xf440] = 0x5000c000
        0x0000f3be:    f8d1030c    ....    LDR      r0,[r1,#0x30c]
        0x0000f3c2:    f3c010c0    ....    UBFX     r0,r0,#7,#1
        0x0000f3c6:    2800        .(      CMP      r0,#0
        0x0000f3c8:    d0f8        ..      BEQ      0xf3bc ; am_util_ble_init_rf_channel + 104
        0x0000f3ca:    2200        ."      MOVS     r2,#0
        0x0000f3cc:    a901        ..      ADD      r1,sp,#4
        0x0000f3ce:    4628        (F      MOV      r0,r5
        0x0000f3d0:    f7fdf834    ..4.    BL       am_hal_ble_blocking_hci_read ; 0xc43c
        0x0000f3d4:    200a        .       MOVS     r0,#0xa
        0x0000f3d6:    f000f94d    ..M.    BL       am_util_delay_ms ; 0xf674
        0x0000f3da:    2001        .       MOVS     r0,#1
        0x0000f3dc:    f88d0014    ....    STRB     r0,[sp,#0x14]
        0x0000f3e0:    201f        .       MOVS     r0,#0x1f
        0x0000f3e2:    f88d0015    ....    STRB     r0,[sp,#0x15]
        0x0000f3e6:    2020                MOVS     r0,#0x20
        0x0000f3e8:    f88d0016    ....    STRB     r0,[sp,#0x16]
        0x0000f3ec:    2000        .       MOVS     r0,#0
        0x0000f3ee:    f88d0017    ....    STRB     r0,[sp,#0x17]
        0x0000f3f2:    2304        .#      MOVS     r3,#4
        0x0000f3f4:    aa05        ..      ADD      r2,sp,#0x14
        0x0000f3f6:    2100        .!      MOVS     r1,#0
        0x0000f3f8:    4628        (F      MOV      r0,r5
        0x0000f3fa:    f7fdf86f    ..o.    BL       am_hal_ble_blocking_hci_write ; 0xc4dc
        0x0000f3fe:    4910        .I      LDR      r1,[pc,#64] ; [0xf440] = 0x5000c000
        0x0000f400:    f8d10410    ....    LDR      r0,[r1,#0x410]
        0x0000f404:    f0200002     ...    BIC      r0,r0,#2
        0x0000f408:    1c80        ..      ADDS     r0,r0,#2
        0x0000f40a:    460a        .F      MOV      r2,r1
        0x0000f40c:    f8c20410    ....    STR      r0,[r2,#0x410]
        0x0000f410:    bf00        ..      NOP      
        0x0000f412:    490b        .I      LDR      r1,[pc,#44] ; [0xf440] = 0x5000c000
        0x0000f414:    f8d1030c    ....    LDR      r0,[r1,#0x30c]
        0x0000f418:    f3c010c0    ....    UBFX     r0,r0,#7,#1
        0x0000f41c:    2800        .(      CMP      r0,#0
        0x0000f41e:    d0f8        ..      BEQ      0xf412 ; am_util_ble_init_rf_channel + 190
        0x0000f420:    2200        ."      MOVS     r2,#0
        0x0000f422:    a901        ..      ADD      r1,sp,#4
        0x0000f424:    4628        (F      MOV      r0,r5
        0x0000f426:    f7fdf809    ....    BL       am_hal_ble_blocking_hci_read ; 0xc43c
        0x0000f42a:    4905        .I      LDR      r1,[pc,#20] ; [0xf440] = 0x5000c000
        0x0000f42c:    f8c16228    ..(b    STR      r6,[r1,#0x228]
        0x0000f430:    f8c16220    .. b    STR      r6,[r1,#0x220]
        0x0000f434:    bf00        ..      NOP      
        0x0000f436:    2000        .       MOVS     r0,#0
        0x0000f438:    b009        ..      ADD      sp,sp,#0x24
        0x0000f43a:    bdf0        ..      POP      {r4-r7,pc}
    $d
        0x0000f43c:    40020000    ...@    DCD    1073872896
        0x0000f440:    5000c000    ...P    DCD    1342226432
    $t
    i.am_util_ble_set_carrier_wave_ex
    am_util_ble_set_carrier_wave_ex
        0x0000f444:    e92d43f0    -..C    PUSH     {r4-r9,lr}
        0x0000f448:    b089        ..      SUB      sp,sp,#0x24
        0x0000f44a:    4607        .F      MOV      r7,r0
        0x0000f44c:    460c        .F      MOV      r4,r1
        0x0000f44e:    46b8        .F      MOV      r8,r7
        0x0000f450:    2cff        .,      CMP      r4,#0xff
        0x0000f452:    d107        ..      BNE      0xf464 ; am_util_ble_set_carrier_wave_ex + 32
        0x0000f454:    2100        .!      MOVS     r1,#0
        0x0000f456:    4640        @F      MOV      r0,r8
        0x0000f458:    f000f8e2    ....    BL       am_util_ble_transmitter_control ; 0xf620
        0x0000f45c:    2000        .       MOVS     r0,#0
        0x0000f45e:    b009        ..      ADD      sp,sp,#0x24
        0x0000f460:    e8bd83f0    ....    POP      {r4-r9,pc}
        0x0000f464:    2100        .!      MOVS     r1,#0
        0x0000f466:    4640        @F      MOV      r0,r8
        0x0000f468:    f7fefa0a    ....    BL       am_hal_ble_sleep_set ; 0xd880
        0x0000f46c:    f8d89004    ....    LDR      r9,[r8,#4]
        0x0000f470:    2001        .       MOVS     r0,#1
        0x0000f472:    f88d0014    ....    STRB     r0,[sp,#0x14]
        0x0000f476:    201e        .       MOVS     r0,#0x1e
        0x0000f478:    f88d0015    ....    STRB     r0,[sp,#0x15]
        0x0000f47c:    2020                MOVS     r0,#0x20
        0x0000f47e:    f88d0016    ....    STRB     r0,[sp,#0x16]
        0x0000f482:    2003        .       MOVS     r0,#3
        0x0000f484:    f88d0017    ....    STRB     r0,[sp,#0x17]
        0x0000f488:    f88d4018    ...@    STRB     r4,[sp,#0x18]
        0x0000f48c:    2025        %       MOVS     r0,#0x25
        0x0000f48e:    f88d0019    ....    STRB     r0,[sp,#0x19]
        0x0000f492:    2000        .       MOVS     r0,#0
        0x0000f494:    f88d001a    ....    STRB     r0,[sp,#0x1a]
        0x0000f498:    491c        .I      LDR      r1,[pc,#112] ; [0xf50c] = 0x5000c000
        0x0000f49a:    f8d15220    .. R    LDR      r5,[r1,#0x220]
        0x0000f49e:    460a        .F      MOV      r2,r1
        0x0000f4a0:    1881        ..      ADDS     r1,r0,r2
        0x0000f4a2:    f8c10220    .. .    STR      r0,[r1,#0x220]
        0x0000f4a6:    2307        .#      MOVS     r3,#7
        0x0000f4a8:    aa05        ..      ADD      r2,sp,#0x14
        0x0000f4aa:    2100        .!      MOVS     r1,#0
        0x0000f4ac:    4640        @F      MOV      r0,r8
        0x0000f4ae:    f7fdf815    ....    BL       am_hal_ble_blocking_hci_write ; 0xc4dc
        0x0000f4b2:    4916        .I      LDR      r1,[pc,#88] ; [0xf50c] = 0x5000c000
        0x0000f4b4:    f8d10410    ....    LDR      r0,[r1,#0x410]
        0x0000f4b8:    f0200002     ...    BIC      r0,r0,#2
        0x0000f4bc:    1c80        ..      ADDS     r0,r0,#2
        0x0000f4be:    460a        .F      MOV      r2,r1
        0x0000f4c0:    f8c20410    ....    STR      r0,[r2,#0x410]
        0x0000f4c4:    2600        .&      MOVS     r6,#0
        0x0000f4c6:    e00e        ..      B        0xf4e6 ; am_util_ble_set_carrier_wave_ex + 162
        0x0000f4c8:    4910        .I      LDR      r1,[pc,#64] ; [0xf50c] = 0x5000c000
        0x0000f4ca:    f8d1030c    ....    LDR      r0,[r1,#0x30c]
        0x0000f4ce:    f3c010c0    ....    UBFX     r0,r0,#7,#1
        0x0000f4d2:    b100        ..      CBZ      r0,0xf4d6 ; am_util_ble_set_carrier_wave_ex + 146
        0x0000f4d4:    e009        ..      B        0xf4ea ; am_util_ble_set_carrier_wave_ex + 166
        0x0000f4d6:    2e63        c.      CMP      r6,#0x63
        0x0000f4d8:    d101        ..      BNE      0xf4de ; am_util_ble_set_carrier_wave_ex + 154
        0x0000f4da:    480d        .H      LDR      r0,[pc,#52] ; [0xf510] = 0x8000004
        0x0000f4dc:    e7bf        ..      B        0xf45e ; am_util_ble_set_carrier_wave_ex + 26
        0x0000f4de:    2001        .       MOVS     r0,#1
        0x0000f4e0:    f000f8c8    ....    BL       am_util_delay_ms ; 0xf674
        0x0000f4e4:    1c76        v.      ADDS     r6,r6,#1
        0x0000f4e6:    2e64        d.      CMP      r6,#0x64
        0x0000f4e8:    d3ee        ..      BCC      0xf4c8 ; am_util_ble_set_carrier_wave_ex + 132
        0x0000f4ea:    bf00        ..      NOP      
        0x0000f4ec:    2200        ."      MOVS     r2,#0
        0x0000f4ee:    a901        ..      ADD      r1,sp,#4
        0x0000f4f0:    4640        @F      MOV      r0,r8
        0x0000f4f2:    f7fcffa3    ....    BL       am_hal_ble_blocking_hci_read ; 0xc43c
        0x0000f4f6:    4905        .I      LDR      r1,[pc,#20] ; [0xf50c] = 0x5000c000
        0x0000f4f8:    f8c15228    ..(R    STR      r5,[r1,#0x228]
        0x0000f4fc:    f8c15220    .. R    STR      r5,[r1,#0x220]
        0x0000f500:    2101        .!      MOVS     r1,#1
        0x0000f502:    4640        @F      MOV      r0,r8
        0x0000f504:    f000f88c    ....    BL       am_util_ble_transmitter_control ; 0xf620
        0x0000f508:    2000        .       MOVS     r0,#0
        0x0000f50a:    e7a8        ..      B        0xf45e ; am_util_ble_set_carrier_wave_ex + 26
    $d
        0x0000f50c:    5000c000    ...P    DCD    1342226432
        0x0000f510:    08000004    ....    DCD    134217732
    $t
    i.am_util_ble_set_constant_transmission
    am_util_ble_set_constant_transmission
        0x0000f514:    b570        p.      PUSH     {r4-r6,lr}
        0x0000f516:    4604        .F      MOV      r4,r0
        0x0000f518:    460d        .F      MOV      r5,r1
        0x0000f51a:    4626        &F      MOV      r6,r4
        0x0000f51c:    2100        .!      MOVS     r1,#0
        0x0000f51e:    4630        0F      MOV      r0,r6
        0x0000f520:    f7fef9ae    ....    BL       am_hal_ble_sleep_set ; 0xd880
        0x0000f524:    f04f32ff    O..2    MOV      r2,#0xffffffff
        0x0000f528:    4909        .I      LDR      r1,[pc,#36] ; [0xf550] = 0x43000004
        0x0000f52a:    4630        0F      MOV      r0,r6
        0x0000f52c:    f7fef87c    ..|.    BL       am_hal_ble_plf_reg_write ; 0xd628
        0x0000f530:    b135        5.      CBZ      r5,0xf540 ; am_util_ble_set_constant_transmission + 44
        0x0000f532:    f44f4200    O..B    MOV      r2,#0x8000
        0x0000f536:    4907        .I      LDR      r1,[pc,#28] ; [0xf554] = 0x508000e0
        0x0000f538:    4630        0F      MOV      r0,r6
        0x0000f53a:    f7fef875    ..u.    BL       am_hal_ble_plf_reg_write ; 0xd628
        0x0000f53e:    e004        ..      B        0xf54a ; am_util_ble_set_constant_transmission + 54
        0x0000f540:    2200        ."      MOVS     r2,#0
        0x0000f542:    4904        .I      LDR      r1,[pc,#16] ; [0xf554] = 0x508000e0
        0x0000f544:    4630        0F      MOV      r0,r6
        0x0000f546:    f7fef86f    ..o.    BL       am_hal_ble_plf_reg_write ; 0xd628
        0x0000f54a:    2000        .       MOVS     r0,#0
        0x0000f54c:    bd70        p.      POP      {r4-r6,pc}
    $d
        0x0000f54e:    0000        ..      DCW    0
        0x0000f550:    43000004    ...C    DCD    1124073476
        0x0000f554:    508000e0    ...P    DCD    1350566112
    $t
    i.am_util_ble_set_constant_transmission_ex
    am_util_ble_set_constant_transmission_ex
        0x0000f558:    e92d43f0    -..C    PUSH     {r4-r9,lr}
        0x0000f55c:    b089        ..      SUB      sp,sp,#0x24
        0x0000f55e:    4607        .F      MOV      r7,r0
        0x0000f560:    460c        .F      MOV      r4,r1
        0x0000f562:    46b8        .F      MOV      r8,r7
        0x0000f564:    2cff        .,      CMP      r4,#0xff
        0x0000f566:    d107        ..      BNE      0xf578 ; am_util_ble_set_constant_transmission_ex + 32
        0x0000f568:    2100        .!      MOVS     r1,#0
        0x0000f56a:    4640        @F      MOV      r0,r8
        0x0000f56c:    f7ffffd2    ....    BL       am_util_ble_set_constant_transmission ; 0xf514
        0x0000f570:    2000        .       MOVS     r0,#0
        0x0000f572:    b009        ..      ADD      sp,sp,#0x24
        0x0000f574:    e8bd83f0    ....    POP      {r4-r9,pc}
        0x0000f578:    f8d89004    ....    LDR      r9,[r8,#4]
        0x0000f57c:    2101        .!      MOVS     r1,#1
        0x0000f57e:    4640        @F      MOV      r0,r8
        0x0000f580:    f7ffffc8    ....    BL       am_util_ble_set_constant_transmission ; 0xf514
        0x0000f584:    2001        .       MOVS     r0,#1
        0x0000f586:    f88d0014    ....    STRB     r0,[sp,#0x14]
        0x0000f58a:    201e        .       MOVS     r0,#0x1e
        0x0000f58c:    f88d0015    ....    STRB     r0,[sp,#0x15]
        0x0000f590:    2020                MOVS     r0,#0x20
        0x0000f592:    f88d0016    ....    STRB     r0,[sp,#0x16]
        0x0000f596:    2003        .       MOVS     r0,#3
        0x0000f598:    f88d0017    ....    STRB     r0,[sp,#0x17]
        0x0000f59c:    f88d4018    ...@    STRB     r4,[sp,#0x18]
        0x0000f5a0:    2025        %       MOVS     r0,#0x25
        0x0000f5a2:    f88d0019    ....    STRB     r0,[sp,#0x19]
        0x0000f5a6:    2000        .       MOVS     r0,#0
        0x0000f5a8:    f88d001a    ....    STRB     r0,[sp,#0x1a]
        0x0000f5ac:    491a        .I      LDR      r1,[pc,#104] ; [0xf618] = 0x5000c000
        0x0000f5ae:    f8d15220    .. R    LDR      r5,[r1,#0x220]
        0x0000f5b2:    460a        .F      MOV      r2,r1
        0x0000f5b4:    1881        ..      ADDS     r1,r0,r2
        0x0000f5b6:    f8c10220    .. .    STR      r0,[r1,#0x220]
        0x0000f5ba:    2307        .#      MOVS     r3,#7
        0x0000f5bc:    aa05        ..      ADD      r2,sp,#0x14
        0x0000f5be:    2100        .!      MOVS     r1,#0
        0x0000f5c0:    4640        @F      MOV      r0,r8
        0x0000f5c2:    f7fcff8b    ....    BL       am_hal_ble_blocking_hci_write ; 0xc4dc
        0x0000f5c6:    4914        .I      LDR      r1,[pc,#80] ; [0xf618] = 0x5000c000
        0x0000f5c8:    f8d10410    ....    LDR      r0,[r1,#0x410]
        0x0000f5cc:    f0200002     ...    BIC      r0,r0,#2
        0x0000f5d0:    1c80        ..      ADDS     r0,r0,#2
        0x0000f5d2:    460a        .F      MOV      r2,r1
        0x0000f5d4:    f8c20410    ....    STR      r0,[r2,#0x410]
        0x0000f5d8:    2600        .&      MOVS     r6,#0
        0x0000f5da:    e00e        ..      B        0xf5fa ; am_util_ble_set_constant_transmission_ex + 162
        0x0000f5dc:    490e        .I      LDR      r1,[pc,#56] ; [0xf618] = 0x5000c000
        0x0000f5de:    f8d1030c    ....    LDR      r0,[r1,#0x30c]
        0x0000f5e2:    f3c010c0    ....    UBFX     r0,r0,#7,#1
        0x0000f5e6:    b100        ..      CBZ      r0,0xf5ea ; am_util_ble_set_constant_transmission_ex + 146
        0x0000f5e8:    e009        ..      B        0xf5fe ; am_util_ble_set_constant_transmission_ex + 166
        0x0000f5ea:    2e63        c.      CMP      r6,#0x63
        0x0000f5ec:    d101        ..      BNE      0xf5f2 ; am_util_ble_set_constant_transmission_ex + 154
        0x0000f5ee:    480b        .H      LDR      r0,[pc,#44] ; [0xf61c] = 0x8000004
        0x0000f5f0:    e7bf        ..      B        0xf572 ; am_util_ble_set_constant_transmission_ex + 26
        0x0000f5f2:    2001        .       MOVS     r0,#1
        0x0000f5f4:    f000f83e    ..>.    BL       am_util_delay_ms ; 0xf674
        0x0000f5f8:    1c76        v.      ADDS     r6,r6,#1
        0x0000f5fa:    2e64        d.      CMP      r6,#0x64
        0x0000f5fc:    d3ee        ..      BCC      0xf5dc ; am_util_ble_set_constant_transmission_ex + 132
        0x0000f5fe:    bf00        ..      NOP      
        0x0000f600:    2200        ."      MOVS     r2,#0
        0x0000f602:    a901        ..      ADD      r1,sp,#4
        0x0000f604:    4640        @F      MOV      r0,r8
        0x0000f606:    f7fcff19    ....    BL       am_hal_ble_blocking_hci_read ; 0xc43c
        0x0000f60a:    4903        .I      LDR      r1,[pc,#12] ; [0xf618] = 0x5000c000
        0x0000f60c:    f8c15228    ..(R    STR      r5,[r1,#0x228]
        0x0000f610:    f8c15220    .. R    STR      r5,[r1,#0x220]
        0x0000f614:    2000        .       MOVS     r0,#0
        0x0000f616:    e7ac        ..      B        0xf572 ; am_util_ble_set_constant_transmission_ex + 26
    $d
        0x0000f618:    5000c000    ...P    DCD    1342226432
        0x0000f61c:    08000004    ....    DCD    134217732
    $t
    i.am_util_ble_transmitter_control
    am_util_ble_transmitter_control
        0x0000f620:    e92d41f0    -..A    PUSH     {r4-r8,lr}
        0x0000f624:    4605        .F      MOV      r5,r0
        0x0000f626:    460e        .F      MOV      r6,r1
        0x0000f628:    462f        /F      MOV      r7,r5
        0x0000f62a:    2100        .!      MOVS     r1,#0
        0x0000f62c:    4638        8F      MOV      r0,r7
        0x0000f62e:    f7fef927    ..'.    BL       am_hal_ble_sleep_set ; 0xd880
        0x0000f632:    b10e        ..      CBZ      r6,0xf638 ; am_util_ble_transmitter_control + 24
        0x0000f634:    4c08        .L      LDR      r4,[pc,#32] ; [0xf658] = 0x2000a
        0x0000f636:    e000        ..      B        0xf63a ; am_util_ble_transmitter_control + 26
        0x0000f638:    2408        .$      MOVS     r4,#8
        0x0000f63a:    f04f32ff    O..2    MOV      r2,#0xffffffff
        0x0000f63e:    4907        .I      LDR      r1,[pc,#28] ; [0xf65c] = 0x43000004
        0x0000f640:    4638        8F      MOV      r0,r7
        0x0000f642:    f7fdfff1    ....    BL       am_hal_ble_plf_reg_write ; 0xd628
        0x0000f646:    4622        "F      MOV      r2,r4
        0x0000f648:    4905        .I      LDR      r1,[pc,#20] ; [0xf660] = 0x52400000
        0x0000f64a:    4638        8F      MOV      r0,r7
        0x0000f64c:    f7fdffec    ....    BL       am_hal_ble_plf_reg_write ; 0xd628
        0x0000f650:    2000        .       MOVS     r0,#0
        0x0000f652:    e8bd81f0    ....    POP      {r4-r8,pc}
    $d
        0x0000f656:    0000        ..      DCW    0
        0x0000f658:    0002000a    ....    DCD    131082
        0x0000f65c:    43000004    ...C    DCD    1124073476
        0x0000f660:    52400000    ..@R    DCD    1379926016
    $t
    i.am_util_ble_transmitter_control_ex
    am_util_ble_transmitter_control_ex
        0x0000f664:    b570        p.      PUSH     {r4-r6,lr}
        0x0000f666:    4604        .F      MOV      r4,r0
        0x0000f668:    460d        .F      MOV      r5,r1
        0x0000f66a:    4629        )F      MOV      r1,r5
        0x0000f66c:    4620         F      MOV      r0,r4
        0x0000f66e:    f7fffee9    ....    BL       am_util_ble_set_carrier_wave_ex ; 0xf444
        0x0000f672:    bd70        p.      POP      {r4-r6,pc}
    i.am_util_delay_ms
    am_util_delay_ms
        0x0000f674:    b5fe        ..      PUSH     {r1-r7,lr}
        0x0000f676:    4604        .F      MOV      r4,r0
        0x0000f678:    4668        hF      MOV      r0,sp
        0x0000f67a:    f7fefc05    ....    BL       am_hal_clkgen_status_get ; 0xde88
        0x0000f67e:    9e00        ..      LDR      r6,[sp,#0]
        0x0000f680:    f64030b8    @..0    MOV      r0,#0xbb8
        0x0000f684:    fbb6f0f0    ....    UDIV     r0,r6,r0
        0x0000f688:    fb00f504    ....    MUL      r5,r0,r4
        0x0000f68c:    4628        (F      MOV      r0,r5
        0x0000f68e:    f7fefc15    ....    BL       am_hal_flash_delay ; 0xdebc
        0x0000f692:    bdfe        ..      POP      {r1-r7,pc}
    i.am_util_faultisr_collect_data
    am_util_faultisr_collect_data
        0x0000f694:    b092        ..      SUB      sp,sp,#0x48
        0x0000f696:    4604        .F      MOV      r4,r0
        0x0000f698:    2118        .!      MOVS     r1,#0x18
        0x0000f69a:    4668        hF      MOV      r0,sp
        0x0000f69c:    f7fcfe1a    ....    BL       __aeabi_memclr4 ; 0xc2d4
        0x0000f6a0:    2500        .%      MOVS     r5,#0
        0x0000f6a2:    9510        ..      STR      r5,[sp,#0x40]
        0x0000f6a4:    4828        (H      LDR      r0,[pc,#160] ; [0xf748] = 0xe000ed28
        0x0000f6a6:    6800        .h      LDR      r0,[r0,#0]
        0x0000f6a8:    9010        ..      STR      r0,[sp,#0x40]
        0x0000f6aa:    9810        ..      LDR      r0,[sp,#0x40]
        0x0000f6ac:    b2c0        ..      UXTB     r0,r0
        0x0000f6ae:    f88d0044    ..D.    STRB     r0,[sp,#0x44]
        0x0000f6b2:    9810        ..      LDR      r0,[sp,#0x40]
        0x0000f6b4:    0a00        ..      LSRS     r0,r0,#8
        0x0000f6b6:    f88d0045    ..E.    STRB     r0,[sp,#0x45]
        0x0000f6ba:    9810        ..      LDR      r0,[sp,#0x40]
        0x0000f6bc:    f64f71ff    O..q    MOV      r1,#0xffff
        0x0000f6c0:    ea014010    ...@    AND      r0,r1,r0,LSR #16
        0x0000f6c4:    f8ad0046    ..F.    STRH     r0,[sp,#0x46]
        0x0000f6c8:    481f        .H      LDR      r0,[pc,#124] ; [0xf748] = 0xe000ed28
        0x0000f6ca:    3010        .0      ADDS     r0,r0,#0x10
        0x0000f6cc:    6800        .h      LDR      r0,[r0,#0]
        0x0000f6ce:    900f        ..      STR      r0,[sp,#0x3c]
        0x0000f6d0:    f89d0045    ..E.    LDRB     r0,[sp,#0x45]
        0x0000f6d4:    f0000002    ....    AND      r0,r0,#2
        0x0000f6d8:    b120         .      CBZ      r0,0xf6e4 ; am_util_faultisr_collect_data + 80
        0x0000f6da:    4621        !F      MOV      r1,r4
        0x0000f6dc:    2006        .       MOVS     r0,#6
        0x0000f6de:    f7fcfdaa    ....    BL       getStackedReg ; 0xc236
        0x0000f6e2:    e001        ..      B        0xf6e8 ; am_util_faultisr_collect_data + 84
        0x0000f6e4:    f04f30ff    O..0    MOV      r0,#0xffffffff
        0x0000f6e8:    900e        ..      STR      r0,[sp,#0x38]
        0x0000f6ea:    4621        !F      MOV      r1,r4
        0x0000f6ec:    2000        .       MOVS     r0,#0
        0x0000f6ee:    f7fcfda2    ....    BL       getStackedReg ; 0xc236
        0x0000f6f2:    9006        ..      STR      r0,[sp,#0x18]
        0x0000f6f4:    4621        !F      MOV      r1,r4
        0x0000f6f6:    2001        .       MOVS     r0,#1
        0x0000f6f8:    f7fcfd9d    ....    BL       getStackedReg ; 0xc236
        0x0000f6fc:    9007        ..      STR      r0,[sp,#0x1c]
        0x0000f6fe:    4621        !F      MOV      r1,r4
        0x0000f700:    2002        .       MOVS     r0,#2
        0x0000f702:    f7fcfd98    ....    BL       getStackedReg ; 0xc236
        0x0000f706:    9008        ..      STR      r0,[sp,#0x20]
        0x0000f708:    4621        !F      MOV      r1,r4
        0x0000f70a:    2003        .       MOVS     r0,#3
        0x0000f70c:    f7fcfd93    ....    BL       getStackedReg ; 0xc236
        0x0000f710:    9009        ..      STR      r0,[sp,#0x24]
        0x0000f712:    4621        !F      MOV      r1,r4
        0x0000f714:    2004        .       MOVS     r0,#4
        0x0000f716:    f7fcfd8e    ....    BL       getStackedReg ; 0xc236
        0x0000f71a:    900a        ..      STR      r0,[sp,#0x28]
        0x0000f71c:    4621        !F      MOV      r1,r4
        0x0000f71e:    2005        .       MOVS     r0,#5
        0x0000f720:    f7fcfd89    ....    BL       getStackedReg ; 0xc236
        0x0000f724:    900b        ..      STR      r0,[sp,#0x2c]
        0x0000f726:    4621        !F      MOV      r1,r4
        0x0000f728:    2006        .       MOVS     r0,#6
        0x0000f72a:    f7fcfd84    ....    BL       getStackedReg ; 0xc236
        0x0000f72e:    900c        ..      STR      r0,[sp,#0x30]
        0x0000f730:    4621        !F      MOV      r1,r4
        0x0000f732:    2007        .       MOVS     r0,#7
        0x0000f734:    f7fcfd7f    ....    BL       getStackedReg ; 0xc236
        0x0000f738:    900d        ..      STR      r0,[sp,#0x34]
        0x0000f73a:    4669        iF      MOV      r1,sp
        0x0000f73c:    2002        .       MOVS     r0,#2
        0x0000f73e:    f7fefdd1    ....    BL       am_hal_mcuctrl_info_get ; 0xe2e4
        0x0000f742:    bf00        ..      NOP      
        0x0000f744:    bf00        ..      NOP      
        0x0000f746:    e7fe        ..      B        0xf746 ; am_util_faultisr_collect_data + 178
    $d
        0x0000f748:    e000ed28    (...    DCD    3758157096
    $t
    i.am_util_stdio_printf
    am_util_stdio_printf
        0x0000f74c:    b40f        ..      PUSH     {r0-r3}
        0x0000f74e:    b538        8.      PUSH     {r3-r5,lr}
        0x0000f750:    480b        .H      LDR      r0,[pc,#44] ; [0xf780] = 0x10000020
        0x0000f752:    6800        .h      LDR      r0,[r0,#0]
        0x0000f754:    b918        ..      CBNZ     r0,0xf75e ; am_util_stdio_printf + 18
        0x0000f756:    2000        .       MOVS     r0,#0
        0x0000f758:    bc38        8.      POP      {r3-r5}
        0x0000f75a:    f85dfb14    ]...    LDR      pc,[sp],#0x14
        0x0000f75e:    a805        ..      ADD      r0,sp,#0x14
        0x0000f760:    9000        ..      STR      r0,[sp,#0]
        0x0000f762:    4808        .H      LDR      r0,[pc,#32] ; [0xf784] = 0x10003860
        0x0000f764:    9a00        ..      LDR      r2,[sp,#0]
        0x0000f766:    9904        ..      LDR      r1,[sp,#0x10]
        0x0000f768:    f000f814    ....    BL       am_util_stdio_vsprintf ; 0xf794
        0x0000f76c:    4604        .F      MOV      r4,r0
        0x0000f76e:    2000        .       MOVS     r0,#0
        0x0000f770:    9000        ..      STR      r0,[sp,#0]
        0x0000f772:    4804        .H      LDR      r0,[pc,#16] ; [0xf784] = 0x10003860
        0x0000f774:    4902        .I      LDR      r1,[pc,#8] ; [0xf780] = 0x10000020
        0x0000f776:    6809        .h      LDR      r1,[r1,#0]
        0x0000f778:    4788        .G      BLX      r1
        0x0000f77a:    4620         F      MOV      r0,r4
        0x0000f77c:    e7ec        ..      B        0xf758 ; am_util_stdio_printf + 12
    $d
        0x0000f77e:    0000        ..      DCW    0
        0x0000f780:    10000020     ...    DCD    268435488
        0x0000f784:    10003860    `8..    DCD    268449888
    $t
    i.am_util_stdio_printf_init
    am_util_stdio_printf_init
        0x0000f788:    4901        .I      LDR      r1,[pc,#4] ; [0xf790] = 0x10000020
        0x0000f78a:    6008        .`      STR      r0,[r1,#0]
        0x0000f78c:    4770        pG      BX       lr
    $d
        0x0000f78e:    0000        ..      DCW    0
        0x0000f790:    10000020     ...    DCD    268435488
    $t
    i.am_util_stdio_vsprintf
    am_util_stdio_vsprintf
        0x0000f794:    e92d4ff7    -..O    PUSH     {r0-r2,r4-r11,lr}
        0x0000f798:    ed2d8b02    -...    VPUSH    {d8}
        0x0000f79c:    b08a        ..      SUB      sp,sp,#0x28
        0x0000f79e:    4604        .F      MOV      r4,r0
        0x0000f7a0:    460d        .F      MOV      r5,r1
        0x0000f7a2:    f04f0900    O...    MOV      r9,#0
        0x0000f7a6:    2000        .       MOVS     r0,#0
        0x0000f7a8:    9000        ..      STR      r0,[sp,#0]
        0x0000f7aa:    e1b9        ..      B        0xfb20 ; am_util_stdio_vsprintf + 908
        0x0000f7ac:    2006        .       MOVS     r0,#6
        0x0000f7ae:    9006        ..      STR      r0,[sp,#0x18]
        0x0000f7b0:    7828        (x      LDRB     r0,[r5,#0]
        0x0000f7b2:    2825        %(      CMP      r0,#0x25
        0x0000f7b4:    d012        ..      BEQ      0xf7dc ; am_util_stdio_vsprintf + 72
        0x0000f7b6:    b16c        l.      CBZ      r4,0xf7d4 ; am_util_stdio_vsprintf + 64
        0x0000f7b8:    7828        (x      LDRB     r0,[r5,#0]
        0x0000f7ba:    280a        .(      CMP      r0,#0xa
        0x0000f7bc:    d107        ..      BNE      0xf7ce ; am_util_stdio_vsprintf + 58
        0x0000f7be:    48de        .H      LDR      r0,[pc,#888] ; [0xfb38] = 0x10000024
        0x0000f7c0:    7800        .x      LDRB     r0,[r0,#0]
        0x0000f7c2:    b120         .      CBZ      r0,0xf7ce ; am_util_stdio_vsprintf + 58
        0x0000f7c4:    200d        .       MOVS     r0,#0xd
        0x0000f7c6:    f8040b01    ....    STRB     r0,[r4],#1
        0x0000f7ca:    f1090901    ....    ADD      r9,r9,#1
        0x0000f7ce:    7828        (x      LDRB     r0,[r5,#0]
        0x0000f7d0:    f8040b01    ....    STRB     r0,[r4],#1
        0x0000f7d4:    1c6d        m.      ADDS     r5,r5,#1
        0x0000f7d6:    f1090901    ....    ADD      r9,r9,#1
        0x0000f7da:    e1a1        ..      B        0xfb20 ; am_util_stdio_vsprintf + 908
        0x0000f7dc:    1c6d        m.      ADDS     r5,r5,#1
        0x0000f7de:    2000        .       MOVS     r0,#0
        0x0000f7e0:    9002        ..      STR      r0,[sp,#8]
        0x0000f7e2:    9003        ..      STR      r0,[sp,#0xc]
        0x0000f7e4:    2020                MOVS     r0,#0x20
        0x0000f7e6:    9004        ..      STR      r0,[sp,#0x10]
        0x0000f7e8:    7828        (x      LDRB     r0,[r5,#0]
        0x0000f7ea:    2830        0(      CMP      r0,#0x30
        0x0000f7ec:    d101        ..      BNE      0xf7f2 ; am_util_stdio_vsprintf + 94
        0x0000f7ee:    9004        ..      STR      r0,[sp,#0x10]
        0x0000f7f0:    1c6d        m.      ADDS     r5,r5,#1
        0x0000f7f2:    a907        ..      ADD      r1,sp,#0x1c
        0x0000f7f4:    4628        (F      MOV      r0,r5
        0x0000f7f6:    f000fadb    ....    BL       decstr_to_int ; 0xfdb0
        0x0000f7fa:    4606        .F      MOV      r6,r0
        0x0000f7fc:    9807        ..      LDR      r0,[sp,#0x1c]
        0x0000f7fe:    4405        .D      ADD      r5,r5,r0
        0x0000f800:    7828        (x      LDRB     r0,[r5,#0]
        0x0000f802:    2873        s(      CMP      r0,#0x73
        0x0000f804:    d002        ..      BEQ      0xf80c ; am_util_stdio_vsprintf + 120
        0x0000f806:    2e00        ..      CMP      r6,#0
        0x0000f808:    da00        ..      BGE      0xf80c ; am_util_stdio_vsprintf + 120
        0x0000f80a:    4276        vB      RSBS     r6,r6,#0
        0x0000f80c:    7828        (x      LDRB     r0,[r5,#0]
        0x0000f80e:    282e        .(      CMP      r0,#0x2e
        0x0000f810:    d107        ..      BNE      0xf822 ; am_util_stdio_vsprintf + 142
        0x0000f812:    1c6d        m.      ADDS     r5,r5,#1
        0x0000f814:    a907        ..      ADD      r1,sp,#0x1c
        0x0000f816:    4628        (F      MOV      r0,r5
        0x0000f818:    f000faca    ....    BL       decstr_to_int ; 0xfdb0
        0x0000f81c:    9006        ..      STR      r0,[sp,#0x18]
        0x0000f81e:    9807        ..      LDR      r0,[sp,#0x1c]
        0x0000f820:    4405        .D      ADD      r5,r5,r0
        0x0000f822:    7828        (x      LDRB     r0,[r5,#0]
        0x0000f824:    286c        l(      CMP      r0,#0x6c
        0x0000f826:    d106        ..      BNE      0xf836 ; am_util_stdio_vsprintf + 162
        0x0000f828:    1c6d        m.      ADDS     r5,r5,#1
        0x0000f82a:    7828        (x      LDRB     r0,[r5,#0]
        0x0000f82c:    286c        l(      CMP      r0,#0x6c
        0x0000f82e:    d102        ..      BNE      0xf836 ; am_util_stdio_vsprintf + 162
        0x0000f830:    1c6d        m.      ADDS     r5,r5,#1
        0x0000f832:    2001        .       MOVS     r0,#1
        0x0000f834:    9002        ..      STR      r0,[sp,#8]
        0x0000f836:    7828        (x      LDRB     r0,[r5,#0]
        0x0000f838:    2866        f(      CMP      r0,#0x66
        0x0000f83a:    d06f        o.      BEQ      0xf91c ; am_util_stdio_vsprintf + 392
        0x0000f83c:    dc08        ..      BGT      0xf850 ; am_util_stdio_vsprintf + 188
        0x0000f83e:    2846        F(      CMP      r0,#0x46
        0x0000f840:    d06d        m.      BEQ      0xf91e ; am_util_stdio_vsprintf + 394
        0x0000f842:    2858        X(      CMP      r0,#0x58
        0x0000f844:    d05c        \.      BEQ      0xf900 ; am_util_stdio_vsprintf + 364
        0x0000f846:    2863        c(      CMP      r0,#0x63
        0x0000f848:    d00b        ..      BEQ      0xf862 ; am_util_stdio_vsprintf + 206
        0x0000f84a:    2864        d(      CMP      r0,#0x64
        0x0000f84c:    d168        h.      BNE      0xf920 ; am_util_stdio_vsprintf + 396
        0x0000f84e:    e0c3        ..      B        0xf9d8 ; am_util_stdio_vsprintf + 580
        0x0000f850:    2869        i(      CMP      r0,#0x69
        0x0000f852:    d07d        }.      BEQ      0xf950 ; am_util_stdio_vsprintf + 444
        0x0000f854:    2873        s(      CMP      r0,#0x73
        0x0000f856:    d011        ..      BEQ      0xf87c ; am_util_stdio_vsprintf + 232
        0x0000f858:    2875        u(      CMP      r0,#0x75
        0x0000f85a:    d07a        z.      BEQ      0xf952 ; am_util_stdio_vsprintf + 446
        0x0000f85c:    2878        x(      CMP      r0,#0x78
        0x0000f85e:    d1f5        ..      BNE      0xf84c ; am_util_stdio_vsprintf + 184
        0x0000f860:    e04b        K.      B        0xf8fa ; am_util_stdio_vsprintf + 358
        0x0000f862:    980e        ..      LDR      r0,[sp,#0x38]
        0x0000f864:    f8101b04    ....    LDRB     r1,[r0],#4
        0x0000f868:    900e        ..      STR      r0,[sp,#0x38]
        0x0000f86a:    b2c8        ..      UXTB     r0,r1
        0x0000f86c:    9005        ..      STR      r0,[sp,#0x14]
        0x0000f86e:    b114        ..      CBZ      r4,0xf876 ; am_util_stdio_vsprintf + 226
        0x0000f870:    9805        ..      LDR      r0,[sp,#0x14]
        0x0000f872:    f8040b01    ....    STRB     r0,[r4],#1
        0x0000f876:    f1090901    ....    ADD      r9,r9,#1
        0x0000f87a:    e14e        N.      B        0xfb1a ; am_util_stdio_vsprintf + 902
        0x0000f87c:    980e        ..      LDR      r0,[sp,#0x38]
        0x0000f87e:    f850bb04    P...    LDR      r11,[r0],#4
        0x0000f882:    900e        ..      STR      r0,[sp,#0x38]
        0x0000f884:    4658        XF      MOV      r0,r11
        0x0000f886:    f000fef9    ....    BL       simple_strlen ; 0x1067c
        0x0000f88a:    9000        ..      STR      r0,[sp,#0]
        0x0000f88c:    2e00        ..      CMP      r6,#0
        0x0000f88e:    dd11        ..      BLE      0xf8b4 ; am_util_stdio_vsprintf + 288
        0x0000f890:    9800        ..      LDR      r0,[sp,#0]
        0x0000f892:    42b0        .B      CMP      r0,r6
        0x0000f894:    d20e        ..      BCS      0xf8b4 ; am_util_stdio_vsprintf + 288
        0x0000f896:    9800        ..      LDR      r0,[sp,#0]
        0x0000f898:    1a36        6.      SUBS     r6,r6,r0
        0x0000f89a:    4632        2F      MOV      r2,r6
        0x0000f89c:    4620         F      MOV      r0,r4
        0x0000f89e:    9904        ..      LDR      r1,[sp,#0x10]
        0x0000f8a0:    f000fe47    ..G.    BL       padbuffer ; 0x10532
        0x0000f8a4:    4606        .F      MOV      r6,r0
        0x0000f8a6:    b10c        ..      CBZ      r4,0xf8ac ; am_util_stdio_vsprintf + 280
        0x0000f8a8:    4630        0F      MOV      r0,r6
        0x0000f8aa:    e000        ..      B        0xf8ae ; am_util_stdio_vsprintf + 282
        0x0000f8ac:    2000        .       MOVS     r0,#0
        0x0000f8ae:    4404        .D      ADD      r4,r4,r0
        0x0000f8b0:    44b1        .D      ADD      r9,r9,r6
        0x0000f8b2:    2600        .&      MOVS     r6,#0
        0x0000f8b4:    e008        ..      B        0xf8c8 ; am_util_stdio_vsprintf + 308
        0x0000f8b6:    b11c        ..      CBZ      r4,0xf8c0 ; am_util_stdio_vsprintf + 300
        0x0000f8b8:    f89b0000    ....    LDRB     r0,[r11,#0]
        0x0000f8bc:    f8040b01    ....    STRB     r0,[r4],#1
        0x0000f8c0:    f10b0b01    ....    ADD      r11,r11,#1
        0x0000f8c4:    f1090901    ....    ADD      r9,r9,#1
        0x0000f8c8:    f89b0000    ....    LDRB     r0,[r11,#0]
        0x0000f8cc:    2800        .(      CMP      r0,#0
        0x0000f8ce:    d1f2        ..      BNE      0xf8b6 ; am_util_stdio_vsprintf + 290
        0x0000f8d0:    b196        ..      CBZ      r6,0xf8f8 ; am_util_stdio_vsprintf + 356
        0x0000f8d2:    4276        vB      RSBS     r6,r6,#0
        0x0000f8d4:    9800        ..      LDR      r0,[sp,#0]
        0x0000f8d6:    42b0        .B      CMP      r0,r6
        0x0000f8d8:    d20e        ..      BCS      0xf8f8 ; am_util_stdio_vsprintf + 356
        0x0000f8da:    9800        ..      LDR      r0,[sp,#0]
        0x0000f8dc:    1a36        6.      SUBS     r6,r6,r0
        0x0000f8de:    4632        2F      MOV      r2,r6
        0x0000f8e0:    4620         F      MOV      r0,r4
        0x0000f8e2:    9904        ..      LDR      r1,[sp,#0x10]
        0x0000f8e4:    f000fe25    ..%.    BL       padbuffer ; 0x10532
        0x0000f8e8:    4606        .F      MOV      r6,r0
        0x0000f8ea:    b10c        ..      CBZ      r4,0xf8f0 ; am_util_stdio_vsprintf + 348
        0x0000f8ec:    4630        0F      MOV      r0,r6
        0x0000f8ee:    e000        ..      B        0xf8f2 ; am_util_stdio_vsprintf + 350
        0x0000f8f0:    2000        .       MOVS     r0,#0
        0x0000f8f2:    4404        .D      ADD      r4,r4,r0
        0x0000f8f4:    44b1        .D      ADD      r9,r9,r6
        0x0000f8f6:    2600        .&      MOVS     r6,#0
        0x0000f8f8:    e10f        ..      B        0xfb1a ; am_util_stdio_vsprintf + 902
        0x0000f8fa:    2001        .       MOVS     r0,#1
        0x0000f8fc:    9003        ..      STR      r0,[sp,#0xc]
        0x0000f8fe:    bf00        ..      NOP      
        0x0000f900:    9802        ..      LDR      r0,[sp,#8]
        0x0000f902:    b170        p.      CBZ      r0,0xf922 ; am_util_stdio_vsprintf + 398
        0x0000f904:    980e        ..      LDR      r0,[sp,#0x38]
        0x0000f906:    1dc0        ..      ADDS     r0,r0,#7
        0x0000f908:    f0200007     ...    BIC      r0,r0,#7
        0x0000f90c:    4601        .F      MOV      r1,r0
        0x0000f90e:    900e        ..      STR      r0,[sp,#0x38]
        0x0000f910:    6800        .h      LDR      r0,[r0,#0]
        0x0000f912:    6849        Ih      LDR      r1,[r1,#4]
        0x0000f914:    9a0e        ..      LDR      r2,[sp,#0x38]
        0x0000f916:    3208        .2      ADDS     r2,r2,#8
        0x0000f918:    920e        ..      STR      r2,[sp,#0x38]
        0x0000f91a:    e008        ..      B        0xf92e ; am_util_stdio_vsprintf + 410
        0x0000f91c:    e0c3        ..      B        0xfaa6 ; am_util_stdio_vsprintf + 786
        0x0000f91e:    e0c3        ..      B        0xfaa8 ; am_util_stdio_vsprintf + 788
        0x0000f920:    e0f4        ..      B        0xfb0c ; am_util_stdio_vsprintf + 888
        0x0000f922:    980e        ..      LDR      r0,[sp,#0x38]
        0x0000f924:    6800        .h      LDR      r0,[r0,#0]
        0x0000f926:    990e        ..      LDR      r1,[sp,#0x38]
        0x0000f928:    1d09        ..      ADDS     r1,r1,#4
        0x0000f92a:    910e        ..      STR      r1,[sp,#0x38]
        0x0000f92c:    2100        .!      MOVS     r1,#0
        0x0000f92e:    4607        .F      MOV      r7,r0
        0x0000f930:    4688        .F      MOV      r8,r1
        0x0000f932:    b19e        ..      CBZ      r6,0xf95c ; am_util_stdio_vsprintf + 456
        0x0000f934:    4638        8F      MOV      r0,r7
        0x0000f936:    4641        AF      MOV      r1,r8
        0x0000f938:    f000fdb2    ....    BL       ndigits_in_hex ; 0x104a0
        0x0000f93c:    1a36        6.      SUBS     r6,r6,r0
        0x0000f93e:    4632        2F      MOV      r2,r6
        0x0000f940:    4620         F      MOV      r0,r4
        0x0000f942:    9904        ..      LDR      r1,[sp,#0x10]
        0x0000f944:    f000fdf5    ....    BL       padbuffer ; 0x10532
        0x0000f948:    4606        .F      MOV      r6,r0
        0x0000f94a:    b11c        ..      CBZ      r4,0xf954 ; am_util_stdio_vsprintf + 448
        0x0000f94c:    4630        0F      MOV      r0,r6
        0x0000f94e:    e002        ..      B        0xf956 ; am_util_stdio_vsprintf + 450
        0x0000f950:    e043        C.      B        0xf9da ; am_util_stdio_vsprintf + 582
        0x0000f952:    e00e        ..      B        0xf972 ; am_util_stdio_vsprintf + 478
        0x0000f954:    2000        .       MOVS     r0,#0
        0x0000f956:    4404        .D      ADD      r4,r4,r0
        0x0000f958:    44b1        .D      ADD      r9,r9,r6
        0x0000f95a:    2600        .&      MOVS     r6,#0
        0x0000f95c:    4622        "F      MOV      r2,r4
        0x0000f95e:    4638        8F      MOV      r0,r7
        0x0000f960:    4641        AF      MOV      r1,r8
        0x0000f962:    9b03        ..      LDR      r3,[sp,#0xc]
        0x0000f964:    f000fe96    ....    BL       uint64_to_hexstr ; 0x10694
        0x0000f968:    4682        .F      MOV      r10,r0
        0x0000f96a:    b104        ..      CBZ      r4,0xf96e ; am_util_stdio_vsprintf + 474
        0x0000f96c:    4454        TD      ADD      r4,r4,r10
        0x0000f96e:    44d1        .D      ADD      r9,r9,r10
        0x0000f970:    e0d3        ..      B        0xfb1a ; am_util_stdio_vsprintf + 902
        0x0000f972:    9802        ..      LDR      r0,[sp,#8]
        0x0000f974:    b158        X.      CBZ      r0,0xf98e ; am_util_stdio_vsprintf + 506
        0x0000f976:    980e        ..      LDR      r0,[sp,#0x38]
        0x0000f978:    1dc0        ..      ADDS     r0,r0,#7
        0x0000f97a:    f0200007     ...    BIC      r0,r0,#7
        0x0000f97e:    4601        .F      MOV      r1,r0
        0x0000f980:    900e        ..      STR      r0,[sp,#0x38]
        0x0000f982:    6800        .h      LDR      r0,[r0,#0]
        0x0000f984:    6849        Ih      LDR      r1,[r1,#4]
        0x0000f986:    9a0e        ..      LDR      r2,[sp,#0x38]
        0x0000f988:    3208        .2      ADDS     r2,r2,#8
        0x0000f98a:    920e        ..      STR      r2,[sp,#0x38]
        0x0000f98c:    e005        ..      B        0xf99a ; am_util_stdio_vsprintf + 518
        0x0000f98e:    980e        ..      LDR      r0,[sp,#0x38]
        0x0000f990:    6800        .h      LDR      r0,[r0,#0]
        0x0000f992:    990e        ..      LDR      r1,[sp,#0x38]
        0x0000f994:    1d09        ..      ADDS     r1,r1,#4
        0x0000f996:    910e        ..      STR      r1,[sp,#0x38]
        0x0000f998:    2100        .!      MOVS     r1,#0
        0x0000f99a:    4607        .F      MOV      r7,r0
        0x0000f99c:    4688        .F      MOV      r8,r1
        0x0000f99e:    b18e        ..      CBZ      r6,0xf9c4 ; am_util_stdio_vsprintf + 560
        0x0000f9a0:    4638        8F      MOV      r0,r7
        0x0000f9a2:    4641        AF      MOV      r1,r8
        0x0000f9a4:    f000fda8    ....    BL       ndigits_in_u64 ; 0x104f8
        0x0000f9a8:    1a36        6.      SUBS     r6,r6,r0
        0x0000f9aa:    4632        2F      MOV      r2,r6
        0x0000f9ac:    4620         F      MOV      r0,r4
        0x0000f9ae:    9904        ..      LDR      r1,[sp,#0x10]
        0x0000f9b0:    f000fdbf    ....    BL       padbuffer ; 0x10532
        0x0000f9b4:    4606        .F      MOV      r6,r0
        0x0000f9b6:    b10c        ..      CBZ      r4,0xf9bc ; am_util_stdio_vsprintf + 552
        0x0000f9b8:    4630        0F      MOV      r0,r6
        0x0000f9ba:    e000        ..      B        0xf9be ; am_util_stdio_vsprintf + 554
        0x0000f9bc:    2000        .       MOVS     r0,#0
        0x0000f9be:    4404        .D      ADD      r4,r4,r0
        0x0000f9c0:    44b1        .D      ADD      r9,r9,r6
        0x0000f9c2:    2600        .&      MOVS     r6,#0
        0x0000f9c4:    4622        "F      MOV      r2,r4
        0x0000f9c6:    4638        8F      MOV      r0,r7
        0x0000f9c8:    4641        AF      MOV      r1,r8
        0x0000f9ca:    f000fea8    ....    BL       uint64_to_str ; 0x1071e
        0x0000f9ce:    4682        .F      MOV      r10,r0
        0x0000f9d0:    b104        ..      CBZ      r4,0xf9d4 ; am_util_stdio_vsprintf + 576
        0x0000f9d2:    4454        TD      ADD      r4,r4,r10
        0x0000f9d4:    44d1        .D      ADD      r9,r9,r10
        0x0000f9d6:    e0a0        ..      B        0xfb1a ; am_util_stdio_vsprintf + 902
        0x0000f9d8:    bf00        ..      NOP      
        0x0000f9da:    9802        ..      LDR      r0,[sp,#8]
        0x0000f9dc:    b158        X.      CBZ      r0,0xf9f6 ; am_util_stdio_vsprintf + 610
        0x0000f9de:    980e        ..      LDR      r0,[sp,#0x38]
        0x0000f9e0:    1dc0        ..      ADDS     r0,r0,#7
        0x0000f9e2:    f0200007     ...    BIC      r0,r0,#7
        0x0000f9e6:    4601        .F      MOV      r1,r0
        0x0000f9e8:    900e        ..      STR      r0,[sp,#0x38]
        0x0000f9ea:    6800        .h      LDR      r0,[r0,#0]
        0x0000f9ec:    6849        Ih      LDR      r1,[r1,#4]
        0x0000f9ee:    9a0e        ..      LDR      r2,[sp,#0x38]
        0x0000f9f0:    3208        .2      ADDS     r2,r2,#8
        0x0000f9f2:    920e        ..      STR      r2,[sp,#0x38]
        0x0000f9f4:    e005        ..      B        0xfa02 ; am_util_stdio_vsprintf + 622
        0x0000f9f6:    980e        ..      LDR      r0,[sp,#0x38]
        0x0000f9f8:    6800        .h      LDR      r0,[r0,#0]
        0x0000f9fa:    990e        ..      LDR      r1,[sp,#0x38]
        0x0000f9fc:    1d09        ..      ADDS     r1,r1,#4
        0x0000f9fe:    910e        ..      STR      r1,[sp,#0x38]
        0x0000fa00:    17c1        ..      ASRS     r1,r0,#31
        0x0000fa02:    e9cd0108    ....    STRD     r0,r1,[sp,#0x20]
        0x0000fa06:    2300        .#      MOVS     r3,#0
        0x0000fa08:    e9dd0108    ....    LDRD     r0,r1,[sp,#0x20]
        0x0000fa0c:    1ac0        ..      SUBS     r0,r0,r3
        0x0000fa0e:    4199        .A      SBCS     r1,r1,r3
        0x0000fa10:    da08        ..      BGE      0xfa24 ; am_util_stdio_vsprintf + 656
        0x0000fa12:    2200        ."      MOVS     r2,#0
        0x0000fa14:    e9dd1008    ....    LDRD     r1,r0,[sp,#0x20]
        0x0000fa18:    424f        OB      RSBS     r7,r1,#0
        0x0000fa1a:    eb620800    b...    SBC      r8,r2,r0
        0x0000fa1e:    2001        .       MOVS     r0,#1
        0x0000fa20:    9001        ..      STR      r0,[sp,#4]
        0x0000fa22:    e003        ..      B        0xfa2c ; am_util_stdio_vsprintf + 664
        0x0000fa24:    e9dd7808    ...x    LDRD     r7,r8,[sp,#0x20]
        0x0000fa28:    2000        .       MOVS     r0,#0
        0x0000fa2a:    9001        ..      STR      r0,[sp,#4]
        0x0000fa2c:    b34e        N.      CBZ      r6,0xfa82 ; am_util_stdio_vsprintf + 750
        0x0000fa2e:    4638        8F      MOV      r0,r7
        0x0000fa30:    4641        AF      MOV      r1,r8
        0x0000fa32:    f000fd4f    ..O.    BL       ndigits_in_i64 ; 0x104d4
        0x0000fa36:    1a36        6.      SUBS     r6,r6,r0
        0x0000fa38:    9801        ..      LDR      r0,[sp,#4]
        0x0000fa3a:    b148        H.      CBZ      r0,0xfa50 ; am_util_stdio_vsprintf + 700
        0x0000fa3c:    1e76        v.      SUBS     r6,r6,#1
        0x0000fa3e:    9804        ..      LDR      r0,[sp,#0x10]
        0x0000fa40:    2830        0(      CMP      r0,#0x30
        0x0000fa42:    d105        ..      BNE      0xfa50 ; am_util_stdio_vsprintf + 700
        0x0000fa44:    b114        ..      CBZ      r4,0xfa4c ; am_util_stdio_vsprintf + 696
        0x0000fa46:    202d        -       MOVS     r0,#0x2d
        0x0000fa48:    f8040b01    ....    STRB     r0,[r4],#1
        0x0000fa4c:    f1090901    ....    ADD      r9,r9,#1
        0x0000fa50:    4632        2F      MOV      r2,r6
        0x0000fa52:    4620         F      MOV      r0,r4
        0x0000fa54:    9904        ..      LDR      r1,[sp,#0x10]
        0x0000fa56:    f000fd6c    ..l.    BL       padbuffer ; 0x10532
        0x0000fa5a:    4606        .F      MOV      r6,r0
        0x0000fa5c:    b10c        ..      CBZ      r4,0xfa62 ; am_util_stdio_vsprintf + 718
        0x0000fa5e:    4630        0F      MOV      r0,r6
        0x0000fa60:    e000        ..      B        0xfa64 ; am_util_stdio_vsprintf + 720
        0x0000fa62:    2000        .       MOVS     r0,#0
        0x0000fa64:    4404        .D      ADD      r4,r4,r0
        0x0000fa66:    44b1        .D      ADD      r9,r9,r6
        0x0000fa68:    2600        .&      MOVS     r6,#0
        0x0000fa6a:    9801        ..      LDR      r0,[sp,#4]
        0x0000fa6c:    b188        ..      CBZ      r0,0xfa92 ; am_util_stdio_vsprintf + 766
        0x0000fa6e:    9804        ..      LDR      r0,[sp,#0x10]
        0x0000fa70:    2820         (      CMP      r0,#0x20
        0x0000fa72:    d10e        ..      BNE      0xfa92 ; am_util_stdio_vsprintf + 766
        0x0000fa74:    b114        ..      CBZ      r4,0xfa7c ; am_util_stdio_vsprintf + 744
        0x0000fa76:    202d        -       MOVS     r0,#0x2d
        0x0000fa78:    f8040b01    ....    STRB     r0,[r4],#1
        0x0000fa7c:    f1090901    ....    ADD      r9,r9,#1
        0x0000fa80:    e007        ..      B        0xfa92 ; am_util_stdio_vsprintf + 766
        0x0000fa82:    9801        ..      LDR      r0,[sp,#4]
        0x0000fa84:    b128        (.      CBZ      r0,0xfa92 ; am_util_stdio_vsprintf + 766
        0x0000fa86:    b114        ..      CBZ      r4,0xfa8e ; am_util_stdio_vsprintf + 762
        0x0000fa88:    202d        -       MOVS     r0,#0x2d
        0x0000fa8a:    f8040b01    ....    STRB     r0,[r4],#1
        0x0000fa8e:    f1090901    ....    ADD      r9,r9,#1
        0x0000fa92:    4622        "F      MOV      r2,r4
        0x0000fa94:    4638        8F      MOV      r0,r7
        0x0000fa96:    4641        AF      MOV      r1,r8
        0x0000fa98:    f000fe41    ..A.    BL       uint64_to_str ; 0x1071e
        0x0000fa9c:    4682        .F      MOV      r10,r0
        0x0000fa9e:    b104        ..      CBZ      r4,0xfaa2 ; am_util_stdio_vsprintf + 782
        0x0000faa0:    4454        TD      ADD      r4,r4,r10
        0x0000faa2:    44d1        .D      ADD      r9,r9,r10
        0x0000faa4:    e039        9.      B        0xfb1a ; am_util_stdio_vsprintf + 902
        0x0000faa6:    bf00        ..      NOP      
        0x0000faa8:    b37c        |.      CBZ      r4,0xfb0a ; am_util_stdio_vsprintf + 886
        0x0000faaa:    980e        ..      LDR      r0,[sp,#0x38]
        0x0000faac:    1dc0        ..      ADDS     r0,r0,#7
        0x0000faae:    f0200007     ...    BIC      r0,r0,#7
        0x0000fab2:    900e        ..      STR      r0,[sp,#0x38]
        0x0000fab4:    ecb01b02    ....    VLDM     r0!,{d1}
        0x0000fab8:    eeb00a41    ..A.    VMOV.F32 s0,s2
        0x0000fabc:    eef00a61    ..a.    VMOV.F32 s1,s3
        0x0000fac0:    900e        ..      STR      r0,[sp,#0x38]
        0x0000fac2:    ec510b10    Q...    VMOV     r0,r1,d0
        0x0000fac6:    f000feeb    ....    BL       __aeabi_d2f ; 0x108a0
        0x0000faca:    ee080a10    ....    VMOV     s16,r0
        0x0000face:    2014        .       MOVS     r0,#0x14
        0x0000fad0:    6020         `      STR      r0,[r4,#0]
        0x0000fad2:    4620         F      MOV      r0,r4
        0x0000fad4:    eeb00a48    ..H.    VMOV.F32 s0,s16
        0x0000fad8:    9906        ..      LDR      r1,[sp,#0x18]
        0x0000fada:    f000fa19    ....    BL       ftoa ; 0xff10
        0x0000fade:    4682        .F      MOV      r10,r0
        0x0000fae0:    f1ba0f00    ....    CMP      r10,#0
        0x0000fae4:    da0e        ..      BGE      0xfb04 ; am_util_stdio_vsprintf + 880
        0x0000fae6:    f10a0101    ....    ADD      r1,r10,#1
        0x0000faea:    b909        ..      CBNZ     r1,0xfaf0 ; am_util_stdio_vsprintf + 860
        0x0000faec:    4813        .H      LDR      r0,[pc,#76] ; [0xfb3c] = 0x302e30
        0x0000faee:    e005        ..      B        0xfafc ; am_util_stdio_vsprintf + 872
        0x0000faf0:    f10a0102    ....    ADD      r1,r10,#2
        0x0000faf4:    b909        ..      CBNZ     r1,0xfafa ; am_util_stdio_vsprintf + 870
        0x0000faf6:    4812        .H      LDR      r0,[pc,#72] ; [0xfb40] = 0x232e23
        0x0000faf8:    e000        ..      B        0xfafc ; am_util_stdio_vsprintf + 872
        0x0000fafa:    4812        .H      LDR      r0,[pc,#72] ; [0xfb44] = 0x3f2e3f
        0x0000fafc:    6020         `      STR      r0,[r4,#0]
        0x0000fafe:    f04f0a03    O...    MOV      r10,#3
        0x0000fb02:    bf00        ..      NOP      
        0x0000fb04:    44d1        .D      ADD      r9,r9,r10
        0x0000fb06:    4454        TD      ADD      r4,r4,r10
        0x0000fb08:    bf00        ..      NOP      
        0x0000fb0a:    e006        ..      B        0xfb1a ; am_util_stdio_vsprintf + 902
        0x0000fb0c:    b114        ..      CBZ      r4,0xfb14 ; am_util_stdio_vsprintf + 896
        0x0000fb0e:    7828        (x      LDRB     r0,[r5,#0]
        0x0000fb10:    f8040b01    ....    STRB     r0,[r4],#1
        0x0000fb14:    f1090901    ....    ADD      r9,r9,#1
        0x0000fb18:    bf00        ..      NOP      
        0x0000fb1a:    bf00        ..      NOP      
        0x0000fb1c:    1c6d        m.      ADDS     r5,r5,#1
        0x0000fb1e:    bf00        ..      NOP      
        0x0000fb20:    7828        (x      LDRB     r0,[r5,#0]
        0x0000fb22:    2800        .(      CMP      r0,#0
        0x0000fb24:    f47fae42    ..B.    BNE      0xf7ac ; am_util_stdio_vsprintf + 24
        0x0000fb28:    b104        ..      CBZ      r4,0xfb2c ; am_util_stdio_vsprintf + 920
        0x0000fb2a:    7020         p      STRB     r0,[r4,#0]
        0x0000fb2c:    4648        HF      MOV      r0,r9
        0x0000fb2e:    b00a        ..      ADD      sp,sp,#0x28
        0x0000fb30:    ecbd8b02    ....    VPOP     {d8}
        0x0000fb34:    e8bd8ffe    ....    POP      {r1-r11,pc}
    $d
        0x0000fb38:    10000024    $...    DCD    268435492
        0x0000fb3c:    00302e30    0.0.    DCD    3157552
        0x0000fb40:    00232e23    #.#.    DCD    2305571
        0x0000fb44:    003f2e3f    ?.?.    DCD    4140607
    $t
    i.cmd_handler
    cmd_handler
        0x0000fb48:    e92d41f0    -..A    PUSH     {r4-r8,lr}
        0x0000fb4c:    4604        .F      MOV      r4,r0
        0x0000fb4e:    460e        .F      MOV      r6,r1
        0x0000fb50:    2700        .'      MOVS     r7,#0
        0x0000fb52:    e004        ..      B        0xfb5e ; cmd_handler + 22
        0x0000fb54:    5de1        .]      LDRB     r1,[r4,r7]
        0x0000fb56:    a055        U.      ADR      r0,{pc}+0x156 ; 0xfcac
        0x0000fb58:    f7fffdf8    ....    BL       am_util_stdio_printf ; 0xf74c
        0x0000fb5c:    1c7f        ..      ADDS     r7,r7,#1
        0x0000fb5e:    42b7        .B      CMP      r7,r6
        0x0000fb60:    d3f8        ..      BCC      0xfb54 ; cmd_handler + 12
        0x0000fb62:    a054        T.      ADR      r0,{pc}+0x152 ; 0xfcb4
        0x0000fb64:    f7fffdf2    ....    BL       am_util_stdio_printf ; 0xf74c
        0x0000fb68:    2000        .       MOVS     r0,#0
        0x0000fb6a:    4953        SI      LDR      r1,[pc,#332] ; [0xfcb8] = 0x10000010
        0x0000fb6c:    7008        .p      STRB     r0,[r1,#0]
        0x0000fb6e:    2c00        .,      CMP      r4,#0
        0x0000fb70:    d03f        ?.      BEQ      0xfbf2 ; cmd_handler + 170
        0x0000fb72:    7820         x      LDRB     r0,[r4,#0]
        0x0000fb74:    2801        .(      CMP      r0,#1
        0x0000fb76:    d13c        <.      BNE      0xfbf2 ; cmd_handler + 170
        0x0000fb78:    7860        `x      LDRB     r0,[r4,#1]
        0x0000fb7a:    281e        .(      CMP      r0,#0x1e
        0x0000fb7c:    d139        9.      BNE      0xfbf2 ; cmd_handler + 170
        0x0000fb7e:    78a0        .x      LDRB     r0,[r4,#2]
        0x0000fb80:    2820         (      CMP      r0,#0x20
        0x0000fb82:    d136        6.      BNE      0xfbf2 ; cmd_handler + 170
        0x0000fb84:    79a0        .y      LDRB     r0,[r4,#6]
        0x0000fb86:    2808        .(      CMP      r0,#8
        0x0000fb88:    d00c        ..      BEQ      0xfba4 ; cmd_handler + 92
        0x0000fb8a:    2809        .(      CMP      r0,#9
        0x0000fb8c:    d002        ..      BEQ      0xfb94 ; cmd_handler + 76
        0x0000fb8e:    28ff        .(      CMP      r0,#0xff
        0x0000fb90:    d12d        -.      BNE      0xfbee ; cmd_handler + 166
        0x0000fb92:    e00d        ..      B        0xfbb0 ; cmd_handler + 104
        0x0000fb94:    2101        .!      MOVS     r1,#1
        0x0000fb96:    4849        IH      LDR      r0,[pc,#292] ; [0xfcbc] = 0x10000008
        0x0000fb98:    6800        .h      LDR      r0,[r0,#0]
        0x0000fb9a:    f7fffcbb    ....    BL       am_util_ble_set_constant_transmission ; 0xf514
        0x0000fb9e:    2000        .       MOVS     r0,#0
        0x0000fba0:    71a0        .q      STRB     r0,[r4,#6]
        0x0000fba2:    e025        %.      B        0xfbf0 ; cmd_handler + 168
        0x0000fba4:    2001        .       MOVS     r0,#1
        0x0000fba6:    4944        DI      LDR      r1,[pc,#272] ; [0xfcb8] = 0x10000010
        0x0000fba8:    7008        .p      STRB     r0,[r1,#0]
        0x0000fbaa:    2000        .       MOVS     r0,#0
        0x0000fbac:    71a0        .q      STRB     r0,[r4,#6]
        0x0000fbae:    e01f        ..      B        0xfbf0 ; cmd_handler + 168
        0x0000fbb0:    2100        .!      MOVS     r1,#0
        0x0000fbb2:    4842        BH      LDR      r0,[pc,#264] ; [0xfcbc] = 0x10000008
        0x0000fbb4:    6800        .h      LDR      r0,[r0,#0]
        0x0000fbb6:    f7fffd33    ..3.    BL       am_util_ble_transmitter_control ; 0xf620
        0x0000fbba:    2100        .!      MOVS     r1,#0
        0x0000fbbc:    483f        ?H      LDR      r0,[pc,#252] ; [0xfcbc] = 0x10000008
        0x0000fbbe:    6800        .h      LDR      r0,[r0,#0]
        0x0000fbc0:    f7fffca8    ....    BL       am_util_ble_set_constant_transmission ; 0xf514
        0x0000fbc4:    2101        .!      MOVS     r1,#1
        0x0000fbc6:    483d        =H      LDR      r0,[pc,#244] ; [0xfcbc] = 0x10000008
        0x0000fbc8:    6800        .h      LDR      r0,[r0,#0]
        0x0000fbca:    f7fdfd9f    ....    BL       am_hal_ble_power_control ; 0xd70c
        0x0000fbce:    bf00        ..      NOP      
        0x0000fbd0:    483b        ;H      LDR      r0,[pc,#236] ; [0xfcc0] = 0x40021000
        0x0000fbd2:    6880        .h      LDR      r0,[r0,#8]
        0x0000fbd4:    f3c03040    ..@0    UBFX     r0,r0,#13,#1
        0x0000fbd8:    2800        .(      CMP      r0,#0
        0x0000fbda:    d1f9        ..      BNE      0xfbd0 ; cmd_handler + 136
        0x0000fbdc:    4837        7H      LDR      r0,[pc,#220] ; [0xfcbc] = 0x10000008
        0x0000fbde:    6800        .h      LDR      r0,[r0,#0]
        0x0000fbe0:    f7fdf878    ..x.    BL       am_hal_ble_deinitialize ; 0xccd4
        0x0000fbe4:    2100        .!      MOVS     r1,#0
        0x0000fbe6:    2001        .       MOVS     r0,#1
        0x0000fbe8:    f7fefe4e    ..N.    BL       am_hal_reset_control ; 0xe888
        0x0000fbec:    e000        ..      B        0xfbf0 ; cmd_handler + 168
        0x0000fbee:    bf00        ..      NOP      
        0x0000fbf0:    bf00        ..      NOP      
        0x0000fbf2:    2c00        .,      CMP      r4,#0
        0x0000fbf4:    d054        T.      BEQ      0xfca0 ; cmd_handler + 344
        0x0000fbf6:    2e05        ..      CMP      r6,#5
        0x0000fbf8:    d152        R.      BNE      0xfca0 ; cmd_handler + 344
        0x0000fbfa:    7820         x      LDRB     r0,[r4,#0]
        0x0000fbfc:    2841        A(      CMP      r0,#0x41
        0x0000fbfe:    d14f        O.      BNE      0xfca0 ; cmd_handler + 344
        0x0000fc00:    7860        `x      LDRB     r0,[r4,#1]
        0x0000fc02:    284d        M(      CMP      r0,#0x4d
        0x0000fc04:    d14c        L.      BNE      0xfca0 ; cmd_handler + 344
        0x0000fc06:    7920         y      LDRB     r0,[r4,#4]
        0x0000fc08:    78e1        .x      LDRB     r1,[r4,#3]
        0x0000fc0a:    ea402501    @..%    ORR      r5,r0,r1,LSL #8
        0x0000fc0e:    78a0        .x      LDRB     r0,[r4,#2]
        0x0000fc10:    3830        08      SUBS     r0,r0,#0x30
        0x0000fc12:    2805        .(      CMP      r0,#5
        0x0000fc14:    d23a        :.      BCS      0xfc8c ; cmd_handler + 324
        0x0000fc16:    e8dff000    ....    TBB      [pc,r0]
    $d
        0x0000fc1a:    1503        ..      DCW    5379
        0x0000fc1c:    0030271e    .'0.    DCD    3155742
    $t
        0x0000fc20:    2d00        .-      CMP      r5,#0
        0x0000fc22:    dd0a        ..      BLE      0xfc3a ; cmd_handler + 242
        0x0000fc24:    2d0f        .-      CMP      r5,#0xf
        0x0000fc26:    dc08        ..      BGT      0xfc3a ; cmd_handler + 242
        0x0000fc28:    b2e9        ..      UXTB     r1,r5
        0x0000fc2a:    4824        $H      LDR      r0,[pc,#144] ; [0xfcbc] = 0x10000008
        0x0000fc2c:    6800        .h      LDR      r0,[r0,#0]
        0x0000fc2e:    f7fdfecf    ....    BL       am_hal_ble_tx_power_set ; 0xd9d0
        0x0000fc32:    a024        $.      ADR      r0,{pc}+0x92 ; 0xfcc4
        0x0000fc34:    f7fffd8a    ....    BL       am_util_stdio_printf ; 0xf74c
        0x0000fc38:    e003        ..      B        0xfc42 ; cmd_handler + 250
        0x0000fc3a:    4629        )F      MOV      r1,r5
        0x0000fc3c:    a029        ).      ADR      r0,{pc}+0xa8 ; 0xfce4
        0x0000fc3e:    f7fffd85    ....    BL       am_util_stdio_printf ; 0xf74c
        0x0000fc42:    e028        (.      B        0xfc96 ; cmd_handler + 334
        0x0000fc44:    4629        )F      MOV      r1,r5
        0x0000fc46:    481d        .H      LDR      r0,[pc,#116] ; [0xfcbc] = 0x10000008
        0x0000fc48:    6800        .h      LDR      r0,[r0,#0]
        0x0000fc4a:    f7fffb61    ..a.    BL       am_util_ble_crystal_trim_set ; 0xf310
        0x0000fc4e:    a02c        ,.      ADR      r0,{pc}+0xb2 ; 0xfd00
        0x0000fc50:    f7fffd7c    ..|.    BL       am_util_stdio_printf ; 0xf74c
        0x0000fc54:    e01f        ..      B        0xfc96 ; cmd_handler + 334
        0x0000fc56:    b2e9        ..      UXTB     r1,r5
        0x0000fc58:    4818        .H      LDR      r0,[pc,#96] ; [0xfcbc] = 0x10000008
        0x0000fc5a:    6800        .h      LDR      r0,[r0,#0]
        0x0000fc5c:    f7fdfe4a    ..J.    BL       am_hal_ble_transmitter_modex_set ; 0xd8f4
        0x0000fc60:    a02f        /.      ADR      r0,{pc}+0xc0 ; 0xfd20
        0x0000fc62:    f7fffd73    ..s.    BL       am_util_stdio_printf ; 0xf74c
        0x0000fc66:    e016        ..      B        0xfc96 ; cmd_handler + 334
        0x0000fc68:    b2e9        ..      UXTB     r1,r5
        0x0000fc6a:    4814        .H      LDR      r0,[pc,#80] ; [0xfcbc] = 0x10000008
        0x0000fc6c:    6800        .h      LDR      r0,[r0,#0]
        0x0000fc6e:    f7fffcf9    ....    BL       am_util_ble_transmitter_control_ex ; 0xf664
        0x0000fc72:    a033        3.      ADR      r0,{pc}+0xce ; 0xfd40
        0x0000fc74:    f7fffd6a    ..j.    BL       am_util_stdio_printf ; 0xf74c
        0x0000fc78:    e00d        ..      B        0xfc96 ; cmd_handler + 334
        0x0000fc7a:    b2e9        ..      UXTB     r1,r5
        0x0000fc7c:    480f        .H      LDR      r0,[pc,#60] ; [0xfcbc] = 0x10000008
        0x0000fc7e:    6800        .h      LDR      r0,[r0,#0]
        0x0000fc80:    f7fffc6a    ..j.    BL       am_util_ble_set_constant_transmission_ex ; 0xf558
        0x0000fc84:    a035        5.      ADR      r0,{pc}+0xd8 ; 0xfd5c
        0x0000fc86:    f7fffd61    ..a.    BL       am_util_stdio_printf ; 0xf74c
        0x0000fc8a:    e004        ..      B        0xfc96 ; cmd_handler + 334
        0x0000fc8c:    4621        !F      MOV      r1,r4
        0x0000fc8e:    a03e        >.      ADR      r0,{pc}+0xfa ; 0xfd88
        0x0000fc90:    f7fffd5c    ..\.    BL       am_util_stdio_printf ; 0xf74c
        0x0000fc94:    bf00        ..      NOP      
        0x0000fc96:    bf00        ..      NOP      
        0x0000fc98:    2001        .       MOVS     r0,#1
        0x0000fc9a:    4944        DI      LDR      r1,[pc,#272] ; [0xfdac] = 0x10000005
        0x0000fc9c:    7008        .p      STRB     r0,[r1,#0]
        0x0000fc9e:    e002        ..      B        0xfca6 ; cmd_handler + 350
        0x0000fca0:    2000        .       MOVS     r0,#0
        0x0000fca2:    4942        BI      LDR      r1,[pc,#264] ; [0xfdac] = 0x10000005
        0x0000fca4:    7008        .p      STRB     r0,[r1,#0]
        0x0000fca6:    e8bd81f0    ....    POP      {r4-r8,pc}
    $d
        0x0000fcaa:    0000        ..      DCW    0
        0x0000fcac:    78323025    %02x    DCD    2016555045
        0x0000fcb0:    00000020     ...    DCD    32
        0x0000fcb4:    0000000a    ....    DCD    10
        0x0000fcb8:    10000010    ....    DCD    268435472
        0x0000fcbc:    10000008    ....    DCD    268435464
        0x0000fcc0:    40021000    ...@    DCD    1073876992
        0x0000fcc4:    50205854    TX P    DCD    1344297044
        0x0000fcc8:    7265776f    ower    DCD    1919252335
        0x0000fccc:    74655320     Set    DCD    1952797472
        0x0000fcd0:    676e6974    ting    DCD    1735289204
        0x0000fcd4:    6d6f4320     Com    DCD    1836008224
        0x0000fcd8:    646e616d    mand    DCD    1684955501
        0x0000fcdc:    0a4b4f20     OK.    DCD    172707616
        0x0000fce0:    00000000    ....    DCD    0
        0x0000fce4:    61766e49    Inva    DCD    1635151433
        0x0000fce8:    2064696c    lid     DCD    543451500
        0x0000fcec:    50205854    TX P    DCD    1344297044
        0x0000fcf0:    7265776f    ower    DCD    1919252335
        0x0000fcf4:    6c615620     Val    DCD    1818318368
        0x0000fcf8:    25206575    ue %    DCD    622880117
        0x0000fcfc:    00000a64    d...    DCD    2660
        0x0000fd00:    484d3233    32MH    DCD    1213018675
        0x0000fd04:    7243207a    z Cr    DCD    1917001850
        0x0000fd08:    61747379    ysta    DCD    1635021689
        0x0000fd0c:    7254206c    l Tr    DCD    1918115948
        0x0000fd10:    43206d69    im C    DCD    1126198633
        0x0000fd14:    616d6d6f    omma    DCD    1634561391
        0x0000fd18:    4f20646e    nd O    DCD    1327522926
        0x0000fd1c:    00000a4b    K...    DCD    2635
        0x0000fd20:    75646f4d    Modu    DCD    1969516365
        0x0000fd24:    6974616c    lati    DCD    1769234796
        0x0000fd28:    49206e6f    on I    DCD    1226862191
        0x0000fd2c:    7865646e    ndex    DCD    2019910766
        0x0000fd30:    6d6f4320     Com    DCD    1836008224
        0x0000fd34:    646e616d    mand    DCD    1684955501
        0x0000fd38:    0a4b4f20     OK.    DCD    172707616
        0x0000fd3c:    00000000    ....    DCD    0
        0x0000fd40:    656e6567    gene    DCD    1701733735
        0x0000fd44:    65746172    rate    DCD    1702125938
        0x0000fd48:    72616320     car    DCD    1918984992
        0x0000fd4c:    72656972    rier    DCD    1919248754
        0x0000fd50:    76617720     wav    DCD    1986098976
        0x0000fd54:    4b4f2065    e OK    DCD    1263476837
        0x0000fd58:    0000000a    ....    DCD    10
        0x0000fd5c:    656e6567    gene    DCD    1701733735
        0x0000fd60:    65746172    rate    DCD    1702125938
        0x0000fd64:    6e6f6320     con    DCD    1852793632
        0x0000fd68:    6e617473    stan    DCD    1851880563
        0x0000fd6c:    6f6d2074    t mo    DCD    1869422708
        0x0000fd70:    61726564    dera    DCD    1634887012
        0x0000fd74:    20646574    ted     DCD    543450484
        0x0000fd78:    6e676973    sign    DCD    1852270963
        0x0000fd7c:    77206c61    al w    DCD    1998613601
        0x0000fd80:    20657661    ave     DCD    543520353
        0x0000fd84:    000a4b4f    OK..    DCD    674639
        0x0000fd88:    61766e49    Inva    DCD    1635151433
        0x0000fd8c:    2064696c    lid     DCD    543451500
        0x0000fd90:    54524155    UART    DCD    1414676821
        0x0000fd94:    65705320     Spe    DCD    1701860128
        0x0000fd98:    6c616963    cial    DCD    1818323299
        0x0000fd9c:    6d6f4320     Com    DCD    1836008224
        0x0000fda0:    646e616d    mand    DCD    1684955501
        0x0000fda4:    0d732520     %s.    DCD    225649952
        0x0000fda8:    0000000a    ....    DCD    10
        0x0000fdac:    10000005    ....    DCD    268435461
    $t
    i.decstr_to_int
    decstr_to_int
        0x0000fdb0:    b530        0.      PUSH     {r4,r5,lr}
        0x0000fdb2:    4602        .F      MOV      r2,r0
        0x0000fdb4:    2500        .%      MOVS     r5,#0
        0x0000fdb6:    2300        .#      MOVS     r3,#0
        0x0000fdb8:    2400        .$      MOVS     r4,#0
        0x0000fdba:    7810        .x      LDRB     r0,[r2,#0]
        0x0000fdbc:    282d        -(      CMP      r0,#0x2d
        0x0000fdbe:    d102        ..      BNE      0xfdc6 ; decstr_to_int + 22
        0x0000fdc0:    2501        .%      MOVS     r5,#1
        0x0000fdc2:    1c52        R.      ADDS     r2,r2,#1
        0x0000fdc4:    1c64        d.      ADDS     r4,r4,#1
        0x0000fdc6:    e007        ..      B        0xfdd8 ; decstr_to_int + 40
        0x0000fdc8:    1c64        d.      ADDS     r4,r4,#1
        0x0000fdca:    eb030083    ....    ADD      r0,r3,r3,LSL #2
        0x0000fdce:    0043        C.      LSLS     r3,r0,#1
        0x0000fdd0:    7810        .x      LDRB     r0,[r2,#0]
        0x0000fdd2:    3830        08      SUBS     r0,r0,#0x30
        0x0000fdd4:    4403        .D      ADD      r3,r3,r0
        0x0000fdd6:    1c52        R.      ADDS     r2,r2,#1
        0x0000fdd8:    7810        .x      LDRB     r0,[r2,#0]
        0x0000fdda:    2830        0(      CMP      r0,#0x30
        0x0000fddc:    db02        ..      BLT      0xfde4 ; decstr_to_int + 52
        0x0000fdde:    7810        .x      LDRB     r0,[r2,#0]
        0x0000fde0:    2839        9(      CMP      r0,#0x39
        0x0000fde2:    ddf1        ..      BLE      0xfdc8 ; decstr_to_int + 24
        0x0000fde4:    b101        ..      CBZ      r1,0xfde8 ; decstr_to_int + 56
        0x0000fde6:    600c        .`      STR      r4,[r1,#0]
        0x0000fde8:    b10d        ..      CBZ      r5,0xfdee ; decstr_to_int + 62
        0x0000fdea:    4258        XB      RSBS     r0,r3,#0
        0x0000fdec:    bd30        0.      POP      {r4,r5,pc}
        0x0000fdee:    4618        .F      MOV      r0,r3
        0x0000fdf0:    e7fc        ..      B        0xfdec ; decstr_to_int + 60
    i.divu64_10
    divu64_10
        0x0000fdf2:    e92d4ff0    -..O    PUSH     {r4-r11,lr}
        0x0000fdf6:    4604        .F      MOV      r4,r0
        0x0000fdf8:    460d        .F      MOV      r5,r1
        0x0000fdfa:    2000        .       MOVS     r0,#0
        0x0000fdfc:    ea850100    ....    EOR      r1,r5,r0
        0x0000fe00:    4040        @@      EORS     r0,r0,r0
        0x0000fe02:    4301        .C      ORRS     r1,r1,r0
        0x0000fe04:    d044        D.      BEQ      0xfe90 ; divu64_10 + 158
        0x0000fe06:    ea5f0a55    _.U.    LSRS     r10,r5,#1
        0x0000fe0a:    ea4f0134    O.4.    RRX      r1,r4
        0x0000fe0e:    ea4f0b94    O...    LSR      r11,r4,#2
        0x0000fe12:    ea4b7085    K..p    ORR      r0,r11,r5,LSL #30
        0x0000fe16:    180a        ..      ADDS     r2,r1,r0
        0x0000fe18:    eb4a0395    J...    ADC      r3,r10,r5,LSR #2
        0x0000fe1c:    ea4f1012    O...    LSR      r0,r2,#4
        0x0000fe20:    ea407a03    @..z    ORR      r10,r0,r3,LSL #28
        0x0000fe24:    eb1a0202    ....    ADDS     r2,r10,r2
        0x0000fe28:    eb431313    C...    ADC      r3,r3,r3,LSR #4
        0x0000fe2c:    ea4f2012    O..     LSR      r0,r2,#8
        0x0000fe30:    ea406a03    @..j    ORR      r10,r0,r3,LSL #24
        0x0000fe34:    eb1a0202    ....    ADDS     r2,r10,r2
        0x0000fe38:    eb432313    C..#    ADC      r3,r3,r3,LSR #8
        0x0000fe3c:    ea4f4012    O..@    LSR      r0,r2,#16
        0x0000fe40:    ea404a03    @..J    ORR      r10,r0,r3,LSL #16
        0x0000fe44:    eb1a0202    ....    ADDS     r2,r10,r2
        0x0000fe48:    eb434313    C..C    ADC      r3,r3,r3,LSR #16
        0x0000fe4c:    189a        ..      ADDS     r2,r3,r2
        0x0000fe4e:    f1430300    C...    ADC      r3,r3,#0
        0x0000fe52:    08d0        ..      LSRS     r0,r2,#3
        0x0000fe54:    ea407243    @.Cr    ORR      r2,r0,r3,LSL #29
        0x0000fe58:    08db        ..      LSRS     r3,r3,#3
        0x0000fe5a:    210a        .!      MOVS     r1,#0xa
        0x0000fe5c:    f04f0a00    O...    MOV      r10,#0
        0x0000fe60:    fba20b01    ....    UMULL    r0,r11,r2,r1
        0x0000fe64:    fb03b101    ....    MLA      r1,r3,r1,r11
        0x0000fe68:    fb02110a    ....    MLA      r1,r2,r10,r1
        0x0000fe6c:    1a26        &.      SUBS     r6,r4,r0
        0x0000fe6e:    eb650701    e...    SBC      r7,r5,r1
        0x0000fe72:    2106        .!      MOVS     r1,#6
        0x0000fe74:    eb160a01    ....    ADDS     r10,r6,r1
        0x0000fe78:    f1470100    G...    ADC      r1,r7,#0
        0x0000fe7c:    ea4f101a    O...    LSR      r0,r10,#4
        0x0000fe80:    ea407a01    @..z    ORR      r10,r0,r1,LSL #28
        0x0000fe84:    eb1a0002    ....    ADDS     r0,r10,r2
        0x0000fe88:    eb431111    C...    ADC      r1,r3,r1,LSR #4
        0x0000fe8c:    e8bd8ff0    ....    POP      {r4-r11,pc}
        0x0000fe90:    46a0        .F      MOV      r8,r4
        0x0000fe92:    ea4f0058    O.X.    LSR      r0,r8,#1
        0x0000fe96:    eb000c98    ....    ADD      r12,r0,r8,LSR #2
        0x0000fe9a:    eb0c1c1c    ....    ADD      r12,r12,r12,LSR #4
        0x0000fe9e:    eb0c2c1c    ...,    ADD      r12,r12,r12,LSR #8
        0x0000fea2:    eb0c4c1c    ...L    ADD      r12,r12,r12,LSR #16
        0x0000fea6:    ea4f0cdc    O...    LSR      r12,r12,#3
        0x0000feaa:    eb0c008c    ....    ADD      r0,r12,r12,LSL #2
        0x0000feae:    eba80940    ..@.    SUB      r9,r8,r0,LSL #1
        0x0000feb2:    f1090006    ....    ADD      r0,r9,#6
        0x0000feb6:    eb0c1010    ....    ADD      r0,r12,r0,LSR #4
        0x0000feba:    2100        .!      MOVS     r1,#0
        0x0000febc:    e7e6        ..      B        0xfe8c ; divu64_10 + 154
        0x0000febe:    0000        ..      MOVS     r0,r0
    i.fix_trans_mode
    fix_trans_mode
        0x0000fec0:    b510        ..      PUSH     {r4,lr}
        0x0000fec2:    4604        .F      MOV      r4,r0
        0x0000fec4:    480f        .H      LDR      r0,[pc,#60] ; [0xff04] = 0x10000010
        0x0000fec6:    7800        .x      LDRB     r0,[r0,#0]
        0x0000fec8:    2801        .(      CMP      r0,#1
        0x0000feca:    d105        ..      BNE      0xfed8 ; fix_trans_mode + 24
        0x0000fecc:    2101        .!      MOVS     r1,#1
        0x0000fece:    480e        .H      LDR      r0,[pc,#56] ; [0xff08] = 0x10000008
        0x0000fed0:    6800        .h      LDR      r0,[r0,#0]
        0x0000fed2:    f7fffba5    ....    BL       am_util_ble_transmitter_control ; 0xf620
        0x0000fed6:    e013        ..      B        0xff00 ; fix_trans_mode + 64
        0x0000fed8:    480c        .H      LDR      r0,[pc,#48] ; [0xff0c] = 0x40020000
        0x0000feda:    68c0        .h      LDR      r0,[r0,#0xc]
        0x0000fedc:    b2c0        ..      UXTB     r0,r0
        0x0000fede:    2811        .(      CMP      r0,#0x11
        0x0000fee0:    d004        ..      BEQ      0xfeec ; fix_trans_mode + 44
        0x0000fee2:    480a        .H      LDR      r0,[pc,#40] ; [0xff0c] = 0x40020000
        0x0000fee4:    68c0        .h      LDR      r0,[r0,#0xc]
        0x0000fee6:    b2c0        ..      UXTB     r0,r0
        0x0000fee8:    2812        .(      CMP      r0,#0x12
        0x0000feea:    d109        ..      BNE      0xff00 ; fix_trans_mode + 64
        0x0000feec:    7920         y      LDRB     r0,[r4,#4]
        0x0000feee:    2803        .(      CMP      r0,#3
        0x0000fef0:    d106        ..      BNE      0xff00 ; fix_trans_mode + 64
        0x0000fef2:    7960        `y      LDRB     r0,[r4,#5]
        0x0000fef4:    280c        .(      CMP      r0,#0xc
        0x0000fef6:    d103        ..      BNE      0xff00 ; fix_trans_mode + 64
        0x0000fef8:    4803        .H      LDR      r0,[pc,#12] ; [0xff08] = 0x10000008
        0x0000fefa:    6800        .h      LDR      r0,[r0,#0]
        0x0000fefc:    f7fffa2a    ..*.    BL       am_util_ble_init_rf_channel ; 0xf354
        0x0000ff00:    bd10        ..      POP      {r4,pc}
    $d
        0x0000ff02:    0000        ..      DCW    0
        0x0000ff04:    10000010    ....    DCD    268435472
        0x0000ff08:    10000008    ....    DCD    268435464
        0x0000ff0c:    40020000    ...@    DCD    1073872896
    $t
    i.ftoa
    ftoa
        0x0000ff10:    e92d4ff3    -..O    PUSH     {r0,r1,r4-r11,lr}
        0x0000ff14:    ed2d0b02    -...    VPUSH    {d0}
        0x0000ff18:    ed2d8b02    -...    VPUSH    {d8}
        0x0000ff1c:    b081        ..      SUB      sp,sp,#4
        0x0000ff1e:    eeb08a40    ..@.    VMOV.F32 s16,s0
        0x0000ff22:    4604        .F      MOV      r4,r0
        0x0000ff24:    f8d4b000    ....    LDR      r11,[r4,#0]
        0x0000ff28:    f1bb0f04    ....    CMP      r11,#4
        0x0000ff2c:    da07        ..      BGE      0xff3e ; ftoa + 46
        0x0000ff2e:    f06f0002    o...    MVN      r0,#2
        0x0000ff32:    b001        ..      ADD      sp,sp,#4
        0x0000ff34:    ecbd8b02    ....    VPOP     {d8}
        0x0000ff38:    b004        ..      ADD      sp,sp,#0x10
        0x0000ff3a:    e8bd8ff0    ....    POP      {r4-r11,pc}
        0x0000ff3e:    eeb58ac0    ....    VCMPE.F32 s16,#0.0
        0x0000ff42:    eef1fa10    ....    VMRS     APSR_nzcv,FPSCR
        0x0000ff46:    d103        ..      BNE      0xff50 ; ftoa + 64
        0x0000ff48:    484e        NH      LDR      r0,[pc,#312] ; [0x10084] = 0x302e30
        0x0000ff4a:    6020         `      STR      r0,[r4,#0]
        0x0000ff4c:    2003        .       MOVS     r0,#3
        0x0000ff4e:    e7f0        ..      B        0xff32 ; ftoa + 34
        0x0000ff50:    46a2        .F      MOV      r10,r4
        0x0000ff52:    ed8d8a00    ....    VSTR     s16,[sp,#0]
        0x0000ff56:    9800        ..      LDR      r0,[sp,#0]
        0x0000ff58:    f3c050c7    ...P    UBFX     r0,r0,#23,#8
        0x0000ff5c:    f1a0057f    ....    SUB      r5,r0,#0x7f
        0x0000ff60:    9800        ..      LDR      r0,[sp,#0]
        0x0000ff62:    f020407f     ..@    BIC      r0,r0,#0xff000000
        0x0000ff66:    f4400900    @...    ORR      r9,r0,#0x800000
        0x0000ff6a:    f04f0800    O...    MOV      r8,#0
        0x0000ff6e:    2700        .'      MOVS     r7,#0
        0x0000ff70:    2d1f        .-      CMP      r5,#0x1f
        0x0000ff72:    db01        ..      BLT      0xff78 ; ftoa + 104
        0x0000ff74:    1eb8        ..      SUBS     r0,r7,#2
        0x0000ff76:    e7dc        ..      B        0xff32 ; ftoa + 34
        0x0000ff78:    f1150f17    ....    CMN      r5,#0x17
        0x0000ff7c:    da02        ..      BGE      0xff84 ; ftoa + 116
        0x0000ff7e:    f04f30ff    O..0    MOV      r0,#0xffffffff
        0x0000ff82:    e7d6        ..      B        0xff32 ; ftoa + 34
        0x0000ff84:    2d17        .-      CMP      r5,#0x17
        0x0000ff86:    db04        ..      BLT      0xff92 ; ftoa + 130
        0x0000ff88:    f1a50017    ....    SUB      r0,r5,#0x17
        0x0000ff8c:    fa09f700    ....    LSL      r7,r9,r0
        0x0000ff90:    e011        ..      B        0xffb6 ; ftoa + 166
        0x0000ff92:    2d00        .-      CMP      r5,#0
        0x0000ff94:    db09        ..      BLT      0xffaa ; ftoa + 154
        0x0000ff96:    f1c50017    ....    RSB      r0,r5,#0x17
        0x0000ff9a:    fa49f700    I...    ASR      r7,r9,r0
        0x0000ff9e:    1c68        h.      ADDS     r0,r5,#1
        0x0000ffa0:    fa09f000    ....    LSL      r0,r9,r0
        0x0000ffa4:    f020487f     ..H    BIC      r8,r0,#0xff000000
        0x0000ffa8:    e005        ..      B        0xffb6 ; ftoa + 166
        0x0000ffaa:    f029407f    )..@    BIC      r0,r9,#0xff000000
        0x0000ffae:    1c69        i.      ADDS     r1,r5,#1
        0x0000ffb0:    4249        IB      RSBS     r1,r1,#0
        0x0000ffb2:    fa40f801    @...    ASR      r8,r0,r1
        0x0000ffb6:    9800        ..      LDR      r0,[sp,#0]
        0x0000ffb8:    2800        .(      CMP      r0,#0
        0x0000ffba:    da02        ..      BGE      0xffc2 ; ftoa + 178
        0x0000ffbc:    202d        -       MOVS     r0,#0x2d
        0x0000ffbe:    f8040b01    ....    STRB     r0,[r4],#1
        0x0000ffc2:    b91f        ..      CBNZ     r7,0xffcc ; ftoa + 188
        0x0000ffc4:    2030        0       MOVS     r0,#0x30
        0x0000ffc6:    f8040b01    ....    STRB     r0,[r4],#1
        0x0000ffca:    e014        ..      B        0xfff6 ; ftoa + 230
        0x0000ffcc:    2f00        ./      CMP      r7,#0
        0x0000ffce:    dd05        ..      BLE      0xffdc ; ftoa + 204
        0x0000ffd0:    4622        "F      MOV      r2,r4
        0x0000ffd2:    4638        8F      MOV      r0,r7
        0x0000ffd4:    17f9        ..      ASRS     r1,r7,#31
        0x0000ffd6:    f000fba2    ....    BL       uint64_to_str ; 0x1071e
        0x0000ffda:    e007        ..      B        0xffec ; ftoa + 220
        0x0000ffdc:    202d        -       MOVS     r0,#0x2d
        0x0000ffde:    f8040b01    ....    STRB     r0,[r4],#1
        0x0000ffe2:    4622        "F      MOV      r2,r4
        0x0000ffe4:    4278        xB      RSBS     r0,r7,#0
        0x0000ffe6:    17c1        ..      ASRS     r1,r0,#31
        0x0000ffe8:    f000fb99    ....    BL       uint64_to_str ; 0x1071e
        0x0000ffec:    e000        ..      B        0xfff0 ; ftoa + 224
        0x0000ffee:    1c64        d.      ADDS     r4,r4,#1
        0x0000fff0:    7820         x      LDRB     r0,[r4,#0]
        0x0000fff2:    2800        .(      CMP      r0,#0
        0x0000fff4:    d1fb        ..      BNE      0xffee ; ftoa + 222
        0x0000fff6:    202e        .       MOVS     r0,#0x2e
        0x0000fff8:    f8040b01    ....    STRB     r0,[r4],#1
        0x0000fffc:    f1b80f00    ....    CMP      r8,#0
        0x00010000:    d103        ..      BNE      0x1000a ; ftoa + 250
        0x00010002:    2030        0       MOVS     r0,#0x30
        0x00010004:    f8040b01    ....    STRB     r0,[r4],#1
        0x00010008:    e036        6.      B        0x10078 ; ftoa + 360
        0x0001000a:    eba4020a    ....    SUB      r2,r4,r10
        0x0001000e:    ebab0202    ....    SUB      r2,r11,r2
        0x00010012:    1e51        Q.      SUBS     r1,r2,#1
        0x00010014:    9a06        ..      LDR      r2,[sp,#0x18]
        0x00010016:    4291        .B      CMP      r1,r2
        0x00010018:    dd01        ..      BLE      0x1001e ; ftoa + 270
        0x0001001a:    9a06        ..      LDR      r2,[sp,#0x18]
        0x0001001c:    e000        ..      B        0x10020 ; ftoa + 272
        0x0001001e:    460a        .F      MOV      r2,r1
        0x00010020:    4611        .F      MOV      r1,r2
        0x00010022:    2000        .       MOVS     r0,#0
        0x00010024:    e00b        ..      B        0x1003e ; ftoa + 302
        0x00010026:    eb080288    ....    ADD      r2,r8,r8,LSL #2
        0x0001002a:    ea4f0842    O.B.    LSL      r8,r2,#1
        0x0001002e:    2230        0"      MOVS     r2,#0x30
        0x00010030:    eb026228    ..(b    ADD      r2,r2,r8,ASR #24
        0x00010034:    f8042b01    ...+    STRB     r2,[r4],#1
        0x00010038:    f028487f    (..H    BIC      r8,r8,#0xff000000
        0x0001003c:    1c40        @.      ADDS     r0,r0,#1
        0x0001003e:    4288        .B      CMP      r0,r1
        0x00010040:    dbf1        ..      BLT      0x10026 ; ftoa + 278
        0x00010042:    eb080288    ....    ADD      r2,r8,r8,LSL #2
        0x00010046:    0052        R.      LSLS     r2,r2,#1
        0x00010048:    2305        .#      MOVS     r3,#5
        0x0001004a:    ebb36f22    .."o    CMP      r3,r2,ASR #24
        0x0001004e:    dc12        ..      BGT      0x10076 ; ftoa + 358
        0x00010050:    1e66        f.      SUBS     r6,r4,#1
        0x00010052:    e00d        ..      B        0x10070 ; ftoa + 352
        0x00010054:    7832        2x      LDRB     r2,[r6,#0]
        0x00010056:    2a2e        .*      CMP      r2,#0x2e
        0x00010058:    d009        ..      BEQ      0x1006e ; ftoa + 350
        0x0001005a:    7832        2x      LDRB     r2,[r6,#0]
        0x0001005c:    2a39        9*      CMP      r2,#0x39
        0x0001005e:    d102        ..      BNE      0x10066 ; ftoa + 342
        0x00010060:    2230        0"      MOVS     r2,#0x30
        0x00010062:    7032        2p      STRB     r2,[r6,#0]
        0x00010064:    e003        ..      B        0x1006e ; ftoa + 350
        0x00010066:    7832        2x      LDRB     r2,[r6,#0]
        0x00010068:    1c52        R.      ADDS     r2,r2,#1
        0x0001006a:    7032        2p      STRB     r2,[r6,#0]
        0x0001006c:    e002        ..      B        0x10074 ; ftoa + 356
        0x0001006e:    1e76        v.      SUBS     r6,r6,#1
        0x00010070:    4556        VE      CMP      r6,r10
        0x00010072:    d2ef        ..      BCS      0x10054 ; ftoa + 324
        0x00010074:    bf00        ..      NOP      
        0x00010076:    bf00        ..      NOP      
        0x00010078:    2000        .       MOVS     r0,#0
        0x0001007a:    7020         p      STRB     r0,[r4,#0]
        0x0001007c:    eba4000a    ....    SUB      r0,r4,r10
        0x00010080:    e757        W.      B        0xff32 ; ftoa + 34
    $d
        0x00010082:    0000        ..      DCW    0
        0x00010084:    00302e30    0.0.    DCD    3157552
    $t
    i.hciUartRxIncoming
    hciUartRxIncoming
        0x00010088:    e92d41f0    -..A    PUSH     {r4-r8,lr}
        0x0001008c:    4604        .F      MOV      r4,r0
        0x0001008e:    460d        .F      MOV      r5,r1
        0x00010090:    2600        .&      MOVS     r6,#0
        0x00010092:    e0b8        ..      B        0x10206 ; hciUartRxIncoming + 382
        0x00010094:    7827        'x      LDRB     r7,[r4,#0]
        0x00010096:    485e        ^H      LDR      r0,[pc,#376] ; [0x10210] = 0x10000011
        0x00010098:    7800        .x      LDRB     r0,[r0,#0]
        0x0001009a:    b968        h.      CBNZ     r0,0x100b8 ; hciUartRxIncoming + 48
        0x0001009c:    485d        ]H      LDR      r0,[pc,#372] ; [0x10214] = 0x10000012
        0x0001009e:    7007        .p      STRB     r7,[r0,#0]
        0x000100a0:    2000        .       MOVS     r0,#0
        0x000100a2:    495d        ]I      LDR      r1,[pc,#372] ; [0x10218] = 0x10000014
        0x000100a4:    8008        ..      STRH     r0,[r1,#0]
        0x000100a6:    2001        .       MOVS     r0,#1
        0x000100a8:    4959        YI      LDR      r1,[pc,#356] ; [0x10210] = 0x10000011
        0x000100aa:    7008        .p      STRB     r0,[r1,#0]
        0x000100ac:    1c64        d.      ADDS     r4,r4,#1
        0x000100ae:    1c70        p.      ADDS     r0,r6,#1
        0x000100b0:    b286        ..      UXTH     r6,r0
        0x000100b2:    1e68        h.      SUBS     r0,r5,#1
        0x000100b4:    b285        ..      UXTH     r5,r0
        0x000100b6:    e088        ..      B        0x101ca ; hciUartRxIncoming + 322
        0x000100b8:    4855        UH      LDR      r0,[pc,#340] ; [0x10210] = 0x10000011
        0x000100ba:    7800        .x      LDRB     r0,[r0,#0]
        0x000100bc:    2801        .(      CMP      r0,#1
        0x000100be:    d168        h.      BNE      0x10192 ; hciUartRxIncoming + 266
        0x000100c0:    2100        .!      MOVS     r1,#0
        0x000100c2:    2200        ."      MOVS     r2,#0
        0x000100c4:    4853        SH      LDR      r0,[pc,#332] ; [0x10214] = 0x10000012
        0x000100c6:    7800        .x      LDRB     r0,[r0,#0]
        0x000100c8:    2801        .(      CMP      r0,#1
        0x000100ca:    d101        ..      BNE      0x100d0 ; hciUartRxIncoming + 72
        0x000100cc:    2103        .!      MOVS     r1,#3
        0x000100ce:    e00b        ..      B        0x100e8 ; hciUartRxIncoming + 96
        0x000100d0:    4850        PH      LDR      r0,[pc,#320] ; [0x10214] = 0x10000012
        0x000100d2:    7800        .x      LDRB     r0,[r0,#0]
        0x000100d4:    2802        .(      CMP      r0,#2
        0x000100d6:    d101        ..      BNE      0x100dc ; hciUartRxIncoming + 84
        0x000100d8:    2104        .!      MOVS     r1,#4
        0x000100da:    e005        ..      B        0x100e8 ; hciUartRxIncoming + 96
        0x000100dc:    2000        .       MOVS     r0,#0
        0x000100de:    4b4c        LK      LDR      r3,[pc,#304] ; [0x10210] = 0x10000011
        0x000100e0:    7018        .p      STRB     r0,[r3,#0]
        0x000100e2:    4630        0F      MOV      r0,r6
        0x000100e4:    e8bd81f0    ....    POP      {r4-r8,pc}
        0x000100e8:    484b        KH      LDR      r0,[pc,#300] ; [0x10218] = 0x10000014
        0x000100ea:    8800        ..      LDRH     r0,[r0,#0]
        0x000100ec:    4288        .B      CMP      r0,r1
        0x000100ee:    d00e        ..      BEQ      0x1010e ; hciUartRxIncoming + 134
        0x000100f0:    4849        IH      LDR      r0,[pc,#292] ; [0x10218] = 0x10000014
        0x000100f2:    8803        ..      LDRH     r3,[r0,#0]
        0x000100f4:    8800        ..      LDRH     r0,[r0,#0]
        0x000100f6:    1c40        @.      ADDS     r0,r0,#1
        0x000100f8:    f8dfc11c    ....    LDR      r12,[pc,#284] ; [0x10218] = 0x10000014
        0x000100fc:    f8ac0000    ....    STRH     r0,[r12,#0]
        0x00010100:    4846        FH      LDR      r0,[pc,#280] ; [0x1021c] = 0x10000016
        0x00010102:    54c7        .T      STRB     r7,[r0,r3]
        0x00010104:    1c64        d.      ADDS     r4,r4,#1
        0x00010106:    1c70        p.      ADDS     r0,r6,#1
        0x00010108:    b286        ..      UXTH     r6,r0
        0x0001010a:    1e68        h.      SUBS     r0,r5,#1
        0x0001010c:    b285        ..      UXTH     r5,r0
        0x0001010e:    4842        BH      LDR      r0,[pc,#264] ; [0x10218] = 0x10000014
        0x00010110:    8800        ..      LDRH     r0,[r0,#0]
        0x00010112:    4288        .B      CMP      r0,r1
        0x00010114:    d13c        <.      BNE      0x10190 ; hciUartRxIncoming + 264
        0x00010116:    2000        .       MOVS     r0,#0
        0x00010118:    4b3e        >K      LDR      r3,[pc,#248] ; [0x10214] = 0x10000012
        0x0001011a:    781b        .x      LDRB     r3,[r3,#0]
        0x0001011c:    2b01        .+      CMP      r3,#1
        0x0001011e:    d102        ..      BNE      0x10126 ; hciUartRxIncoming + 158
        0x00010120:    4b3e        >K      LDR      r3,[pc,#248] ; [0x1021c] = 0x10000016
        0x00010122:    789a        .x      LDRB     r2,[r3,#2]
        0x00010124:    e00a        ..      B        0x1013c ; hciUartRxIncoming + 180
        0x00010126:    4b3b        ;K      LDR      r3,[pc,#236] ; [0x10214] = 0x10000012
        0x00010128:    781b        .x      LDRB     r3,[r3,#0]
        0x0001012a:    2b02        .+      CMP      r3,#2
        0x0001012c:    d106        ..      BNE      0x1013c ; hciUartRxIncoming + 180
        0x0001012e:    4b3b        ;K      LDR      r3,[pc,#236] ; [0x1021c] = 0x10000016
        0x00010130:    f893c002    ....    LDRB     r12,[r3,#2]
        0x00010134:    78db        .x      LDRB     r3,[r3,#3]
        0x00010136:    eb0c2303    ...#    ADD      r3,r12,r3,LSL #8
        0x0001013a:    b29a        ..      UXTH     r2,r3
        0x0001013c:    4b38        8K      LDR      r3,[pc,#224] ; [0x10220] = 0x10003660
        0x0001013e:    f8dfc0e4    ....    LDR      r12,[pc,#228] ; [0x10224] = 0x1000001c
        0x00010142:    f8cc3000    ...0    STR      r3,[r12,#0]
        0x00010146:    2000        .       MOVS     r0,#0
        0x00010148:    e010        ..      B        0x1016c ; hciUartRxIncoming + 228
        0x0001014a:    4b34        4K      LDR      r3,[pc,#208] ; [0x1021c] = 0x10000016
        0x0001014c:    5c1b        .\      LDRB     r3,[r3,r0]
        0x0001014e:    f8dfc0d4    ....    LDR      r12,[pc,#212] ; [0x10224] = 0x1000001c
        0x00010152:    f8dcc000    ....    LDR      r12,[r12,#0]
        0x00010156:    f88c3000    ...0    STRB     r3,[r12,#0]
        0x0001015a:    4b32        2K      LDR      r3,[pc,#200] ; [0x10224] = 0x1000001c
        0x0001015c:    681b        .h      LDR      r3,[r3,#0]
        0x0001015e:    1c5b        [.      ADDS     r3,r3,#1
        0x00010160:    f8dfc0c0    ....    LDR      r12,[pc,#192] ; [0x10224] = 0x1000001c
        0x00010164:    f8cc3000    ...0    STR      r3,[r12,#0]
        0x00010168:    1c43        C.      ADDS     r3,r0,#1
        0x0001016a:    b2d8        ..      UXTB     r0,r3
        0x0001016c:    4288        .B      CMP      r0,r1
        0x0001016e:    dbec        ..      BLT      0x1014a ; hciUartRxIncoming + 194
        0x00010170:    4b29        )K      LDR      r3,[pc,#164] ; [0x10218] = 0x10000014
        0x00010172:    801a        ..      STRH     r2,[r3,#0]
        0x00010174:    881b        ..      LDRH     r3,[r3,#0]
        0x00010176:    b92b        +.      CBNZ     r3,0x10184 ; hciUartRxIncoming + 252
        0x00010178:    2303        .#      MOVS     r3,#3
        0x0001017a:    f8dfc094    ....    LDR      r12,[pc,#148] ; [0x10210] = 0x10000011
        0x0001017e:    f88c3000    ...0    STRB     r3,[r12,#0]
        0x00010182:    e004        ..      B        0x1018e ; hciUartRxIncoming + 262
        0x00010184:    2302        .#      MOVS     r3,#2
        0x00010186:    f8dfc088    ....    LDR      r12,[pc,#136] ; [0x10210] = 0x10000011
        0x0001018a:    f88c3000    ...0    STRB     r3,[r12,#0]
        0x0001018e:    bf00        ..      NOP      
        0x00010190:    e01b        ..      B        0x101ca ; hciUartRxIncoming + 322
        0x00010192:    481f        .H      LDR      r0,[pc,#124] ; [0x10210] = 0x10000011
        0x00010194:    7800        .x      LDRB     r0,[r0,#0]
        0x00010196:    2802        .(      CMP      r0,#2
        0x00010198:    d117        ..      BNE      0x101ca ; hciUartRxIncoming + 322
        0x0001019a:    4822        "H      LDR      r0,[pc,#136] ; [0x10224] = 0x1000001c
        0x0001019c:    6800        .h      LDR      r0,[r0,#0]
        0x0001019e:    7007        .p      STRB     r7,[r0,#0]
        0x000101a0:    4820         H      LDR      r0,[pc,#128] ; [0x10224] = 0x1000001c
        0x000101a2:    6800        .h      LDR      r0,[r0,#0]
        0x000101a4:    1c40        @.      ADDS     r0,r0,#1
        0x000101a6:    491f        .I      LDR      r1,[pc,#124] ; [0x10224] = 0x1000001c
        0x000101a8:    6008        .`      STR      r0,[r1,#0]
        0x000101aa:    481b        .H      LDR      r0,[pc,#108] ; [0x10218] = 0x10000014
        0x000101ac:    8800        ..      LDRH     r0,[r0,#0]
        0x000101ae:    1e40        @.      SUBS     r0,r0,#1
        0x000101b0:    4919        .I      LDR      r1,[pc,#100] ; [0x10218] = 0x10000014
        0x000101b2:    8008        ..      STRH     r0,[r1,#0]
        0x000101b4:    4608        .F      MOV      r0,r1
        0x000101b6:    8800        ..      LDRH     r0,[r0,#0]
        0x000101b8:    b910        ..      CBNZ     r0,0x101c0 ; hciUartRxIncoming + 312
        0x000101ba:    2003        .       MOVS     r0,#3
        0x000101bc:    4914        .I      LDR      r1,[pc,#80] ; [0x10210] = 0x10000011
        0x000101be:    7008        .p      STRB     r0,[r1,#0]
        0x000101c0:    1c64        d.      ADDS     r4,r4,#1
        0x000101c2:    1c70        p.      ADDS     r0,r6,#1
        0x000101c4:    b286        ..      UXTH     r6,r0
        0x000101c6:    1e68        h.      SUBS     r0,r5,#1
        0x000101c8:    b285        ..      UXTH     r5,r0
        0x000101ca:    4811        .H      LDR      r0,[pc,#68] ; [0x10210] = 0x10000011
        0x000101cc:    7800        .x      LDRB     r0,[r0,#0]
        0x000101ce:    2803        .(      CMP      r0,#3
        0x000101d0:    d119        ..      BNE      0x10206 ; hciUartRxIncoming + 382
        0x000101d2:    200f        .       MOVS     r0,#0xf
        0x000101d4:    2800        .(      CMP      r0,#0
        0x000101d6:    db0b        ..      BLT      0x101f0 ; hciUartRxIncoming + 360
        0x000101d8:    f000021f    ....    AND      r2,r0,#0x1f
        0x000101dc:    2101        .!      MOVS     r1,#1
        0x000101de:    4091        .@      LSLS     r1,r1,r2
        0x000101e0:    4a11        .J      LDR      r2,[pc,#68] ; [0x10228] = 0xe000e180
        0x000101e2:    0943        C.      LSRS     r3,r0,#5
        0x000101e4:    f8421023    B.#.    STR      r1,[r2,r3,LSL #2]
        0x000101e8:    f3bf8f4f    ..O.    DSB      
        0x000101ec:    f3bf8f6f    ..o.    ISB      
        0x000101f0:    bf00        ..      NOP      
        0x000101f2:    2001        .       MOVS     r0,#1
        0x000101f4:    490d        .I      LDR      r1,[pc,#52] ; [0x1022c] = 0x10000004
        0x000101f6:    7008        .p      STRB     r0,[r1,#0]
        0x000101f8:    4631        1F      MOV      r1,r6
        0x000101fa:    480d        .H      LDR      r0,[pc,#52] ; [0x10230] = 0x10002e60
        0x000101fc:    f7fffca4    ....    BL       cmd_handler ; 0xfb48
        0x00010200:    2000        .       MOVS     r0,#0
        0x00010202:    4903        .I      LDR      r1,[pc,#12] ; [0x10210] = 0x10000011
        0x00010204:    7008        .p      STRB     r0,[r1,#0]
        0x00010206:    2d00        .-      CMP      r5,#0
        0x00010208:    f47faf44    ..D.    BNE      0x10094 ; hciUartRxIncoming + 12
        0x0001020c:    4630        0F      MOV      r0,r6
        0x0001020e:    e769        i.      B        0x100e4 ; hciUartRxIncoming + 92
    $d
        0x00010210:    10000011    ....    DCD    268435473
        0x00010214:    10000012    ....    DCD    268435474
        0x00010218:    10000014    ....    DCD    268435476
        0x0001021c:    10000016    ....    DCD    268435478
        0x00010220:    10003660    `6..    DCD    268449376
        0x00010224:    1000001c    ....    DCD    268435484
        0x00010228:    e000e180    ....    DCD    3758154112
        0x0001022c:    10000004    ....    DCD    268435460
        0x00010230:    10002e60    `...    DCD    268447328
    $t
    i.main
    main
        0x00010234:    b090        ..      SUB      sp,sp,#0x40
        0x00010236:    2100        .!      MOVS     r1,#0
        0x00010238:    4608        .F      MOV      r0,r1
        0x0001023a:    f7fdfda7    ....    BL       am_hal_clkgen_control ; 0xdd8c
        0x0001023e:    f7fcf8db    ....    BL       am_bsp_low_power_init ; 0xc3f8
        0x00010242:    f7fcf8bb    ....    BL       am_bsp_itm_printf_enable ; 0xc3bc
        0x00010246:    a06b        k.      ADR      r0,{pc}+0x1ae ; 0x103f4
        0x00010248:    f7fffa80    ....    BL       am_util_stdio_printf ; 0xf74c
        0x0001024c:    2228        ("      MOVS     r2,#0x28
        0x0001024e:    4970        pI      LDR      r1,[pc,#448] ; [0x10410] = 0x109d0
        0x00010250:    a805        ..      ADD      r0,sp,#0x14
        0x00010252:    f7fcf80d    ....    BL       __aeabi_memcpy4 ; 0xc270
        0x00010256:    496f        oI      LDR      r1,[pc,#444] ; [0x10414] = 0x1000000c
        0x00010258:    2000        .       MOVS     r0,#0
        0x0001025a:    f7fefcbb    ....    BL       am_hal_uart_initialize ; 0xebd4
        0x0001025e:    2200        ."      MOVS     r2,#0
        0x00010260:    4611        .F      MOV      r1,r2
        0x00010262:    486c        lH      LDR      r0,[pc,#432] ; [0x10414] = 0x1000000c
        0x00010264:    6800        .h      LDR      r0,[r0,#0]
        0x00010266:    f7fefde5    ....    BL       am_hal_uart_power_control ; 0xee34
        0x0001026a:    a905        ..      ADD      r1,sp,#0x14
        0x0001026c:    4869        iH      LDR      r0,[pc,#420] ; [0x10414] = 0x1000000c
        0x0001026e:    6800        .h      LDR      r0,[r0,#0]
        0x00010270:    f7fefb78    ..x.    BL       am_hal_uart_configure ; 0xe964
        0x00010274:    4868        hH      LDR      r0,[pc,#416] ; [0x10418] = 0x109b4
        0x00010276:    6801        .h      LDR      r1,[r0,#0]
        0x00010278:    2016        .       MOVS     r0,#0x16
        0x0001027a:    f7fdfe77    ..w.    BL       am_hal_gpio_pinconfig ; 0xdf6c
        0x0001027e:    4867        gH      LDR      r0,[pc,#412] ; [0x1041c] = 0x109b8
        0x00010280:    6801        .h      LDR      r1,[r0,#0]
        0x00010282:    2017        .       MOVS     r0,#0x17
        0x00010284:    f7fdfe72    ..r.    BL       am_hal_gpio_pinconfig ; 0xdf6c
        0x00010288:    200f        .       MOVS     r0,#0xf
        0x0001028a:    f7fcf886    ....    BL       __NVIC_EnableIRQ ; 0xc39a
        0x0001028e:    2150        P!      MOVS     r1,#0x50
        0x00010290:    4860        `H      LDR      r0,[pc,#384] ; [0x10414] = 0x1000000c
        0x00010292:    6800        .h      LDR      r0,[r0,#0]
        0x00010294:    f7fefce0    ....    BL       am_hal_uart_interrupt_enable ; 0xec58
        0x00010298:    f7fbffd2    ....    BL       am_hal_interrupt_master_enable ; 0xc240
        0x0001029c:    4960        `I      LDR      r1,[pc,#384] ; [0x10420] = 0x10000008
        0x0001029e:    2000        .       MOVS     r0,#0
        0x000102a0:    f7fcfd44    ..D.    BL       am_hal_ble_initialize ; 0xcd2c
        0x000102a4:    2100        .!      MOVS     r1,#0
        0x000102a6:    485e        ^H      LDR      r0,[pc,#376] ; [0x10420] = 0x10000008
        0x000102a8:    6800        .h      LDR      r0,[r0,#0]
        0x000102aa:    f7fdfa2f    ../.    BL       am_hal_ble_power_control ; 0xd70c
        0x000102ae:    495d        ]I      LDR      r1,[pc,#372] ; [0x10424] = 0x10c6c
        0x000102b0:    485b        [H      LDR      r0,[pc,#364] ; [0x10420] = 0x10000008
        0x000102b2:    6800        .h      LDR      r0,[r0,#0]
        0x000102b4:    f7fcfba6    ....    BL       am_hal_ble_config ; 0xca04
        0x000102b8:    f44f707a    O.zp    MOV      r0,#0x3e8
        0x000102bc:    f7fff9da    ....    BL       am_util_delay_ms ; 0xf674
        0x000102c0:    4859        YH      LDR      r0,[pc,#356] ; [0x10428] = 0x40020000
        0x000102c2:    68c0        .h      LDR      r0,[r0,#0xc]
        0x000102c4:    b2c0        ..      UXTB     r0,r0
        0x000102c6:    2811        .(      CMP      r0,#0x11
        0x000102c8:    d004        ..      BEQ      0x102d4 ; main + 160
        0x000102ca:    4857        WH      LDR      r0,[pc,#348] ; [0x10428] = 0x40020000
        0x000102cc:    68c0        .h      LDR      r0,[r0,#0xc]
        0x000102ce:    b2c0        ..      UXTB     r0,r0
        0x000102d0:    2812        .(      CMP      r0,#0x12
        0x000102d2:    d103        ..      BNE      0x102dc ; main + 168
        0x000102d4:    4852        RH      LDR      r0,[pc,#328] ; [0x10420] = 0x10000008
        0x000102d6:    6800        .h      LDR      r0,[r0,#0]
        0x000102d8:    f7fcfc3a    ..:.    BL       am_hal_ble_default_copy_patch_apply ; 0xcb50
        0x000102dc:    4850        PH      LDR      r0,[pc,#320] ; [0x10420] = 0x10000008
        0x000102de:    6800        .h      LDR      r0,[r0,#0]
        0x000102e0:    f7fcfccc    ....    BL       am_hal_ble_default_trim_set_ramcode ; 0xcc7c
        0x000102e4:    484e        NH      LDR      r0,[pc,#312] ; [0x10420] = 0x10000008
        0x000102e6:    6800        .h      LDR      r0,[r0,#0]
        0x000102e8:    f7fcfc6c    ..l.    BL       am_hal_ble_default_patch_apply ; 0xcbc4
        0x000102ec:    484c        LH      LDR      r0,[pc,#304] ; [0x10420] = 0x10000008
        0x000102ee:    6800        .h      LDR      r0,[r0,#0]
        0x000102f0:    f7fcff1a    ....    BL       am_hal_ble_patch_complete ; 0xd128
        0x000102f4:    210f        .!      MOVS     r1,#0xf
        0x000102f6:    484a        JH      LDR      r0,[pc,#296] ; [0x10420] = 0x10000008
        0x000102f8:    6800        .h      LDR      r0,[r0,#0]
        0x000102fa:    f7fdfb69    ..i.    BL       am_hal_ble_tx_power_set ; 0xd9d0
        0x000102fe:    2180        .!      MOVS     r1,#0x80
        0x00010300:    4847        GH      LDR      r0,[pc,#284] ; [0x10420] = 0x10000008
        0x00010302:    6800        .h      LDR      r0,[r0,#0]
        0x00010304:    f7fcfd4e    ..N.    BL       am_hal_ble_int_clear ; 0xcda4
        0x00010308:    e073        s.      B        0x103f2 ; main + 446
        0x0001030a:    2100        .!      MOVS     r1,#0
        0x0001030c:    4844        DH      LDR      r0,[pc,#272] ; [0x10420] = 0x10000008
        0x0001030e:    6800        .h      LDR      r0,[r0,#0]
        0x00010310:    f7fcfd5e    ..^.    BL       am_hal_ble_int_status ; 0xcdd0
        0x00010314:    4605        .F      MOV      r5,r0
        0x00010316:    4629        )F      MOV      r1,r5
        0x00010318:    4841        AH      LDR      r0,[pc,#260] ; [0x10420] = 0x10000008
        0x0001031a:    6800        .h      LDR      r0,[r0,#0]
        0x0001031c:    f7fcfd42    ..B.    BL       am_hal_ble_int_clear ; 0xcda4
        0x00010320:    f0050080    ....    AND      r0,r5,#0x80
        0x00010324:    2800        .(      CMP      r0,#0
        0x00010326:    d02a        *.      BEQ      0x1037e ; main + 330
        0x00010328:    aa0f        ..      ADD      r2,sp,#0x3c
        0x0001032a:    4940        @I      LDR      r1,[pc,#256] ; [0x1042c] = 0x10003260
        0x0001032c:    483c        <H      LDR      r0,[pc,#240] ; [0x10420] = 0x10000008
        0x0001032e:    6800        .h      LDR      r0,[r0,#0]
        0x00010330:    f7fcf884    ....    BL       am_hal_ble_blocking_hci_read ; 0xc43c
        0x00010334:    4604        .F      MOV      r4,r0
        0x00010336:    483e        >H      LDR      r0,[pc,#248] ; [0x10430] = 0x5000c410
        0x00010338:    6800        .h      LDR      r0,[r0,#0]
        0x0001033a:    f0200002     ...    BIC      r0,r0,#2
        0x0001033e:    1c80        ..      ADDS     r0,r0,#2
        0x00010340:    493b        ;I      LDR      r1,[pc,#236] ; [0x10430] = 0x5000c410
        0x00010342:    6008        .`      STR      r0,[r1,#0]
        0x00010344:    b9b4        ..      CBNZ     r4,0x10374 ; main + 320
        0x00010346:    980f        ..      LDR      r0,[sp,#0x3c]
        0x00010348:    2800        .(      CMP      r0,#0
        0x0001034a:    d052        R.      BEQ      0x103f2 ; main + 446
        0x0001034c:    2214        ."      MOVS     r2,#0x14
        0x0001034e:    4930        0I      LDR      r1,[pc,#192] ; [0x10410] = 0x109d0
        0x00010350:    3128        (1      ADDS     r1,r1,#0x28
        0x00010352:    4668        hF      MOV      r0,sp
        0x00010354:    f7fbff8c    ....    BL       __aeabi_memcpy4 ; 0xc270
        0x00010358:    980f        ..      LDR      r0,[sp,#0x3c]
        0x0001035a:    9002        ..      STR      r0,[sp,#8]
        0x0001035c:    4833        3H      LDR      r0,[pc,#204] ; [0x1042c] = 0x10003260
        0x0001035e:    f7fffdaf    ....    BL       fix_trans_mode ; 0xfec0
        0x00010362:    4669        iF      MOV      r1,sp
        0x00010364:    482b        +H      LDR      r0,[pc,#172] ; [0x10414] = 0x1000000c
        0x00010366:    6800        .h      LDR      r0,[r0,#0]
        0x00010368:    f7fefde6    ....    BL       am_hal_uart_transfer ; 0xef38
        0x0001036c:    2001        .       MOVS     r0,#1
        0x0001036e:    f7fff981    ....    BL       am_util_delay_ms ; 0xf674
        0x00010372:    e03e        >.      B        0x103f2 ; main + 446
        0x00010374:    a02f        /.      ADR      r0,{pc}+0xc0 ; 0x10434
        0x00010376:    f7fff9e9    ....    BL       am_util_stdio_printf ; 0xf74c
        0x0001037a:    bf00        ..      NOP      
        0x0001037c:    e7fe        ..      B        0x1037c ; main + 328
        0x0001037e:    4836        6H      LDR      r0,[pc,#216] ; [0x10458] = 0x10000004
        0x00010380:    7800        .x      LDRB     r0,[r0,#0]
        0x00010382:    2800        .(      CMP      r0,#0
        0x00010384:    d035        5.      BEQ      0x103f2 ; main + 446
        0x00010386:    4835        5H      LDR      r0,[pc,#212] ; [0x1045c] = 0x10000005
        0x00010388:    7800        .x      LDRB     r0,[r0,#0]
        0x0001038a:    2800        .(      CMP      r0,#0
        0x0001038c:    d129        ).      BNE      0x103e2 ; main + 430
        0x0001038e:    4834        4H      LDR      r0,[pc,#208] ; [0x10460] = 0x10000000
        0x00010390:    6803        .h      LDR      r3,[r0,#0]
        0x00010392:    4a34        4J      LDR      r2,[pc,#208] ; [0x10464] = 0x10002e60
        0x00010394:    2100        .!      MOVS     r1,#0
        0x00010396:    4822        "H      LDR      r0,[pc,#136] ; [0x10420] = 0x10000008
        0x00010398:    6800        .h      LDR      r0,[r0,#0]
        0x0001039a:    f7fcf89f    ....    BL       am_hal_ble_blocking_hci_write ; 0xc4dc
        0x0001039e:    2600        .&      MOVS     r6,#0
        0x000103a0:    e018        ..      B        0x103d4 ; main + 416
        0x000103a2:    2005        .       MOVS     r0,#5
        0x000103a4:    f7fff966    ..f.    BL       am_util_delay_ms ; 0xf674
        0x000103a8:    2101        .!      MOVS     r1,#1
        0x000103aa:    481d        .H      LDR      r0,[pc,#116] ; [0x10420] = 0x10000008
        0x000103ac:    6800        .h      LDR      r0,[r0,#0]
        0x000103ae:    f7fdfb65    ..e.    BL       am_hal_ble_wakeup_set ; 0xda7c
        0x000103b2:    2005        .       MOVS     r0,#5
        0x000103b4:    f7fff95e    ..^.    BL       am_util_delay_ms ; 0xf674
        0x000103b8:    2100        .!      MOVS     r1,#0
        0x000103ba:    4819        .H      LDR      r0,[pc,#100] ; [0x10420] = 0x10000008
        0x000103bc:    6800        .h      LDR      r0,[r0,#0]
        0x000103be:    f7fdfb5d    ..].    BL       am_hal_ble_wakeup_set ; 0xda7c
        0x000103c2:    4630        0F      MOV      r0,r6
        0x000103c4:    1c76        v.      ADDS     r6,r6,#1
        0x000103c6:    f5b07f7a    ..z.    CMP      r0,#0x3e8
        0x000103ca:    d903        ..      BLS      0x103d4 ; main + 416
        0x000103cc:    4631        1F      MOV      r1,r6
        0x000103ce:    a026        &.      ADR      r0,{pc}+0x9a ; 0x10468
        0x000103d0:    f7fff9bc    ....    BL       am_util_stdio_printf ; 0xf74c
        0x000103d4:    4831        1H      LDR      r0,[pc,#196] ; [0x1049c] = 0x5000c30c
        0x000103d6:    6800        .h      LDR      r0,[r0,#0]
        0x000103d8:    f3c010c0    ....    UBFX     r0,r0,#7,#1
        0x000103dc:    2800        .(      CMP      r0,#0
        0x000103de:    d0e0        ..      BEQ      0x103a2 ; main + 366
        0x000103e0:    bf00        ..      NOP      
        0x000103e2:    2000        .       MOVS     r0,#0
        0x000103e4:    491e        .I      LDR      r1,[pc,#120] ; [0x10460] = 0x10000000
        0x000103e6:    6008        .`      STR      r0,[r1,#0]
        0x000103e8:    491b        .I      LDR      r1,[pc,#108] ; [0x10458] = 0x10000004
        0x000103ea:    7008        .p      STRB     r0,[r1,#0]
        0x000103ec:    200f        .       MOVS     r0,#0xf
        0x000103ee:    f7fbffd4    ....    BL       __NVIC_EnableIRQ ; 0xc39a
        0x000103f2:    e78a        ..      B        0x1030a ; main + 214
    $d
        0x000103f4:    6c6f7041    Apol    DCD    1819242561
        0x000103f8:    20336f6c    lo3     DCD    540241772
        0x000103fc:    54524155    UART    DCD    1414676821
        0x00010400:    206f7420     to     DCD    544175136
        0x00010404:    20495053    SPI     DCD    541675603
        0x00010408:    64697242    Brid    DCD    1684632130
        0x0001040c:    000a6567    ge..    DCD    681319
        0x00010410:    000109d0    ....    DCD    68048
        0x00010414:    1000000c    ....    DCD    268435468
        0x00010418:    000109b4    ....    DCD    68020
        0x0001041c:    000109b8    ....    DCD    68024
        0x00010420:    10000008    ....    DCD    268435464
        0x00010424:    00010c6c    l...    DCD    68716
        0x00010428:    40020000    ...@    DCD    1073872896
        0x0001042c:    10003260    `2..    DCD    268448352
        0x00010430:    5000c410    ...P    DCD    1342227472
        0x00010434:    64616552    Read    DCD    1684104530
        0x00010438:    6f726620     fro    DCD    1869768224
        0x0001043c:    4c42206d    m BL    DCD    1279402093
        0x00010440:    6f432045    E Co    DCD    1866670149
        0x00010444:    6f72746e    ntro    DCD    1869771886
        0x00010448:    72656c6c    ller    DCD    1919249516
        0x0001044c:    69616620     fai    DCD    1767990816
        0x00010450:    0a64656c    led.    DCD    174351724
        0x00010454:    00000000    ....    DCD    0
        0x00010458:    10000004    ....    DCD    268435460
        0x0001045c:    10000005    ....    DCD    268435461
        0x00010460:    10000000    ....    DCD    268435456
        0x00010464:    10002e60    `...    DCD    268447328
        0x00010468:    42200a0d    .. B    DCD    1109395981
        0x0001046c:    6320454c    LE c    DCD    1663059276
        0x00010470:    72746e6f    ontr    DCD    1920233071
        0x00010474:    656c6c6f    olle    DCD    1701604463
        0x00010478:    65722072    r re    DCD    1701978226
        0x0001047c:    6e6f7073    spon    DCD    1852797043
        0x00010480:    74206573    se t    DCD    1948280179
        0x00010484:    6f656d69    imeo    DCD    1868918121
        0x00010488:    20217475    ut!     DCD    539063413
        0x0001048c:    656b6177    wake    DCD    1701536119
        0x00010490:    6f437075    upCo    DCD    1866690677
        0x00010494:    3d746e75    unt=    DCD    1031040629
        0x00010498:    002c6425    %d,.    DCD    2909221
        0x0001049c:    5000c30c    ...P    DCD    1342227212
    $t
    i.ndigits_in_hex
    ndigits_in_hex
        0x000104a0:    b530        0.      PUSH     {r4,r5,lr}
        0x000104a2:    4602        .F      MOV      r2,r0
        0x000104a4:    460b        .F      MOV      r3,r1
        0x000104a6:    2400        .$      MOVS     r4,#0
        0x000104a8:    ea820104    ....    EOR      r1,r2,r4
        0x000104ac:    405c        \@      EORS     r4,r4,r3
        0x000104ae:    4321        !C      ORRS     r1,r1,r4
        0x000104b0:    d101        ..      BNE      0x104b6 ; ndigits_in_hex + 22
        0x000104b2:    2101        .!      MOVS     r1,#1
        0x000104b4:    e000        ..      B        0x104b8 ; ndigits_in_hex + 24
        0x000104b6:    2100        .!      MOVS     r1,#0
        0x000104b8:    4608        .F      MOV      r0,r1
        0x000104ba:    e004        ..      B        0x104c6 ; ndigits_in_hex + 38
        0x000104bc:    0911        ..      LSRS     r1,r2,#4
        0x000104be:    ea417203    A..r    ORR      r2,r1,r3,LSL #28
        0x000104c2:    091b        ..      LSRS     r3,r3,#4
        0x000104c4:    1c40        @.      ADDS     r0,r0,#1
        0x000104c6:    2400        .$      MOVS     r4,#0
        0x000104c8:    ea820104    ....    EOR      r1,r2,r4
        0x000104cc:    405c        \@      EORS     r4,r4,r3
        0x000104ce:    4321        !C      ORRS     r1,r1,r4
        0x000104d0:    d1f4        ..      BNE      0x104bc ; ndigits_in_hex + 28
        0x000104d2:    bd30        0.      POP      {r4,r5,pc}
    i.ndigits_in_i64
    ndigits_in_i64
        0x000104d4:    b570        p.      PUSH     {r4-r6,lr}
        0x000104d6:    4604        .F      MOV      r4,r0
        0x000104d8:    460d        .F      MOV      r5,r1
        0x000104da:    2100        .!      MOVS     r1,#0
        0x000104dc:    4608        .F      MOV      r0,r1
        0x000104de:    1a61        a.      SUBS     r1,r4,r1
        0x000104e0:    eb750000    u...    SBCS     r0,r5,r0
        0x000104e4:    da03        ..      BGE      0x104ee ; ndigits_in_i64 + 26
        0x000104e6:    2200        ."      MOVS     r2,#0
        0x000104e8:    4264        dB      RSBS     r4,r4,#0
        0x000104ea:    eb620505    b...    SBC      r5,r2,r5
        0x000104ee:    4620         F      MOV      r0,r4
        0x000104f0:    4629        )F      MOV      r1,r5
        0x000104f2:    f000f801    ....    BL       ndigits_in_u64 ; 0x104f8
        0x000104f6:    bd70        p.      POP      {r4-r6,pc}
    i.ndigits_in_u64
    ndigits_in_u64
        0x000104f8:    b570        p.      PUSH     {r4-r6,lr}
        0x000104fa:    4604        .F      MOV      r4,r0
        0x000104fc:    460d        .F      MOV      r5,r1
        0x000104fe:    2100        .!      MOVS     r1,#0
        0x00010500:    ea840001    ....    EOR      r0,r4,r1
        0x00010504:    4069        i@      EORS     r1,r1,r5
        0x00010506:    4308        .C      ORRS     r0,r0,r1
        0x00010508:    d101        ..      BNE      0x1050e ; ndigits_in_u64 + 22
        0x0001050a:    2001        .       MOVS     r0,#1
        0x0001050c:    e000        ..      B        0x10510 ; ndigits_in_u64 + 24
        0x0001050e:    2000        .       MOVS     r0,#0
        0x00010510:    4606        .F      MOV      r6,r0
        0x00010512:    e006        ..      B        0x10522 ; ndigits_in_u64 + 42
        0x00010514:    4620         F      MOV      r0,r4
        0x00010516:    4629        )F      MOV      r1,r5
        0x00010518:    f7fffc6b    ..k.    BL       divu64_10 ; 0xfdf2
        0x0001051c:    4604        .F      MOV      r4,r0
        0x0001051e:    460d        .F      MOV      r5,r1
        0x00010520:    1c76        v.      ADDS     r6,r6,#1
        0x00010522:    2100        .!      MOVS     r1,#0
        0x00010524:    ea840001    ....    EOR      r0,r4,r1
        0x00010528:    4069        i@      EORS     r1,r1,r5
        0x0001052a:    4308        .C      ORRS     r0,r0,r1
        0x0001052c:    d1f2        ..      BNE      0x10514 ; ndigits_in_u64 + 28
        0x0001052e:    4630        0F      MOV      r0,r6
        0x00010530:    bd70        p.      POP      {r4-r6,pc}
    i.padbuffer
    padbuffer
        0x00010532:    b530        0.      PUSH     {r4,r5,lr}
        0x00010534:    4603        .F      MOV      r3,r0
        0x00010536:    2000        .       MOVS     r0,#0
        0x00010538:    2a00        .*      CMP      r2,#0
        0x0001053a:    dc00        ..      BGT      0x1053e ; padbuffer + 12
        0x0001053c:    bd30        0.      POP      {r4,r5,pc}
        0x0001053e:    e003        ..      B        0x10548 ; padbuffer + 22
        0x00010540:    b10b        ..      CBZ      r3,0x10546 ; padbuffer + 20
        0x00010542:    f8031b01    ....    STRB     r1,[r3],#1
        0x00010546:    1c40        @.      ADDS     r0,r0,#1
        0x00010548:    1e14        ..      SUBS     r4,r2,#0
        0x0001054a:    f1a20201    ....    SUB      r2,r2,#1
        0x0001054e:    d1f7        ..      BNE      0x10540 ; padbuffer + 14
        0x00010550:    bf00        ..      NOP      
        0x00010552:    e7f3        ..      B        0x1053c ; padbuffer + 10
    i.read_nonblocking
    read_nonblocking
        0x00010554:    e92d4ff0    -..O    PUSH     {r4-r11,lr}
        0x00010558:    b093        ..      SUB      sp,sp,#0x4c
        0x0001055a:    461f        .F      MOV      r7,r3
        0x0001055c:    4614        .F      MOV      r4,r2
        0x0001055e:    4688        .F      MOV      r8,r1
        0x00010560:    1e06        ..      SUBS     r6,r0,#0
        0x00010562:    bf1c        ..      ITT      NE
        0x00010564:    6801        .h      LDRNE    r1,[r0,#0]
        0x00010566:    f0117f80    ....    TSTNE    r1,#0x1000000
        0x0001056a:    d004        ..      BEQ      0x10576 ; read_nonblocking + 34
        0x0001056c:    4a41        AJ      LDR      r2,[pc,#260] ; [0x10674] = 0xea9e06
        0x0001056e:    f021417f    !..A    BIC      r1,r1,#0xff000000
        0x00010572:    4291        .B      CMP      r1,r2
        0x00010574:    d003        ..      BEQ      0x1057e ; read_nonblocking + 42
        0x00010576:    b013        ..      ADD      sp,sp,#0x4c
        0x00010578:    2002        .       MOVS     r0,#2
        0x0001057a:    e8bd8ff0    ....    POP      {r4-r11,pc}
        0x0001057e:    2f00        ./      CMP      r7,#0
        0x00010580:    bf1c        ..      ITT      NE
        0x00010582:    2100        .!      MOVNE    r1,#0
        0x00010584:    6039        9`      STRNE    r1,[r7,#0]
        0x00010586:    2c00        .,      CMP      r4,#0
        0x00010588:    bf02        ..      ITTT     EQ
        0x0001058a:    2000        .       MOVEQ    r0,#0
        0x0001058c:    b013        ..      ADDEQ    sp,sp,#0x4c
        0x0001058e:    e8bd8ff0    ....    POPEQ    {r4-r11,pc}
        0x00010592:    f8961044    ..D.    LDRB     r1,[r6,#0x44]
        0x00010596:    2900        .)      CMP      r1,#0
        0x00010598:    d045        E.      BEQ      0x10626 ; read_nonblocking + 210
        0x0001059a:    46b1        .F      MOV      r9,r6
        0x0001059c:    f7fbfe54    ..T.    BL       am_hal_interrupt_master_disable ; 0xc248
        0x000105a0:    900d        ..      STR      r0,[sp,#0x34]
        0x000105a2:    2000        .       MOVS     r0,#0
        0x000105a4:    f8d91024    ..$.    LDR      r1,[r9,#0x24]
        0x000105a8:    2320         #      MOVS     r3,#0x20
        0x000105aa:    0309        ..      LSLS     r1,r1,#12
        0x000105ac:    f1014280    ...B    ADD      r2,r1,#0x40000000
        0x000105b0:    f10d0c10    ....    ADD      r12,sp,#0x10
        0x000105b4:    f10d0a38    ..8.    ADD      r10,sp,#0x38
        0x000105b8:    4605        .F      MOV      r5,r0
        0x000105ba:    f50232e0    ...2    ADD      r2,r2,#0x1c000
        0x000105be:    6991        .i      LDR      r1,[r2,#0x18]
        0x000105c0:    f0110f10    ....    TST      r1,#0x10
        0x000105c4:    d10b        ..      BNE      0x105de ; read_nonblocking + 138
        0x000105c6:    6811        .h      LDR      r1,[r2,#0]
        0x000105c8:    f4116f70    ..po    TST      r1,#0xf00
        0x000105cc:    d002        ..      BEQ      0x105d4 ; read_nonblocking + 128
        0x000105ce:    f04f6500    O..e    MOV      r5,#0x8000000
        0x000105d2:    e004        ..      B        0x105de ; read_nonblocking + 138
        0x000105d4:    f80c1000    ....    STRB     r1,[r12,r0]
        0x000105d8:    1c40        @.      ADDS     r0,r0,#1
        0x000105da:    4298        .B      CMP      r0,r3
        0x000105dc:    d3ef        ..      BCC      0x105be ; read_nonblocking + 106
        0x000105de:    f1ba0f00    ....    CMP      r10,#0
        0x000105e2:    bf18        ..      IT       NE
        0x000105e4:    900e        ..      STRNE    r0,[sp,#0x38]
        0x000105e6:    b11d        ..      CBZ      r5,0x105f0 ; read_nonblocking + 156
        0x000105e8:    980d        ..      LDR      r0,[sp,#0x34]
        0x000105ea:    f7fbfe31    ..1.    BL       am_hal_interrupt_master_set ; 0xc250
        0x000105ee:    e03d        =.      B        0x1066c ; read_nonblocking + 280
        0x000105f0:    4661        aF      MOV      r1,r12
        0x000105f2:    f1090048    ..H.    ADD      r0,r9,#0x48
        0x000105f6:    9a0e        ..      LDR      r2,[sp,#0x38]
        0x000105f8:    f7fef8a7    ....    BL       am_hal_queue_item_add ; 0xe74a
        0x000105fc:    b170        p.      CBZ      r0,0x1061c ; read_nonblocking + 200
        0x000105fe:    980d        ..      LDR      r0,[sp,#0x34]
        0x00010600:    f7fbfe26    ..&.    BL       am_hal_interrupt_master_set ; 0xc250
        0x00010604:    6d30        0m      LDR      r0,[r6,#0x50]
        0x00010606:    4284        .B      CMP      r4,r0
        0x00010608:    bf28        (.      IT       CS
        0x0001060a:    4604        .F      MOVCS    r4,r0
        0x0001060c:    4622        "F      MOV      r2,r4
        0x0001060e:    4641        AF      MOV      r1,r8
        0x00010610:    f1060048    ..H.    ADD      r0,r6,#0x48
        0x00010614:    9401        ..      STR      r4,[sp,#4]
        0x00010616:    f7fef8ea    ....    BL       am_hal_queue_item_get ; 0xe7ee
        0x0001061a:    e023        #.      B        0x10664 ; read_nonblocking + 272
        0x0001061c:    4d16        .M      LDR      r5,[pc,#88] ; [0x10678] = 0x8000001
        0x0001061e:    980d        ..      LDR      r0,[sp,#0x34]
        0x00010620:    f7fbfe16    ....    BL       am_hal_interrupt_master_set ; 0xc250
        0x00010624:    e022        ".      B        0x1066c ; read_nonblocking + 280
        0x00010626:    2100        .!      MOVS     r1,#0
        0x00010628:    6a70        pj      LDR      r0,[r6,#0x24]
        0x0001062a:    ab01        ..      ADD      r3,sp,#4
        0x0001062c:    460d        .F      MOV      r5,r1
        0x0001062e:    2c00        .,      CMP      r4,#0
        0x00010630:    bf82        ..      ITTT     HI
        0x00010632:    0300        ..      LSLHI    r0,r0,#12
        0x00010634:    f1004280    ...B    ADDHI    r2,r0,#0x40000000
        0x00010638:    f50232e0    ...2    ADDHI    r2,r2,#0x1c000
        0x0001063c:    d90f        ..      BLS      0x1065e ; read_nonblocking + 266
        0x0001063e:    6990        .i      LDR      r0,[r2,#0x18]
        0x00010640:    f0100f10    ....    TST      r0,#0x10
        0x00010644:    d10b        ..      BNE      0x1065e ; read_nonblocking + 266
        0x00010646:    6810        .h      LDR      r0,[r2,#0]
        0x00010648:    f4106f70    ..po    TST      r0,#0xf00
        0x0001064c:    d002        ..      BEQ      0x10654 ; read_nonblocking + 256
        0x0001064e:    f04f6500    O..e    MOV      r5,#0x8000000
        0x00010652:    e004        ..      B        0x1065e ; read_nonblocking + 266
        0x00010654:    f8080001    ....    STRB     r0,[r8,r1]
        0x00010658:    1c49        I.      ADDS     r1,r1,#1
        0x0001065a:    42a1        .B      CMP      r1,r4
        0x0001065c:    d3ef        ..      BCC      0x1063e ; read_nonblocking + 234
        0x0001065e:    2b00        .+      CMP      r3,#0
        0x00010660:    bf18        ..      IT       NE
        0x00010662:    9101        ..      STRNE    r1,[sp,#4]
        0x00010664:    2f00        ./      CMP      r7,#0
        0x00010666:    bf1c        ..      ITT      NE
        0x00010668:    9801        ..      LDRNE    r0,[sp,#4]
        0x0001066a:    6038        8`      STRNE    r0,[r7,#0]
        0x0001066c:    4628        (F      MOV      r0,r5
        0x0001066e:    b013        ..      ADD      sp,sp,#0x4c
        0x00010670:    e8bd8ff0    ....    POP      {r4-r11,pc}
    $d
        0x00010674:    00ea9e06    ....    DCD    15375878
        0x00010678:    08000001    ....    DCD    134217729
    $t
    i.simple_strlen
    simple_strlen
        0x0001067c:    4601        .F      MOV      r1,r0
        0x0001067e:    2000        .       MOVS     r0,#0
        0x00010680:    b901        ..      CBNZ     r1,0x10684 ; simple_strlen + 8
        0x00010682:    4770        pG      BX       lr
        0x00010684:    e000        ..      B        0x10688 ; simple_strlen + 12
        0x00010686:    1c40        @.      ADDS     r0,r0,#1
        0x00010688:    f8113b01    ...;    LDRB     r3,[r1],#1
        0x0001068c:    2b00        .+      CMP      r3,#0
        0x0001068e:    d1fa        ..      BNE      0x10686 ; simple_strlen + 10
        0x00010690:    bf00        ..      NOP      
        0x00010692:    e7f6        ..      B        0x10682 ; simple_strlen + 6
    i.uint64_to_hexstr
    uint64_to_hexstr
        0x00010694:    e92d41f0    -..A    PUSH     {r4-r8,lr}
        0x00010698:    b085        ..      SUB      sp,sp,#0x14
        0x0001069a:    4604        .F      MOV      r4,r0
        0x0001069c:    460d        .F      MOV      r5,r1
        0x0001069e:    461e        .F      MOV      r6,r3
        0x000106a0:    2100        .!      MOVS     r1,#0
        0x000106a2:    468c        .F      MOV      r12,r1
        0x000106a4:    ea84070c    ....    EOR      r7,r4,r12
        0x000106a8:    ea850c0c    ....    EOR      r12,r5,r12
        0x000106ac:    ea57070c    W...    ORRS     r7,r7,r12
        0x000106b0:    d105        ..      BNE      0x106be ; uint64_to_hexstr + 42
        0x000106b2:    f04f0830    O.0.    MOV      r8,#0x30
        0x000106b6:    460f        .F      MOV      r7,r1
        0x000106b8:    1c49        I.      ADDS     r1,r1,#1
        0x000106ba:    f80d8007    ....    STRB     r8,[sp,r7]
        0x000106be:    e016        ..      B        0x106ee ; uint64_to_hexstr + 90
        0x000106c0:    270f        .'      MOVS     r7,#0xf
        0x000106c2:    4027        '@      ANDS     r7,r7,r4
        0x000106c4:    b2fb        ..      UXTB     r3,r7
        0x000106c6:    2b09        .+      CMP      r3,#9
        0x000106c8:    dd05        ..      BLE      0x106d6 ; uint64_to_hexstr + 66
        0x000106ca:    b10e        ..      CBZ      r6,0x106d0 ; uint64_to_hexstr + 60
        0x000106cc:    2727        ''      MOVS     r7,#0x27
        0x000106ce:    e000        ..      B        0x106d2 ; uint64_to_hexstr + 62
        0x000106d0:    2707        .'      MOVS     r7,#7
        0x000106d2:    441f        .D      ADD      r7,r7,r3
        0x000106d4:    b2fb        ..      UXTB     r3,r7
        0x000106d6:    f1030730    ..0.    ADD      r7,r3,#0x30
        0x000106da:    f00708ff    ....    AND      r8,r7,#0xff
        0x000106de:    460f        .F      MOV      r7,r1
        0x000106e0:    1c49        I.      ADDS     r1,r1,#1
        0x000106e2:    f80d8007    ....    STRB     r8,[sp,r7]
        0x000106e6:    0927        '.      LSRS     r7,r4,#4
        0x000106e8:    ea477405    G..t    ORR      r4,r7,r5,LSL #28
        0x000106ec:    092d        -.      LSRS     r5,r5,#4
        0x000106ee:    f04f0c00    O...    MOV      r12,#0
        0x000106f2:    ea84070c    ....    EOR      r7,r4,r12
        0x000106f6:    ea850c0c    ....    EOR      r12,r5,r12
        0x000106fa:    ea57070c    W...    ORRS     r7,r7,r12
        0x000106fe:    d1df        ..      BNE      0x106c0 ; uint64_to_hexstr + 44
        0x00010700:    4608        .F      MOV      r0,r1
        0x00010702:    b14a        J.      CBZ      r2,0x10718 ; uint64_to_hexstr + 132
        0x00010704:    e003        ..      B        0x1070e ; uint64_to_hexstr + 122
        0x00010706:    f81d7001    ...p    LDRB     r7,[sp,r1]
        0x0001070a:    f8027b01    ...{    STRB     r7,[r2],#1
        0x0001070e:    1e0f        ..      SUBS     r7,r1,#0
        0x00010710:    f1a10101    ....    SUB      r1,r1,#1
        0x00010714:    d1f7        ..      BNE      0x10706 ; uint64_to_hexstr + 114
        0x00010716:    7017        .p      STRB     r7,[r2,#0]
        0x00010718:    b005        ..      ADD      sp,sp,#0x14
        0x0001071a:    e8bd81f0    ....    POP      {r4-r8,pc}
    i.uint64_to_str
    uint64_to_str
        0x0001071e:    e92d4ff0    -..O    PUSH     {r4-r11,lr}
        0x00010722:    b087        ..      SUB      sp,sp,#0x1c
        0x00010724:    4607        .F      MOV      r7,r0
        0x00010726:    4688        .F      MOV      r8,r1
        0x00010728:    4616        .F      MOV      r6,r2
        0x0001072a:    f04f0900    O...    MOV      r9,#0
        0x0001072e:    46cb        .F      MOV      r11,r9
        0x00010730:    bf00        ..      NOP      
        0x00010732:    4638        8F      MOV      r0,r7
        0x00010734:    4641        AF      MOV      r1,r8
        0x00010736:    f7fffb5c    ..\.    BL       divu64_10 ; 0xfdf2
        0x0001073a:    4604        .F      MOV      r4,r0
        0x0001073c:    460d        .F      MOV      r5,r1
        0x0001073e:    210a        .!      MOVS     r1,#0xa
        0x00010740:    fba40101    ....    UMULL    r0,r1,r4,r1
        0x00010744:    ebb70a00    ....    SUBS     r10,r7,r0
        0x00010748:    f10a0030    ..0.    ADD      r0,r10,#0x30
        0x0001074c:    b2c2        ..      UXTB     r2,r0
        0x0001074e:    4648        HF      MOV      r0,r9
        0x00010750:    f1090901    ....    ADD      r9,r9,#1
        0x00010754:    f80d2000    ...     STRB     r2,[sp,r0]
        0x00010758:    4627        'F      MOV      r7,r4
        0x0001075a:    46a8        .F      MOV      r8,r5
        0x0001075c:    f04f0200    O...    MOV      r2,#0
        0x00010760:    ea870002    ....    EOR      r0,r7,r2
        0x00010764:    ea880102    ....    EOR      r1,r8,r2
        0x00010768:    4308        .C      ORRS     r0,r0,r1
        0x0001076a:    d1e2        ..      BNE      0x10732 ; uint64_to_str + 20
        0x0001076c:    46cb        .F      MOV      r11,r9
        0x0001076e:    b156        V.      CBZ      r6,0x10786 ; uint64_to_str + 104
        0x00010770:    e003        ..      B        0x1077a ; uint64_to_str + 92
        0x00010772:    f81d0009    ....    LDRB     r0,[sp,r9]
        0x00010776:    f8060b01    ....    STRB     r0,[r6],#1
        0x0001077a:    f1b90000    ....    SUBS     r0,r9,#0
        0x0001077e:    f1a90901    ....    SUB      r9,r9,#1
        0x00010782:    d1f6        ..      BNE      0x10772 ; uint64_to_str + 84
        0x00010784:    7030        0p      STRB     r0,[r6,#0]
        0x00010786:    4658        XF      MOV      r0,r11
        0x00010788:    b007        ..      ADD      sp,sp,#0x1c
        0x0001078a:    e8bd8ff0    ....    POP      {r4-r11,pc}
        0x0001078e:    0000        ..      MOVS     r0,r0
    i.write_nonblocking
    write_nonblocking
        0x00010790:    b570        p.      PUSH     {r4-r6,lr}
        0x00010792:    b088        ..      SUB      sp,sp,#0x20
        0x00010794:    461d        .F      MOV      r5,r3
        0x00010796:    0004        ..      MOVS     r4,r0
        0x00010798:    bf1c        ..      ITT      NE
        0x0001079a:    6820         h      LDRNE    r0,[r4,#0]
        0x0001079c:    f0107f80    ....    TSTNE    r0,#0x1000000
        0x000107a0:    d004        ..      BEQ      0x107ac ; write_nonblocking + 28
        0x000107a2:    4b3e        >K      LDR      r3,[pc,#248] ; [0x1089c] = 0xea9e06
        0x000107a4:    f020407f     ..@    BIC      r0,r0,#0xff000000
        0x000107a8:    4298        .B      CMP      r0,r3
        0x000107aa:    d002        ..      BEQ      0x107b2 ; write_nonblocking + 34
        0x000107ac:    b008        ..      ADD      sp,sp,#0x20
        0x000107ae:    2002        .       MOVS     r0,#2
        0x000107b0:    bd70        p.      POP      {r4-r6,pc}
        0x000107b2:    2000        .       MOVS     r0,#0
        0x000107b4:    2d00        .-      CMP      r5,#0
        0x000107b6:    bf18        ..      IT       NE
        0x000107b8:    6028        (`      STRNE    r0,[r5,#0]
        0x000107ba:    2a00        .*      CMP      r2,#0
        0x000107bc:    d05a        Z.      BEQ      0x10874 ; write_nonblocking + 228
        0x000107be:    f8940028    ..(.    LDRB     r0,[r4,#0x28]
        0x000107c2:    b398        ..      CBZ      r0,0x1082c ; write_nonblocking + 156
        0x000107c4:    e9d4030d    ....    LDRD     r0,r3,[r4,#0x34]
        0x000107c8:    1a18        ..      SUBS     r0,r3,r0
        0x000107ca:    4282        .B      CMP      r2,r0
        0x000107cc:    bf28        (.      IT       CS
        0x000107ce:    4602        .F      MOVCS    r2,r0
        0x000107d0:    f104002c    ..,.    ADD      r0,r4,#0x2c
        0x000107d4:    9202        ..      STR      r2,[sp,#8]
        0x000107d6:    f7fdffb8    ....    BL       am_hal_queue_item_add ; 0xe74a
        0x000107da:    6a66        fj      LDR      r6,[r4,#0x24]
        0x000107dc:    f7fbfd34    ..4.    BL       am_hal_interrupt_master_disable ; 0xc248
        0x000107e0:    9004        ..      STR      r0,[sp,#0x10]
        0x000107e2:    0330        0.      LSLS     r0,r6,#12
        0x000107e4:    f1004680    ...F    ADD      r6,r0,#0x40000000
        0x000107e8:    f50636e0    ...6    ADD      r6,r6,#0x1c000
        0x000107ec:    69b0        .i      LDR      r0,[r6,#0x18]
        0x000107ee:    f0100f20    .. .    TST      r0,#0x20
        0x000107f2:    d117        ..      BNE      0x10824 ; write_nonblocking + 148
        0x000107f4:    2201        ."      MOVS     r2,#1
        0x000107f6:    4669        iF      MOV      r1,sp
        0x000107f8:    f104002c    ..,.    ADD      r0,r4,#0x2c
        0x000107fc:    f7fdfff7    ....    BL       am_hal_queue_item_get ; 0xe7ee
        0x00010800:    b180        ..      CBZ      r0,0x10824 ; write_nonblocking + 148
        0x00010802:    6a60        `j      LDR      r0,[r4,#0x24]
        0x00010804:    0300        ..      LSLS     r0,r0,#12
        0x00010806:    f1004080    ...@    ADD      r0,r0,#0x40000000
        0x0001080a:    f50030e0    ...0    ADD      r0,r0,#0x1c000
        0x0001080e:    6981        .i      LDR      r1,[r0,#0x18]
        0x00010810:    f0110f20    .. .    TST      r1,#0x20
        0x00010814:    bf04        ..      ITT      EQ
        0x00010816:    f89d1000    ....    LDRBEQ   r1,[sp,#0]
        0x0001081a:    6001        .`      STREQ    r1,[r0,#0]
        0x0001081c:    69b0        .i      LDR      r0,[r6,#0x18]
        0x0001081e:    f0100f20    .. .    TST      r0,#0x20
        0x00010822:    d0e7        ..      BEQ      0x107f4 ; write_nonblocking + 100
        0x00010824:    9804        ..      LDR      r0,[sp,#0x10]
        0x00010826:    f7fbfd13    ....    BL       am_hal_interrupt_master_set ; 0xc250
        0x0001082a:    e01f        ..      B        0x1086c ; write_nonblocking + 220
        0x0001082c:    e7ff        ..      B        0x1082e ; write_nonblocking + 158
        0x0001082e:    6a63        cj      LDR      r3,[r4,#0x24]
        0x00010830:    ae02        ..      ADD      r6,sp,#8
        0x00010832:    f04f0c00    O...    MOV      r12,#0
        0x00010836:    f1b24f00    ...O    CMP      r2,#0x80000000
        0x0001083a:    d21e        ..      BCS      0x1087a ; write_nonblocking + 234
        0x0001083c:    2001        .       MOVS     r0,#1
        0x0001083e:    2a01        .*      CMP      r2,#1
        0x00010840:    db10        ..      BLT      0x10864 ; write_nonblocking + 212
        0x00010842:    031b        ..      LSLS     r3,r3,#12
        0x00010844:    f1034380    ...C    ADD      r3,r3,#0x40000000
        0x00010848:    f50333e0    ...3    ADD      r3,r3,#0x1c000
        0x0001084c:    699c        .i      LDR      r4,[r3,#0x18]
        0x0001084e:    f0140f20    .. .    TST      r4,#0x20
        0x00010852:    d107        ..      BNE      0x10864 ; write_nonblocking + 212
        0x00010854:    f811400c    ...@    LDRB     r4,[r1,r12]
        0x00010858:    601c        .`      STR      r4,[r3,#0]
        0x0001085a:    1c40        @.      ADDS     r0,r0,#1
        0x0001085c:    f10c0c01    ....    ADD      r12,r12,#1
        0x00010860:    4290        .B      CMP      r0,r2
        0x00010862:    ddf3        ..      BLE      0x1084c ; write_nonblocking + 188
        0x00010864:    2e00        ..      CMP      r6,#0
        0x00010866:    bf18        ..      IT       NE
        0x00010868:    f8cdc008    ....    STRNE    r12,[sp,#8]
        0x0001086c:    2d00        .-      CMP      r5,#0
        0x0001086e:    bf1c        ..      ITT      NE
        0x00010870:    9802        ..      LDRNE    r0,[sp,#8]
        0x00010872:    6028        (`      STRNE    r0,[r5,#0]
        0x00010874:    2000        .       MOVS     r0,#0
        0x00010876:    b008        ..      ADD      sp,sp,#0x20
        0x00010878:    bd70        p.      POP      {r4-r6,pc}
        0x0001087a:    0318        ..      LSLS     r0,r3,#12
        0x0001087c:    f1004080    ...@    ADD      r0,r0,#0x40000000
        0x00010880:    f50030e0    ...0    ADD      r0,r0,#0x1c000
        0x00010884:    6983        .i      LDR      r3,[r0,#0x18]
        0x00010886:    f0130f20    .. .    TST      r3,#0x20
        0x0001088a:    d1eb        ..      BNE      0x10864 ; write_nonblocking + 212
        0x0001088c:    f811300c    ...0    LDRB     r3,[r1,r12]
        0x00010890:    6003        .`      STR      r3,[r0,#0]
        0x00010892:    f10c0c01    ....    ADD      r12,r12,#1
        0x00010896:    4594        .E      CMP      r12,r2
        0x00010898:    d3f4        ..      BCC      0x10884 ; write_nonblocking + 244
        0x0001089a:    e7e3        ..      B        0x10864 ; write_nonblocking + 212
    $d
        0x0001089c:    00ea9e06    ....    DCD    15375878
    $t
    x$fpl$d2f
    $v0
    __aeabi_d2f
    _d2f
        0x000108a0:    f0214200    !..B    BIC      r2,r1,#0x80000000
        0x000108a4:    f1a25260    ..`R    SUB      r2,r2,#0x38000000
        0x000108a8:    f5b21f80    ....    CMP      r2,#0x100000
        0x000108ac:    f0014300    ...C    AND      r3,r1,#0x80000000
        0x000108b0:    bf28        (.      IT       CS
        0x000108b2:    f1d26c7f    ...l    RSBSCS   r12,r2,#0xff00000
        0x000108b6:    d90b        ..      BLS      0x108d0 ; __aeabi_d2f + 48
        0x000108b8:    ea5f1c00    _...    LSLS     r12,r0,#4
        0x000108bc:    ea4302c2    C...    ORR      r2,r3,r2,LSL #3
        0x000108c0:    eb427050    B.Pp    ADC      r0,r2,r0,LSR #29
        0x000108c4:    bf18        ..      IT       NE
        0x000108c6:    4770        pG      BXNE     lr
        0x000108c8:    bf28        (.      IT       CS
        0x000108ca:    f0200001     ...    BICCS    r0,r0,#1
        0x000108ce:    4770        pG      BX       lr
        0x000108d0:    f5b21f80    ....    CMP      r2,#0x100000
        0x000108d4:    bfbc        ..      ITT      LT
        0x000108d6:    4618        .F      MOVLT    r0,r3
        0x000108d8:    4770        pG      BXLT     lr
        0x000108da:    ea4f0c41    O.A.    LSL      r12,r1,#1
        0x000108de:    f51c1f00    ....    CMN      r12,#0x200000
        0x000108e2:    d202        ..      BCS      0x108ea ; __aeabi_d2f + 74
        0x000108e4:    4608        .F      MOV      r0,r1
        0x000108e6:    f000b85f    .._.    B.W      __fpl_fretinf ; 0x109a8
        0x000108ea:    b570        p.      PUSH     {r4-r6,lr}
        0x000108ec:    f000f809    ....    BL       __fpl_dnaninf ; 0x10902
    $d
        0x000108f0:    89000000    ....    DCD    2298478592
    $t
        0x000108f4:    f7ffbff6    ....    B.W      0x108e4 ; __aeabi_d2f + 68
        0x000108f8:    f04f4000    O..@    MOV      r0,#0x80000000
        0x000108fc:    f5a00080    ....    SUB      r0,r0,#0x400000
        0x00010900:    4770        pG      BX       lr
    x$fpl$dnaninf
    $v0
    __fpl_dnaninf
        0x00010902:    f10e0e02    ....    ADD      lr,lr,#2
        0x00010906:    f02e0e03    ....    BIC      lr,lr,#3
        0x0001090a:    f85e6b04    ^..k    LDR      r6,[lr],#4
        0x0001090e:    4236        6B      TST      r6,r6
        0x00010910:    d405        ..      BMI      0x1091e ; __fpl_dnaninf + 28
        0x00010912:    2a01        .*      CMP      r2,#1
        0x00010914:    eb430503    C...    ADC      r5,r3,r3
        0x00010918:    f5151f00    ....    CMN      r5,#0x200000
        0x0001091c:    d812        ..      BHI      0x10944 ; __fpl_dnaninf + 66
        0x0001091e:    2801        .(      CMP      r0,#1
        0x00010920:    eb410c01    A...    ADC      r12,r1,r1
        0x00010924:    f51c1f00    ....    CMN      r12,#0x200000
        0x00010928:    d80c        ..      BHI      0x10944 ; __fpl_dnaninf + 66
        0x0001092a:    d10e        ..      BNE      0x1094a ; __fpl_dnaninf + 72
        0x0001092c:    ea4f7cd1    O..|    LSR      r12,r1,#31
        0x00010930:    f5151f00    ....    CMN      r5,#0x200000
        0x00010934:    eb0c0c4c    ..L.    ADD      r12,r12,r12,LSL #1
        0x00010938:    f10c0c02    ....    ADD      r12,r12,#2
        0x0001093c:    bf08        ..      IT       EQ
        0x0001093e:    eb4c7cd3    L..|    ADCEQ    r12,r12,r3,LSR #31
        0x00010942:    e004        ..      B        0x1094e ; __fpl_dnaninf + 76
        0x00010944:    f04f0c08    O...    MOV      r12,#8
        0x00010948:    e001        ..      B        0x1094e ; __fpl_dnaninf + 76
        0x0001094a:    ea4f7cd3    O..|    LSR      r12,r3,#31
        0x0001094e:    eb0c054c    ..L.    ADD      r5,r12,r12,LSL #1
        0x00010952:    fa26f605    &...    LSR      r6,r6,r5
        0x00010956:    f0060607    ....    AND      r6,r6,#7
        0x0001095a:    f1b60c04    ....    SUBS     r12,r6,#4
        0x0001095e:    d206        ..      BCS      0x1096e ; __fpl_dnaninf + 108
        0x00010960:    eb0e0c86    ....    ADD      r12,lr,r6,LSL #2
        0x00010964:    e8bd4070    ..p@    POP      {r4-r6,lr}
        0x00010968:    f04c0c01    L...    ORR      r12,r12,#1
        0x0001096c:    4760        `G      BX       r12
        0x0001096e:    e8dff00c    ....    TBB      [pc,r12]
    $d
        0x00010972:    0b09        ..      DCW    2825
        0x00010974:    0202        ..      DCW    514
    $t
        0x00010976:    f04f4100    O..A    MOV      r1,#0x80000000
        0x0001097a:    f04f0000    O...    MOV      r0,#0
        0x0001097e:    f5a12100    ...!    SUB      r1,r1,#0x80000
        0x00010982:    bd70        p.      POP      {r4-r6,pc}
        0x00010984:    4619        .F      MOV      r1,r3
        0x00010986:    4610        .F      MOV      r0,r2
        0x00010988:    2801        .(      CMP      r0,#1
        0x0001098a:    eb510401    Q...    ADCS     r4,r1,r1
        0x0001098e:    bf18        ..      IT       NE
        0x00010990:    f5d41400    ....    RSBSNE   r4,r4,#0x200000
        0x00010994:    bf84        ..      ITT      HI
        0x00010996:    2000        .       MOVHI    r0,#0
        0x00010998:    f0014100    ...A    ANDHI    r1,r1,#0x80000000
        0x0001099c:    bd70        p.      POP      {r4-r6,pc}
    x$fpl$fpinit
    $v0
    _fp_init
        0x0001099e:    f04f7040    O.@p    MOV      r0,#0x3000000
        0x000109a2:    eee10a10    ....    VMSR     FPSCR,r0
    __fplib_config_fpu_vfp
    __fplib_config_pureend_doubles
        0x000109a6:    4770        pG      BX       lr
    x$fpl$fretinf
    $v0
    __fpl_fretinf
        0x000109a8:    21ff        .!      MOVS     r1,#0xff
        0x000109aa:    ea4150d0    A..P    ORR      r0,r1,r0,LSR #23
        0x000109ae:    05c0        ..      LSLS     r0,r0,#23
        0x000109b0:    4770        pG      BX       lr
    x$fpl$usenofp
    __I$use$fp
        0x000109b2:    0000        ..      MOVS     r0,r0
    $d.realdata
    .constdata
    g_GpioUartTxCfg
        0x000109b4:    00000000    ....    DCD    0
    g_GpioUartRxCfg
        0x000109b8:    00000020     ...    DCD    32
        0x000109bc:    00000001    ....    DCD    1
        0x000109c0:    00000000    ....    DCD    0
        0x000109c4:    00000017    ....    DCD    23
        0x000109c8:    00000001    ....    DCD    1
        0x000109cc:    00000000    ....    DCD    0
        0x000109d0:    0001c200    ....    DCD    115200
        0x000109d4:    00000060    `...    DCD    96
        0x000109d8:    00000000    ....    DCD    0
        0x000109dc:    00000000    ....    DCD    0
        0x000109e0:    00000000    ....    DCD    0
        0x000109e4:    0000001b    ....    DCD    27
        0x000109e8:    10002660    `&..    DCD    268445280
        0x000109ec:    00000800    ....    DCD    2048
        0x000109f0:    00000000    ....    DCD    0
        0x000109f4:    00000000    ....    DCD    0
        0x000109f8:    00000000    ....    DCD    0
        0x000109fc:    10003260    `2..    DCD    268448352
        0x00010a00:    00000000    ....    DCD    0
        0x00010a04:    ffffffff    ....    DCD    4294967295
        0x00010a08:    00000000    ....    DCD    0
    .constdata
    ccitt_table
        0x00010a0c:    80050000    ....    DCD    2147811328
        0x00010a10:    000a800f    ....    DCD    688143
        0x00010a14:    001e801b    ....    DCD    1998875
        0x00010a18:    80110014    ....    DCD    2148597780
        0x00010a1c:    00368033    3.6.    DCD    3571763
        0x00010a20:    8039003c    <.9.    DCD    2151219260
        0x00010a24:    802d0028    (.-.    DCD    2150432808
        0x00010a28:    00228027    '.".    DCD    2261031
        0x00010a2c:    00668063    c.f.    DCD    6717539
        0x00010a30:    8069006c    l.i.    DCD    2154365036
        0x00010a34:    807d0078    x.}.    DCD    2155675768
        0x00010a38:    00728077    w.r.    DCD    7503991
        0x00010a3c:    80550050    P.U.    DCD    2153054288
        0x00010a40:    005a805f    _.Z.    DCD    5931103
        0x00010a44:    004e804b    K.N.    DCD    5144651
        0x00010a48:    80410044    D.A.    DCD    2151743556
        0x00010a4c:    00c680c3    ....    DCD    13009091
        0x00010a50:    80c900cc    ....    DCD    2160656588
        0x00010a54:    80dd00d8    ....    DCD    2161967320
        0x00010a58:    00d280d7    ....    DCD    13795543
        0x00010a5c:    80f500f0    ....    DCD    2163540208
        0x00010a60:    00fa80ff    ....    DCD    16417023
        0x00010a64:    00ee80eb    ....    DCD    15630571
        0x00010a68:    80e100e4    ....    DCD    2162229476
        0x00010a6c:    80a500a0    ....    DCD    2158297248
        0x00010a70:    00aa80af    ....    DCD    11174063
        0x00010a74:    00be80bb    ....    DCD    12484795
        0x00010a78:    80b100b4    ....    DCD    2159083700
        0x00010a7c:    00968093    ....    DCD    9863315
        0x00010a80:    8099009c    ....    DCD    2157510812
        0x00010a84:    808d0088    ....    DCD    2156724360
        0x00010a88:    00828087    ....    DCD    8552583
        0x00010a8c:    01868183    ....    DCD    25592195
        0x00010a90:    8189018c    ....    DCD    2173239692
        0x00010a94:    819d0198    ....    DCD    2174550424
        0x00010a98:    01928197    ....    DCD    26378647
        0x00010a9c:    81b501b0    ....    DCD    2176123312
        0x00010aa0:    01ba81bf    ....    DCD    29000127
        0x00010aa4:    01ae81ab    ....    DCD    28213675
        0x00010aa8:    81a101a4    ....    DCD    2174812580
        0x00010aac:    81e501e0    ....    DCD    2179269088
        0x00010ab0:    01ea81ef    ....    DCD    32145903
        0x00010ab4:    01fe81fb    ....    DCD    33456635
        0x00010ab8:    81f101f4    ....    DCD    2180055540
        0x00010abc:    01d681d3    ....    DCD    30835155
        0x00010ac0:    81d901dc    ....    DCD    2178482652
        0x00010ac4:    81cd01c8    ....    DCD    2177696200
        0x00010ac8:    01c281c7    ....    DCD    29524423
        0x00010acc:    81450140    @.E.    DCD    2168783168
        0x00010ad0:    014a814f    O.J.    DCD    21659983
        0x00010ad4:    015e815b    [.^.    DCD    22970715
        0x00010ad8:    81510154    T.Q.    DCD    2169569620
        0x00010adc:    01768173    s.v.    DCD    24543603
        0x00010ae0:    8179017c    |.y.    DCD    2172191100
        0x00010ae4:    816d0168    h.m.    DCD    2171404648
        0x00010ae8:    01628167    g.b.    DCD    23232871
        0x00010aec:    01268123    #.&.    DCD    19300643
        0x00010af0:    8129012c    ,.).    DCD    2166948140
        0x00010af4:    813d0138    8.=.    DCD    2168258872
        0x00010af8:    01328137    7.2.    DCD    20087095
        0x00010afc:    81150110    ....    DCD    2165637392
        0x00010b00:    011a811f    ....    DCD    18514207
        0x00010b04:    010e810b    ....    DCD    17727755
        0x00010b08:    81010104    ....    DCD    2164326660
        0x00010b0c:    03068303    ....    DCD    50758403
        0x00010b10:    8309030c    ....    DCD    2198405900
        0x00010b14:    831d0318    ....    DCD    2199716632
        0x00010b18:    03128317    ....    DCD    51544855
        0x00010b1c:    83350330    0.5.    DCD    2201289520
        0x00010b20:    033a833f    ?.:.    DCD    54166335
        0x00010b24:    032e832b    +...    DCD    53379883
        0x00010b28:    83210324    $.!.    DCD    2199978788
        0x00010b2c:    83650360    `.e.    DCD    2204435296
        0x00010b30:    036a836f    o.j.    DCD    57312111
        0x00010b34:    037e837b    {.~.    DCD    58622843
        0x00010b38:    83710374    t.q.    DCD    2205221748
        0x00010b3c:    03568353    S.V.    DCD    56001363
        0x00010b40:    8359035c    \.Y.    DCD    2203648860
        0x00010b44:    834d0348    H.M.    DCD    2202862408
        0x00010b48:    03428347    G.B.    DCD    54690631
        0x00010b4c:    83c503c0    ....    DCD    2210726848
        0x00010b50:    03ca83cf    ....    DCD    63603663
        0x00010b54:    03de83db    ....    DCD    64914395
        0x00010b58:    83d103d4    ....    DCD    2211513300
        0x00010b5c:    03f683f3    ....    DCD    66487283
        0x00010b60:    83f903fc    ....    DCD    2214134780
        0x00010b64:    83ed03e8    ....    DCD    2213348328
        0x00010b68:    03e283e7    ....    DCD    65176551
        0x00010b6c:    03a683a3    ....    DCD    61244323
        0x00010b70:    83a903ac    ....    DCD    2208891820
        0x00010b74:    83bd03b8    ....    DCD    2210202552
        0x00010b78:    03b283b7    ....    DCD    62030775
        0x00010b7c:    83950390    ....    DCD    2207581072
        0x00010b80:    039a839f    ....    DCD    60457887
        0x00010b84:    038e838b    ....    DCD    59671435
        0x00010b88:    83810384    ....    DCD    2206270340
        0x00010b8c:    82850280    ....    DCD    2189755008
        0x00010b90:    028a828f    ....    DCD    42631823
        0x00010b94:    029e829b    ....    DCD    43942555
        0x00010b98:    82910294    ....    DCD    2190541460
        0x00010b9c:    02b682b3    ....    DCD    45515443
        0x00010ba0:    82b902bc    ....    DCD    2193162940
        0x00010ba4:    82ad02a8    ....    DCD    2192376488
        0x00010ba8:    02a282a7    ....    DCD    44204711
        0x00010bac:    02e682e3    ....    DCD    48661219
        0x00010bb0:    82e902ec    ....    DCD    2196308716
        0x00010bb4:    82fd02f8    ....    DCD    2197619448
        0x00010bb8:    02f282f7    ....    DCD    49447671
        0x00010bbc:    82d502d0    ....    DCD    2194997968
        0x00010bc0:    02da82df    ....    DCD    47874783
        0x00010bc4:    02ce82cb    ....    DCD    47088331
        0x00010bc8:    82c102c4    ....    DCD    2193687236
        0x00010bcc:    02468243    C.F.    DCD    38175299
        0x00010bd0:    8249024c    L.I.    DCD    2185822796
        0x00010bd4:    825d0258    X.].    DCD    2187133528
        0x00010bd8:    02528257    W.R.    DCD    38961751
        0x00010bdc:    82750270    p.u.    DCD    2188706416
        0x00010be0:    027a827f    ..z.    DCD    41583231
        0x00010be4:    026e826b    k.n.    DCD    40796779
        0x00010be8:    82610264    d.a.    DCD    2187395684
        0x00010bec:    82250220     .%.    DCD    2183463456
        0x00010bf0:    022a822f    /.*.    DCD    36340271
        0x00010bf4:    023e823b    ;.>.    DCD    37651003
        0x00010bf8:    82310234    4.1.    DCD    2184249908
        0x00010bfc:    02168213    ....    DCD    35029523
        0x00010c00:    8219021c    ....    DCD    2182677020
        0x00010c04:    820d0208    ....    DCD    2181890568
        0x00010c08:    02028207    ....    DCD    33718791
        0x00010c0c:    00000000    ....    DCD    0
        0x00010c10:    00000000    ....    DCD    0
        0x00010c14:    00010000    ....    DCD    65536
        0x00010c18:    00000000    ....    DCD    0
        0x00010c1c:    00000000    ....    DCD    0
        0x00010c20:    00000000    ....    DCD    0
        0x00010c24:    00000000    ....    DCD    0
        0x00010c28:    00000000    ....    DCD    0
        0x00010c2c:    00020002    ....    DCD    131074
        0x00010c30:    00000000    ....    DCD    0
        0x00010c34:    00000000    ....    DCD    0
        0x00010c38:    00000000    ....    DCD    0
        0x00010c3c:    00000000    ....    DCD    0
        0x00010c40:    00000000    ....    DCD    0
        0x00010c44:    00010000    ....    DCD    65536
        0x00010c48:    00000000    ....    DCD    0
        0x00010c4c:    00000000    ....    DCD    0
        0x00010c50:    00000000    ....    DCD    0
        0x00010c54:    00000000    ....    DCD    0
        0x00010c58:    00000000    ....    DCD    0
        0x00010c5c:    00020002    ....    DCD    131074
        0x00010c60:    00000000    ....    DCD    0
        0x00010c64:    00000000    ....    DCD    0
        0x00010c68:    00000000    ....    DCD    0
    .constdata
    am_hal_ble_default_config
        0x00010c6c:    00000004    ....    DCD    4
        0x00010c70:    00000020     ...    DCD    32
        0x00010c74:    00000020     ...    DCD    32
        0x00010c78:    00000002    ....    DCD    2
        0x00010c7c:    00000000    ....    DCD    0
        0x00010c80:    00000032    2...    DCD    50
        0x00010c84:    00010101    ....    DCD    65793
    .constdata
        0x00010c88:    bf006001    .`..    DCD    3204472833
        0x00010c8c:    bf006800    .h..    DCD    3204474880
        0x00010c90:    bf004770    pG..    DCD    3204466544
    .constdata
    g_AM_HAL_GPIO_DISABLE
        0x00010c94:    00000003    ....    DCD    3
    g_ui8Inpen
        0x00010c98:    62272323    ##'b    DCD    1646732067
        0x00010c9c:    108703a1    ....    DCD    277283745
        0x00010ca0:    e1005303    .S..    DCD    3774894851
        0x00010ca4:    55418151    Q.AU    DCD    1430356305
        0x00010ca8:    4080c405    ...@    DCD    1082180613
        0x00010cac:    4140b101    ..@A    DCD    1094758657
        0x00010cb0:    31a03114    .1.1    DCD    832581908
        0x00010cb4:    1180f100    ....    DCD    293662976
        0x00010cb8:    11c12191    .!..    DCD    297869713
        0x00010cbc:    304511e5    ..E0    DCD    809832933
        0x00010cc0:    31300037    7.01    DCD    825229367
        0x00010cc4:    40007100    .q.@    DCD    1073770752
        0x00010cc8:    3130        01      DCW    12592
    g_ui8Bit76Capabilities
        0x00010cca:    0101        ..      DCW    257
        0x00010ccc:    01800280    ....    DCD    25166464
        0x00010cd0:    01018001    ....    DCD    16875521
        0x00010cd4:    80808080    ....    DCD    2155905152
        0x00010cd8:    80808080    ....    DCD    2155905152
        0x00010cdc:    80088080    ....    DCD    2148040832
        0x00010ce0:    01808080    ....    DCD    25198720
        0x00010ce4:    80800180    ....    DCD    2155872640
        0x00010ce8:    80808080    ....    DCD    2155905152
        0x00010cec:    04028080    ....    DCD    67272832
        0x00010cf0:    04010180    ....    DCD    67174784
        0x00010cf4:    80800101    ....    DCD    2155872513
        0x00010cf8:    01018080    ....    DCD    16875648
    g_ui8nCEpins
        0x00010cfc:    02070707    ....    DCD    34014983
        0x00010d00:    00080802    ....    DCD    526338
        0x00010d04:    01020202    ....    DCD    16908802
        0x00010d08:    01010101    ....    DCD    16843009
        0x00010d0c:    01010101    ....    DCD    16843009
        0x00010d10:    01010101    ....    DCD    16843009
        0x00010d14:    01010101    ....    DCD    16843009
        0x00010d18:    01010101    ....    DCD    16843009
        0x00010d1c:    01010101    ....    DCD    16843009
        0x00010d20:    08010101    ....    DCD    134283521
        0x00010d24:    01010008    ....    DCD    16842760
        0x00010d28:    01010101    ....    DCD    16843009
        0x00010d2c:    0101        ..      DCW    257
    g_ui8NCEtable
        0x00010d2e:    4232        2B      DCW    16946
        0x00010d30:    12021352    R...    DCD    302125906
        0x00010d34:    43336022    "`3C    DCD    1127440418
        0x00010d38:    40302153    S!0@    DCD    1076896083
        0x00010d3c:    41312050    P 1A    DCD    1093738576
        0x00010d40:    ffff1151    Q...    DCD    4294906193
        0x00010d44:    ffffffff    ....    DCD    4294967295
        0x00010d48:    4131ffff    ..1A    DCD    1093795839
        0x00010d4c:    40306051    Q`0@    DCD    1076912209
        0x00010d50:    43330050    P.3C    DCD    1127415888
        0x00010d54:    42322353    S#2B    DCD    1110582099
        0x00010d58:    10006052    R`..    DCD    268460114
        0x00010d5c:    40303020     00@    DCD    1076899872
        0x00010d60:    41316150    Pa1A    DCD    1093755216
        0x00010d64:    12020151    Q...    DCD    302121297
        0x00010d68:    13034222    "B..    DCD    318980642
        0x00010d6c:    10006023    #`..    DCD    268460067
        0x00010d70:    11015020     P..    DCD    285298720
        0x00010d74:    12024121    !A..    DCD    302137633
        0x00010d78:    13033222    "2..    DCD    318976546
        0x00010d7c:    41316033    3`1A    DCD    1093754931
        0x00010d80:    42322151    Q!2B    DCD    1110581585
        0x00010d84:    43332252    R"3C    DCD    1127424594
        0x00010d88:    10000353    S...    DCD    268436307
        0x00010d8c:    11014020     @..    DCD    285294624
        0x00010d90:    42325121    !Q2B    DCD    1110593825
        0x00010d94:    43330252    R.3C    DCD    1127416402
        0x00010d98:    40301353    S.0@    DCD    1076892499
        0x00010d9c:    41311050    P.1A    DCD    1093734480
        0x00010da0:    42326051    Q`2B    DCD    1110597713
        0x00010da4:    43331252    R.3C    DCD    1127420498
        0x00010da8:    10000353    S...    DCD    268436307
        0x00010dac:    11014020     @..    DCD    285294624
        0x00010db0:    12026121    !a..    DCD    302145825
        0x00010db4:    13035222    "R..    DCD    318984738
        0x00010db8:    10003323    #3..    DCD    268448547
        0x00010dbc:    41313020     01A    DCD    1093742624
        0x00010dc0:    42326151    Qa2B    DCD    1110597969
        0x00010dc4:    13030252    R...    DCD    318964306
        0x00010dc8:    ffff5333    3S..    DCD    4294923059
        0x00010dcc:    ffffffff    ....    DCD    4294967295
        0x00010dd0:    1101ffff    ....    DCD    285343743
        0x00010dd4:    10006121    !a..    DCD    268460321
        0x00010dd8:    11015020     P..    DCD    285298720
        0x00010ddc:    12026121    !a..    DCD    302145825
        0x00010de0:    43335222    "R3C    DCD    1127436834
        0x00010de4:    40301353    S.0@    DCD    1076892499
        0x00010de8:    11016150    Pa..    DCD    285303120
        0x00010dec:    12023121    !1..    DCD    302133537
        0x00010df0:    13033222    "2..    DCD    318976546
        0x00010df4:    00004323    #C..    DCD    17187
    .constdata
    g_AM_HAL_GPIO_OUTPUT
        0x00010df8:    00000403    ....    DCD    1027
    .constdata
    g_am_hal_mcuctrl_flash_size
        0x00010dfc:    00004000    .@..    DCD    16384
        0x00010e00:    00008000    ....    DCD    32768
        0x00010e04:    00010000    ....    DCD    65536
        0x00010e08:    00020000    ....    DCD    131072
        0x00010e0c:    00040000    ....    DCD    262144
        0x00010e10:    00080000    ....    DCD    524288
        0x00010e14:    00100000    ....    DCD    1048576
        0x00010e18:    00200000    .. .    DCD    2097152
        0x00010e1c:    00180000    ....    DCD    1572864
        0x00010e20:    00000000    ....    DCD    0
        0x00010e24:    00000000    ....    DCD    0
        0x00010e28:    00000000    ....    DCD    0
        0x00010e2c:    00000000    ....    DCD    0
        0x00010e30:    00000000    ....    DCD    0
        0x00010e34:    00000000    ....    DCD    0
        0x00010e38:    00000000    ....    DCD    0
    g_am_hal_mcuctrl_sram_size
        0x00010e3c:    00004000    .@..    DCD    16384
        0x00010e40:    00008000    ....    DCD    32768
        0x00010e44:    00010000    ....    DCD    65536
        0x00010e48:    00020000    ....    DCD    131072
        0x00010e4c:    00040000    ....    DCD    262144
        0x00010e50:    00080000    ....    DCD    524288
        0x00010e54:    00100000    ....    DCD    1048576
        0x00010e58:    00060000    ....    DCD    393216
        0x00010e5c:    000c0000    ....    DCD    786432
        0x00010e60:    00000000    ....    DCD    0
        0x00010e64:    00000000    ....    DCD    0
        0x00010e68:    00000000    ....    DCD    0
        0x00010e6c:    00000000    ....    DCD    0
        0x00010e70:    00000000    ....    DCD    0
        0x00010e74:    00000000    ....    DCD    0
        0x00010e78:    00000000    ....    DCD    0
    .constdata
    g_AM_BSP_GPIO_ITM_SWO
        0x00010e7c:    00000002    ....    DCD    2
    .constdata
    am_hal_ble_num_default_patches
        0x00010e80:    00000003    ....    DCD    3
    .constdata
    am_ble_performance_copy_patch_data
        0x00010e84:    006e1100    ..n.    DCD    7213312
        0x00010e88:    00000400    ....    DCD    1024
        0x00010e8c:    00000000    ....    DCD    0
        0x00010e90:    01c50101    ....    DCD    29688065
        0x00010e94:    00000039    9...    DCD    57
        0x00010e98:    00000000    ....    DCD    0
        0x00010e9c:    00000000    ....    DCD    0
        0x00010ea0:    00000000    ....    DCD    0
        0x00010ea4:    00000000    ....    DCD    0
        0x00010ea8:    ffffffff    ....    DCD    4294967295
        0x00010eac:    2000b570    p..     DCD    536917360
        0x00010eb0:    8849490c    .II.    DCD    2286504204
        0x00010eb4:    188b4a0c    .J..    DCD    411781644
        0x00010eb8:    490c881a    ...I    DCD    1225558042
        0x00010ebc:    24001c9b    ...$    DCD    603987099
        0x00010ec0:    022d2513    .%-.    DCD    36513043
        0x00010ec4:    1c40540c    .T@.    DCD    473977868
        0x00010ec8:    dbfb42a8    .B..    DCD    3690676904
        0x00010ecc:    2a002000    . .*    DCD    704651264
        0x00010ed0:    5c1cdd04    ...\    DCD    1545395460
        0x00010ed4:    1c40540c    .T@.    DCD    473977868
        0x00010ed8:    dbfa4290    .B..    DCD    3690611344
        0x00010edc:    47804804    .H.G    DCD    1199589380
        0x00010ee0:    bd702000    . p.    DCD    3178242048
        0x00010ee4:    20004800    .H.     DCD    536889344
        0x00010ee8:    20004802    .H.     DCD    536889346
        0x00010eec:    20003500    .5.     DCD    536884480
        0x00010ef0:    000133af    .3..    DCD    78767
        0x00010ef4:    b51f08a0    ....    DCD    3038709920
        0x00010ef8:    98002400    .$..    DCD    2550146048
        0x00010efc:    d243281d    .(C.    DCD    3527616541
        0x00010f00:    44790001    ..yD    DCD    1148780545
        0x00010f04:    18497909    .yI.    DCD    407468297
        0x00010f08:    130e448f    .D..    DCD    319702159
        0x00010f0c:    40251a40    @.%@    DCD    1076173376
        0x00010f10:    40404040    @@@@    DCD    1077952576
        0x00010f14:    40404040    @@@@    DCD    1077952576
        0x00010f18:    402a4040    @@*@    DCD    1076510784
        0x00010f1c:    2d404040    @@@-    DCD    759185472
        0x00010f20:    35403240    @2@5    DCD    893399616
        0x00010f24:    00404038    8@@.    DCD    4210744
        0x00010f28:    b2c09801    ....    DCD    2998966273
        0x00010f2c:    fa07f000    ....    DCD    4194824192
        0x00010f30:    9802e02c    ,...    DCD    2550325292
        0x00010f34:    9801b2c1    ....    DCD    2550248129
        0x00010f38:    f000b2c0    ....    DCD    4026577600
        0x00010f3c:    e025f8b8    ..%.    DCD    3760584888
        0x00010f40:    b2839806    ....    DCD    2994968582
        0x00010f44:    b2829803    ....    DCD    2994903043
        0x00010f48:    b2c19802    ....    DCD    2999031810
        0x00010f4c:    b2c09801    ....    DCD    2998966273
        0x00010f50:    f971f000    ..q.    DCD    4184993792
        0x00010f54:    9801e01a    ....    DCD    2550259738
        0x00010f58:    f000b2c0    ....    DCD    4026577600
        0x00010f5c:    e015f90a    ....    DCD    3759536394
        0x00010f60:    f829f000    ..).    DCD    4163497984
        0x00010f64:    9801e012    ....    DCD    2550259730
        0x00010f68:    f000b280    ....    DCD    4026577536
        0x00010f6c:    e00df962    b...    DCD    3759012194
        0x00010f70:    fb3bf000    ..;.    DCD    4215009280
        0x00010f74:    f000e00a    ....    DCD    4026589194
        0x00010f78:    e007fb94    ....    DCD    3758619540
        0x00010f7c:    b2c09801    ....    DCD    2998966273
        0x00010f80:    fac7f000    ....    DCD    4207407104
        0x00010f84:    e0014604    .F..    DCD    3758179844
        0x00010f88:    43e42400    .$.C    DCD    1139024896
        0x00010f8c:    b0044620     F..    DCD    2953070112
        0x00010f90:    b403bd10    ....    DCD    3020143888
        0x00010f94:    90014801    .H..    DCD    2416003073
        0x00010f98:    2739bd01    ..9'    DCD    658095361
        0x00010f9c:    b4030000    ....    DCD    3020095488
        0x00010fa0:    90014801    .H..    DCD    2416003073
        0x00010fa4:    2895bd01    ...(    DCD    680901889
        0x00010fa8:    b4030000    ....    DCD    3020095488
        0x00010fac:    90014801    .H..    DCD    2416003073
        0x00010fb0:    0101bd01    ....    DCD    16891137
        0x00010fb4:    b4f00000    ....    DCD    3035627520
        0x00010fb8:    22432000    . C"    DCD    574824448
        0x00010fbc:    68510612    ..Qh    DCD    1750140434
        0x00010fc0:    340124ff    .$.4    DCD    872490239
        0x00010fc4:    60514321    !CQ`    DCD    1615938337
        0x00010fc8:    03236851    Qh#.    DCD    52652113
        0x00010fcc:    60514319    .CQ`    DCD    1615938329
        0x00010fd0:    05db23a3    .#..    DCD    98247587
        0x00010fd4:    08496819    .hI.    DCD    139028505
        0x00010fd8:    60190049    I..`    DCD    1612251209
        0x00010fdc:    6909492a    *I.i    DCD    1762216234
        0x00010fe0:    4d29b2ce    ..)M    DCD    1294578382
        0x00010fe4:    88294f2a    *O).    DCD    2284408618
        0x00010fe8:    d30142b9    .B..    DCD    3540075193
        0x00010fec:    e00d2004    . ..    DCD    3758956548
        0x00010ff0:    42b94f28    (O.B    DCD    1119440680
        0x00010ff4:    2003d301    ...     DCD    537121537
        0x00010ff8:    4f26e008    ..&O    DCD    1327947784
        0x00010ffc:    d30142b9    .B..    DCD    3540075193
        0x00011000:    e0032002    . ..    DCD    3758301186
        0x00011004:    42b94f25    %O.B    DCD    1119440677
        0x00011008:    2001d300    ...     DCD    536990464
        0x0001100c:    18394f24    $O9.    DCD    406408996
        0x00011010:    7e093120     1.~    DCD    2114531616
        0x00011014:    da0942b1    .B..    DCD    3658039985
        0x00011018:    dd012800    .(..    DCD    3707840512
        0x0001101c:    b2401e40    @.@.    DCD    2990546496
        0x00011020:    7a091839    9..z    DCD    2047416377
        0x00011024:    19c00040    @...    DCD    432013376
        0x00011028:    e00b8b00    ....    DCD    3758852864
        0x0001102c:    da042804    .(..    DCD    3657705476
        0x00011030:    42b15c39    9\.B    DCD    1118919737
        0x00011034:    1c40db01    ..@.    DCD    474012417
        0x00011038:    1839b240    @.9.    DCD    406434368
        0x0001103c:    00407a09    .z@.    DCD    4225545
        0x00011040:    8b0019c0    ....    DCD    2332039616
        0x00011044:    62314e17    .N1b    DCD    1647398423
        0x00011048:    08496819    .hI.    DCD    139028505
        0x0001104c:    60190049    I..`    DCD    1612251209
        0x00011050:    6b314e15    .N1k    DCD    1798393365
        0x00011054:    4327460f    .F'C    DCD    1126647311
        0x00011058:    62986337    7c.b    DCD    1654154039
        0x0001105c:    633143a1    .C1c    DCD    1664172961
        0x00011060:    68518028    (.Qh    DCD    1750171688
        0x00011064:    438103b0    ...C    DCD    1132528560
        0x00011068:    78004810    .H.x    DCD    2013284368
        0x0001106c:    0fc007c0    ....    DCD    264243136
        0x00011070:    43190503    ...C    DCD    1125713155
        0x00011074:    68516051    Q`Qh    DCD    1750163537
        0x00011078:    43a10200    ...C    DCD    1134625280
        0x0001107c:    60514301    .CQ`    DCD    1615938305
        0x00011080:    4770bcf0    ..pG    DCD    1198570736
        0x00011084:    00800000    ....    DCD    8388608
        0x00011088:    604e4580    .EN`    DCD    1615742336
        0x0001108c:    3ff62000    . .?    DCD    1073094656
        0x00011090:    38f60000    ...8    DCD    955645952
        0x00011094:    2df60000    ...-    DCD    771096576
        0x00011098:    09f60000    ....    DCD    167116800
        0x0001109c:    67fc0000    ...g    DCD    1744568320
        0x000110a0:    04802000    . ..    DCD    75505664
        0x000110a4:    004050c0    .P@.    DCD    4214976
        0x000110a8:    603a4580    .E:`    DCD    1614431616
        0x000110ac:    b5f02000    . ..    DCD    3052412928
        0x000110b0:    2243b082    ..C"    DCD    574861442
        0x000110b4:    68530612    ..Sh    DCD    1750271506
        0x000110b8:    04642401    .$d.    DCD    73671681
        0x000110bc:    60534323    #CS`    DCD    1616069411
        0x000110c0:    0fd207ca    ....    DCD    265422794
        0x000110c4:    078a4696    .F..    DCD    126502550
        0x000110c8:    074a0fd3    ..J.    DCD    122294227
        0x000110cc:    070a0fd4    ....    DCD    118099924
        0x000110d0:    92010fd2    ....    DCD    2449543122
        0x000110d4:    0fd206ca    ....    DCD    265422538
        0x000110d8:    068a9200    ....    DCD    109744640
        0x000110dc:    46940fd2    ...F    DCD    1184108498
        0x000110e0:    0fd5064a    J...    DCD    265619018
        0x000110e4:    4a1f09ce    ...J    DCD    1243548110
        0x000110e8:    27036811    .h.'    DCD    654534673
        0x000110ec:    43b9057f    ...C    DCD    1136199039
        0x000110f0:    4f1d6912    .i.O    DCD    1327327506
        0x000110f4:    2800403a    :@.(    DCD    671105082
        0x000110f8:    2801d006    ...(    DCD    671207430
        0x000110fc:    2701d009    ...'    DCD    654430217
        0x00011100:    280205bf    ...(    DCD    671221183
        0x00011104:    4339d003    ..9C    DCD    1127862275
        0x00011108:    d0062800    .(..    DCD    3490064384
        0x0001110c:    4339e01b    ..9C    DCD    1127866395
        0x00011110:    2701e7fa    ...'    DCD    654436346
        0x00011114:    4339057f    ..9C    DCD    1127810431
        0x00011118:    0330e7f6    ..0.    DCD    53536758
        0x0001111c:    016a4310    .Cj.    DCD    23741200
        0x00011120:    46624310    .CbF    DCD    1180844816
        0x00011124:    431002d2    ...C    DCD    1125122770
        0x00011128:    01d29a00    ....    DCD    30579200
        0x0001112c:    9a014310    .C..    DCD    2583773968
        0x00011130:    43100192    ...C    DCD    1125122450
        0x00011134:    431002a2    ...C    DCD    1125122722
        0x00011138:    4310025a    Z..C    DCD    1125122650
        0x0001113c:    02124672    rF..    DCD    34752114
        0x00011140:    4a084310    .C.J    DCD    1242055440
        0x00011144:    48076110    .a.H    DCD    1208443152
        0x00011148:    20436001    .`C     DCD    541286401
        0x0001114c:    68410600    ..Ah    DCD    1749091840
        0x00011150:    04522201    ."R.    DCD    72491521
        0x00011154:    4a054391    .C.J    DCD    1241858961
        0x00011158:    07d27812    .x..    DCD    131233810
        0x0001115c:    43110b92    ...C    DCD    1125190546
        0x00011160:    b0026041    A`..    DCD    2952945729
        0x00011164:    0000bdf0    ....    DCD    48624
        0x00011168:    e00343c0    .C..    DCD    3758310336
        0x0001116c:    603affff    ..:`    DCD    1614479359
        0x00011170:    b5f82000    . ..    DCD    3052937216
        0x00011174:    20432400    .$C     DCD    541271040
        0x00011178:    68410600    ..Ah    DCD    1749091840
        0x0001117c:    03bf2701    .'..    DCD    62859009
        0x00011180:    60414339    9CA`    DCD    1614889785
        0x00011184:    00ba6841    Ah..    DCD    12216385
        0x00011188:    60414311    .CA`    DCD    1614889745
        0x0001118c:    68054821    !H.h    DCD    1745176609
        0x00011190:    430d1c51    Q..C    DCD    1124932689
        0x00011194:    4e1f6005    .`.N    DCD    1310679045
        0x00011198:    47b020c8    . .G    DCD    1202725064
        0x0001119c:    6888491f    .I.h    DCD    1753762079
        0x000111a0:    60884338    8C.`    DCD    1619542840
        0x000111a4:    68f0460e    .F.h    DCD    1760577038
        0x000111a8:    0fc70400    ....    DCD    264700928
        0x000111ac:    2001491a    .I.     DCD    536955162
        0x000111b0:    46204788    .G F    DCD    1176520584
        0x000111b4:    1c64491a    .Id.    DCD    476334362
        0x000111b8:    d8014288    .B..    DCD    3623961224
        0x000111bc:    d0f22f00    ./..    DCD    3505532672
        0x000111c0:    40054818    .H.@    DCD    1074087960
        0x000111c4:    60054813    .H.`    DCD    1610958867
        0x000111c8:    03402001    . @.    DCD    54534145
        0x000111cc:    68f160b0    .`.h    DCD    1760649392
        0x000111d0:    40014815    .H.@    DCD    1073825813
        0x000111d4:    4a146870    ph.J    DCD    1242851440
        0x000111d8:    43084010    .@.C    DCD    1124614160
        0x000111dc:    68306070    p`0h    DCD    1748000880
        0x000111e0:    0289213f    ?!..    DCD    42541375
        0x000111e4:    60304388    .C0`    DCD    1613775752
        0x000111e8:    06092143    C!..    DCD    101261635
        0x000111ec:    2001684a    Jh.     DCD    536963146
        0x000111f0:    43820380    ...C    DCD    1132594048
        0x000111f4:    7800480e    .H.x    DCD    2013284366
        0x000111f8:    0fc007c0    ....    DCD    264243136
        0x000111fc:    431a0383    ...C    DCD    1125778307
        0x00011200:    684a604a    J`Jh    DCD    1749704778
        0x00011204:    041b2301    .#..    DCD    68887297
        0x00011208:    0400439a    .C..    DCD    67126170
        0x0001120c:    604a4302    .CJ`    DCD    1615479554
        0x00011210:    0000bdf8    ....    DCD    48632
        0x00011214:    3ba15240    @R.;    DCD    1000428096
        0x00011218:    00000000    ....    DCD    0
        0x0001121c:    271051c0    .Q.'    DCD    655380928
        0x00011220:    fffe0000    ....    DCD    4294836224
        0x00011224:    3f3ffffe    ..??    DCD    1061158910
        0x00011228:    c0c00000    ....    DCD    3233808384
        0x0001122c:    603affff    ..:`    DCD    1614479359
        0x00011230:    47702000    . pG    DCD    1198530560
        0x00011234:    b5f00000    ....    DCD    3052404736
        0x00011238:    2508b083    ...%    DCD    621326467
        0x0001123c:    2000493c    <I.     DCD    536889660
        0x00011240:    20437008    .pC     DCD    541290504
        0x00011244:    68410600    ..Ah    DCD    1749091840
        0x00011248:    431102aa    ...C    DCD    1125188266
        0x0001124c:    27296041    A`)'    DCD    657023041
        0x00011250:    067f4938    8I..    DCD    109005112
        0x00011254:    684160f9    .`Ah    DCD    1749115129
        0x00011258:    43914b37    7K.C    DCD    1133595447
        0x0001125c:    07db781b    .x..    DCD    131823643
        0x00011260:    43190c9b    ...C    DCD    1125715099
        0x00011264:    24256041    A`%$    DCD    606429249
        0x00011268:    684101a4    ..Ah    DCD    1749090724
        0x0001126c:    60414311    .CA`    DCD    1614889745
        0x00011270:    10526841    AhR.    DCD    273836097
        0x00011274:    60414311    .CA`    DCD    1614889745
        0x00011278:    210368f8    .h.!    DCD    553871608
        0x0001127c:    43880649    I..C    DCD    1132987977
        0x00011280:    43060356    V..C    DCD    1124467542
        0x00011284:    43060390    ...C    DCD    1124467600
        0x00011288:    200168b8    .h.     DCD    536963256
        0x0001128c:    fe81f7ff    ....    DCD    4269930495
        0x00011290:    20104621    !F.     DCD    537937441
        0x00011294:    fe83f7ff    ....    DCD    4270061567
        0x00011298:    43060328    (..C    DCD    1124467496
        0x0001129c:    2d002400    .$.-    DCD    754983936
        0x000112a0:    60fed90c    ...`    DCD    1627314444
        0x000112a4:    20644925    %Id     DCD    543443237
        0x000112a8:    68f84788    .G.h    DCD    1761101704
        0x000112ac:    0a004669    iF..    DCD    167790185
        0x000112b0:    55081c80    ...U    DCD    1426594944
        0x000112b4:    b2e41c64    d...    DCD    3001293924
        0x000112b8:    d3f242ac    .B..    DCD    3555869356
        0x000112bc:    79d0466a    jF.y    DCD    2043692650
        0x000112c0:    18407991    .y@.    DCD    406878609
        0x000112c4:    79127951    Qy.y    DCD    2031253841
        0x000112c8:    18401889    ..@.    DCD    406853769
        0x000112cc:    78d1466a    jF.x    DCD    2026980970
        0x000112d0:    78901841    A..x    DCD    2022709313
        0x000112d4:    78501809    ..Px    DCD    2018514953
        0x000112d8:    78101809    ...x    DCD    2014320649
        0x000112dc:    46291808    ..)F    DCD    1177098248
        0x000112e0:    fe63f7ff    ..c.    DCD    4267964415
        0x000112e4:    b2c04912    .I..    DCD    2998946066
        0x000112e8:    68397008    .p9h    DCD    1748594696
        0x000112ec:    02922201    ."..    DCD    43131393
        0x000112f0:    60394311    .C9`    DCD    1614365457
        0x000112f4:    1c400040    @.@.    DCD    473956416
        0x000112f8:    20006178    xa.     DCD    536895864
        0x000112fc:    fe49f7ff    ..I.    DCD    4266260479
        0x00011300:    06092143    C!..    DCD    101261635
        0x00011304:    2001684a    Jh.     DCD    536963146
        0x00011308:    43820300    ...C    DCD    1132593920
        0x0001130c:    7800480a    .H.x    DCD    2013284362
        0x00011310:    0fc007c0    ....    DCD    264243136
        0x00011314:    431a0303    ...C    DCD    1125778179
        0x00011318:    684a604a    J`Jh    DCD    1749704778
        0x0001131c:    035b2301    .#[.    DCD    56304385
        0x00011320:    0340439a    .C@.    DCD    54543258
        0x00011324:    604a4302    .CJ`    DCD    1615479554
        0x00011328:    bdf0b003    ....    DCD    3186667523
        0x0001132c:    60700000    ..p`    DCD    1617952768
        0x00011330:    34cc2000    . .4    DCD    885792768
        0x00011334:    603a0263    c.:`    DCD    1614414435
        0x00011338:    3ba12000    . .;    DCD    1000415232
        0x0001133c:    b4700000    ..p.    DCD    3027238912
        0x00011340:    06092143    C!..    DCD    101261635
        0x00011344:    24016848    Hh.$    DCD    604072008
        0x00011348:    432004a4    .. C    DCD    1126171812
        0x0001134c:    20c46048    H`.     DCD    549740616
        0x00011350:    05d22287    ."..    DCD    97657479
        0x00011354:    485c6010    .`\H    DCD    1214013456
        0x00011358:    68486150    PaHh    DCD    1749573968
        0x0001135c:    43a04a5c    \J.C    DCD    1134578268
        0x00011360:    07d27812    .x..    DCD    131233810
        0x00011364:    04930fd2    ....    DCD    76746706
        0x00011368:    60484318    .CH`    DCD    1615348504
        0x0001136c:    4b58208b    . XK    DCD    1264066699
        0x00011370:    634305c0    ..Cc    DCD    1665336768
        0x00011374:    25014b58    XK.%    DCD    620841816
        0x00011378:    250660dd    .`.%    DCD    621175005
        0x0001137c:    250560cd    .`.%    DCD    621109453
        0x00011380:    688563c5    .c.h    DCD    1753572293
        0x00011384:    3df0086d    m..=    DCD    1039140973
        0x00011388:    68c56085    .`.h    DCD    1757765765
        0x0001138c:    355d086d    m.]5    DCD    895289453
        0x00011390:    690560c5    .`.i    DCD    1761960133
        0x00011394:    6105086d    m..a    DCD    1627719789
        0x00011398:    086d6945    Eim.    DCD    141388101
        0x0001139c:    69856145    Ea.i    DCD    1770348869
        0x000113a0:    6185086d    m..a    DCD    1636108397
        0x000113a4:    086d69c5    .im.    DCD    141388229
        0x000113a8:    6a0561c5    .a.j    DCD    1778737605
        0x000113ac:    6205086d    m..b    DCD    1644497005
        0x000113b0:    086d6a45    Ejm.    DCD    141388357
        0x000113b4:    6a856245    Eb.j    DCD    1787126341
        0x000113b8:    6285086d    m..b    DCD    1652885613
        0x000113bc:    086d6ac5    .jm.    DCD    141388485
        0x000113c0:    250162c5    .b.%    DCD    620847813
        0x000113c4:    625d611d    .a]b    DCD    1650286877
        0x000113c8:    4b43639d    .cCK    DCD    1262707613
        0x000113cc:    4d43601d    .`CM    DCD    1296261149
        0x000113d0:    6a1d615d    ]a.j    DCD    1780310365
        0x000113d4:    621d086d    m..b    DCD    1646069869
        0x000113d8:    25016ac3    .j.%    DCD    620849859
        0x000113dc:    62c3432b    +C.b    DCD    1656963883
        0x000113e0:    10a36848    Hh..    DCD    279144520
        0x000113e4:    60484318    .CH`    DCD    1615348504
        0x000113e8:    109b6848    Hh..    DCD    278620232
        0x000113ec:    60484318    .CH`    DCD    1615348504
        0x000113f0:    4b3b483d    =H;K    DCD    1262176317
        0x000113f4:    68836143    Ca.h    DCD    1753440579
        0x000113f8:    05ad253f    ?%..    DCD    95233343
        0x000113fc:    6083432b    +C.`    DCD    1619215147
        0x00011400:    60c32300    .#.`    DCD    1623401216
        0x00011404:    61834b39    9K.a    DCD    1635994425
        0x00011408:    682b4d39    9M+h    DCD    1747668281
        0x0001140c:    43b3261e    .&.C    DCD    1135814174
        0x00011410:    6a83602b    +`.j    DCD    1786994731
        0x00011414:    43ab03f5    ...C    DCD    1135281141
        0x00011418:    6283191b    ...b    DCD    1652758811
        0x0001141c:    10a36848    Hh..    DCD    279144520
        0x00011420:    04134398    .C..    DCD    68371352
        0x00011424:    60484318    .CH`    DCD    1615348504
        0x00011428:    11236848    Hh#.    DCD    287533128
        0x0001142c:    03934398    .C..    DCD    59982744
        0x00011430:    60484318    .CH`    DCD    1615348504
        0x00011434:    11636848    Hhc.    DCD    291727432
        0x00011438:    60484318    .CH`    DCD    1615348504
        0x0001143c:    06402029    ) @.    DCD    104865833
        0x00011440:    09246a04    .j$.    DCD    153381380
        0x00011444:    34080124    $..4    DCD    872939812
        0x00011448:    68486204    .bHh    DCD    1749574148
        0x0001144c:    03534398    .CS.    DCD    55788440
        0x00011450:    60484318    .CH`    DCD    1615348504
        0x00011454:    23016848    Hh.#    DCD    587294792
        0x00011458:    4318051b    ...C    DCD    1125647643
        0x0001145c:    24286048    H`($    DCD    606625864
        0x00011460:    05c020a3    . ..    DCD    96477347
        0x00011464:    4d226004    .`"M    DCD    1294098436
        0x00011468:    6285882d    -..b    DCD    1652918317
        0x0001146c:    05126848    Hh..    DCD    85092424
        0x00011470:    43104398    .C.C    DCD    1125139352
        0x00011474:    481f6048    H`.H    DCD    1210015816
        0x00011478:    700121e6    .!.p    DCD    1879122406
        0x0001147c:    4a1d7204    .r.J    DCD    1243443716
        0x00011480:    8310481e    .H..    DCD    2198882334
        0x00011484:    23e0481e    .H.#    DCD    601901086
        0x00011488:    4c1a7603    .v.L    DCD    1276802563
        0x0001148c:    706222d4    ."bp    DCD    1885479636
        0x00011490:    7262223c    <"br    DCD    1919033916
        0x00011494:    83624a1b    .Jb.    DCD    2204256795
        0x00011498:    22c87641    Av."    DCD    583562817
        0x0001149c:    4d1570a2    .p.M    DCD    1293250722
        0x000114a0:    72ac2446    F$.r    DCD    1923884102
        0x000114a4:    83ac4c18    .L..    DCD    2209106968
        0x000114a8:    46297681    .v)F    DCD    1177122433
        0x000114ac:    215070ca    .pP!    DCD    558919882
        0x000114b0:    72d1462a    *F.r    DCD    1926317610
        0x000114b4:    83d14915    .I..    DCD    2211531029
        0x000114b8:    215a76c3    .vZ!    DCD    559576771
        0x000114bc:    49137311    .s.I    DCD    1226011409
        0x000114c0:    77038411    ...w    DCD    1996719121
        0x000114c4:    4770bc70    p.pG    DCD    1198570608
        0x000114c8:    7fff0000    ....    DCD    2147418112
        0x000114cc:    603a0000    ..:`    DCD    1614413824
        0x000114d0:    02492000    . I.    DCD    38346752
        0x000114d4:    00400000    ..@.    DCD    4194304
        0x000114d8:    00804580    .E..    DCD    8406400
        0x000114dc:    021e4580    .E..    DCD    35538304
        0x000114e0:    00030000    ....    DCD    196608
        0x000114e4:    0000003c    <...    DCD    60
        0x000114e8:    00085240    @R..    DCD    545344
        0x000114ec:    0000000f    ....    DCD    15
        0x000114f0:    604e51c0    .QN`    DCD    1615745472
        0x000114f4:    67fc2000    . .g    DCD    1744576512
        0x000114f8:    07f62000    . ..    DCD    133570560
        0x000114fc:    681c0000    ...h    DCD    1746665472
        0x00011500:    09f62000    . ..    DCD    167124992
        0x00011504:    2df60000    ...-    DCD    771096576
        0x00011508:    38f60000    ...8    DCD    955645952
        0x0001150c:    3ff60000    ...?    DCD    1073086464
        0x00011510:    b5f80000    ....    DCD    3052929024
        0x00011514:    6800482d    -H.h    DCD    1744848941
        0x00011518:    d1542800    .(T.    DCD    3511953408
        0x0001151c:    06122243    C"..    DCD    101851715
        0x00011520:    21016850    Ph.!    DCD    553740368
        0x00011524:    430803c9    ...C    DCD    1124598729
        0x00011528:    4f286050    P`(O    DCD    1328046160
        0x0001152c:    2501683c    <h.%    DCD    620849212
        0x00011530:    06002003    . ..    DCD    100671491
        0x00011534:    60384320     C8`    DCD    1614299936
        0x00011538:    49252600    .&%I    DCD    1227171328
        0x0001153c:    4788201e    . .G    DCD    1200103454
        0x00011540:    20014924    $I.     DCD    536955172
        0x00011544:    68784788    .Gxh    DCD    1752713096
        0x00011548:    0fc007c0    ....    DCD    264243136
        0x0001154c:    4a214631    1F!J    DCD    1243694641
        0x00011550:    42911c76    v..B    DCD    1116806262
        0x00011554:    2800d801    ...(    DCD    671143937
        0x00011558:    481cd0f2    ...H    DCD    1209848050
        0x0001155c:    481e6881    .h.H    DCD    1209952385
        0x00011560:    20006001    .`.     DCD    536895489
        0x00011564:    2d002600    .&.-    DCD    754984448
        0x00011568:    4b1cd011    ...K    DCD    1260179473
        0x0001156c:    25004632    2F.%    DCD    620774962
        0x00011570:    41aa1acb    ...A    DCD    1101667019
        0x00011574:    1c40da14    ..@.    DCD    474012180
        0x00011578:    4f184605    .F.O    DCD    1326990853
        0x0001157c:    4633434d    MC3F    DCD    1177764685
        0x00011580:    1b7d2200    ."}.    DCD    461185536
        0x00011584:    1b4d419a    .AM.    DCD    458047898
        0x00011588:    dbf44193    .A..    DCD    3690217875
        0x0001158c:    4b14e008    ...K    DCD    1259659272
        0x00011590:    d2054299    .B..    DCD    3523560089
        0x00011594:    46021c40    @..F    DCD    1174543424
        0x00011598:    1a9a434a    JC..    DCD    446317386
        0x0001159c:    d8f9428a    .B..    DCD    3640214154
        0x000115a0:    06092101    .!..    DCD    101261569
        0x000115a4:    0049438c    .CI.    DCD    4801420
        0x000115a8:    4908430c    .C.I    DCD    1225278220
        0x000115ac:    2243600c    .`C"    DCD    574840844
        0x000115b0:    68510612    ..Qh    DCD    1750140434
        0x000115b4:    03db2301    .#..    DCD    64692993
        0x000115b8:    4b0a4399    .C.K    DCD    1258963865
        0x000115bc:    07db781b    .x..    DCD    131823643
        0x000115c0:    43190c1b    ...C    DCD    1125714971
        0x000115c4:    bdf86051    Q`..    DCD    3187171409
        0x000115c8:    605c0000    ..\`    DCD    1616642048
        0x000115cc:    00002000    . ..    DCD    8192
        0x000115d0:    3ba14440    @D.;    DCD    1000424512
        0x000115d4:    27100000    ...'    DCD    655360000
        0x000115d8:    60600000    ..``    DCD    1616904192
        0x000115dc:    20002000    . .     DCD    536879104
        0x000115e0:    d000bebc    ....    DCD    3489709756
        0x000115e4:    603a1312    ..:`    DCD    1614418706
        0x000115e8:    b5702000    . p.    DCD    3044024320
        0x000115ec:    47804823    #H.G    DCD    1199589411
        0x000115f0:    06242443    C$$.    DCD    103031875
        0x000115f4:    68602101    .!`h    DCD    1751130369
        0x000115f8:    43080489    ...C    DCD    1124598921
        0x000115fc:    481f6060    ``.H    DCD    1210015840
        0x00011600:    481f4780    .G.H    DCD    1210009472
        0x00011604:    28aa7800    .x.(    DCD    682260480
        0x00011608:    68a0d106    ...h    DCD    1755369734
        0x0001160c:    d1030780    ....    DCD    3506636672
        0x00011610:    4788491d    .I.G    DCD    1200113949
        0x00011614:    6008491d    .I.`    DCD    1611155741
        0x00011618:    05c020a1    . ..    DCD    96477345
        0x0001161c:    21026b02    .k.!    DCD    553806594
        0x00011620:    430a438a    .C.C    DCD    1124746122
        0x00011624:    21016302    .c.!    DCD    553739010
        0x00011628:    438a6b02    .k.C    DCD    1133144834
        0x0001162c:    6302430a    .C.c    DCD    1661092618
        0x00011630:    26046b01    .k.&    DCD    637823745
        0x00011634:    433143b1    .C1C    DCD    1127302065
        0x00011638:    4c146301    .c.L    DCD    1276404481
        0x0001163c:    4d146860    `h.M    DCD    1293183072
        0x00011640:    d5040080    ....    DCD    3573809280
        0x00011644:    47a82001    . .G    DCD    1202200577
        0x00011648:    00806860    `h..    DCD    8415328
        0x0001164c:    4c11d4fa    ...L    DCD    1276237050
        0x00011650:    6060200f    . ``    DCD    1616912399
        0x00011654:    47a82001    . .G    DCD    1202200577
        0x00011658:    60602007    . ``    DCD    1616912391
        0x0001165c:    47a82004    . .G    DCD    1202200580
        0x00011660:    60602006    . ``    DCD    1616912390
        0x00011664:    480c218b    .!.H    DCD    1208754571
        0x00011668:    600805c9    ...`    DCD    1611138505
        0x0001166c:    6901480c    .H.i    DCD    1761691660
        0x00011670:    61014331    1C.a    DCD    1627472689
        0x00011674:    bd70bf30    0.p.    DCD    3178282800
        0x00011678:    37350000    ..57    DCD    926220288
        0x0001167c:    9c390000    ..9.    DCD    2620981248
        0x00011680:    602c0000    ..,`    DCD    1613496320
        0x00011684:    39d12000    . .9    DCD    970006528
        0x00011688:    60540000    ..T`    DCD    1616117760
        0x0001168c:    00802000    . ..    DCD    8396800
        0x00011690:    3ba14580    .E.;    DCD    1000424832
        0x00011694:    00400000    ..@.    DCD    4194304
        0x00011698:    03264580    .E&.    DCD    52839808
        0x0001169c:    ed000000    ....    DCD    3976200192
        0x000116a0:    b570e000    ..p.    DCD    3044073472
        0x000116a4:    200f4d2f    /M.     DCD    537873711
        0x000116a8:    248b6068    h`.$    DCD    613113960
        0x000116ac:    682005e4    .. h    DCD    1746929124
        0x000116b0:    02492101    .!I.    DCD    38347009
        0x000116b4:    60204388    .C `    DCD    1612727176
        0x000116b8:    4780482b    +H.G    DCD    1199589419
        0x000116bc:    f3802001    . ..    DCD    4085260289
        0x000116c0:    48298810    ..)H    DCD    1210681360
        0x000116c4:    49296840    @h)I    DCD    1227450432
        0x000116c8:    d4060080    ....    DCD    3557163136
        0x000116cc:    22086820     h."    DCD    570976288
        0x000116d0:    60204310    .C `    DCD    1612727056
        0x000116d4:    47882001    . .G    DCD    1200103425
        0x000116d8:    2001e001    ...     DCD    536993793
        0x000116dc:    48244788    .G$H    DCD    1210337160
        0x000116e0:    48244780    .G$H    DCD    1210337152
        0x000116e4:    78004925    %I.x    DCD    2013284645
        0x000116e8:    200d4788    .G.     DCD    537741192
        0x000116ec:    48236068    h`#H    DCD    1210277992
        0x000116f0:    20434780    .GC     DCD    541280128
        0x000116f4:    68410600    ..Ah    DCD    1749091840
        0x000116f8:    035b2301    .#[.    DCD    56304385
        0x000116fc:    60414319    .CA`    DCD    1614889753
        0x00011700:    4a1f2129    )!.J    DCD    1243554089
        0x00011704:    60ca0649    I..`    DCD    1623852617
        0x00011708:    09126a0a    .j..    DCD    152201738
        0x0001170c:    32080112    ...2    DCD    839385362
        0x00011710:    680a620a    .b.h    DCD    1745510922
        0x00011714:    432210dc    .."C    DCD    1126306012
        0x00011718:    4a1a600a    .`.J    DCD    1243242506
        0x0001171c:    00527812    .xR.    DCD    5404690
        0x00011720:    614a1c52    R.Ja    DCD    1632246866
        0x00011724:    49186842    Bh.I    DCD    1226336322
        0x00011728:    7809439a    .C.x    DCD    2013873050
        0x0001172c:    0fc907c9    ....    DCD    264832969
        0x00011730:    431a034b    K..C    DCD    1125778251
        0x00011734:    68436042    B`Ch    DCD    1749246018
        0x00011738:    431302a2    ...C    DCD    1125319330
        0x0001173c:    24286043    C`($    DCD    606625859
        0x00011740:    05db23a3    .#..    DCD    98247587
        0x00011744:    4c11601c    .`.L    DCD    1276207132
        0x00011748:    629c8824    $..b    DCD    1654425636
        0x0001174c:    05096843    Ch..    DCD    84502595
        0x00011750:    430b4393    .C.C    DCD    1124811667
        0x00011754:    20006043    C`.     DCD    536895555
        0x00011758:    8810f380    ....    DCD    2282812288
        0x0001175c:    4780480d    .H.G    DCD    1199589389
        0x00011760:    0040bd70    p.@.    DCD    4242800
        0x00011764:    3b854580    .E.;    DCD    998589824
        0x00011768:    00800001    ....    DCD    8388609
        0x0001176c:    44894580    .E.D    DCD    1149846912
        0x00011770:    346d0001    ..m4    DCD    879558657
        0x00011774:    60400001    ..@`    DCD    1614807041
        0x00011778:    3ba12000    . .;    DCD    1000415232
        0x0001177c:    4d990000    ...M    DCD    1301872640
        0x00011780:    34cc0001    ...4    DCD    885784577
        0x00011784:    60700463    c.p`    DCD    1617953891
        0x00011788:    603a2000    . :`    DCD    1614422016
        0x0001178c:    604e2000    . N`    DCD    1615732736
        0x00011790:    34ad2000    . .4    DCD    883761152
        0x00011794:    00000001    ....    DCD    1
    .constdata
    am_ble_buffer_patch_data
        0x00011798:    0d382200    ."8.    DCD    221782528
        0x0001179c:    0000ffff    ....    DCD    65535
        0x000117a0:    00093532    25..    DCD    603442
        0x000117a4:    00093965    e9..    DCD    604517
        0x000117a8:    0009452b    +E..    DCD    607531
        0x000117ac:    000948a9    .H..    DCD    608425
        0x000117b0:    000953f7    .S..    DCD    611319
        0x000117b4:    00095c1a    .\..    DCD    613402
        0x000117b8:    0009641c    .d..    DCD    615452
        0x000117bc:    00096afd    .j..    DCD    617213
        0x000117c0:    0009751a    .u..    DCD    619802
        0x000117c4:    00097bde    .{..    DCD    621534
        0x000117c8:    0009854b    K...    DCD    623947
        0x000117cc:    00098bb3    ....    DCD    625587
        0x000117d0:    0009951f    ....    DCD    627999
        0x000117d4:    00099c4f    O...    DCD    629839
        0x000117d8:    0009a2f5    ....    DCD    631541
        0x000117dc:    0009ad1e    ....    DCD    634142
        0x000117e0:    00000000    ....    DCD    0
        0x000117e4:    00000000    ....    DCD    0
        0x000117e8:    00000000    ....    DCD    0
        0x000117ec:    00000000    ....    DCD    0
        0x000117f0:    00000000    ....    DCD    0
        0x000117f4:    00000000    ....    DCD    0
        0x000117f8:    00000000    ....    DCD    0
        0x000117fc:    00000000    ....    DCD    0
        0x00011800:    00000000    ....    DCD    0
        0x00011804:    00000000    ....    DCD    0
        0x00011808:    00000000    ....    DCD    0
        0x0001180c:    00000000    ....    DCD    0
        0x00011810:    00000000    ....    DCD    0
        0x00011814:    47004800    .H.G    DCD    1191200768
        0x00011818:    20004841    AH.     DCD    536889409
        0x0001181c:    bf00bf00    ....    DCD    3204497152
        0x00011820:    b005bf00    ....    DCD    2953166592
        0x00011824:    0000bdf0    ....    DCD    48624
        0x00011828:    20006790    .g.     DCD    536897424
        0x0001182c:    00002710    .'..    DCD    10000
        0x00011830:    20001000    ...     DCD    536875008
        0x00011834:    00001388    ....    DCD    5000
        0x00011838:    20001018    ...     DCD    536875032
        0x0001183c:    000003ff    ....    DCD    1023
        0x00011840:    b0ffb5ff    ....    DCD    2969548287
        0x00011844:    4607b082    ...F    DCD    1174909058
        0x00011848:    4616460c    .F.F    DCD    1175864844
        0x0001184c:    48302500    .%0H    DCD    1211114752
        0x00011850:    99846006    .`..    DCD    2575589382
        0x00011854:    28eed004    ...(    DCD    686739460
        0x00011858:    2003d002    ...     DCD    537120770
        0x0001185c:    bd707360    `sp.    DCD    3178263392
        0x00011860:    28f17c60    `|.(    DCD    686914656
        0x00011864:    28f2d006    ...(    DCD    687001606
        0x00011868:    28f3d004    ...(    DCD    687067140
        0x0001186c:    2002d002    ...     DCD    537055234
        0x00011870:    bd707360    `sp.    DCD    3178263392
        0x00011874:    73602000    . `s    DCD    1935679488
        0x00011878:    0000bd70    p...    DCD    48496
        0x0001187c:    20001018    ...     DCD    536875032
        0x00011880:    2000100a    ...     DCD    536875018
        0x00011884:    47004800    .H.G    DCD    1191200768
        0x00011888:    20004d81    .M.     DCD    536890753
        0x0001188c:    28008870    p..(    DCD    671123568
        0x00011890:    2014d116    ...     DCD    538235158
        0x00011894:    200b2101    .!.     DCD    537600257
        0x00011898:    fcc6f7ed    ....    DCD    4240898029
        0x0001189c:    0000bd10    ....    DCD    48400
        0x000118a0:    47004800    .H.G    DCD    1191200768
        0x000118a4:    20004e15    .N.     DCD    536890901
        0x000118a8:    d0022800    .(..    DCD    3489802240
        0x000118ac:    28017808    .x.(    DCD    671184904
        0x000118b0:    7808d01a    ...x    DCD    2013843482
        0x000118b4:    d0172802    .(..    DCD    3491178498
        0x000118b8:    d00e2800    .(..    DCD    3490588672
        0x000118bc:    d00c2801    .(..    DCD    3490457601
        0x000118c0:    fed9f7f0    ....    DCD    4275697648
        0x000118c4:    d0082800    .(..    DCD    3490195456
        0x000118c8:    f816f000    ....    DCD    4162252800
        0x000118cc:    f7ef2032    2 ..    DCD    4159643698
        0x000118d0:    f7f0f851    Q...    DCD    4159764561
        0x000118d4:    e000e180    ....    DCD    3758154112
        0x000118d8:    e000e100    ....    DCD    3758153984
        0x000118dc:    68014802    .H.h    DCD    1744914434
        0x000118e0:    43912228    (".C    DCD    1133584936
        0x000118e4:    47706001    .`pG    DCD    1198546945
        0x000118e8:    52c00000    ...R    DCD    1388314624
        0x000118ec:    47004800    .H.G    DCD    1191200768
        0x000118f0:    20004881    .H.     DCD    536889473
        0x000118f4:    47706001    .`pG    DCD    1198546945
        0x000118f8:    52c00000    ...R    DCD    1388314624
        0x000118fc:    68014802    .H.h    DCD    1744914434
        0x00011900:    43912250    P".C    DCD    1133584976
        0x00011904:    47706001    .`pG    DCD    1198546945
        0x00011908:    52c00000    ...R    DCD    1388314624
        0x0001190c:    47004800    .H.G    DCD    1191200768
        0x00011910:    200048a1    .H.     DCD    536889505
        0x00011914:    508040c0    .@.P    DCD    1350582464
        0x00011918:    460bb510    ...F    DCD    1175172368
        0x0001191c:    24024611    .F.$    DCD    604128785
        0x00011920:    4350220c    ."PC    DCD    1129325068
        0x00011924:    18804a06    .J..    DCD    411060742
        0x00011928:    d0062800    .(..    DCD    3490064384
        0x0001192c:    2a006842    Bh.*    DCD    704669762
        0x00011930:    4618d003    ...F    DCD    1176031235
        0x00011934:    fb10f000    ....    DCD    4212191232
        0x00011938:    46204604    .F F    DCD    1176520196
        0x0001193c:    0000bd10    ....    DCD    48400
        0x00011940:    00015698    .V..    DCD    87704
        0x00011944:    47084900    .I.G    DCD    1191725312
        0x00011948:    20004e99    .N.     DCD    536891033
        0x0001194c:    fd5cf7f3    ..\.    DCD    4250728435
        0x00011950:    5b00207c    | .[    DCD    1526734972
        0x00011954:    1940f80b    ..@.    DCD    423688203
        0x00011958:    2900b2c1    ...)    DCD    687911617
        0x0001195c:    3440d003    ..@4    DCD    876662787
        0x00011960:    f7f98fa0    ....    DCD    4160327584
        0x00011964:    bd70fd73    s.p.    DCD    3178298739
        0x00011968:    e7e12101    .!..    DCD    3890290945
        0x0001196c:    47084900    .I.G    DCD    1191725312
        0x00011970:    20005081    .P.     DCD    536891521
        0x00011974:    8810f380    ....    DCD    2282812288
        0x00011978:    f7f34628    (F..    DCD    4159915560
        0x0001197c:    2100f94d    M..!    DCD    553711949
        0x00011980:    8810f381    ....    DCD    2282812289
        0x00011984:    d00f2800    .(..    DCD    3490654208
        0x00011988:    460a8881    ...F    DCD    1175095425
        0x0001198c:    2a463a0a    .:F*    DCD    709245450
        0x00011990:    1c64d20c    ..d.    DCD    476369420
        0x00011994:    03d20bd2    ....    DCD    64097234
        0x00011998:    84c2430a    .C..    DCD    2227323658
        0x0001199c:    f3802000    . ..    DCD    4085260288
        0x000119a0:    47708810    ..pG    DCD    1198557200
        0x000119a4:    00000466    f...    DCD    1126
        0x000119a8:    50804440    @D.P    DCD    1350583360
        0x000119ac:    47084900    .I.G    DCD    1191725312
        0x000119b0:    200050ed    .P.     DCD    536891629
        0x000119b4:    8f809011    ....    DCD    2407567377
        0x000119b8:    9812900e    ....    DCD    2551353358
        0x000119bc:    900d3008    .0..    DCD    2416783368
        0x000119c0:    30309812    ..00    DCD    808491026
        0x000119c4:    9812900c    ....    DCD    2551353356
        0x000119c8:    900b3044    D0..    DCD    2416652356
        0x000119cc:    900a2000    . ..    DCD    2416582656
        0x000119d0:    980c2501    .%..    DCD    2550932737
        0x000119d4:    f8a4f007    ....    DCD    4171558919
        0x000119d8:    d02d2800    .(-.    DCD    3492620288
        0x000119dc:    bf00bf00    ....    DCD    3204497152
        0x000119e0:    bf00bf00    ....    DCD    3204497152
        0x000119e4:    bf00bf00    ....    DCD    3204497152
        0x000119e8:    bf00bf00    ....    DCD    3204497152
        0x000119ec:    bf00bf00    ....    DCD    3204497152
        0x000119f0:    9a0ce091    ....    DCD    2584535185
        0x000119f4:    232220ff    . "#    DCD    589439231
        0x000119f8:    300a4611    .F.0    DCD    805979665
        0x000119fc:    fb9ef7fd    ....    DCD    4221499389
        0x00011a00:    88617007    .pa.    DCD    2288087047
        0x00011a04:    88a181c1    ....    DCD    2292285889
        0x00011a08:    88e18201    ....    DCD    2296480257
        0x00011a0c:    892180c1    ..!.    DCD    2300674241
        0x00011a10:    7aa18101    ...z    DCD    2057404673
        0x00011a14:    e02301c0    ..#.    DCD    3760390592
        0x00011a18:    9802e077    w...    DCD    2550325367
        0x00011a1c:    01401a08    ..@.    DCD    20978184
        0x00011a20:    42900940    @..B    DCD    1116735808
        0x00011a24:    9802d91c    ....    DCD    2550323484
        0x00011a28:    01401a40    @.@.    DCD    20978240
        0x00011a2c:    42400940    @.@B    DCD    1111492928
        0x00011a30:    9802e016    ....    DCD    2550325270
        0x00011a34:    bf00bf00    ....    DCD    3204497152
        0x00011a38:    bf00bf00    ....    DCD    3204497152
        0x00011a3c:    bf00bf00    ....    DCD    3204497152
        0x00011a40:    bf00bf00    ....    DCD    3204497152
        0x00011a44:    2000bf00    ...     DCD    536919808
        0x00011a48:    9802e00a    ....    DCD    2550325258
        0x00011a4c:    01401a38    8.@.    DCD    20978232
        0x00011a50:    42900940    @..B    DCD    1116735808
        0x00011a54:    607565c1    .eu`    DCD    1618306497
        0x00011a58:    84b88960    `...    DCD    2226686304
        0x00011a5c:    20019a04    ...     DCD    536975876
        0x00011a60:    88607550    Pu`.    DCD    2288022864
        0x00011a64:    9a0485f8    ....    DCD    2583987704
        0x00011a68:    75107860    `x.u    DCD    1964013664
        0x00011a6c:    47004800    .H.G    DCD    1191200768
        0x00011a70:    200048e1    .H.     DCD    536889569
        0x00011a74:    0000bf00    ....    DCD    48896
        0x00011a78:    8d3a8960    `.:.    DCD    2369423712
        0x00011a7c:    b2801e40    @...    DCD    2994740800
        0x00011a80:    d1034282    .B..    DCD    3506651778
        0x00011a84:    43012008    . .C    DCD    1124147208
        0x00011a88:    71819803    ...q    DCD    1904318467
        0x00011a8c:    bdf0b007    ....    DCD    3186667527
        0x00011a90:    20006160    `a.     DCD    536895840
        0x00011a94:    00000000    ....    DCD    0
        0x00011a98:    00000000    ....    DCD    0
        0x00011a9c:    00000000    ....    DCD    0
        0x00011aa0:    00000000    ....    DCD    0
        0x00011aa4:    00000021    !...    DCD    33
        0x00011aa8:    00000000    ....    DCD    0
        0x00011aac:    00000001    ....    DCD    1
        0x00011ab0:    00000000    ....    DCD    0
        0x00011ab4:    ffffffff    ....    DCD    4294967295
        0x00011ab8:    000003ff    ....    DCD    1023
        0x00011abc:    1f3c00ff    ..<.    DCD    524026111
        0x00011ac0:    00000000    ....    DCD    0
        0x00011ac4:    00002001    . ..    DCD    8193
        0x00011ac8:    00007d89    .}..    DCD    32137
        0x00011acc:    00002002    . ..    DCD    8194
        0x00011ad0:    000076fd    .v..    DCD    30461
        0x00011ad4:    8c001810    ....    DCD    2348816400
        0x00011ad8:    9b080bc0    ....    DCD    2600995776
        0x00011adc:    42181e5b    [..B    DCD    1108876891
        0x00011ae0:    9808d105    ....    DCD    2550714629
        0x00011ae4:    47004800    .H.G    DCD    1191200768
        0x00011ae8:    200048c1    .H.     DCD    536889537
        0x00011aec:    0000bf00    ....    DCD    48896
        0x00011af0:    18d24b80    .K..    DCD    416435072
        0x00011af4:    20018450    P..     DCD    536970320
        0x00011af8:    8810f380    ....    DCD    2282812288
        0x00011afc:    280068b8    .h.(    DCD    671115448
        0x00011b00:    2000d016    ...     DCD    536924182
        0x00011b04:    d0192800    .(..    DCD    3491309568
        0x00011b08:    28006b38    8k.(    DCD    671116088
        0x00011b0c:    2000d012    ...     DCD    536924178
        0x00011b10:    d0132800    .(..    DCD    3490916352
        0x00011b14:    1900fc9f    ....    DCD    419495071
        0x00011b18:    68594b06    .KYh    DCD    1750682374
        0x00011b1c:    088a1809    ....    DCD    143267849
        0x00011b20:    1b090094    ....    DCD    453574804
        0x00011b24:    01416059    Y`A.    DCD    21061721
        0x00011b28:    18801a08    ....    DCD    411048456
        0x00011b2c:    0000bd10    ....    DCD    48400
        0x00011b30:    2000602c    ,`.     DCD    536895532
        0x00011b34:    200067b8    .g.     DCD    536897464
        0x00011b38:    47084900    .I.G    DCD    1191725312
        0x00011b3c:    20005579    yU.     DCD    536892793
        0x00011b40:    6a80217d    }!.j    DCD    1786782077
        0x00011b44:    42880209    ...B    DCD    1116209673
        0x00011b48:    1a40d302    ..@.    DCD    440455938
        0x00011b4c:    e0002201    ."..    DCD    3758105089
        0x00011b50:    2a001a08    ...*    DCD    704649736
        0x00011b54:    1a081929    )...    DCD    436738345
        0x00011b58:    f7ee4621    !F..    DCD    4159587873
        0x00011b5c:    b288feb1    ....    DCD    2995322545
        0x00011b60:    3028bd70    p.(0    DCD    807976304
        0x00011b64:    7e003060    `0.~    DCD    2113941600
        0x00011b68:    b4104770    pG..    DCD    3020965744
        0x00011b6c:    32404602    .F@2    DCD    843073026
        0x00011b70:    24068cd3    ...$    DCD    604409043
        0x00011b74:    8d144363    cC..    DCD    2366915427
        0x00011b78:    b29b18e3    ....    DCD    2996508899
        0x00011b7c:    30608493    ..`0    DCD    811631763
        0x00011b80:    46187541    Au.F    DCD    1176008001
        0x00011b84:    4770bc10    ..pG    DCD    1198570512
        0x00011b88:    30603028    (0`0    DCD    811610152
        0x00011b8c:    28007d40    @}.(    DCD    671120704
        0x00011b90:    20002000    . .     DCD    536879104
        0x00011b94:    07007940    @y..    DCD    117471552
        0x00011b98:    2004d502    ...     DCD    537187586
        0x00011b9c:    e0347060    `p4.    DCD    3761533024
        0x00011ba0:    f0056928    (i..    DCD    4026886440
        0x00011ba4:    2800fb51    Q..(    DCD    671152977
        0x00011ba8:    2002d002    ...     DCD    537055234
        0x00011bac:    e02c7060    `p,.    DCD    3761008736
        0x00011bb0:    f0039803    ....    DCD    4026767363
        0x00011bb4:    2804fe4d    M..(    DCD    671415885
        0x00011bb8:    4668d107    ..hF    DCD    1181274375
        0x00011bbc:    20027901    .y.     DCD    537032961
        0x00011bc0:    d0054388    .C..    DCD    3490005896
        0x00011bc4:    28002000    . .(    DCD    671096832
        0x00011bc8:    2000d004    ...     DCD    536924164
        0x00011bcc:    e01c7060    `p..    DCD    3759960160
        0x00011bd0:    e7f82001    . ..    DCD    3891798017
        0x00011bd4:    20006758    Xg.     DCD    536897368
        0x00011bd8:    50800040    @..P    DCD    1350565952
        0x00011bdc:    200067b8    .g.     DCD    536897464
        0x00011be0:    04000000    ....    DCD    67108864
        0x00011be4:    200067c8    .g.     DCD    536897480
        0x00011be8:    47084900    .I.G    DCD    1191725312
        0x00011bec:    200055cd    .U.     DCD    536892877
        0x00011bf0:    207d6a81    .j}     DCD    545090177
        0x00011bf4:    42810200    ...B    DCD    1115750912
        0x00011bf8:    1a08d302    ....    DCD    436785922
        0x00011bfc:    e0002201    ."..    DCD    3758105089
        0x00011c00:    2a001a40    @..*    DCD    704649792
        0x00011c04:    4360d004    ..`C    DCD    1130418180
        0x00011c08:    fca4f7eb    ....    DCD    4238669803
        0x00011c0c:    e0031a20     ...    DCD    3758299680
        0x00011c10:    f7eb4360    `C..    DCD    4159390560
        0x00011c14:    2400b5f8    ...$    DCD    604026360
        0x00011c18:    7800481c    .H.x    DCD    2013284380
        0x00011c1c:    d12d2800    .(-.    DCD    3509397504
        0x00011c20:    68704e1b    .Nph    DCD    1752190491
        0x00011c24:    28004d1b    .M.(    DCD    671108379
        0x00011c28:    4f1bda09    ...O    DCD    1327225353
        0x00011c2c:    200b2101    .!.     DCD    537600257
        0x00011c30:    210147b8    .G.!    DCD    553732024
        0x00011c34:    47a8200b    . .G    DCD    1202200587
        0x00011c38:    28006870    ph.(    DCD    671115376
        0x00011c3c:    2100dbf6    ...!    DCD    553704438
        0x00011c40:    47a8200b    . .G    DCD    1202200587
        0x00011c44:    200a4e15    .N.     DCD    537546261
        0x00011c48:    270547b0    .G.'    DCD    654657456
        0x00011c4c:    69f8073f    ?..i    DCD    1777862463
        0x00011c50:    0d2d0505    ..-.    DCD    221054213
        0x00011c54:    d1042d00    .-..    DCD    3506711808
        0x00011c58:    68c04811    .H.h    DCD    1757431825
        0x00011c5c:    0e800580    ....    DCD    243271040
        0x00011c60:    2c64d00c    ..d,    DCD    744804364
        0x00011c64:    2014d20a    ...     DCD    538235402
        0x00011c68:    69f847b0    .G.i    DCD    1777878960
        0x00011c6c:    0d000500    ....    DCD    218105088
        0x00011c70:    d90442a8    .B..    DCD    3640935080
        0x00011c74:    1c644605    .Fd.    DCD    476333573
        0x00011c78:    d3f42c64    d,..    DCD    3555994724
        0x00011c7c:    4903bdf8    ...I    DCD    1224982008
        0x00011c80:    70082001    . .p    DCD    1879580673
        0x00011c84:    70084907    .I.p    DCD    1879591175
        0x00011c88:    0000bdf8    ....    DCD    48632
        0x00011c8c:    20001001    ...     DCD    536875009
        0x00011c90:    45800080    ...E    DCD    1166016640
        0x00011c94:    00002455    U$..    DCD    9301
        0x00011c98:    00002391    .#..    DCD    9105
        0x00011c9c:    00003ba1    .;..    DCD    15265
        0x00011ca0:    52c00000    ...R    DCD    1388314624
        0x00011ca4:    20001000    ...     DCD    536875008
        0x00011ca8:    4818b510    ...H    DCD    1209578768
        0x00011cac:    29406801    .h@)    DCD    692086785
        0x00011cb0:    2140d201    ..@!    DCD    557896193
        0x00011cb4:    7a806001    .`.z    DCD    2055233537
        0x00011cb8:    d00107c0    ....    DCD    3489728448
        0x00011cbc:    bd102000    . ..    DCD    3171950592
        0x00011cc0:    47804813    .H.G    DCD    1199589395
        0x00011cc4:    07002005    . ..    DCD    117448709
        0x00011cc8:    491269c0    .i.I    DCD    1225943488
        0x00011ccc:    d0040500    ....    DCD    3489924352
        0x00011cd0:    28017808    .x.(    DCD    671184904
        0x00011cd4:    2802d014    ...(    DCD    671272980
        0x00011cd8:    7808d012    ...x    DCD    2013843474
        0x00011cdc:    d0082800    .(..    DCD    3490195456
        0x00011ce0:    d0062801    .(..    DCD    3490064385
        0x00011ce4:    d0042802    .(..    DCD    3489933314
        0x00011ce8:    4780480b    .H.G    DCD    1199589387
        0x00011cec:    2032490b    .I2     DCD    540166411
        0x00011cf0:    490b4788    .G.I    DCD    1225475976
        0x00011cf4:    47882004    . .G    DCD    1200103428
        0x00011cf8:    4780480a    .H.G    DCD    1199589386
        0x00011cfc:    bd102000    . ..    DCD    3171950592
        0x00011d00:    20044909    .I.     DCD    537151753
        0x00011d04:    20014788    .G.     DCD    536954760
        0x00011d08:    0000bd10    ....    DCD    48400
        0x00011d0c:    200067b8    .g.     DCD    536897464
        0x00011d10:    00009305    ....    DCD    37637
        0x00011d14:    20001018    ...     DCD    536875032
        0x00011d18:    00014b25    %K..    DCD    84773
        0x00011d1c:    00003ba1    .;..    DCD    15265
        0x00011d20:    00014441    AD..    DCD    83009
        0x00011d24:    00014aaf    .J..    DCD    84655
        0x00011d28:    00014489    .D..    DCD    83081
        0x00011d2c:    b08db5f0    ....    DCD    2962077168
        0x00011d30:    496c4604    .FlI    DCD    1231832580
        0x00011d34:    4788a804    ...G    DCD    1200138244
        0x00011d38:    5b00207c    | .[    DCD    1526734972
        0x00011d3c:    25009003    ...%    DCD    620793859
        0x00011d40:    90022000    . ..    DCD    2416058368
        0x00011d44:    f3802001    . ..    DCD    4085260289
        0x00011d48:    6c608810    ..`l    DCD    1818265616
        0x00011d4c:    f3812100    .!..    DCD    4085326080
        0x00011d50:    46268810    ..&F    DCD    1176930320
        0x00011d54:    28003660    `6.(    DCD    671102560
        0x00011d58:    4621d06b    k.!F    DCD    1176621163
        0x00011d5c:    910c3144    D1..    DCD    2433495364
        0x00011d60:    910b3928    (9..    DCD    2433431848
        0x00011d64:    910a3164    d1..    DCD    2433364324
        0x00011d68:    00ca8881    ....    DCD    13273217
        0x00011d6c:    1851495e    ^IQ.    DCD    407980382
        0x00011d70:    0bc98cc9    ....    DCD    197758153
        0x00011d74:    d05c2900    .)\.    DCD    3495700736
        0x00011d78:    f3812101    .!..    DCD    4085326081
        0x00011d7c:    68008810    ...h    DCD    1744865296
        0x00011d80:    495a9001    ..ZI    DCD    1230671873
        0x00011d84:    4788980c    ...G    DCD    1200134156
        0x00011d88:    69e04607    .F.i    DCD    1776305671
        0x00011d8c:    d0032800    .(..    DCD    3489867776
        0x00011d90:    28002000    . .(    DCD    671096832
        0x00011d94:    e008d002    ....    DCD    3758673922
        0x00011d98:    e7fa2001    . ..    DCD    3891929089
        0x00011d9c:    980b4953    SI..    DCD    2550876499
        0x00011da0:    28004788    .G.(    DCD    671106952
        0x00011da4:    4952d001    ..RI    DCD    1230163969
        0x00011da8:    20004788    .G.     DCD    536889224
        0x00011dac:    8810f380    ....    DCD    2282812288
        0x00011db0:    494d88b8    ..MI    DCD    1229818040
        0x00011db4:    184000c0    ..@.    DCD    406847680
        0x00011db8:    0bd28cc2    ....    DCD    198347970
        0x00011dbc:    84c203d2    ....    DCD    2227307474
        0x00011dc0:    280788b8    ...(    DCD    671582392
        0x00011dc4:    7e30d21e    ..0~    DCD    2117128734
        0x00011dc8:    76301e40    @.0v    DCD    1982864960
        0x00011dcc:    f3802001    . ..    DCD    4085260289
        0x00011dd0:    6b208810    .. k    DCD    1797294096
        0x00011dd4:    d0132800    .(..    DCD    3490916352
        0x00011dd8:    28002000    . .(    DCD    671096832
        0x00011ddc:    980ad005    ....    DCD    2550845445
        0x00011de0:    798021fb    .!.y    DCD    2038440443
        0x00011de4:    990a4008    .@..    DCD    2567585800
        0x00011de8:    49417188    .qAI    DCD    1229025672
        0x00011dec:    47884638    8F.G    DCD    1200113208
        0x00011df0:    f3802000    . ..    DCD    4085260288
        0x00011df4:    4a3f8810    ..?J    DCD    1245677584
        0x00011df8:    98037b39    9{..    DCD    2550364985
        0x00011dfc:    e0154790    .G..    DCD    3759490960
        0x00011e00:    e7ea2001    . ..    DCD    3890880513
        0x00011e04:    d90f2809    .(..    DCD    3641649161
        0x00011e08:    184000c0    ..@.    DCD    406847680
        0x00011e0c:    0a008d00    ....    DCD    167808256
        0x00011e10:    49399000    ..9I    DCD    1228509184
        0x00011e14:    47884638    8F.G    DCD    1200113208
        0x00011e18:    d0072800    .(..    DCD    3490129920
        0x00011e1c:    28009800    ...(    DCD    671127552
        0x00011e20:    1c6dd004    ..m.    DCD    476958724
        0x00011e24:    e001b2ed    ....    DCD    3758207725
        0x00011e28:    b2ed1c6d    m...    DCD    3001883757
        0x00011e2c:    28009801    ...(    DCD    671127553
        0x00011e30:    9803d19a    ....    DCD    2550387098
        0x00011e34:    d00e2807    .(..    DCD    3490588679
        0x00011e38:    d00c2d00    .-..    DCD    3490458880
        0x00011e3c:    f3802001    . ..    DCD    4085260289
        0x00011e40:    7e308810    ..0~    DCD    2117109776
        0x00011e44:    76301b40    @.0v    DCD    1982864192
        0x00011e48:    f3802000    . ..    DCD    4085260288
        0x00011e4c:    4a2b8810    ..+J    DCD    1244366864
        0x00011e50:    98034629    )F..    DCD    2550351401
        0x00011e54:    20014790    .G.     DCD    536954768
        0x00011e58:    8810f380    ....    DCD    2282812288
        0x00011e5c:    4f234828    (H#O    DCD    1327712296
        0x00011e60:    47b89009    ...G    DCD    1203277833
        0x00011e64:    20004604    .F.     DCD    536888836
        0x00011e68:    8810f380    ....    DCD    2282812288
        0x00011e6c:    d0360020     .6.    DCD    3493199904
        0x00011e70:    88e04e1f    .N..    DCD    2296401439
        0x00011e74:    42889903    ...B    DCD    1116248323
        0x00011e78:    2807d112    ...(    DCD    671600914
        0x00011e7c:    7aa1d007    ...z    DCD    2057424903
        0x00011e80:    4f209100    .. O    DCD    1327534336
        0x00011e84:    7b227ae3    .z"{    DCD    2065857251
        0x00011e88:    47b88921    !..G    DCD    1203276065
        0x00011e8c:    4b1ee005    ...K    DCD    1260314629
        0x00011e90:    89207921    !y .    DCD    2300606753
        0x00011e94:    4798462a    *F.G    DCD    1201161770
        0x00011e98:    46209002    .. F    DCD    1176539138
        0x00011e9c:    e00347b0    .G..    DCD    3758311344
        0x00011ea0:    46214a1a    .J!F    DCD    1176586778
        0x00011ea4:    4790a804    ...G    DCD    1200662532
        0x00011ea8:    f3802001    . ..    DCD    4085260289
        0x00011eac:    490f8810    ...I    DCD    1225754640
        0x00011eb0:    47889809    ...G    DCD    1200134153
        0x00011eb4:    00204604    .F .    DCD    2115076
        0x00011eb8:    9804d10c    ....    DCD    2550452492
        0x00011ebc:    d0032800    .(..    DCD    3489867776
        0x00011ec0:    28002000    . .(    DCD    671096832
        0x00011ec4:    e005d002    ....    DCD    3758477314
        0x00011ec8:    e7fa2001    . ..    DCD    3891929089
        0x00011ecc:    a9044a10    .J..    DCD    2835630608
        0x00011ed0:    47909809    ...G    DCD    1200658441
        0x00011ed4:    f3802000    . ..    DCD    4085260288
        0x00011ed8:    2c008810    ...,    DCD    738232336
        0x00011edc:    9802d1c9    ....    DCD    2550321609
        0x00011ee0:    bdf0b00d    ....    DCD    3186667533
        0x00011ee4:    000038b5    .8..    DCD    14517
        0x00011ee8:    50804440    @D.P    DCD    1350583360
        0x00011eec:    00003945    E9..    DCD    14661
        0x00011ef0:    000093a5    ....    DCD    37797
        0x00011ef4:    0000b809    ....    DCD    47113
        0x00011ef8:    0000565d    ]V..    DCD    22109
        0x00011efc:    0000b705    ....    DCD    46853
        0x00011f00:    200061b8    .a.     DCD    536895928
        0x00011f04:    0000b729    )...    DCD    46889
        0x00011f08:    00012235    5"..    DCD    74293
        0x00011f0c:    00003967    g9..    DCD    14695
        0x00011f10:    0000390f    .9..    DCD    14607
        0x00011f14:    2400b5f1    ...$    DCD    604026353
        0x00011f18:    4e164d15    .M.N    DCD    1310084373
        0x00011f1c:    f3802001    . ..    DCD    4085260289
        0x00011f20:    98008810    ....    DCD    2550171664
        0x00011f24:    210047a8    .G.!    DCD    553666472
        0x00011f28:    8810f381    ....    DCD    2282812289
        0x00011f2c:    d0172800    .(..    DCD    3491178496
        0x00011f30:    460a8881    ...F    DCD    1175095425
        0x00011f34:    2a463a0a    .:F*    DCD    709245450
        0x00011f38:    00c9d214    ....    DCD    13226516
        0x00011f3c:    8d091989    ....    DCD    2366183817
        0x00011f40:    21010a0f    ...!    DCD    553716239
        0x00011f44:    8810f381    ....    DCD    2282812289
        0x00011f48:    4788490b    .I.G    DCD    1200113931
        0x00011f4c:    d0032800    .(..    DCD    3489867776
        0x00011f50:    d0012f00    ./..    DCD    3489738496
        0x00011f54:    b2e41c64    d...    DCD    3001293924
        0x00011f58:    f3802000    . ..    DCD    4085260288
        0x00011f5c:    e7dd8810    ....    DCD    3890055184
        0x00011f60:    bdf84620     F..    DCD    3187164704
        0x00011f64:    29491fc9    ..I)    DCD    692658121
        0x00011f68:    4904d3d8    ...I    DCD    1225053144
        0x00011f6c:    e7d54788    .G..    DCD    3889514376
        0x00011f70:    00003945    E9..    DCD    14661
        0x00011f74:    50804440    @D.P    DCD    1350583360
        0x00011f78:    0000565d    ]V..    DCD    22109
        0x00011f7c:    000093a5    ....    DCD    37797
        0x00011f80:    b092b5f1    ....    DCD    2962404849
        0x00011f84:    30409812    ..@0    DCD    809539602
        0x00011f88:    8f809011    ....    DCD    2407567377
        0x00011f8c:    9812900e    ....    DCD    2551353358
        0x00011f90:    900d3008    .0..    DCD    2416783368
        0x00011f94:    30309812    ..00    DCD    808491026
        0x00011f98:    9812900c    ....    DCD    2551353356
        0x00011f9c:    900b3044    D0..    DCD    2416652356
        0x00011fa0:    900a2000    . ..    DCD    2416582656
        0x00011fa4:    980c2501    .%..    DCD    2550932737
        0x00011fa8:    2c006804    .h.,    DCD    738224132
        0x00011fac:    2000d003    ...     DCD    536924163
        0x00011fb0:    d0022800    .(..    DCD    3489802240
        0x00011fb4:    2001e093    ...     DCD    536993939
        0x00011fb8:    980ee7fa    ....    DCD    2551113722
        0x00011fbc:    48f900c1    ...H    DCD    1224278209
        0x00011fc0:    90101808    ....    DCD    2416973832
        0x00011fc4:    0bc08cc0    ....    DCD    197168320
        0x00011fc8:    d06e2800    .(n.    DCD    3496880128
        0x00011fcc:    49f6980e    ...I    DCD    1240897550
        0x00011fd0:    900f0080    ....    DCD    2416902272
        0x00011fd4:    30a05808    .X.0    DCD    815814664
        0x00011fd8:    20017946    Fy.     DCD    536967494
        0x00011fdc:    d5190771    q...    DCD    3575187313
        0x00011fe0:    d0172c00    .,..    DCD    3491179520
        0x00011fe4:    06b04ff1    .O..    DCD    112218097
        0x00011fe8:    7b20d507    .. {    DCD    2065749255
        0x00011fec:    078047b8    .G..    DCD    125847480
        0x00011ff0:    2000d401    ...     DCD    536925185
        0x00011ff4:    2001e006    ...     DCD    536993798
        0x00011ff8:    7b20e004    .. {    DCD    2065752068
        0x00011ffc:    07c047b8    .G..    DCD    130041784
        0x00012000:    2001d003    ...     DCD    536989699
        0x00012004:    d0022800    .(..    DCD    3489802240
        0x00012008:    2000e004    ...     DCD    536928260
        0x0001200c:    6824e7fa    ..$h    DCD    1747249146
        0x00012010:    d1e82c00    .,..    DCD    3521653760
        0x00012014:    d0622800    .(b.    DCD    3496093696
        0x00012018:    22004be5    .K."    DCD    570444773
        0x0001201c:    980c4621    !F..    DCD    2550941217
        0x00012020:    68a64798    .G.h    DCD    1755727768
        0x00012024:    a9094ae3    .J..    DCD    2835958499
        0x00012028:    47904630    0F.G    DCD    1200637488
        0x0001202c:    d1562800    .(V.    DCD    3512084480
        0x00012030:    4fdc88a0    ...O    DCD    1339852960
        0x00012034:    19c000c0    ....    DCD    432013504
        0x00012038:    49df8d40    @..I    DCD    1239387456
        0x0001203c:    20001841    A..     DCD    536877121
        0x00012040:    7912aa08    ...y    DCD    2031266312
        0x00012044:    dd062a00    .*..    DCD    3708168704
        0x00012048:    540a5c32    2\.T    DCD    1409965106
        0x0001204c:    aa081c40    @...    DCD    2852658240
        0x00012050:    42907912    .y.B    DCD    1116764434
        0x00012054:    49d9dbf8    ...I    DCD    1239014392
        0x00012058:    478868a0    .h.G    DCD    1200122016
        0x0001205c:    980f49d2    .I..    DCD    2551138770
        0x00012060:    30a05808    .X.0    DCD    815814664
        0x00012064:    07c07940    @y..    DCD    130054464
        0x00012068:    a908d003    ....    DCD    2835927043
        0x0001206c:    1d007908    .y..    DCD    486570248
        0x00012070:    a8089009    ....    DCD    2819133449
        0x00012074:    98107901    .y..    DCD    2551216385
        0x00012078:    02098d02    ....    DCD    34180354
        0x0001207c:    430ab2d2    ...C    DCD    1124774610
        0x00012080:    21038502    ...!    DCD    553878786
        0x00012084:    8d029810    ....    DCD    2365757456
        0x00012088:    430a438a    .C.C    DCD    1124746122
        0x0001208c:    98118502    ....    DCD    2551284994
        0x00012090:    21008f80    ...!    DCD    553684864
        0x00012094:    19c000c0    ....    DCD    432013504
        0x00012098:    980b84c1    ....    DCD    2550891713
        0x0001209c:    28006800    .h.(    DCD    671115264
        0x000120a0:    2000d004    ...     DCD    536924164
        0x000120a4:    d0032800    .(..    DCD    3489867776
        0x000120a8:    e018e010    ....    DCD    3759726608
        0x000120ac:    e7f92001    . ..    DCD    3891863553
        0x000120b0:    88a1980b    ....    DCD    2292291595
        0x000120b4:    00ca6840    @h..    DCD    13264960
        0x000120b8:    888049c1    .I..    DCD    2290108865
        0x000120bc:    00c01851    Q...    DCD    12589137
        0x000120c0:    8cc219c0    ....    DCD    2361530816
        0x000120c4:    03d20bd2    ....    DCD    64097234
        0x000120c8:    84c2430a    .C..    DCD    2227323658
        0x000120cc:    46214abd    .J!F    DCD    1176586941
        0x000120d0:    4790980b    ...G    DCD    1200658443
        0x000120d4:    30609812    ..`0    DCD    811636754
        0x000120d8:    1c497e01    .~I.    DCD    474578433
        0x000120dc:    98117601    .v..    DCD    2551281153
        0x000120e0:    28078f80    ...(    DCD    671584128
        0x000120e4:    990ed208    ....    DCD    2567885320
        0x000120e8:    49af008a    ...I    DCD    1236205706
        0x000120ec:    31a05889    .X.1    DCD    832592009
        0x000120f0:    07497949    IyI.    DCD    122255689
        0x000120f4:    2500d500    ...%    DCD    620811520
        0x000120f8:    6809990d    ...h    DCD    1745459469
        0x000120fc:    d01f2900    .)..    DCD    3491703040
        0x00012100:    462a2100    .!*F    DCD    1177166080
        0x00012104:    d077438a    .Cw.    DCD    3497477002
        0x00012108:    d2762807    .(v.    DCD    3530958855
        0x0001210c:    48ae49af    .I.H    DCD    1219381679
        0x00012110:    90094788    .G..    DCD    2416527240
        0x00012114:    90082000    . ..    DCD    2416451584
        0x00012118:    8f809811    ....    DCD    2407569425
        0x0001211c:    48a20081    ...H    DCD    1218576513
        0x00012120:    30a05840    @X.0    DCD    815814720
        0x00012124:    07c07940    @y..    DCD    130054464
        0x00012128:    90070fc0    ....    DCD    2416381888
        0x0001212c:    6806980d    ...h    DCD    1745262605
        0x00012130:    d0092e00    ....    DCD    3490262528
        0x00012134:    6830990d    ..0h    DCD    1748015373
        0x00012138:    28006008    .`.(    DCD    671113224
        0x0001213c:    e003d002    ....    DCD    3758346242
        0x00012140:    e7de2101    .!..    DCD    3890094337
        0x00012144:    6048990d    ..H`    DCD    1615370509
        0x00012148:    d07d2e00    ..}.    DCD    3497864704
        0x0001214c:    90062000    . ..    DCD    2416320512
        0x00012150:    90039812    ....    DCD    2416154642
        0x00012154:    9004a806    ....    DCD    2416224262
        0x00012158:    9b099f07    ....    DCD    2601099015
        0x0001215c:    25089705    ...%    DCD    621319941
        0x00012160:    20005f75    u_.     DCD    536895349
        0x00012164:    90019002    ....    DCD    2416021506
        0x00012168:    90002001    . ..    DCD    2415927297
        0x0001216c:    8e429811    ..B.    DCD    2386728977
        0x00012170:    b2d44684    .F..    DCD    3000256132
        0x00012174:    46292001    . )F    DCD    1177100289
        0x00012178:    b2893109    .1..    DCD    2995335433
        0x0001217c:    2f009f05    .../    DCD    788569861
        0x00012180:    1d09d001    ....    DCD    487182337
        0x00012184:    00c9b289    ....    DCD    13218441
        0x00012188:    b2893108    .1..    DCD    2995335432
        0x0001218c:    8e3f4667    gF?.    DCD    2386511463
        0x00012190:    d205428f    .B..    DCD    3523560079
        0x00012194:    05793f50    P?y.    DCD    91832144
        0x00012198:    42a20e0c    ...B    DCD    1117916684
        0x0001219c:    b2d4d200    ....    DCD    3000291840
        0x000121a0:    dd0142a5    .B..    DCD    3707847333
        0x000121a4:    00640864    d.d.    DCD    6555748
        0x000121a8:    1a6f4621    !Fo.    DCD    443500065
        0x000121ac:    42971c62    b..B    DCD    1117199458
        0x000121b0:    1909db05    ....    DCD    420076293
        0x000121b4:    b2c01c40    @...    DCD    2998934592
        0x000121b8:    42971a6f    o..B    DCD    1117198959
        0x000121bc:    4298daf9    ...B    DCD    1117313785
        0x000121c0:    2500d901    ...%    DCD    620812545
        0x000121c4:    9904e034    4...    DCD    2567233588
        0x000121c8:    4f817008    .p.O    DCD    1333882888
        0x000121cc:    487e4981    .I~H    DCD    1216235905
        0x000121d0:    46014788    .G.F    DCD    1174488968
        0x000121d4:    28009800    ...(    DCD    671127552
        0x000121d8:    2000d012    ...     DCD    536924178
        0x000121dc:    7ab09000    ...z    DCD    2058391552
        0x000121e0:    0f800780    ....    DCD    260048768
        0x000121e4:    d0092801    .(..    DCD    3490260993
        0x000121e8:    72882002    . .r    DCD    1921523714
        0x000121ec:    88c268f0    .h..    DCD    2294442224
        0x000121f0:    88809202    ....    DCD    2290127362
        0x000121f4:    e0099001    ....    DCD    3758723073
        0x000121f8:    e058e062    b.X.    DCD    3763920994
        0x000121fc:    e7f42001    . ..    DCD    3891535873
        0x00012200:    72882001    . .r    DCD    1921523713
        0x00012204:    19009802    ....    DCD    419469314
        0x00012208:    9002b280    ....    DCD    2416095872
        0x0001220c:    dd0142a5    .B..    DCD    3707847333
        0x00012210:    e00072cc    .r..    DCD    3758125772
        0x00012214:    980172cd    .r..    DCD    2550231757
        0x00012218:    980280c8    ....    DCD    2550300872
        0x0001221c:    1b288108    ..(.    DCD    455639304
        0x00012220:    2d00b205    ...-    DCD    755020293
        0x00012224:    2201dc22    ".."    DCD    570547234
        0x00012228:    98039b05    ....    DCD    2550373125
        0x0001222c:    250147b8    .G.%    DCD    620840888
        0x00012230:    d0202d00    .- .    DCD    3491769600
        0x00012234:    7e004668    hF.~    DCD    2113947240
        0x00012238:    18099908    ....    DCD    403282184
        0x0001223c:    9108b2c9    ....    DCD    2433266377
        0x00012240:    1a089909    ....    DCD    436771081
        0x00012244:    e000b280    ....    DCD    3758142080
        0x00012248:    9009e035    5...    DCD    2416566325
        0x0001224c:    69c09812    ...i    DCD    1774229522
        0x00012250:    d01a2800    .(..    DCD    3491375104
        0x00012254:    6a009812    ...j    DCD    1778423826
        0x00012258:    98126006    .`..    DCD    2551341062
        0x0001225c:    20006206    .b.     DCD    536896006
        0x00012260:    98086030    0`..    DCD    2550685744
        0x00012264:    d913280a    .(..    DCD    3641911306
        0x00012268:    e0242500    .%$.    DCD    3760465152
        0x0001226c:    9b052200    ."..    DCD    2600804864
        0x00012270:    47b89803    ...G    DCD    1203279875
        0x00012274:    980de7aa    ....    DCD    2551048106
        0x00012278:    28006800    .h.(    DCD    671115264
        0x0001227c:    990dd101    ....    DCD    2567819521
        0x00012280:    6030604e    N`0`    DCD    1613783118
        0x00012284:    6006980d    ...`    DCD    1611044877
        0x00012288:    9812e015    ....    DCD    2551373845
        0x0001228c:    e7e461c6    .a..    DCD    3890504134
        0x00012290:    6806980d    ...h    DCD    1745262605
        0x00012294:    d0062e00    ....    DCD    3490065920
        0x00012298:    6830990d    ..0h    DCD    1748015373
        0x0001229c:    28006008    .`.(    DCD    671113224
        0x000122a0:    990dd101    ....    DCD    2567819521
        0x000122a4:    2e006048    H`..    DCD    771776584
        0x000122a8:    e74fd000    ..O.    DCD    3880767488
        0x000122ac:    4a4ae003    ..JJ    DCD    1246420995
        0x000122b0:    980b990d    ....    DCD    2550896909
        0x000122b4:    2d004790    .G.-    DCD    754993040
        0x000122b8:    4948d002    ..HI    DCD    1229508610
        0x000122bc:    4788980d    ...G    DCD    1200134157
        0x000122c0:    6800980b    ...h    DCD    1744869387
        0x000122c4:    d0032800    .(..    DCD    3489867776
        0x000122c8:    28002000    . .(    DCD    671096832
        0x000122cc:    e04bd002    ..K.    DCD    3763064834
        0x000122d0:    e7fa2001    . ..    DCD    3891929089
        0x000122d4:    8f809811    ....    DCD    2407569425
        0x000122d8:    d2452807    .(E.    DCD    3527747591
        0x000122dc:    30809812    ...0    DCD    813733906
        0x000122e0:    280478c0    .x.(    DCD    671381696
        0x000122e4:    493bd140    @.;I    DCD    1228656960
        0x000122e8:    47884837    7H.G    DCD    1200113719
        0x000122ec:    d03b2800    .(;.    DCD    3493537792
        0x000122f0:    21008882    ...!    DCD    553683074
        0x000122f4:    00d24b2b    +K..    DCD    13781803
        0x000122f8:    855118d2    ..Q.    DCD    2236684498
        0x000122fc:    00c98881    ....    DCD    13207681
        0x00012300:    8d8a18c9    ....    DCD    2374637769
        0x00012304:    0c640454    T.d.    DCD    207881300
        0x00012308:    858c2200    ."..    DCD    2240553472
        0x0001230c:    00c98881    ....    DCD    13207681
        0x00012310:    8d0c18c9    ....    DCD    2366380233
        0x00012314:    850cb2e4    ....    DCD    2232201956
        0x00012318:    24018881    ...$    DCD    604080257
        0x0001231c:    18c900c9    ....    DCD    415826121
        0x00012320:    08ad8d0d    ....    DCD    145591565
        0x00012324:    432500ad    ..%C    DCD    1126498477
        0x00012328:    8881850d    ....    DCD    2290189581
        0x0001232c:    18c900c9    ....    DCD    415826121
        0x00012330:    0be48ccc    ....    DCD    199527628
        0x00012334:    84cc03e4    ....    DCD    2227962852
        0x00012338:    8884990b    ....    DCD    2290391307
        0x0001233c:    00e56849    Ih..    DCD    15034441
        0x00012340:    88894c1f    .L..    DCD    2290699295
        0x00012344:    00c9192c    ,...    DCD    13179180
        0x00012348:    8ccb18c9    ....    DCD    2362120393
        0x0001234c:    03db0bdb    ....    DCD    64687067
        0x00012350:    84cb4323    #C..    DCD    2227913507
        0x00012354:    6809990b    ...h    DCD    1745459467
        0x00012358:    d00d2900    .)..    DCD    3490523392
        0x0001235c:    6849990b    ..Ih    DCD    1749653771
        0x00012360:    990b6008    .`..    DCD    2567659528
        0x00012364:    60026048    H`.`    DCD    1610768456
        0x00012368:    6800980b    ...h    DCD    1744869387
        0x0001236c:    d0062800    .(..    DCD    3490064384
        0x00012370:    29002100    .!.)    DCD    687874304
        0x00012374:    e03cd005    ..<.    DCD    3762081797
        0x00012378:    6008990b    ...`    DCD    1611176203
        0x0001237c:    2101e7f1    ...!    DCD    553773041
        0x00012380:    2800e7f7    ...(    DCD    671148023
        0x00012384:    4a07d00a    ...J    DCD    1242025994
        0x00012388:    00c98881    ....    DCD    13207681
        0x0001238c:    8cc91889    ....    DCD    2361989257
        0x00012390:    29000bc9    ...)    DCD    687868873
        0x00012394:    6800d024    $..h    DCD    1744883748
        0x00012398:    d1f52800    .(..    DCD    3522504704
        0x0001239c:    d0262800    .(&.    DCD    3492161536
        0x000123a0:    0000e027    '...    DCD    57383
        0x000123a4:    50804440    @D.P    DCD    1350583360
        0x000123a8:    20006160    `a.     DCD    536895840
        0x000123ac:    0000af81    ....    DCD    44929
        0x000123b0:    00003817    .8..    DCD    14359
        0x000123b4:    00010341    A...    DCD    66369
        0x000123b8:    50804000    .@.P    DCD    1350582272
        0x000123bc:    000093a5    ....    DCD    37797
        0x000123c0:    00000466    f...    DCD    1126
        0x000123c4:    00003967    g9..    DCD    14695
        0x000123c8:    200061e4    .a.     DCD    536895972
        0x000123cc:    000039bb    .9..    DCD    14779
        0x000123d0:    00010011    ....    DCD    65553
        0x000123d4:    00003945    E9..    DCD    14661
        0x000123d8:    0000390f    .9..    DCD    14607
        0x000123dc:    000038b5    .8..    DCD    14517
        0x000123e0:    00ca8881    ....    DCD    13273217
        0x000123e4:    18514907    .IQ.    DCD    407980295
        0x000123e8:    910ab289    ....    DCD    2433397385
        0x000123ec:    2000e7d6    ...     DCD    536930262
        0x000123f0:    990a900a    ....    DCD    2567606282
        0x000123f4:    225a980e    ..Z"    DCD    576362510
        0x000123f8:    4a034350    PC.J    DCD    1241727824
        0x000123fc:    84811880    ....    DCD    2223052928
        0x00012400:    bdf0b013    ....    DCD    3186667539
        0x00012404:    00000466    f...    DCD    1126
        0x00012408:    50804080    .@.P    DCD    1350582400
        0x0001240c:    2300b410    ...#    DCD    587248656
        0x00012410:    46022114    .!.F    DCD    1174544660
        0x00012414:    4911434a    JC.I    DCD    1225868106
        0x00012418:    6809247d    }$.h    DCD    1745429629
        0x0001241c:    42a10224    $..B    DCD    1117848100
        0x00012420:    1b09d902    ....    DCD    453630210
        0x00012424:    e0002301    .#..    DCD    3758105345
        0x00012428:    43481a61    a.HC    DCD    1128798817
        0x0001242c:    18410081    ..A.    DCD    406913153
        0x00012430:    0c0c0a88    ....    DCD    202115720
        0x00012434:    0c4c1900    ..L.    DCD    206313728
        0x00012438:    0d4c1900    ..L.    DCD    223090944
        0x0001243c:    0e4c1900    ..L.    DCD    239868160
        0x00012440:    0fc91900    ....    DCD    264837376
        0x00012444:    08c01840    @...    DCD    146806848
        0x00012448:    d0012b00    .+..    DCD    3489737472
        0x0001244c:    e0011810    ....    DCD    3758168080
        0x00012450:    1e401a10    ..@.    DCD    507517456
        0x00012454:    bc101e40    @...    DCD    3155172928
        0x00012458:    00004770    pG..    DCD    18288
        0x0001245c:    20006054    T`.     DCD    536895572
        0x00012460:    2300b4f0    ...#    DCD    587248880
        0x00012464:    6be54c18    .L.k    DCD    1810189336
        0x00012468:    227d4918    .I}"    DCD    578636056
        0x0001246c:    02126809    .h..    DCD    34760713
        0x00012470:    d3024291    .B..    DCD    3540140689
        0x00012474:    23011a8a    ...#    DCD    587274890
        0x00012478:    1a52e000    ..R.    DCD    441638912
        0x0001247c:    43564606    .FVC    DCD    1129727494
        0x00012480:    435113f2    ..QC    DCD    1129386994
        0x00012484:    261e1a71    q..&    DCD    639507057
        0x00012488:    104f434e    NCO.    DCD    273630030
        0x0001248c:    118f19f6    ....    DCD    294590966
        0x00012490:    124919f6    ..I.    DCD    306780662
        0x00012494:    13ce1871    q...    DCD    332273777
        0x00012498:    d0012b00    .+..    DCD    3489737472
        0x0001249c:    e0001a80    ....    DCD    3758103168
        0x000124a0:    19421810    ..B.    DCD    423761936
        0x000124a4:    008d0891    ....    DCD    9242769
        0x000124a8:    2b001b52    R..+    DCD    721427282
        0x000124ac:    0143d004    ..C.    DCD    21221380
        0x000124b0:    18401a18    ..@.    DCD    406854168
        0x000124b4:    e0031b80    ....    DCD    3758300032
        0x000124b8:    1a180143    C...    DCD    437780803
        0x000124bc:    19801840    @...    DCD    427825216
        0x000124c0:    bcf063e2    .c..    DCD    3169870818
        0x000124c4:    00004770    pG..    DCD    18288
        0x000124c8:    20006780    .g.     DCD    536897408
        0x000124cc:    20006054    T`.     DCD    536895572
    .constdata
    am_hal_ble_num_default_patches_b0
        0x000124d0:    00000003    ....    DCD    3
    .constdata
    am_ble_buffer_patch_data_b0
        0x000124d4:    07202200    ." .    DCD    119546368
        0x000124d8:    00003fff    .?..    DCD    16383
        0x000124dc:    0007f584    ....    DCD    521604
        0x000124e0:    0007fd73    s...    DCD    523635
        0x000124e4:    00080575    u...    DCD    525685
        0x000124e8:    00080b17    ....    DCD    527127
        0x000124ec:    000815a9    ....    DCD    529833
        0x000124f0:    00081b18    ....    DCD    531224
        0x000124f4:    0008232d    -#..    DCD    533293
        0x000124f8:    00082cc5    .,..    DCD    535749
        0x000124fc:    000832f4    .2..    DCD    537332
        0x00012500:    000839ff    .9..    DCD    539135
        0x00012504:    00084364    dC..    DCD    541540
        0x00012508:    000849f9    .I..    DCD    543225
        0x0001250c:    000851ee    .Q..    DCD    545262
        0x00012510:    00085c54    T\..    DCD    547924
        0x00012514:    00000000    ....    DCD    0
        0x00012518:    00000000    ....    DCD    0
        0x0001251c:    00000000    ....    DCD    0
        0x00012520:    f7ec2021    ! ..    DCD    4159447073
        0x00012524:    2800fcf9    ...(    DCD    671153401
        0x00012528:    2000d00a    ...     DCD    536924170
        0x0001252c:    46039000    ...F    DCD    1174638592
        0x00012530:    46014602    .F.F    DCD    1174488578
        0x00012534:    20216824    $h!     DCD    539060260
        0x00012538:    47a03435    54.G    DCD    1201681461
        0x0001253c:    bd38bf00    ..8.    DCD    3174612736
        0x00012540:    fefbf7ef    ....    DCD    4277925871
        0x00012544:    2800490f    .I.(    DCD    671107343
        0x00012548:    7808d002    ...x    DCD    2013843458
        0x0001254c:    d0122801    .(..    DCD    3490850817
        0x00012550:    28027808    .x.(    DCD    671250440
        0x00012554:    2800d00f    ...(    DCD    671141903
        0x00012558:    2801d006    ...(    DCD    671207430
        0x0001255c:    f000d004    ....    DCD    4026585092
        0x00012560:    20006e0c    .n.     DCD    536899084
        0x00012564:    04000000    ....    DCD    67108864
        0x00012568:    20006e1c    .n.     DCD    536899100
        0x0001256c:    47084900    .I.G    DCD    1191725312
        0x00012570:    20004301    .C.     DCD    536888065
        0x00012574:    7cca4e23    #N.|    DCD    2093633059
        0x00012578:    6ac96875    uh.j    DCD    1791584373
        0x0001257c:    d01d2a00    .*..    DCD    3491572224
        0x00012580:    0212227d    }"..    DCD    34742909
        0x00012584:    d3024291    .B..    DCD    3540140689
        0x00012588:    20011a8a    ...     DCD    536943242
        0x0001258c:    1a52e000    ..R.    DCD    441638912
        0x00012590:    d0052800    .(..    DCD    3489998848
        0x00012594:    43504620     FPC    DCD    1129334304
        0x00012598:    fa02f7ea    ....    DCD    4194498538
        0x0001259c:    e0041a20     ...    DCD    3758365216
        0x000125a0:    f9def7ea    ....    DCD    4192139242
        0x000125a4:    02011900    ....    DCD    33626368
        0x000125a8:    186900c2    ..i.    DCD    409534658
        0x000125ac:    18891812    ....    DCD    411637778
        0x000125b0:    02530a4a    J.S.    DCD    38996554
        0x000125b4:    60711ac9    ..q`    DCD    1618025161
        0x000125b8:    4348211e    .!HC    DCD    1128800542
        0x000125bc:    bd701880    ..p.    DCD    3178240128
        0x000125c0:    2000682c    ,h.     DCD    536897580
        0x000125c4:    20006e0c    .n.     DCD    536899084
        0x000125c8:    47084900    .I.G    DCD    1191725312
        0x000125cc:    20004331    1C.     DCD    536888113
        0x000125d0:    6ac07cc1    .|.j    DCD    1790999745
        0x000125d4:    d0152900    .)..    DCD    3491047680
        0x000125d8:    0209217d    }!..    DCD    34152829
        0x000125dc:    d3024288    .B..    DCD    3540140680
        0x000125e0:    2004d502    ...     DCD    537187586
        0x000125e4:    e0347060    `p4.    DCD    3761533024
        0x000125e8:    f0066928    (i..    DCD    4026951976
        0x000125ec:    2800f8b5    ...(    DCD    671152309
        0x000125f0:    2002d002    ...     DCD    537055234
        0x000125f4:    e02c7060    `p,.    DCD    3761008736
        0x000125f8:    f0049803    ....    DCD    4026832899
        0x000125fc:    2804fa1f    ...(    DCD    671414815
        0x00012600:    4668d107    ..hF    DCD    1181274375
        0x00012604:    20027901    .y.     DCD    537032961
        0x00012608:    d0054388    .C..    DCD    3490005896
        0x0001260c:    28002000    . .(    DCD    671096832
        0x00012610:    bf00d004    ....    DCD    3204501508
        0x00012614:    e01c2000    . ..    DCD    3759939584
        0x00012618:    e7f82001    . ..    DCD    3891798017
        0x0001261c:    900088f0    ....    DCD    2415954160
        0x00012620:    00000021    !...    DCD    33
        0x00012624:    00000000    ....    DCD    0
        0x00012628:    00000001    ....    DCD    1
        0x0001262c:    00000000    ....    DCD    0
        0x00012630:    ffffffff    ....    DCD    4294967295
        0x00012634:    000003ff    ....    DCD    1023
        0x00012638:    1f3c00ff    ..<.    DCD    524026111
        0x0001263c:    00000000    ....    DCD    0
        0x00012640:    00002001    . ..    DCD    8193
        0x00012644:    0000848d    ....    DCD    33933
        0x00012648:    00002002    . ..    DCD    8194
        0x0001264c:    00007dcd    .}..    DCD    32205
        0x00012650:    00002003    . ..    DCD    8195
        0x00012654:    00007ed1    .~..    DCD    32465
        0x00012658:    00002005    . ..    DCD    8197
        0x0001265c:    000084fd    ....    DCD    34045
        0x00012660:    30286928    (i(0    DCD    807954728
        0x00012664:    8d013040    @0..    DCD    2365665344
        0x00012668:    1a409800    ..@.    DCD    440440832
        0x0001266c:    b280492a    *I..    DCD    2994751786
        0x00012670:    bf00bf00    ....    DCD    3204497152
        0x00012674:    22054628    (F."    DCD    570770984
        0x00012678:    30631c71    q.c0    DCD    811801713
        0x0001267c:    fdacf7f3    ....    DCD    4255971315
        0x00012680:    99006928    (i..    DCD    2566940968
        0x00012684:    fbdff001    ....    DCD    4225757185
        0x00012688:    70602001    . `p    DCD    1885347841
        0x0001268c:    2003e001    ...     DCD    537124865
        0x00012690:    2f007060    `p./    DCD    788557920
        0x00012694:    7860d139    9.`x    DCD    2019610937
        0x00012698:    d2362806    .(6.    DCD    3526764550
        0x0001269c:    44790001    ..yD    DCD    1148780545
        0x000126a0:    bf00bf00    ....    DCD    3204497152
        0x000126a4:    22568931    1.V"    DCD    576096561
        0x000126a8:    46315351    QS1F    DCD    1177637713
        0x000126ac:    fe3ef001    ..>.    DCD    4265537537
        0x000126b0:    70602001    . `p    DCD    1885347841
        0x000126b4:    2003e001    ...     DCD    537124865
        0x000126b8:    2f007060    `p./    DCD    788557920
        0x000126bc:    7860d167    g.`x    DCD    2019610983
        0x000126c0:    d2642806    .(d.    DCD    3529779206
        0x000126c4:    44790001    ..yD    DCD    1148780545
        0x000126c8:    18497909    .yI.    DCD    407468297
        0x000126cc:    185f448f    .D_.    DCD    408896655
        0x000126d0:    1207020c    ....    DCD    302449164
        0x000126d4:    98052128    (!..    DCD    2550473000
        0x000126d8:    fc54f7ff    ..T.    DCD    4233426943
        0x000126dc:    213de057    W.=!    DCD    557703255
        0x000126e0:    20006878    xh.     DCD    536897656
        0x000126e4:    20006dac    .m.     DCD    536898988
        0x000126e8:    50800040    @..P    DCD    1350565952
        0x000126ec:    00002017    . ..    DCD    8215
        0x000126f0:    00000801    ....    DCD    2049
        0x000126f4:    5080407e    ~@.P    DCD    1350582398
        0x000126f8:    200068d8    .h.     DCD    536897752
        0x000126fc:    47084900    .I.G    DCD    1191725312
        0x00012700:    20004391    .C.     DCD    536888209
        0x00012704:    78c34311    .C.x    DCD    2026062609
        0x00012708:    021b7882    .x..    DCD    35354754
        0x0001270c:    0412431a    .C..    DCD    68305690
        0x00012710:    4c1a430a    .C.L    DCD    1276789514
        0x00012714:    79426062    b`By    DCD    2034393186
        0x00012718:    02127901    .y..    DCD    34765057
        0x0001271c:    79c34311    .C.y    DCD    2042839825
        0x00012720:    d01b2e13    ....    DCD    3491442195
        0x00012724:    550e21a1    .!.U    DCD    1426989473
        0x00012728:    46692202    ."iF    DCD    1181295106
        0x0001272c:    724e720a    .rNr    DCD    1917743626
        0x00012730:    4308210f    .!.C    DCD    1124606223
        0x00012734:    46019001    ...F    DCD    1174507521
        0x00012738:    f7fe4638    8F..    DCD    4160636472
        0x0001273c:    4669f909    ..iF    DCD    1181350153
        0x00012740:    b2e87a0a    .z..    DCD    3001580042
        0x00012744:    f7ffa902    ....    DCD    4160727298
        0x00012748:    3440ff55    U.@4    DCD    876674901
        0x0001274c:    8aa220ff    . ..    DCD    2325881087
        0x00012750:    30034639    9F.0    DCD    805520953
        0x00012754:    bf00bf00    ....    DCD    3204497152
        0x00012758:    bdf0b003    ....    DCD    3186667523
        0x0001275c:    21a12216    .".!    DCD    564208150
        0x00012760:    00808820     ...    DCD    8423456
        0x00012764:    30405838    8X@0    DCD    809523256
        0x00012768:    07c07f00    ....    DCD    130055936
        0x0001276c:    2500d005    ...%    DCD    620810245
        0x00012770:    8820e02f    /. .    DCD    2283855919
        0x00012774:    fd22f008    ..".    DCD    4246925320
        0x00012778:    4668e02b    +.hF    DCD    1181278251
        0x0001277c:    20017a01    .z.     DCD    536967681
        0x00012780:    d0034388    .C..    DCD    3489874824
        0x00012784:    28002000    . .(    DCD    671096832
        0x00012788:    e001d108    ....    DCD    3758215432
        0x0001278c:    e7fa2001    . ..    DCD    3891929089
        0x00012790:    43882004    . .C    DCD    1132994564
        0x00012794:    2000d004    ...     DCD    536924164
        0x00012798:    d0032800    .(..    DCD    3489867776
        0x0001279c:    e018253a    :%..    DCD    3759678778
        0x000127a0:    83814311    .C..    DCD    2206286609
        0x000127a4:    4630210f    .!0F    DCD    1177559311
        0x000127a8:    fb12f7fc    ....    DCD    4212324348
        0x000127ac:    f0034628    (F..    DCD    4026746408
        0x000127b0:    2804f885    ...(    DCD    671414405
        0x000127b4:    7861d103    ..ax    DCD    2019676419
        0x000127b8:    f7fe4628    (F..    DCD    4160636456
        0x000127bc:    2000fd83    ...     DCD    536935811
        0x000127c0:    0000bd70    p...    DCD    48496
        0x000127c4:    20006964    di.     DCD    536897892
        0x000127c8:    4c02b430    0..L    DCD    1275245616
        0x000127cc:    bc3046a4    .F0.    DCD    3157280420
        0x000127d0:    00004760    `G..    DCD    18272
        0x000127d4:    20004439    9D.     DCD    536888377
        0x000127d8:    4601fae9    ...F    DCD    1174534889
        0x000127dc:    98039000    ....    DCD    2550370304
        0x000127e0:    80688820     .h.    DCD    2154334240
        0x000127e4:    f0014628    (F..    DCD    4026615336
        0x000127e8:    2000f8b5    ...     DCD    536934581
        0x000127ec:    0000bdf8    ....    DCD    48632
        0x000127f0:    00002015    . ..    DCD    8213
        0x000127f4:    00000801    ....    DCD    2049
        0x000127f8:    20006964    di.     DCD    536897892
        0x000127fc:    b083b5f0    ....    DCD    2961421808
        0x00012800:    24004618    .F.$    DCD    603997720
        0x00012804:    7ae94d18    .M.z    DCD    2062109976
        0x00012808:    d0002900    .)..    DCD    3489671424
        0x0001280c:    46212400    .$!F    DCD    1176577024
        0x00012810:    fe42f00a    ..B.    DCD    4265799690
        0x00012814:    d1242c00    .,$.    DCD    3508808704
        0x00012818:    96012601    .&..    DCD    2516657665
        0x0001281c:    aa024c13    .L..    DCD    2852277267
        0x00012820:    4604fdf9    ...F    DCD    1174732281
        0x00012824:    4630e003    ..0F    DCD    1177608195
        0x00012828:    fe5cf00b    ..\.    DCD    4267503627
        0x0001282c:    46214604    .F!F    DCD    1176585732
        0x00012830:    f00a4638    8F..    DCD    4027205176
        0x00012834:    2000ffa3    ...     DCD    536936355
        0x00012838:    0000bdf8    ....    DCD    48632
        0x0001283c:    0000202e    . ..    DCD    8238
        0x00012840:    ffffdfd9    ....    DCD    4294959065
        0x00012844:    200068f8    .h.     DCD    536897784
        0x00012848:    b082b510    ....    DCD    2961356048
        0x0001284c:    461c460a    .F.F    DCD    1176258058
        0x00012850:    480d2100    .!.H    DCD    1208819968
        0x00012854:    2b007ac3    .z.+    DCD    721451715
        0x00012858:    bf00d000    ....    DCD    3204501504
        0x0001285c:    d10c2100    .!..    DCD    3507233024
        0x00012860:    fe3af7ee    ..:.    DCD    4265277422
        0x00012864:    281678a0    .x.(    DCD    672561312
        0x00012868:    2019d302    ...     DCD    538563330
        0x0001286c:    e0137020     p..    DCD    3759370272
        0x00012870:    4a0c210c    .!.J    DCD    1242308876
        0x00012874:    5c114348    HC.\    DCD    1544635208
        0x00012878:    d00242b1    .B..    DCD    3489809073
        0x0001287c:    70202019    .  p    DCD    1881153561
        0x00012880:    2100e00a    ...!    DCD    553705482
        0x00012884:    1c6d7021    !pm.    DCD    476934177
        0x00012888:    1e761880    ..v.    DCD    511056000
        0x0001288c:    6883b2ad    ...h    DCD    1753461421
        0x00012890:    1ca2b2f1    ....    DCD    480424689
        0x00012894:    47984628    (F.G    DCD    1201161768
        0x00012898:    bd704620     Fp.    DCD    3178251808
        0x0001289c:    50804480    .D.P    DCD    1350583424
        0x000128a0:    6b114a08    .J.k    DCD    1796295176
        0x000128a4:    4b086b52    Rk.K    DCD    1258842962
        0x000128a8:    d9014298    .B..    DCD    3640738456
        0x000128ac:    47702000    . pG    DCD    1198530560
        0x000128b0:    43424341    ACBC    DCD    1128416065
        0x000128b4:    0c900989    ....    DCD    210766217
        0x000128b8:    49041808    ...I    DCD    1225005064
        0x000128bc:    d9f64288    .B..    DCD    3656794760
        0x000128c0:    47702000    . pG    DCD    1198530560
        0x000128c4:    20007ec0    .~.     DCD    536903360
        0x000128c8:    001e8480    ....    DCD    2000000
        0x000128cc:    03938700    ....    DCD    60000000
        0x000128d0:    4913b410    ...I    DCD    1226028048
        0x000128d4:    4a136b89    .k.J    DCD    1242786697
        0x000128d8:    d9024290    .B..    DCD    3640803984
        0x000128dc:    2000bc10    ...     DCD    536919056
        0x000128e0:    4a114770    pG.J    DCD    1242646384
        0x000128e4:    6813247d    }$.h    DCD    1746084989
        0x000128e8:    02242214    ."$.    DCD    35922452
        0x000128ec:    42a34342    BC.B    DCD    1117995842
        0x000128f0:    4341d903    ..AC    DCD    1128388867
        0x000128f4:    18100c08    ....    DCD    403704840
        0x000128f8:    4341e002    ..AC    DCD    1128390658
        0x000128fc:    1a100c08    ....    DCD    437259272
        0x00012900:    4288490a    .I.B    DCD    1116227850
        0x00012904:    2000d902    ...     DCD    536926466
        0x00012908:    4770bc10    ..pG    DCD    1198570512
        0x0001290c:    d0002800    .(..    DCD    3489671168
        0x00012910:    42a31e40    @..B    DCD    1117986368
        0x00012914:    2800d2f8    ...(    DCD    671142648
        0x00012918:    bc10d0f6    ....    DCD    3155218678
        0x0001291c:    47701e40    @.pG    DCD    1198530112
        0x00012920:    20007ec0    .~.     DCD    536903360
        0x00012924:    000186a0    ....    DCD    100000
        0x00012928:    20006858    Xh.     DCD    536897624
        0x0001292c:    001e8480    ....    DCD    2000000
        0x00012930:    f3efb4f0    ....    DCD    4092572912
        0x00012934:    b2cc8110    ....    DCD    2999746832
        0x00012938:    f3812101    .!..    DCD    4085326081
        0x0001293c:    78428810    ..Bx    DCD    2017626128
        0x00012940:    02127801    .x..    DCD    34764801
        0x00012944:    78c34311    .C.x    DCD    2026062609
        0x00012948:    021b7882    .x..    DCD    35354754
        0x0001294c:    0412431a    .C..    DCD    68305690
        0x00012950:    4d1d430a    .C.M    DCD    1293763338
        0x00012954:    7942606a    j`By    DCD    2034393194
        0x00012958:    02127901    .y..    DCD    34765057
        0x0001295c:    79c34311    .C.y    DCD    2042839825
        0x00012960:    021b7982    .y..    DCD    35355010
        0x00012964:    0412431a    .C..    DCD    68305690
        0x00012968:    60aa430a    .C.`    DCD    1621771018
        0x0001296c:    7a017a42    Bz.z    DCD    2046917186
        0x00012970:    43110212    ...C    DCD    1125188114
        0x00012974:    7a827ac3    .z.z    DCD    2055371459
        0x00012978:    431a021b    ...C    DCD    1125777947
        0x0001297c:    430a0412    ...C    DCD    1124729874
        0x00012980:    7b4260ea    .`B{    DCD    2067947754
        0x00012984:    02127b01    .{..    DCD    34765569
        0x00012988:    7bc34311    .C.{    DCD    2076394257
        0x0001298c:    021b7b82    .{..    DCD    35355522
        0x00012990:    0412431a    .C..    DCD    68305690
        0x00012994:    612a430a    .C*a    DCD    1630159626
        0x00012998:    23103010    .0.#    DCD    588263440
        0x0001299c:    21004a0b    .J.!    DCD    553667083
        0x000129a0:    54565c46    F\VT    DCD    1414945862
        0x000129a4:    b2891c49    I...    DCD    2995330121
        0x000129a8:    d3f94299    .B..    DCD    3556328089
        0x000129ac:    6168206e    n ha    DCD    1634213998
        0x000129b0:    60282001    . (`    DCD    1613242369
        0x000129b4:    21014806    .H.!    DCD    553732102
        0x000129b8:    f3847401    .t..    DCD    4085543937
        0x000129bc:    bcf08810    ....    DCD    3169880080
        0x000129c0:    20104904    .I.     DCD    537938180
        0x000129c4:    00004708    .G..    DCD    18184
        0x000129c8:    508000c0    ...P    DCD    1350566080
        0x000129cc:    5080406e    n@.P    DCD    1350582382
        0x000129d0:    200068d8    .h.     DCD    536897752
        0x000129d4:    000159a1    .Y..    DCD    88481
        0x000129d8:    b085b5ff    ....    DCD    2961552895
        0x000129dc:    461f460e    .F.F    DCD    1176454670
        0x000129e0:    90022000    . ..    DCD    2416058368
        0x000129e4:    46304974    tI0F    DCD    1177569652
        0x000129e8:    46014788    .G.F    DCD    1174488968
        0x000129ec:    98059001    ....    DCD    2550501377
        0x000129f0:    00804a72    rJ..    DCD    8407666
        0x000129f4:    58149004    ...X    DCD    1477742596
        0x000129f8:    35a04625    %F.5    DCD    899696165
        0x000129fc:    0718796b    ky..    DCD    119044459
        0x00012a00:    78e8d507    ...x    DCD    2028524807
        0x00012a04:    d004280d    .(..    DCD    3489933325
        0x00012a08:    213d4a6d    mJ=!    DCD    557664877
        0x00012a0c:    47909805    ...G    DCD    1200658437
        0x00012a10:    2001e0ce    ...     DCD    536993998
        0x00012a14:    d00d4388    .C..    DCD    3490530184
        0x00012a18:    28002000    . .(    DCD    671096832
        0x00012a1c:    78e8d074    t..x    DCD    2028523636
        0x00012a20:    92034a68    hJ..    DCD    2449689192
        0x00012a24:    d0702805    .(p.    DCD    3497011205
        0x00012a28:    2801dc06    ...(    DCD    671210502
        0x00012a2c:    2804d01b    ...(    DCD    671404059
        0x00012a30:    e074d16a    j.t.    DCD    3765752170
        0x00012a34:    e7f02001    . ..    DCD    3891273729
        0x00012a38:    d02d2807    .(-.    DCD    3492620295
        0x00012a3c:    d163280d    .(c.    DCD    3512936461
        0x00012a40:    d46106d8    ..a.    DCD    3563128536
        0x00012a44:    716c2400    .$lq    DCD    1902912512
        0x00012a48:    4b5f221a    ."_K    DCD    1264525850
        0x00012a4c:    98052100    .!..    DCD    2550472960
        0x00012a50:    46684798    .GhF    DCD    1181239192
        0x00012a54:    08497901    .yI.    DCD    139032833
        0x00012a58:    91010049    I...    DCD    2432761929
        0x00012a5c:    46304a5b    [J0F    DCD    1177569883
        0x00012a60:    70ec4790    .G.p    DCD    1894533008
        0x00012a64:    7878e0a4    ..xx    DCD    2021187748
        0x00012a68:    d14d280e    .(M.    DCD    3511494670
        0x00012a6c:    4a5820ff    . XJ    DCD    1247289599
        0x00012a70:    30034631    1F.0    DCD    805520945
        0x00012a74:    46224790    .G"F    DCD    1176651664
        0x00012a78:    4b563269    i2VK    DCD    1263940201
        0x00012a7c:    9905201a    . ..    DCD    2567249946
        0x00012a80:    46684798    .GhF    DCD    1181239192
        0x00012a84:    08497901    .yI.    DCD    139032833
        0x00012a88:    91010049    I...    DCD    2432761929
        0x00012a8c:    46304a4f    OJ0F    DCD    1177569871
        0x00012a90:    20004790    .G.     DCD    536889232
        0x00012a94:    e08b70e8    .p..    DCD    3767234792
        0x00012a98:    280f7878    xx.(    DCD    672102520
        0x00012a9c:    20ffd134    4..     DCD    553636148
        0x00012aa0:    46314a4b    KJ1F    DCD    1177635403
        0x00012aa4:    47903003    .0.G    DCD    1200631811
        0x00012aa8:    30604620     F`0    DCD    811615776
        0x00012aac:    22fd7a41    Az."    DCD    587037249
        0x00012ab0:    72414011    .@Ar    DCD    1916878865
        0x00012ab4:    98054948    HI..    DCD    2550483272
        0x00012ab8:    28034788    .G.(    DCD    671303560
        0x00012abc:    4620d026    &. F    DCD    1176555558
        0x00012ac0:    46013040    @0.F    DCD    1174483008
        0x00012ac4:    06428b80    ..B.    DCD    105024384
        0x00012ac8:    2240d510    ..@"    DCD    574674192
        0x00012acc:    83884390    .C..    DCD    2206745488
        0x00012ad0:    21049803    ...!    DCD    553949187
        0x00012ad4:    40087f00    ...@    DCD    1074298624
        0x00012ad8:    2001d000    ...     DCD    536989696
        0x00012adc:    d0052800    .(..    DCD    3489998848
        0x00012ae0:    32286922    "i(2    DCD    841509154
        0x00012ae4:    201a4b3d    =K.     DCD    538594109
        0x00012ae8:    47989905    ...G    DCD    1201182981
        0x00012aec:    21004a3c    <J.!    DCD    553667132
        0x00012af0:    47909805    ...G    DCD    1200658437
        0x00012af4:    79014668    hF.y    DCD    2030126696
        0x00012af8:    00490849    I.I.    DCD    4786249
        0x00012afc:    4a339101    ..3J    DCD    1244893441
        0x00012b00:    47904630    0F.G    DCD    1200637488
        0x00012b04:    70e82000    . .p    DCD    1894260736
        0x00012b08:    e041e052    R.A.    DCD    3762413650
        0x00012b0c:    9804492b    +I..    DCD    2550417707
        0x00012b10:    68005808    .X.h    DCD    1744853000
        0x00012b14:    70012102    .!.p    DCD    1879122178
        0x00012b18:    47884932    2I.G    DCD    1200113970
        0x00012b1c:    7878e048    H.xx    DCD    2021187656
        0x00012b20:    d1452814    .(E.    DCD    3510970388
        0x00012b24:    4a2a20ff    . *J    DCD    1244274943
        0x00012b28:    30034631    1F.0    DCD    805520945
        0x00012b2c:    20014790    .G.     DCD    536954768
        0x00012b30:    74a03440    @4.t    DCD    1956656192
        0x00012b34:    21409803    ..@!    DCD    557881347
        0x00012b38:    40087f00    ...@    DCD    1074298624
        0x00012b3c:    2001d000    ...     DCD    536989696
        0x00012b40:    d01a2800    .(..    DCD    3491375104
        0x00012b44:    07807ce0    .|..    DCD    125861088
        0x00012b48:    230cd417    ...#    DCD    588043287
        0x00012b4c:    223e4f27    'O>"    DCD    574508839
        0x00012b50:    99054825    %H..    DCD    2567260197
        0x00012b54:    210747b8    .G.!    DCD    554125240
        0x00012b58:    99057001    .p..    DCD    2567270401
        0x00012b5c:    89218041    A.!.    DCD    2300674113
        0x00012b60:    8a218101    ..!.    DCD    2317451521
        0x00012b64:    88e18141    A...    DCD    2296480065
        0x00012b68:    89e18081    ....    DCD    2313257089
        0x00012b6c:    492080c1    .. I    DCD    1226866881
        0x00012b70:    7ce04788    .G.|    DCD    2095073160
        0x00012b74:    43082102    .!.C    DCD    1124606210
        0x00012b78:    466874e0    .thF    DCD    1181250784
        0x00012b7c:    08497901    .yI.    DCD    139032833
        0x00012b80:    91010049    I...    DCD    2432761929
        0x00012b84:    46304a11    .J0F    DCD    1177569809
        0x00012b88:    20004790    .G.     DCD    536889232
        0x00012b8c:    e00f70e8    .p..    DCD    3759108328
        0x00012b90:    28127878    xx.(    DCD    672299128
        0x00012b94:    0849d10c    ..I.    DCD    139055372
        0x00012b98:    91010049    I...    DCD    2432761929
        0x00012b9c:    46304a0b    .J0F    DCD    1177569803
        0x00012ba0:    20004790    .G.     DCD    536889232
        0x00012ba4:    20ff70e8    .p.     DCD    553611496
        0x00012ba8:    46314a09    .J1F    DCD    1177635337
        0x00012bac:    47903003    .0.G    DCD    1200631811
        0x00012bb0:    b0099802    ....    DCD    2953418754
        0x00012bb4:    0000bdf0    ....    DCD    48624
        0x00012bb8:    00009f0d    ....    DCD    40717
        0x00012bbc:    20006964    di.     DCD    536897892
        0x00012bc0:    0000c425    %...    DCD    50213
        0x00012bc4:    200068b8    .h.     DCD    536897720
        0x00012bc8:    0000a805    ....    DCD    43013
        0x00012bcc:    00009f31    1...    DCD    40753
        0x00012bd0:    0000a189    ....    DCD    41353
        0x00012bd4:    0000b01d    ....    DCD    45085
        0x00012bd8:    00010a1d    ....    DCD    68125
        0x00012bdc:    0000ab09    ....    DCD    43785
        0x00012be0:    0000c405    ....    DCD    50181
        0x00012be4:    00009e31    1...    DCD    40497
        0x00012be8:    00000804    ....    DCD    2052
        0x00012bec:    00009df5    ....    DCD    40437
        0x00012bf0:    00008fb5    ....    DCD    36789
    .constdata
    am_hal_pwrctrl_peripheral_control
        0x00012bf4:    00000000    ....    DCD    0
        0x00012bf8:    00000000    ....    DCD    0
        0x00012bfc:    00000000    ....    DCD    0
        0x00012c00:    00000001    ....    DCD    1
        0x00012c04:    00000004    ....    DCD    4
        0x00012c08:    00000004    ....    DCD    4
        0x00012c0c:    00000002    ....    DCD    2
        0x00012c10:    00000008    ....    DCD    8
        0x00012c14:    00000008    ....    DCD    8
        0x00012c18:    00000004    ....    DCD    4
        0x00012c1c:    00000008    ....    DCD    8
        0x00012c20:    00000008    ....    DCD    8
        0x00012c24:    00000008    ....    DCD    8
        0x00012c28:    00000008    ....    DCD    8
        0x00012c2c:    00000008    ....    DCD    8
        0x00012c30:    00000010    ....    DCD    16
        0x00012c34:    00000010    ....    DCD    16
        0x00012c38:    00000010    ....    DCD    16
        0x00012c3c:    00000020     ...    DCD    32
        0x00012c40:    00000010    ....    DCD    16
        0x00012c44:    00000010    ....    DCD    16
        0x00012c48:    00000040    @...    DCD    64
        0x00012c4c:    00000010    ....    DCD    16
        0x00012c50:    00000010    ....    DCD    16
        0x00012c54:    00000080    ....    DCD    128
        0x00012c58:    00000004    ....    DCD    4
        0x00012c5c:    00000004    ....    DCD    4
        0x00012c60:    00000100    ....    DCD    256
        0x00012c64:    00000004    ....    DCD    4
        0x00012c68:    00000004    ....    DCD    4
        0x00012c6c:    00000200    ....    DCD    512
        0x00012c70:    00000020     ...    DCD    32
        0x00012c74:    00000020     ...    DCD    32
        0x00012c78:    00000400    ....    DCD    1024
        0x00012c7c:    00000004    ....    DCD    4
        0x00012c80:    00000004    ....    DCD    4
        0x00012c84:    00000800    ....    DCD    2048
        0x00012c88:    00000040    @...    DCD    64
        0x00012c8c:    00000040    @...    DCD    64
        0x00012c90:    00001000    ....    DCD    4096
        0x00012c94:    00000080    ....    DCD    128
        0x00012c98:    00000080    ....    DCD    128
        0x00012c9c:    00002000    . ..    DCD    8192
        0x00012ca0:    00000100    ....    DCD    256
        0x00012ca4:    00000100    ....    DCD    256
    am_hal_pwrctrl_memory_control
        0x00012ca8:    00000000    ....    DCD    0
        0x00012cac:    00000000    ....    DCD    0
        0x00012cb0:    00000000    ....    DCD    0
        0x00012cb4:    00000000    ....    DCD    0
        0x00012cb8:    00000000    ....    DCD    0
        0x00012cbc:    00000000    ....    DCD    0
        0x00012cc0:    00000001    ....    DCD    1
        0x00012cc4:    00000001    ....    DCD    1
        0x00012cc8:    00000001    ....    DCD    1
        0x00012ccc:    00001fff    ....    DCD    8191
        0x00012cd0:    00001fff    ....    DCD    8191
        0x00012cd4:    00000001    ....    DCD    1
        0x00012cd8:    00000003    ....    DCD    3
        0x00012cdc:    00000003    ....    DCD    3
        0x00012ce0:    00000003    ....    DCD    3
        0x00012ce4:    00001fff    ....    DCD    8191
        0x00012ce8:    00001fff    ....    DCD    8191
        0x00012cec:    00000003    ....    DCD    3
        0x00012cf0:    00000007    ....    DCD    7
        0x00012cf4:    00000007    ....    DCD    7
        0x00012cf8:    00000007    ....    DCD    7
        0x00012cfc:    00001fff    ....    DCD    8191
        0x00012d00:    00001fff    ....    DCD    8191
        0x00012d04:    00000007    ....    DCD    7
        0x00012d08:    0000000f    ....    DCD    15
        0x00012d0c:    0000000f    ....    DCD    15
        0x00012d10:    0000000f    ....    DCD    15
        0x00012d14:    00001fff    ....    DCD    8191
        0x00012d18:    00001fff    ....    DCD    8191
        0x00012d1c:    0000000f    ....    DCD    15
        0x00012d20:    0000001f    ....    DCD    31
        0x00012d24:    0000001f    ....    DCD    31
        0x00012d28:    0000001f    ....    DCD    31
        0x00012d2c:    00001fff    ....    DCD    8191
        0x00012d30:    00001fff    ....    DCD    8191
        0x00012d34:    0000001f    ....    DCD    31
        0x00012d38:    0000003f    ?...    DCD    63
        0x00012d3c:    0000003f    ?...    DCD    63
        0x00012d40:    0000003f    ?...    DCD    63
        0x00012d44:    00001fff    ....    DCD    8191
        0x00012d48:    00001fff    ....    DCD    8191
        0x00012d4c:    0000003f    ?...    DCD    63
        0x00012d50:    0000007f    ....    DCD    127
        0x00012d54:    0000007f    ....    DCD    127
        0x00012d58:    0000007f    ....    DCD    127
        0x00012d5c:    00001fff    ....    DCD    8191
        0x00012d60:    00001fff    ....    DCD    8191
        0x00012d64:    0000007f    ....    DCD    127
        0x00012d68:    000000ff    ....    DCD    255
        0x00012d6c:    000000ff    ....    DCD    255
        0x00012d70:    000000ff    ....    DCD    255
        0x00012d74:    00001fff    ....    DCD    8191
        0x00012d78:    00001fff    ....    DCD    8191
        0x00012d7c:    000000ff    ....    DCD    255
        0x00012d80:    000001ff    ....    DCD    511
        0x00012d84:    000001ff    ....    DCD    511
        0x00012d88:    000001ff    ....    DCD    511
        0x00012d8c:    00001fff    ....    DCD    8191
        0x00012d90:    00001fff    ....    DCD    8191
        0x00012d94:    000001ff    ....    DCD    511
        0x00012d98:    000003ff    ....    DCD    1023
        0x00012d9c:    000003ff    ....    DCD    1023
        0x00012da0:    000003ff    ....    DCD    1023
        0x00012da4:    00001fff    ....    DCD    8191
        0x00012da8:    00001fff    ....    DCD    8191
        0x00012dac:    000003ff    ....    DCD    1023
        0x00012db0:    000007ff    ....    DCD    2047
        0x00012db4:    000007ff    ....    DCD    2047
        0x00012db8:    000007ff    ....    DCD    2047
        0x00012dbc:    00001fff    ....    DCD    8191
        0x00012dc0:    00001fff    ....    DCD    8191
        0x00012dc4:    000007ff    ....    DCD    2047
        0x00012dc8:    00000fff    ....    DCD    4095
        0x00012dcc:    00000fff    ....    DCD    4095
        0x00012dd0:    00000fff    ....    DCD    4095
        0x00012dd4:    00001fff    ....    DCD    8191
        0x00012dd8:    00001fff    ....    DCD    8191
        0x00012ddc:    00000fff    ....    DCD    4095
        0x00012de0:    00001fff    ....    DCD    8191
        0x00012de4:    00001fff    ....    DCD    8191
        0x00012de8:    00001fff    ....    DCD    8191
        0x00012dec:    00001fff    ....    DCD    8191
        0x00012df0:    00001fff    ....    DCD    8191
        0x00012df4:    00001fff    ....    DCD    8191
        0x00012df8:    00002000    . ..    DCD    8192
        0x00012dfc:    00002000    . ..    DCD    8192
        0x00012e00:    00002000    . ..    DCD    8192
        0x00012e04:    00006000    .`..    DCD    24576
        0x00012e08:    00006000    .`..    DCD    24576
        0x00012e0c:    00002000    . ..    DCD    8192
        0x00012e10:    00006000    .`..    DCD    24576
        0x00012e14:    00006000    .`..    DCD    24576
        0x00012e18:    00006000    .`..    DCD    24576
        0x00012e1c:    00006000    .`..    DCD    24576
        0x00012e20:    00006000    .`..    DCD    24576
        0x00012e24:    00006000    .`..    DCD    24576
        0x00012e28:    c0000000    ....    DCD    3221225472
        0x00012e2c:    00000000    ....    DCD    0
        0x00012e30:    c0000000    ....    DCD    3221225472
        0x00012e34:    c0000000    ....    DCD    3221225472
        0x00012e38:    00000000    ....    DCD    0
        0x00012e3c:    80000000    ....    DCD    2147483648
        0x00012e40:    c0007fff    ....    DCD    3221258239
        0x00012e44:    00007fff    ....    DCD    32767
        0x00012e48:    c0007fff    ....    DCD    3221258239
        0x00012e4c:    c0007fff    ....    DCD    3221258239
        0x00012e50:    00007fff    ....    DCD    32767
        0x00012e54:    80007fff    ....    DCD    2147516415
    Region$$Table$$Base
        0x00012e58:    00012e78    x...    DCD    77432
        0x00012e5c:    10000000    ....    DCD    268435456
        0x00012e60:    00001660    `...    DCD    5728
        0x00012e64:    0000c170    p...    DCD    49520
        0x00012e68:    0001415c    \A..    DCD    82268
        0x00012e6c:    10001660    `...    DCD    268441184
        0x00012e70:    00003000    .0..    DCD    12288
        0x00012e74:    0000c1d4    ....    DCD    49620
    Region$$Table$$Limit

** Section #2 'SRAM' (SHT_PROGBITS) [SHF_ALLOC + SHF_WRITE]
    Size   : 4836 bytes (alignment 4)
    Address: 0x10000000

    Data section was compressed (Original size: 5728 bytes)

    0x10000000:   00 00 00 00 00 00 00 00 00 00 00 00 00 00 00 00    ................
    0x10000010:   00 00 00 00 00 00 00 00 00 00 00 00 00 00 00 00    ................
    0x10000020:   00 00 00 00 00 00 00 00 00 00 00 00 00 00 00 00    ................
    0x10000030:   00 00 00 00 0a 00 00 00 03 00 00 00 1e 00 00 00    ................
    0x10000040:   03 00 00 00 0f 00 00 00 03 00 00 00 0e 00 00 00    ................
    0x10000050:   03 00 00 00 11 00 00 00 03 00 00 00 00 c2 01 00    ................
    0x10000060:   60 00 00 00 00 00 00 00 00 00 00 00 00 00 00 00    `...............
    0x10000070:   12 00 00 00 60 3c 00 10 00 04 00 00 60 40 00 10    ....`<......`@..
    0x10000080:   00 04 00 00 00 00 00 00 b4 01 00 10 c4 01 00 10    ................
    0x10000090:   94 02 00 10 a0 00 00 10 88 00 00 10 94 00 00 10    ................
    0x100000a0:   bb 00 00 00 12 09 00 00 16 95 00 00 84 0e 01 00    ................
    0x100000b0:   00 11 02 01 00 04 00 00 00 00 00 00 03 01 c5 01    ................
    0x100000c0:   39 00 00 00 00 00 00 00 00 00 00 00 00 00 00 00    9...............
    0x100000d0:   00 00 00 00 1b 00 a1 06 1f b5 82 b0 08 98 00 90    ................
    0x100000e0:   02 a8 0f c8 01 4c a0 47 06 b0 10 bd 01 35 00 20    .....L.G.....5. 
    0x100000f0:   00 bf 00 bf 00 bf 00 bf 08 48 80 47 00 bf 00 bf    .........H.G....
    0x10000100:   02 2d 05 d1 06 48 80 47 00 bf 00 bf 05 48 80 47    .-...H.G.....H.G
    0x10000110:   00 21 03 9a 04 98 90 47 03 48 00 47 99 4a 01 00    .!.....G.H.G.J..
    0x10000120:   25 4b 01 00 af 4a 01 00 8f 4c 01 00 00 00 00 00    %K...J...L......
    0x10000130:   04 48 01 68 28 22 11 43 50 22 91 43 01 60 00 bf    .H.h(".CP".C.`..
    0x10000140:   01 48 00 47 00 00 c0 52 63 2a 00 00 00 00 00 00    .H.G...Rc*......
    0x10000150:   04 48 01 68 50 22 11 43 28 22 91 43 01 60 00 bf    .H.hP".C(".C.`..
    0x10000160:   01 48 00 47 00 00 c0 52 83 2a 00 00 00 bf 00 bf    .H.G...R.*......
    0x10000170:   00 bf 00 bf 08 98 00 28 01 d0 01 20 02 90 00 20    .......(... ... 
    0x10000180:   60 85 01 48 00 47 00 bf d5 ed 00 00 00 bf 00 bf    `..H.G..........
    0x10000190:   60 88 00 28 04 d1 10 7d 08 28 01 d3 04 20 10 75    `..(...}.(... .u
    0x100001a0:   02 98 81 79 01 20 01 43 02 98 81 71 00 48 00 47    ...y. .C...q.H.G
    0x100001b0:   a5 f7 00 00 bb 00 00 00 04 01 00 00 3d 93 00 00    ............=...
    0x100001c0:   b0 00 00 10 cc 00 00 00 38 0d 00 00 15 f5 00 00    ........8.......
    0x100001d0:   98 17 01 00 4e 56 44 53 01 06 06 ef ab 23 88 77    ....NVDS.....#.w
    0x100001e0:   56 02 06 0a 4e 5a 38 38 30 31 56 31 41 00 03 06    V...NZ8801V1A...
    0x100001f0:   01 00 07 06 02 00 00 0c 06 02 32 00 08 06 01 00    ..........2.....
    0x10000200:   09 06 01 02 0a 06 04 00 00 00 00 0b 06 01 96 23    ...............#
    0x10000210:   06 01 95 0d 06 02 e8 03 0e 06 02 e8 03 0f 06 02    ................
    0x10000220:   2c 01 10 06 04 00 c2 01 00 11 06 01 01 12 06 01    ,...............
    0x10000230:   01 13 06 02 f4 01 14 06 02 ac 09 15 06 01 09 16    ................
    0x10000240:   06 01 03 17 06 01 29 18 06 02 dc 05 19 06 02 e2    ......).........
    0x10000250:   04 20 06 01 01 21 06 01 02 22 06 01 00 24 06 04    . ...!..."...$..
    0x10000260:   42 02 60 09 25 06 01 11 26 06 01 00 27 06 01 02    B.`.%...&...'...
    0x10000270:   2d 06 01 00 28 06 02 f6 3f 29 06 01 0f 35 06 01    -...(...?)...5..
    0x10000280:   08 37 06 01 00 05 06 02 34 00 04 06 01 20 00 00    .7......4.... ..
    0x10000290:   00 00 00 00 dd 00 00 00 be 00 00 00 77 7e 00 00    ............w~..
    0x100002a0:   d4 01 00 10 68 15 00 10 78 15 00 10 50 16 00 10    ....h...x...P...
    0x100002b0:   a4 02 00 10 00 11 b0 12 00 04 00 00 00 00 00 00    ................
    0x100002c0:   03 01 c5 01 39 00 00 00 00 00 00 00 00 00 00 00    ....9...........
    0x100002d0:   00 00 00 00 00 00 00 00 01 01 85 36 02 00 00 00    ...........6....
    0x100002e0:   00 00 00 48 00 10 00 06 1f b5 00 24 00 99 12 29    ...H.......$...)
    0x100002f0:   45 d0 0e dc 2f d2 08 00 78 44 00 79 00 18 87 44    E.../...xD.y...D
    0x10000300:   2f 2c 2c 2c 2c 2c 2c 2c 34 2c 2c 2c 2c 2c 2c 2c    /,,,,,,,4,,,,,,,
    0x10000310:   3b 2c 1c 29 42 d0 0c dc 13 39 09 29 1b d2 08 00    ;,.)B....9.)....
    0x10000320:   78 44 00 79 00 18 87 44 18 18 18 18 2d 18 30 33    xD.y...D....-.03
    0x10000330:   18 00 6c 29 49 d0 08 dc 1d 29 35 d0 21 29 35 d0    ..l)I....)5.!)5.
    0x10000340:   5b 29 3c d0 5e 29 06 d1 34 e0 79 29 4c d0 7a 29    [)<.^)..4.y)L.z)
    0x10000350:   59 d0 7b 29 01 d0 00 24 e4 43 20 46 04 b0 10 bd    Y.{)...$.C F....
    0x10000360:   01 98 c0 b2 00 f0 fa f8 f7 e7 06 9b 03 9a 02 99    ................
    0x10000370:   01 98 01 f0 77 f8 f0 e7 00 f0 60 f8 ed e7 00 f0    ....w.....`.....
    0x10000380:   c5 ff ea e7 00 f0 1e fb e7 e7 00 f0 75 fb e4 e7    ............u...
    0x10000390:   01 98 c0 b2 00 f0 b6 f9 04 46 de e7 01 98 c0 b2    .........F......
    0x100003a0:   00 f0 78 ff 04 46 d8 e7 00 f0 40 fa 00 f0 2c ff    ..x..F....@...,.
    0x100003b0:   04 46 d2 e7 01 98 00 f0 07 fe 04 46 cd e7 02 98    .F.........F....
    0x100003c0:   c1 b2 01 98 00 f0 40 fe c7 e7 03 98 00 28 01 d0    ......@......(..
    0x100003d0:   01 22 00 e0 00 22 02 98 06 9b 81 b2 01 98 80 b2    ."..."..........
    0x100003e0:   00 f0 02 fc 04 46 b8 e7 03 98 00 28 01 d0 01 22    .....F.....(..."
    0x100003f0:   00 e0 00 22 02 98 06 9b 81 b2 01 98 80 b2 00 f0    ..."............
    0x10000400:   73 fc 04 46 a9 e7 03 98 00 28 01 d0 01 22 00 e0    s..F.....(..."..
    0x10000410:   00 22 02 98 06 9b 81 b2 01 98 80 b2 00 f0 02 fd    ."..............
    0x10000420:   04 46 9a e7 03 b4 01 48 01 90 01 bd 01 01 00 00    .F.....H........
    0x10000430:   03 b4 01 48 01 90 01 bd 55 01 00 00 f0 b4 00 20    ...H....U...... 
    0x10000440:   43 27 3f 06 79 68 ff 24 01 34 21 43 79 60 79 68    C'?.yh.$.4!Cy`yh
    0x10000450:   22 03 11 43 79 60 a3 21 c9 05 0a 68 52 08 52 00    "..Cy`.!...hR.R.
    0x10000460:   0a 60 34 49 09 69 cd b2 33 49 09 78 c9 07 c9 0f    .`4I.i..3I.x....
    0x10000470:   0a 05 0b 02 00 2d 06 d0 30 49 31 4e 09 88 b1 42    .....-..0I1N...B
    0x10000480:   0d d3 04 20 19 e0 78 68 01 21 09 05 88 43 10 43    ... ..xh.!...C.C
    0x10000490:   78 60 78 68 a0 43 18 43 78 60 f0 bc 70 47 29 4e    x`xh.C.Cx`..pG)N
    0x100004a0:   b1 42 01 d3 03 20 08 e0 27 4e b1 42 01 d3 02 20    .B... ..'N.B... 
    0x100004b0:   03 e0 26 4e b1 42 00 d3 01 20 25 4e 31 18 20 31    ..&N.B... %N1. 1
    0x100004c0:   09 7e a9 42 09 da 00 28 01 dd 40 1e 40 b2 31 18    .~.B...(..@.@.1.
    0x100004d0:   09 7a 40 00 80 19 00 8b 0b e0 04 28 04 da 31 5c    .z@........(..1\
    0x100004e0:   a9 42 01 db 40 1c 40 b2 31 18 09 7a 40 00 80 19    .B..@.@.1..z@...
    0x100004f0:   00 8b 18 4d 29 62 a3 25 ed 05 29 68 49 08 49 00    ...M)b.%..)hI.I.
    0x10000500:   29 60 15 4e 31 6b ff 24 01 34 0c 43 34 63 a8 62    )`.N1k.$.4.C4c.b
    0x10000510:   ff 24 01 34 a1 43 31 63 08 49 08 80 78 68 21 03    .$.4.C1c.I..xh!.
    0x10000520:   88 43 10 43 78 60 78 68 09 13 88 43 18 43 78 60    .C.Cx`xh...C.Cx`
    0x10000530:   f0 bc 70 47 80 00 80 45 3a 68 00 20 50 68 00 20    ..pG...E:h. Ph. 
    0x10000540:   f6 3f 00 00 f6 38 00 00 f6 2d 00 00 f6 09 00 00    .?...8...-......
    0x10000550:   50 6e 00 20 80 04 c0 50 40 00 80 45 f0 b4 43 21    Pn. ...P@..E..C!
    0x10000560:   09 06 4a 68 01 20 80 04 02 43 4a 60 c4 23 87 22    ..Jh. ...CJ`.#."
    0x10000570:   d2 05 13 60 4d 4b 53 61 4a 68 82 43 4c 48 00 78    ...`MKSaJh.CLH.x
    0x10000580:   c0 07 c0 0f 83 04 1a 43 4a 60 8b 23 49 4a db 05    .......CJ`.#IJ..
    0x10000590:   5a 63 49 4c 02 22 e2 60 05 22 ca 60 da 63 01 22    ZcIL.".`.".`.c."
    0x100005a0:   22 61 62 62 a2 63 45 4c 22 60 45 4d 65 61 dc 6a    "abb.cEL"`EMea.j
    0x100005b0:   14 43 dc 62 4a 68 01 24 24 04 22 43 4a 60 4a 68    .C.bJh.$$."CJ`Jh
    0x100005c0:   a5 10 2a 43 4a 60 40 4a 3e 4b 53 61 93 68 3f 26    ..*CJ`@J>KSa.h?&
    0x100005d0:   b6 05 33 43 93 60 00 23 d3 60 3c 4b 93 61 3c 4b    ..3C.`.#.`<K.a<K
    0x100005e0:   1b 78 3c 2b 01 d1 06 23 d3 63 3a 4e 33 68 1e 27    .x<+...#.c:N3h.'
    0x100005f0:   bb 43 33 60 93 6a fe 03 b3 43 01 26 b6 04 9b 19    .C3`.j...C.&....
    0x10000600:   93 62 35 4b f0 22 5a 60 4a 68 03 04 a2 43 1a 43    .b5K."Z`Jh...C.C
    0x10000610:   4a 60 4a 68 83 03 aa 43 1a 43 4a 60 4a 68 74 11    J`Jh...C.CJ`Jht.
    0x10000620:   22 43 4a 60 29 22 52 06 13 6a 1b 09 1b 01 08 33    "CJ`)"R..j.....3
    0x10000630:   13 62 2a 4b d3 60 4a 68 43 03 a2 43 1a 43 4a 60    .b*K.`JhC..C.CJ`
    0x10000640:   4a 68 e5 01 2a 43 4a 60 28 24 a3 23 db 05 1c 60    Jh..*CJ`($.#...`
    0x10000650:   23 4a 12 88 9a 62 23 4b 9a 62 4a 68 00 05 aa 43    #J...b#K.bJh...C
    0x10000660:   02 43 4a 60 20 48 e6 23 03 70 04 72 1f 49 01 83    .CJ` H.#.p.r.I..
    0x10000670:   1f 49 e0 24 0c 76 d4 22 42 70 3c 22 42 72 1d 4a    .I.$.v."Bp<"Br.J
    0x10000680:   42 83 4b 76 c8 22 82 70 46 25 85 72 1a 4d 85 83    B.Kv.".pF%.r.M..
    0x10000690:   8b 76 c2 70 50 22 c2 72 18 4a c2 83 cc 76 5a 22    .v.pP".r.J...vZ"
    0x100006a0:   02 73 17 4a 02 84 0c 77 f0 bc 70 47 ff 7f 00 00    .s.J...w..pG....
    0x100006b0:   3a 68 00 20 49 02 00 00 40 00 80 45 80 00 80 45    :h. I...@..E...E
    0x100006c0:   1e 02 00 00 03 00 3c 00 00 00 40 52 08 00 0f 00    ......<...@R....
    0x100006d0:   41 68 00 20 00 00 c0 51 40 00 40 52 cc 34 63 02    Ah. ...Q@.@R.4c.
    0x100006e0:   50 68 00 20 c0 7e 00 20 50 6e 00 20 f6 07 00 00    Ph. .~. Pn. ....
    0x100006f0:   70 6e 00 20 f6 09 00 00 f6 2d 00 00 f6 38 00 00    pn. .....-...8..
    0x10000700:   f6 3f 00 00 f8 b5 3f 48 00 68 00 28 78 d1 43 20    .?....?H.h.(x.C 
    0x10000710:   00 06 41 68 01 22 d2 03 11 43 41 60 3a 4f 3d 68    ..Ah."...CA`:O=h
    0x10000720:   01 26 03 20 00 06 28 43 38 60 00 24 37 49 1e 20    .&. ..(C8`.$7I. 
    0x10000730:   88 47 36 49 01 20 88 47 78 68 c0 07 c0 0f 21 46    .G6I. .Gxh....!F
    0x10000740:   33 4a 64 1c 91 42 01 d8 00 28 f2 d0 2e 48 80 68    3Jd..B...(...H.h
    0x10000750:   30 49 08 60 00 24 00 27 00 2e 11 d0 2e 4a 39 46    0I.`.$.'.....J9F
    0x10000760:   00 23 82 1a 99 41 14 da 64 1c 23 46 2a 4e 43 43    .#...A..d.#F*NCC
    0x10000770:   3a 46 00 21 f3 1a 91 41 c3 1a 8a 41 f4 db 08 e0    :F.!...A...A....
    0x10000780:   26 49 88 42 05 d2 64 1c 22 46 42 43 8a 1a 82 42    &I.B..d."FBC...B
    0x10000790:   f9 d8 23 4f 21 46 38 46 ff f7 44 fe 06 46 30 46    ..#O!F8F..D..F0F
    0x100007a0:   60 43 38 1a 00 03 21 46 ff f7 3c fe 07 46 7d 20    `C8...!F..<..F} 
    0x100007b0:   19 21 00 02 89 01 84 42 05 d9 20 1a 00 04 ff f7    .!.....B.. .....
    0x100007c0:   31 fe 01 46 04 e0 00 1b 00 04 ff f7 2b fe 01 46    1..F........+..F
    0x100007d0:   14 48 06 63 47 63 81 63 01 20 00 06 85 43 40 00    .H.cGc.c. ...C@.
    0x100007e0:   05 43 09 48 05 60 43 20 00 06 41 68 01 22 d2 03    .C.H.`C ..Ah."..
    0x100007f0:   91 43 0d 4a 12 78 d2 07 12 0c 11 43 41 60 20 46    .C.J.x.....CA` F
    0x10000800:   f8 bd 00 00 60 68 00 20 00 00 40 44 e5 3e 00 00    ....`h. ..@D.>..
    0x10000810:   10 27 00 00 64 68 00 20 00 20 bc be 00 d0 12 13    .'..dh. . ......
    0x10000820:   00 90 d0 03 c0 7e 00 20 3a 68 00 20 51 48 80 47    .....~. :h. QH.G
    0x10000830:   51 48 80 47 51 48 80 47 51 48 52 49 00 68 88 47    QH.GQH.GQHRI.h.G
    0x10000840:   01 20 ff f7 5f ff 50 49 08 60 50 48 80 47 50 48    . .._.PI.`PH.GPH
    0x10000850:   80 47 50 48 80 47 00 20 c0 26 4f 4c ff 27 01 46    .GPH.G. .&OL.'.F
    0x10000860:   40 1c 49 b2 00 29 10 da 0a 07 12 0f 08 3a 92 08    @.I..).......:..
    0x10000870:   92 00 12 19 d5 69 89 07 c9 0e 3b 46 8b 40 9d 43    .....i....;F.@.C
    0x10000880:   33 46 8b 40 1d 43 d5 61 0d e0 8b 08 43 4a 9b 00    3F.@.C.a....CJ..
    0x10000890:   9a 18 13 68 89 07 c9 0e 3d 46 8d 40 ab 43 35 46    ...h....=F.@.C5F
    0x100008a0:   8d 40 2b 43 13 60 1e 28 d9 d9 3d 49 08 68 00 0a    .@+C.`.(..=I.h..
    0x100008b0:   00 02 08 60 08 68 ff 23 1b 02 98 43 08 60 0a 1d    ...`.h.#...C.`..
    0x100008c0:   10 68 00 02 00 0a 10 60 08 68 1d 02 01 26 a8 43    .h.....`.h...&.C
    0x100008d0:   f6 05 30 43 08 60 08 1f 01 68 09 02 09 0a c7 06    ..0C.`...h......
    0x100008e0:   39 43 01 60 10 68 00 27 01 0a 09 02 80 20 01 43    9C.`.h.'..... .C
    0x100008f0:   11 60 10 68 71 12 98 43 08 43 10 60 10 68 a8 43    .`.hq..C.C.`.h.C
    0x10000900:   30 43 10 60 00 20 80 f3 10 88 26 4e 26 48 80 47    0C.`. ....&N&H.G
    0x10000910:   26 48 80 47 26 48 80 47 00 28 f7 d0 25 4d a8 47    &H.G&H.G.(..%M.G
    0x10000920:   00 28 f3 db b0 47 00 28 f0 d1 23 48 80 47 a8 47    .(...G.(..#H.G.G
    0x10000930:   00 28 eb db b0 47 00 28 e8 d1 ef f3 10 80 c5 b2    .(...G.(........
    0x10000940:   01 20 80 f3 10 88 1d 48 80 47 00 28 0e d0 1c 48    . .....H.G.(...H
    0x10000950:   01 68 00 29 05 d0 07 60 00 f0 34 f8 00 f0 8c f8    .h.)...`..4.....
    0x10000960:   04 e0 20 69 fb 21 08 40 20 61 30 bf 85 f3 10 88    .. i.!.@ a0.....
    0x10000970:   cc e7 00 00 6d 95 00 00 19 5f 01 00 6d 4f 01 00    ....m...._..mO..
    0x10000980:   20 68 00 20 a5 58 01 00 58 68 00 20 55 4f 01 00     h. .X..Xh. UO..
    0x10000990:   65 50 01 00 49 4f 01 00 00 ed 00 e0 00 e4 00 e0    eP..IO..........
    0x100009a0:   0c e4 00 e0 51 3a 00 00 79 5a 01 00 89 39 00 00    ....Q:..yZ...9..
    0x100009b0:   59 3f 00 00 1d 61 00 00 75 3a 00 00 8d 5a 01 00    Y?...a..u:...Z..
    0x100009c0:   70 68 00 20 f8 b5 00 24 24 48 80 47 43 25 2d 06    ph. ...$$H.GC%-.
    0x100009d0:   01 21 68 68 89 04 08 43 68 60 8b 26 f6 05 30 68    .!hh...Ch`.&..0h
    0x100009e0:   08 21 88 43 30 60 1e 48 80 47 06 20 e8 60 1d 4d    .!.C0`.H.G. .`.M
    0x100009f0:   01 20 a8 47 a1 20 c0 05 01 6b 02 22 91 43 11 43    . .G. ...k.".C.C
    0x10000a00:   01 63 01 21 02 6b 8a 43 0a 43 02 63 01 6b 04 27    .c.!.k.C.C.c.k.'
    0x10000a10:   b9 43 39 43 01 63 14 48 41 68 89 00 0a d5 01 20    .C9C.c.HAh..... 
    0x10000a20:   a8 47 20 46 64 1c e4 b2 19 28 03 d8 0e 48 40 68    .G Fd....(...H@h
    0x10000a30:   80 00 f4 d4 0d 4c 0f 20 60 60 01 20 a8 47 07 20    .....L. ``. .G. 
    0x10000a40:   60 60 04 20 a8 47 06 20 60 60 09 48 30 60 09 48    ``. .G. ``.H0`.H
    0x10000a50:   01 69 39 43 01 61 30 bf f8 bd 00 00 75 3a 00 00    .i9C.a0.....u:..
    0x10000a60:   85 a3 00 00 e5 3e 00 00 80 00 80 45 40 00 80 45    .....>.....E@..E
    0x10000a70:   26 03 00 00 00 ed 00 e0 70 b5 48 4d 0f 20 68 60    &.......p.HM. h`
    0x10000a80:   8b 20 c0 05 01 68 46 4a 11 40 01 60 01 68 08 22    . ...hFJ.@.`.h."
    0x10000a90:   11 43 01 60 28 6a 04 21 08 43 28 62 41 48 80 47    .C.`(j.!.C(bAH.G
    0x10000aa0:   05 20 43 24 24 06 e0 60 3f 4e 01 20 b0 47 3f 48    . C$$..`?N. .G?H
    0x10000ab0:   80 47 3f 48 80 47 3f 48 80 47 68 68 0d 28 03 d0    .G?H.G?H.Ghh.(..
    0x10000ac0:   20 20 b0 47 0d 20 68 60 3b 48 80 47 60 68 01 23      .G. h`;H.G`h.#
    0x10000ad0:   1b 04 18 43 60 60 60 68 9a 10 10 43 60 60 38 48    ...C```h...C``8H
    0x10000ae0:   36 49 41 61 81 68 3f 25 ad 05 29 43 81 60 00 21    6IAa.h?%..)C.`.!
    0x10000af0:   c1 60 34 49 81 61 34 49 09 78 3c 29 01 d1 06 21    .`4I.a4I.x<)...!
    0x10000b00:   c1 63 32 4d 29 68 1e 26 b1 43 29 60 81 6a f5 03    .c2M)h.&.C)`.j..
    0x10000b10:   a9 43 01 25 ad 04 49 19 81 62 2d 49 f0 20 48 60    .C.%..I..b-I. H`
    0x10000b20:   61 68 2c 48 99 43 00 78 c0 07 c0 0f 03 04 19 43    ah,H.C.x.......C
    0x10000b30:   61 60 61 68 91 43 82 03 11 43 61 60 61 68 6a 11    a`ah.C...Ca`ahj.
    0x10000b40:   11 43 61 60 29 21 24 4b 49 06 cb 60 0b 6a 1b 09    .Ca`)!$KI..`.j..
    0x10000b50:   1b 01 08 33 0b 62 0b 68 d5 10 2b 43 0b 60 1f 4b    ...3.b.h..+C.`.K
    0x10000b60:   1b 78 5b 00 5b 1c 4b 61 61 68 91 43 42 03 11 43    .x[.[.Kaah.CB..C
    0x10000b70:   61 60 62 68 a9 02 0a 43 62 60 28 23 a3 22 d2 05    a`bh...Cb`(#."..
    0x10000b80:   13 60 17 4b 1b 88 93 62 62 68 00 05 8a 43 02 43    .`.K...bbh...C.C
    0x10000b90:   62 60 14 49 01 20 88 47 70 bd 00 00 40 00 80 45    b`.I. .Gp...@..E
    0x10000ba0:   fd fd ff ff 75 3a 00 00 e5 3e 00 00 65 50 01 00    ....u:...>..eP..
    0x10000bb0:   29 48 01 00 c5 64 01 00 69 48 01 00 03 00 3c 00    )H...d..iH....<.
    0x10000bc0:   00 00 40 52 08 00 0f 00 41 68 00 20 00 00 c0 51    ..@R....Ah. ...Q
    0x10000bd0:   40 00 40 52 3a 68 00 20 cc 34 63 04 74 68 00 20    @.@R:h. .4c.th. 
    0x10000be0:   50 68 00 20 a1 59 01 00 ff b5 81 b0 0d 46 00 26    Ph. .Y.......F.&
    0x10000bf0:   35 49 28 46 88 47 00 90 01 98 87 00 33 48 c4 59    5I(F.G......3H.Y
    0x10000c00:   20 46 a0 30 41 79 09 07 07 d5 00 79 07 28 04 d0     F.0Ay.....y.(..
    0x10000c10:   2f 4a 3d 21 01 98 90 47 52 e0 2e 49 01 98 88 47    /J=!...GR..I...G
    0x10000c20:   04 28 4d d1 68 46 01 78 02 20 88 43 08 d0 00 20    .(M.hF.x. .C... 
    0x10000c30:   00 28 07 d0 a4 20 00 5d 07 28 03 d0 02 26 3f e0    .(... .].(...&?.
    0x10000c40:   01 20 f5 e7 28 46 02 22 11 43 00 91 22 4e b0 47    . ..(F.".C.."N.G
    0x10000c50:   28 46 04 23 6a 46 11 78 19 43 00 91 b0 47 08 20    (F.#jF.x.C...G. 
    0x10000c60:   a4 21 08 55 04 98 80 1e 18 4e f1 59 88 60 ff 20    .!.U.....N.Y.`. 
    0x10000c70:   1a 4a 29 46 03 30 90 47 ef f3 10 80 c1 b2 01 20    .J)F.0.G....... 
    0x10000c80:   80 f3 10 88 f0 59 0c 23 a0 30 42 79 1a 43 42 71    .....Y.#.0By.CBq
    0x10000c90:   20 69 28 30 60 30 00 7e 81 f3 10 88 00 28 05 d0     i(0`0.~.....(..
    0x10000ca0:   40 34 a0 8b 04 21 08 43 a0 83 08 e0 ff 20 07 30    @4...!.C..... .0
    0x10000cb0:   0b 4c 00 23 2a 46 29 46 a0 47 0a 49 88 47 01 26    .L.#*F)F.G.I.G.&
    0x10000cc0:   30 46 05 b0 f0 bd 00 00 0d 9f 00 00 64 69 00 20    0F..........di. 
    0x10000cd0:   25 c4 00 00 1d 0a 01 00 31 9f 00 00 89 a1 00 00    %.......1.......
    0x10000ce0:   f5 9d 00 00 31 9e 00 00 ff b5 81 b0 1d 46 00 20    ....1........F. 
    0x10000cf0:   00 90 01 98 42 49 80 00 0e 58 01 23 34 46 40 34    ....BI...X.#4F@4
    0x10000d00:   e2 7c 1a 43 e2 74 08 58 a0 30 40 79 00 07 03 d5    .|.C.t.X.0@y....
    0x10000d10:   3c 4a 3d 21 01 98 90 47 6a 88 1b 2a 0a d3 eb 88    <J=!...Gj..*....
    0x10000d20:   1b 2b 07 d3 a9 88 ff 27 49 37 b9 42 02 d3 28 89    .+.....'I7.B..(.
    0x10000d30:   b8 42 05 d2 34 4b 29 78 20 22 01 98 98 47 5b e0    .B..4K)x "...G[.
    0x10000d40:   a5 88 9d 42 00 d2 2b 46 9b b2 a5 89 85 42 00 d2    ...B..+F.....B..
    0x10000d50:   28 46 80 b2 65 88 95 42 00 d2 2a 46 92 b2 65 89    (F..e..B..*F..e.
    0x10000d60:   8d 42 00 d2 29 46 89 b2 25 89 9d 42 08 d1 25 8a    .B..)F..%..B..%.
    0x10000d70:   85 42 05 d1 e5 88 95 42 02 d1 e5 89 8d 42 12 d0    .B.....B.....B..
    0x10000d80:   ef f3 10 85 ed b2 01 27 87 f3 10 88 23 81 20 82    .......'....#. .
    0x10000d90:   e2 80 e1 81 1d 4b 30 69 98 47 85 f3 10 88 e0 7c    .....K0i.G.....|
    0x10000da0:   fd 21 08 40 e0 74 1a 49 01 98 88 47 e0 7c 40 08    .!.@.t.I...G.|@.
    0x10000db0:   40 00 e0 74 17 49 40 22 09 7f 11 40 00 d0 01 21    @..t.I@"...@...!
    0x10000dc0:   00 29 19 d0 80 07 17 d4 0c 23 14 4d 3e 22 12 48    .).......#.M>".H
    0x10000dd0:   01 99 a8 47 07 21 01 70 01 99 41 80 21 89 01 81    ...G.!.p..A.!...
    0x10000de0:   21 8a 41 81 e1 88 81 80 e1 89 c1 80 0c 49 88 47    !.A..........I.G
    0x10000df0:   e0 7c 02 21 08 43 e0 74 00 98 05 b0 f0 bd 00 00    .|.!.C.t........
    0x10000e00:   64 69 00 20 25 c4 00 00 3d bb 00 00 95 26 01 00    di. %...=....&..
    0x10000e10:   e5 b7 00 00 b8 68 00 20 04 08 00 00 f5 9d 00 00    .....h. ........
    0x10000e20:   b5 8f 00 00 ff b5 85 b0 0c 46 1d 46 00 20 04 90    .........F.F. ..
    0x10000e30:   59 49 20 46 88 47 03 90 05 98 81 00 57 48 46 58    YI F.G......WHFX
    0x10000e40:   a5 20 80 5d 00 07 04 d5 55 4a 3d 21 05 98 90 47    . .]....UJ=!...G
    0x10000e50:   9f e0 ff 20 53 4a 21 46 03 30 90 47 68 46 02 7b    ... SJ!F.0.GhF.{
    0x10000e60:   01 20 90 43 08 d0 00 20 00 28 7d d0 30 46 a0 30    . .C... .(}.0F.0
    0x10000e70:   c1 78 04 29 02 d0 87 e0 01 20 f5 e7 69 88 1b 29    .x.)..... ..i..)
    0x10000e80:   72 d3 e9 88 1b 29 7f d3 ab 88 ff 21 49 31 8b 42    r....).....!I1.B
    0x10000e90:   7a d3 2b 89 8b 42 77 d3 00 21 c1 70 51 08 49 00    z.+..Bw..!.pQ.I.
    0x10000ea0:   03 91 41 4a 20 46 90 47 34 46 40 34 a0 88 e9 88    ..AJ F.G4F@4....
    0x10000eb0:   88 42 00 d3 08 46 80 b2 02 90 a0 89 29 89 88 42    .B...F......)..B
    0x10000ec0:   00 d3 08 46 80 b2 01 90 60 88 69 88 88 42 00 d3    ...F....`.i..B..
    0x10000ed0:   08 46 87 b2 60 89 a9 88 88 42 00 d3 08 46 85 b2    .F..`....B...F..
    0x10000ee0:   32 4b 30 69 29 46 01 9a 98 47 21 89 02 98 81 42    2K0i)F...G!....B
    0x10000ef0:   09 d1 21 8a 01 98 81 42 05 d1 e0 88 b8 42 02 d1    ..!....B.....B..
    0x10000f00:   e0 89 a8 42 1a d0 67 80 65 81 ef f3 10 80 c0 b2    ...B..g.e.......
    0x10000f10:   00 90 01 20 80 f3 10 88 02 98 20 81 01 98 20 82    ... ...... ... .
    0x10000f20:   e7 80 e5 81 22 4b 3a 46 29 46 30 69 98 47 00 98    ...."K:F)F0i.G..
    0x10000f30:   80 f3 10 88 e0 7c fd 21 08 40 e0 74 1d 48 40 21    .....|.!.@.t.H@!
    0x10000f40:   00 7f 08 40 00 d0 01 20 00 28 22 d0 e0 7c 80 07    ...@... .("..|..
    0x10000f50:   1f d4 0c 23 19 4d 3e 22 17 48 05 99 a8 47 07 21    ...#.M>".H...G.!
    0x10000f60:   01 70 05 99 41 80 00 e0 0e e0 21 89 01 81 21 8a    .p..A.....!...!.
    0x10000f70:   41 81 e1 88 81 80 e1 89 c1 80 11 49 88 47 e0 7c    A..........I.G.|
    0x10000f80:   02 21 08 43 e0 74 04 e0 0e 4b 29 78 20 22 05 98    .!.C.t...K)x "..
    0x10000f90:   98 47 04 98 09 b0 f0 bd 0d 9f 00 00 64 69 00 20    .G..........di. 
    0x10000fa0:   25 c4 00 00 89 a1 00 00 31 9f 00 00 71 25 01 00    %.......1...q%..
    0x10000fb0:   95 26 01 00 b8 68 00 20 04 08 00 00 f5 9d 00 00    .&...h. ........
    0x10000fc0:   b5 8f 00 00 3d bb 00 00 70 b5 05 46 00 21 1a 4a    ....=...p..F.!.J
    0x10000fd0:   10 20 90 47 04 46 00 20 00 2c 29 d0 28 88 17 49    . .G.F. .,).(..I
    0x10000fe0:   80 00 08 58 00 69 28 30 08 30 a9 68 e1 60 29 88    ...X.i(0.0.h.`).
    0x10000ff0:   e1 80 a9 88 21 81 a9 78 a1 72 2f 21 a1 80 01 21    ....!..x.r/!...!
    0x10001000:   81 f3 10 88 0e 4a 21 46 90 47 00 20 80 f3 10 88    .....J!F.G. ....
    0x10001010:   01 20 e1 88 5a 22 51 43 0a 4a 89 18 4a 8a 12 0b    . ..Z"QC.J..J...
    0x10001020:   02 2a 05 d3 4a 8a 12 05 12 0d 03 03 1a 43 4a 82    .*..J........CJ.
    0x10001030:   00 28 00 d0 01 20 70 bd 75 9c 00 00 64 69 00 20    .(... p.u...di. 
    0x10001040:   a7 3c 00 00 80 40 80 50 f3 b5 85 b0 65 4a 04 92    .<...@.P....eJ..
    0x10001050:   16 78 4a 1e d2 b2 06 92 00 29 72 d0 01 46 40 31    .xJ......)r..F@1
    0x10001060:   03 91 61 49 05 46 80 35 02 91 a8 79 c0 06 69 d4    ..aI.F.5...y..i.
    0x10001070:   01 21 5e 4a 10 20 90 47 04 46 0c 20 5c 4f 70 43    .!^J. .G.F. \OpC
    0x10001080:   c0 19 01 8e 26 71 03 9a 92 8f e2 80 c2 8d 22 81    ....&q........".
    0x10001090:   23 46 0b 33 9c 46 5b 1c 22 46 9e 46 40 8e c3 0b    #F.3.F[."F.F@...
    0x100010a0:   53 73 82 04 92 0e 63 46 1a 70 73 46 18 70 00 20    Ss....cF.psF.p. 
    0x100010b0:   60 71 a8 79 c2 07 05 d0 22 7a 52 06 02 d4 40 08    `q.y...."zR...@.
    0x100010c0:   40 00 a8 71 e0 88 04 28 6f d0 08 0a a0 72 a8 79    @..q...(o....r.y
    0x100010d0:   82 07 0f d5 22 7a d2 07 0c d1 fd 22 10 40 a8 71    ...."z.....".@.q
    0x100010e0:   e0 88 ff 23 82 00 43 48 80 58 40 30 82 8b 01 33    ...#..CH.X@0...3
    0x100010f0:   1a 43 82 83 22 89 ff 20 40 30 02 40 45 d1 a0 7a    .C..".. @0.@E..z
    0x10001100:   00 28 42 d0 89 07 89 0f 01 91 e1 88 39 4a 8b 00    .(B.........9J..
    0x10001110:   d2 58 a0 32 52 79 92 07 01 d5 00 1f a0 72 01 98    .X.2Ry.......r..
    0x10001120:   01 28 1f d0 02 28 1d d0 03 28 0c d0 20 79 0c 21    .(...(...(.. y.!
    0x10001130:   48 43 c0 19 81 8d 49 04 49 0c 81 85 01 20 60 71    HC....I.I.... `q
    0x10001140:   33 e0 4a e0 36 e0 2c 4a a1 7a 20 46 90 47 20 79    3.J.6.,J.z F.G y
    0x10001150:   0c 21 48 43 c0 19 81 8d 49 04 49 0c 81 85 01 20    .!HC....I.I.... 
    0x10001160:   60 71 22 e0 08 02 40 1c 81 b2 08 23 23 4f 0a 46    `q"...@....##O.F
    0x10001170:   58 01 b8 47 e1 88 01 80 a1 7a 81 80 01 99 81 70    X..G.....z.....p
    0x10001180:   21 79 81 71 1e 49 88 47 0f e0 00 2a 03 d0 a8 79    !y.q.I.G...*...y
    0x10001190:   01 21 08 43 a8 71 20 79 0c 21 48 43 c0 19 81 8d    .!.C.q y.!HC....
    0x100011a0:   49 04 49 0c 81 85 01 20 60 71 16 4a 21 46 02 98    I.I.... `q.J!F..
    0x100011b0:   90 47 08 e0 0c 20 31 46 41 43 0d 48 08 18 81 8d    .G... 1FAC.H....
    0x100011c0:   49 04 49 0c 81 85 76 1c 76 07 76 0f 06 98 41 1e    I.I...v.v.v...A.
    0x100011d0:   c9 b2 06 91 00 28 00 d0 47 e7 04 98 06 70 07 b0    .....(..G....p..
    0x100011e0:   f0 bd 00 00 5c 6c 00 20 b0 69 00 20 75 9c 00 00    ....\l. .i. u...
    0x100011f0:   80 44 80 50 64 69 00 20 ad 14 01 00 f5 9d 00 00    .D.Pdi. ........
    0x10001200:   31 9e 00 00 a7 3c 00 00 10 b5 19 48 80 7a c0 07    1....<.....H.z..
    0x10001210:   01 d0 00 20 10 bd 17 48 80 47 05 20 00 07 c0 69    ... ...H.G. ...i
    0x10001220:   15 49 00 05 04 d0 08 78 01 28 15 d0 02 28 13 d0    .I.....x.(...(..
    0x10001230:   08 78 00 28 08 d0 01 28 06 d0 02 28 04 d0 0f 48    .x.(...(...(...H
    0x10001240:   80 47 0f 49 32 20 88 47 0e 48 41 68 0d 29 08 d0    .G.I2 .G.HAh.)..
    0x10001250:   40 68 0e 28 05 d0 06 e0 0b 49 04 20 88 47 01 20    @h.(.....I. .G. 
    0x10001260:   10 bd 0a 48 80 47 0a 49 04 20 88 47 00 20 10 bd    ...H.G.I. .G. ..
    0x10001270:   0c 6e 00 20 51 9a 00 00 18 10 00 20 69 61 01 00    .n. Q...... ia..
    0x10001280:   e5 3e 00 00 40 00 80 45 a1 59 01 00 d3 60 01 00    .>..@..E.Y...`..
    0x10001290:   59 59 01 00 41 b2 15 48 00 88 15 4a 90 42 01 d1    YY..A..H...J.B..
    0x100012a0:   41 20 1e e0 13 4a 90 42 01 d1 3c 20 19 e0 12 4a    A ...J.B..< ...J
    0x100012b0:   90 42 01 d1 37 20 14 e0 10 4a 90 42 01 d1 32 20    .B..7 ...J.B..2 
    0x100012c0:   0f e0 0f 4a 90 42 01 d1 2d 20 0a e0 0d 4a 90 42    ...J.B..- ...J.B
    0x100012d0:   01 d1 37 20 05 e0 0c 4a 90 42 01 d1 2f 20 00 e0    ..7 ...J.B../ ..
    0x100012e0:   28 20 40 42 40 18 40 b2 70 47 00 00 50 68 00 20    ( @B@.@.pG..Ph. 
    0x100012f0:   f6 3f 00 00 f6 38 00 00 f6 2d 00 00 f6 09 00 00    .?...8...-......
    0x10001300:   f6 07 00 00 f6 20 00 00 96 20 00 00 70 b5 42 48    ..... ... ..p.BH
    0x10001310:   41 68 0d 29 06 d0 0d 21 41 60 40 49 01 20 88 47    Ah.)...!A`@I. .G
    0x10001320:   3f 48 80 47 43 24 24 06 60 68 01 22 52 03 10 43    ?H.GC$$.`h."R..C
    0x10001330:   60 60 29 20 3b 49 40 06 c1 60 01 6a 09 09 09 01    ``) ;I@..`.j....
    0x10001340:   08 31 01 62 01 68 d3 10 19 43 01 60 36 49 09 78    .1.b.h...C.`6I.x
    0x10001350:   49 00 49 1c 41 61 61 68 34 4e 91 43 30 78 c0 07    I.I.Aaah4N.C0x..
    0x10001360:   c0 0f 42 03 11 43 61 60 31 49 09 78 3c 29 0b d1    ..B..Ca`1I.x<)..
    0x10001370:   62 68 99 01 0a 43 62 60 2e 4b 06 22 da 63 62 68    bh...Cb`.K.".cbh
    0x10001380:   8a 43 01 04 0a 43 62 60 61 68 01 22 12 05 11 43    .C...Cb`ah."...C
    0x10001390:   61 60 28 25 a3 21 c9 05 0d 60 27 4b 1b 88 8b 62    a`(%.!...`'K...b
    0x100013a0:   61 68 00 05 91 43 01 43 61 60 ff f7 41 f8 80 02    ah...C.Ca`..A...
    0x100013b0:   80 0a 29 07 01 43 21 48 81 62 60 68 ff 21 01 31    ..)..C!H.b`h.!.1
    0x100013c0:   08 43 60 60 1e 48 1f 4a 00 78 c3 07 db 0f 53 61    .C``.H.J.x....Sa
    0x100013d0:   c0 06 c0 0f 90 61 1c 48 1c 4a 00 88 90 42 01 d0    .....a.H.J...B..
    0x100013e0:   1b 4a 50 62 1b 48 02 78 1b 48 00 2a 01 d0 01 22    .JPb.H.x.H.*..."
    0x100013f0:   82 60 1a 4a 12 78 00 2a 05 d0 45 62 18 4b 26 22    .`.J.x.*..Eb.K&"
    0x10001400:   1a 61 02 22 c2 62 60 68 88 43 31 78 c9 07 c9 0d    .a.".b`h.C1x....
    0x10001410:   08 43 60 60 70 bd 00 00 40 00 80 45 e5 3e 00 00    .C``p...@..E.>..
    0x10001420:   d3 60 01 00 cc 34 63 04 74 68 00 20 3a 68 00 20    .`...4c.th. :h. 
    0x10001430:   41 68 00 20 00 00 40 52 50 68 00 20 00 01 80 50    Ah. ..@RPh. ...P
    0x10001440:   35 68 00 20 40 04 c0 50 52 68 00 20 ff 0f 00 00    5h. @..PRh. ....
    0x10001450:   80 04 c0 50 39 68 00 20 00 04 c0 50 36 68 00 20    ...P9h. ...P6h. 
    0x10001460:   c0 04 c0 50 ff b5 ff b0 82 b0 05 46 0c 46 00 27    ...P.......F.F.'
    0x10001470:   2d 49 02 20 88 47 2d 48 80 47 2d 48 80 47 2d 48    -I. .G-H.G-H.G-H
    0x10001480:   80 47 2d 48 2d 4b 00 78 2d 4e 00 28 02 d0 01 28    .G-H-K.x-N.(...(
    0x10001490:   08 d0 1e e0 64 1e a7 b2 28 78 b0 61 39 46 68 1c    ....d...(x.a9Fh.
    0x100014a0:   98 47 16 e0 69 46 0c 70 20 0a 48 70 00 22 68 46    .G..iF.p .Hp."hF
    0x100014b0:   00 2c 06 d9 a9 5c 87 18 b9 70 52 1c 92 b2 a2 42    .,...\...pR....B
    0x100014c0:   f8 d3 64 1c a7 b2 69 46 09 78 b1 61 39 46 40 1c    ..d...iF.x.a9F@.
    0x100014d0:   98 47 78 07 40 0f f1 68 09 07 09 0f 81 42 fa d3    .Gx.@..h.....B..
    0x100014e0:   18 49 0a 20 88 47 18 48 80 47 18 48 81 68 89 07    .I. .G.H.G.H.h..
    0x100014f0:   fc d5 70 68 80 07 fc d5 08 20 70 60 00 20 b0 61    ..ph..... p`. .a
    0x10001500:   13 48 80 47 13 48 80 47 83 9a 00 21 84 98 90 47    .H.G.H.G...!...G
    0x10001510:   11 48 00 78 00 28 03 d1 12 4a 10 49 10 48 90 47    .H.x.(...J.I.H.G
    0x10001520:   7f b0 06 b0 f0 bd 00 00 a1 59 01 00 bd 60 01 00    .........Y...`..
    0x10001530:   e9 5f 00 00 ad 2d 00 00 3e 68 00 20 09 43 00 00    ._...-..>h. .C..
    0x10001540:   00 00 c0 52 e5 3e 00 00 09 62 01 00 c0 02 00 50    ...R.>...b.....P
    0x10001550:   9d 2d 00 00 f5 61 01 00 01 10 00 20 ff 03 00 00    .-...a..... ....
    0x10001560:   18 10 00 20 85 42 00 00 bb 00 00 00 b4 12 00 00    ... .B..........
    0x10001570:   f5 36 00 00 b4 02 00 10 cc 00 00 00 20 07 00 00    .6.......... ...
    0x10001580:   ad ef 00 00 d4 24 01 00 4e 56 44 53 01 06 06 ef    .....$..NVDS....
    0x10001590:   bb 23 88 77 66 02 06 0a 4e 5a 38 38 30 31 56 31    .#.wf...NZ8801V1
    0x100015a0:   41 00 03 06 01 00 07 06 02 00 00 0c 06 02 96 00    A...............
    0x100015b0:   08 06 01 00 09 06 01 02 0a 06 04 00 00 00 00 0b    ................
    0x100015c0:   06 01 96 23 06 01 95 0d 06 02 e8 03 0e 06 02 e8    ...#............
    0x100015d0:   03 0f 06 02 2c 01 10 06 04 00 c2 01 00 11 06 01    ....,...........
    0x100015e0:   01 12 06 01 01 13 06 02 90 02 14 06 02 ac 09 15    ................
    0x100015f0:   06 01 09 16 06 01 03 17 06 01 29 18 06 02 dc 05    ..........).....
    0x10001600:   19 06 02 e2 04 20 06 01 01 21 06 01 02 22 06 01    ..... ...!..."..
    0x10001610:   00 24 06 04 5c 09 6a 09 25 06 01 11 26 06 01 00    .$..\.j.%...&...
    0x10001620:   27 06 01 02 2d 06 01 00 28 06 02 f6 2d 29 06 01    '...-...(...-)..
    0x10001630:   0f 35 06 01 08 37 06 01 00 05 06 02 34 00 04 06    .5...7......4...
    0x10001640:   01 20 2e 06 01 00 40 06 02 10 27 00 00 00 00 00    . ....@...'.....
    0x10001650:   dd 00 00 00 c7 00 00 00 2b 11 00 00 88 15 00 10    ........+.......


** Section #3 'SRAM' (SHT_NOBITS) [SHF_ALLOC + SHF_WRITE]
    Size   : 12288 bytes (alignment 8)
    Address: 0x10001660


** Section #4 '.debug_abbrev' (SHT_PROGBITS)
    Size   : 1476 bytes


** Section #5 '.debug_frame' (SHT_PROGBITS)
    Size   : 4520 bytes


** Section #6 '.debug_info' (SHT_PROGBITS)
    Size   : 290580 bytes


** Section #7 '.debug_line' (SHT_PROGBITS)
    Size   : 8116 bytes


** Section #8 '.debug_loc' (SHT_PROGBITS)
    Size   : 3516 bytes


** Section #9 '.debug_macinfo' (SHT_PROGBITS)
    Size   : 230392 bytes


** Section #10 '.debug_pubnames' (SHT_PROGBITS)
    Size   : 1556 bytes


** Section #11 '.symtab' (SHT_SYMTAB)
    Size   : 11904 bytes (alignment 4)
    String table #12 '.strtab'
    Last local symbol no. 497

    Symbol table .symtab (743 symbols, 497 local)

      #  Symbol Name                Value      Bind  Sec  Type  Vis  Size
    ========================================================================

      1  $d                         0x0000c000   Lc    1   --   De 
      2  $t                         0x0000c100   Lc    1   --   De 
      3  $d                         0x0000c130   Lc    1   --   De 
      4  $t                         0x0000c134   Lc    1   --   De 
      5  $d                         0x0000c168   Lc    1   --   De 
      6  $t                         0x0000c170   Lc    1   --   De 
      7  $d                         0x0000c262   Lc    1   --   De 
      8  $t                         0x0000c270   Lc    1   --   De 
      9  $d                         0x0000c388   Lc    1   --   De 
     10  $t                         0x0000c38c   Lc    1   --   De 
     11  $d                         0x0000c394   Lc    1   --   De 
     12  $t                         0x0000c398   Lc    1   --   De 
     13  $d                         0x0000c3e8   Lc    1   --   De 
     14  $t                         0x0000c3f8   Lc    1   --   De 
     15  $d                         0x0000c432   Lc    1   --   De 
     16  $t                         0x0000c43c   Lc    1   --   De 
     17  $d                         0x0000c4ce   Lc    1   --   De 
     18  $t                         0x0000c4dc   Lc    1   --   De 
     19  $d                         0x0000c522   Lc    1   --   De 
     20  $t                         0x0000c52c   Lc    1   --   De 
     21  $d                         0x0000c94e   Lc    1   --   De 
     22  $t                         0x0000c96c   Lc    1   --   De 
     23  $d                         0x0000c9fa   Lc    1   --   De 
     24  $t                         0x0000ca04   Lc    1   --   De 
     25  $d                         0x0000cb36   Lc    1   --   De 
     26  $t                         0x0000cb50   Lc    1   --   De 
     27  $d                         0x0000cbbc   Lc    1   --   De 
     28  $t                         0x0000cbc4   Lc    1   --   De 
     29  $d                         0x0000cc64   Lc    1   --   De 
     30  $t                         0x0000cc7c   Lc    1   --   De 
     31  $d                         0x0000ccbe   Lc    1   --   De 
     32  $t                         0x0000ccd4   Lc    1   --   De 
     33  $d                         0x0000cd28   Lc    1   --   De 
     34  $t                         0x0000cd2c   Lc    1   --   De 
     35  $d                         0x0000cd9a   Lc    1   --   De 
     36  $t                         0x0000cda4   Lc    1   --   De 
     37  $d                         0x0000cdc8   Lc    1   --   De 
     38  $t                         0x0000cdd0   Lc    1   --   De 
     39  $d                         0x0000cde8   Lc    1   --   De 
     40  $t                         0x0000cdec   Lc    1   --   De 
     41  $d                         0x0000d110   Lc    1   --   De 
     42  $t                         0x0000d128   Lc    1   --   De 
     43  $d                         0x0000d3b8   Lc    1   --   De 
     44  $t                         0x0000d3f0   Lc    1   --   De 
     45  $d                         0x0000d52e   Lc    1   --   De 
     46  $t                         0x0000d544   Lc    1   --   De 
     47  $d                         0x0000d618   Lc    1   --   De 
     48  $t                         0x0000d628   Lc    1   --   De 
     49  $d                         0x0000d6fe   Lc    1   --   De 
     50  $t                         0x0000d70c   Lc    1   --   De 
     51  $d                         0x0000d850   Lc    1   --   De 
     52  $t                         0x0000d880   Lc    1   --   De 
     53  $d                         0x0000d8e8   Lc    1   --   De 
     54  $t                         0x0000d8f4   Lc    1   --   De 
     55  $d                         0x0000d9b2   Lc    1   --   De 
     56  $t                         0x0000d9d0   Lc    1   --   De 
     57  $d                         0x0000da66   Lc    1   --   De 
     58  $t                         0x0000da7c   Lc    1   --   De 
     59  $d                         0x0000dab2   Lc    1   --   De 
     60  $t                         0x0000dabc   Lc    1   --   De 
     61  $d                         0x0000dac8   Lc    1   --   De 
     62  $t                         0x0000dada   Lc    1   --   De 
     63  $d                         0x0000dd82   Lc    1   --   De 
     64  $t                         0x0000dd8c   Lc    1   --   De 
     65  $d                         0x0000dda4   Lc    1   --   De 
     66  $t                         0x0000ddae   Lc    1   --   De 
     67  $d                         0x0000de78   Lc    1   --   De 
     68  $t                         0x0000de88   Lc    1   --   De 
     69  $d                         0x0000deb4   Lc    1   --   De 
     70  $t                         0x0000debc   Lc    1   --   De 
     71  $d                         0x0000deda   Lc    1   --   De 
     72  $t                         0x0000dee0   Lc    1   --   De 
     73  $d                         0x0000df36   Lc    1   --   De 
     74  $t                         0x0000df3c   Lc    1   --   De 
     75  $d                         0x0000df40   Lc    1   --   De 
     76  $t                         0x0000df44   Lc    1   --   De 
     77  $d                         0x0000df68   Lc    1   --   De 
     78  $t                         0x0000df6c   Lc    1   --   De 
     79  $d                         0x0000e1b6   Lc    1   --   De 
     80  $t                         0x0000e1ec   Lc    1   --   De 
     81  $d                         0x0000e22a   Lc    1   --   De 
     82  $t                         0x0000e230   Lc    1   --   De 
     83  $d                         0x0000e298   Lc    1   --   De 
     84  $t                         0x0000e2b4   Lc    1   --   De 
     85  $d                         0x0000e3fa   Lc    1   --   De 
     86  $t                         0x0000e41c   Lc    1   --   De 
     87  $d                         0x0000e5f0   Lc    1   --   De 
     88  $t                         0x0000e608   Lc    1   --   De 
     89  $d                         0x0000e6bc   Lc    1   --   De 
     90  $t                         0x0000e6c4   Lc    1   --   De 
     91  $d                         0x0000e72c   Lc    1   --   De 
     92  $t                         0x0000e734   Lc    1   --   De 
     93  $d                         0x0000e8bc   Lc    1   --   De 
     94  $t                         0x0000e8c0   Lc    1   --   De 
     95  $d                         0x0000e94e   Lc    1   --   De 
     96  $t                         0x0000e964   Lc    1   --   De 
     97  $d                         0x0000ebb0   Lc    1   --   De 
     98  $t                         0x0000ebd4   Lc    1   --   De 
     99  $d                         0x0000ec20   Lc    1   --   De 
    100  $t                         0x0000ec28   Lc    1   --   De 
    101  $d                         0x0000ec54   Lc    1   --   De 
    102  $t                         0x0000ec58   Lc    1   --   De 
    103  $d                         0x0000ec88   Lc    1   --   De 
    104  $t                         0x0000ec8c   Lc    1   --   De 
    105  $d                         0x0000edf0   Lc    1   --   De 
    106  $t                         0x0000edf8   Lc    1   --   De 
    107  $d                         0x0000ee30   Lc    1   --   De 
    108  $t                         0x0000ee34   Lc    1   --   De 
    109  $d                         0x0000ef34   Lc    1   --   De 
    110  $t                         0x0000ef38   Lc    1   --   De 
    111  $d                         0x0000f284   Lc    1   --   De 
    112  $t                         0x0000f28c   Lc    1   --   De 
    113  $d                         0x0000f300   Lc    1   --   De 
    114  $t                         0x0000f310   Lc    1   --   De 
    115  $d                         0x0000f34a   Lc    1   --   De 
    116  $t                         0x0000f354   Lc    1   --   De 
    117  $d                         0x0000f43c   Lc    1   --   De 
    118  $t                         0x0000f444   Lc    1   --   De 
    119  $d                         0x0000f50c   Lc    1   --   De 
    120  $t                         0x0000f514   Lc    1   --   De 
    121  $d                         0x0000f54e   Lc    1   --   De 
    122  $t                         0x0000f558   Lc    1   --   De 
    123  $d                         0x0000f618   Lc    1   --   De 
    124  $t                         0x0000f620   Lc    1   --   De 
    125  $d                         0x0000f656   Lc    1   --   De 
    126  $t                         0x0000f664   Lc    1   --   De 
    127  $d                         0x0000f748   Lc    1   --   De 
    128  $t                         0x0000f74c   Lc    1   --   De 
    129  $d                         0x0000f77e   Lc    1   --   De 
    130  $t                         0x0000f788   Lc    1   --   De 
    131  $d                         0x0000f78e   Lc    1   --   De 
    132  $t                         0x0000f794   Lc    1   --   De 
    133  $d                         0x0000fb38   Lc    1   --   De 
    134  $t                         0x0000fb48   Lc    1   --   De 
    135  $d                         0x0000fc1a   Lc    1   --   De 
    136  $t                         0x0000fc20   Lc    1   --   De 
    137  $d                         0x0000fcaa   Lc    1   --   De 
    138  $t                         0x0000fdb0   Lc    1   --   De 
    139  $d                         0x0000ff02   Lc    1   --   De 
    140  $t                         0x0000ff10   Lc    1   --   De 
    141  $d                         0x00010082   Lc    1   --   De 
    142  $t                         0x00010088   Lc    1   --   De 
    143  $d                         0x00010210   Lc    1   --   De 
    144  $t                         0x00010234   Lc    1   --   De 
    145  $d                         0x000103f4   Lc    1   --   De 
    146  $t                         0x000104a0   Lc    1   --   De 
    147  $d                         0x00010674   Lc    1   --   De 
    148  $t                         0x0001067c   Lc    1   --   De 
    149  $d                         0x0001089c   Lc    1   --   De 
    150  $t                         0x000108a0   Lc    1   --   De 
    151  $d                         0x000108f0   Lc    1   --   De 
    152  $t                         0x000108f4   Lc    1   --   De 
    153  $d                         0x00010972   Lc    1   --   De 
    154  $t                         0x00010976   Lc    1   --   De 
    155  $d.realdata                0x000109b4   Lc    1   --   De 
    156  $d.realdata                0x10000000   Lc    2   --   De 
    157  ..\src\uart_ble_bridge.c   0x00000000   Lc  Abs  File  De 
    158  ../src/uart_ble_bridge.c   0x00000000   Lc  Abs  File  De 
    159  i.__NVIC_EnableIRQ         0x0000c39a   Lc    1  Sect  De 
    160  __NVIC_EnableIRQ           0x0000c39b   Lc    1  Code  De   0x22
    161  i.am_uart_isr              0x0000f28c   Lc    1  Sect  De 
    162  i.cmd_handler              0x0000fb48   Lc    1  Sect  De 
    163  cmd_handler                0x0000fb49   Lc    1  Code  De   0x162
    164  i.fix_trans_mode           0x0000fec0   Lc    1  Sect  De 
    165  fix_trans_mode             0x0000fec1   Lc    1  Code  De   0x42
    166  i.hciUartRxIncoming        0x00010088   Lc    1  Sect  De 
    167  i.main                     0x00010234   Lc    1  Sect  De 
    168  .bss                       0x10002660   Lc    3  Sect  De   0x1200
    169  pPktRx                     0x10003660   Lc    3  Data  De   0x200
    170  .constdata                 0x000109b4   Lc    1  Sect  De   0x58
    171  .data                      0x10000000   Lc    2  Sect  De   0x20
    172  stateRx                    0x10000011   Lc    2  Data  De   0x1
    173  pktIndRx                   0x10000012   Lc    2  Data  De   0x1
    174  iRx                        0x10000014   Lc    2  Data  De   0x2
    175  hdrRx                      0x10000016   Lc    2  Data  De   0x4
    176  pDataRx                    0x1000001c   Lc    2  Data  De   0x4
    177  ..\..\..\..\..\utils\am_util_ble.c
                                    0x00000000   Lc  Abs  File  De 
    178  ../../../../../utils/am_util_ble.c
                                    0x00000000   Lc  Abs  File  De 
    179  i.am_util_ble_crystal_trim_set
                                    0x0000f310   Lc    1  Sect  De 
    180  i.am_util_ble_init_rf_channel
                                    0x0000f354   Lc    1  Sect  De 
    181  i.am_util_ble_set_carrier_wave_ex
                                    0x0000f444   Lc    1  Sect  De 
    182  i.am_util_ble_set_constant_transmission
                                    0x0000f514   Lc    1  Sect  De 
    183  i.am_util_ble_set_constant_transmission_ex
                                    0x0000f558   Lc    1  Sect  De 
    184  i.am_util_ble_transmitter_control
                                    0x0000f620   Lc    1  Sect  De 
    185  i.am_util_ble_transmitter_control_ex
                                    0x0000f664   Lc    1  Sect  De 
    186  ..\..\..\..\..\utils\am_util_delay.c
                                    0x00000000   Lc  Abs  File  De 
    187  ../../../../../utils/am_util_delay.c
                                    0x00000000   Lc  Abs  File  De 
    188  i.am_util_delay_ms         0x0000f674   Lc    1  Sect  De 
    189  ..\..\..\..\..\utils\am_util_faultisr.c
                                    0x00000000   Lc  Abs  File  De 
    190  .emb_text                  0x0000c21c   Lc    1  Sect  De   0x22
    191  $v0                        0x0000c21c   Lc    1   --   De 
    192  ../../../../../utils/am_util_faultisr.c
                                    0x00000000   Lc  Abs  File  De 
    193  i.am_util_faultisr_collect_data
                                    0x0000f694   Lc    1  Sect  De 
    194  ../../../../../utils/am_util_stdio.c
                                    0x00000000   Lc  Abs  File  De 
    195  i.am_util_stdio_printf     0x0000f74c   Lc    1  Sect  De 
    196  i.am_util_stdio_printf_init
                                    0x0000f788   Lc    1  Sect  De 
    197  i.am_util_stdio_vsprintf   0x0000f794   Lc    1  Sect  De 
    198  i.decstr_to_int            0x0000fdb0   Lc    1  Sect  De 
    199  decstr_to_int              0x0000fdb1   Lc    1  Code  De   0x42
    200  i.divu64_10                0x0000fdf2   Lc    1  Sect  De 
    201  divu64_10                  0x0000fdf3   Lc    1  Code  De   0xcc
    202  i.ftoa                     0x0000ff10   Lc    1  Sect  De 
    203  ftoa                       0x0000ff11   Lc    1  Code  De   0x172
    204  i.ndigits_in_hex           0x000104a0   Lc    1  Sect  De 
    205  ndigits_in_hex             0x000104a1   Lc    1  Code  De   0x34
    206  i.ndigits_in_i64           0x000104d4   Lc    1  Sect  De 
    207  ndigits_in_i64             0x000104d5   Lc    1  Code  De   0x24
    208  i.ndigits_in_u64           0x000104f8   Lc    1  Sect  De 
    209  ndigits_in_u64             0x000104f9   Lc    1  Code  De   0x3a
    210  i.padbuffer                0x00010532   Lc    1  Sect  De 
    211  padbuffer                  0x00010533   Lc    1  Code  De   0x22
    212  i.simple_strlen            0x0001067c   Lc    1  Sect  De 
    213  simple_strlen              0x0001067d   Lc    1  Code  De   0x18
    214  i.uint64_to_hexstr         0x00010694   Lc    1  Sect  De 
    215  uint64_to_hexstr           0x00010695   Lc    1  Code  De   0x8a
    216  i.uint64_to_str            0x0001071e   Lc    1  Sect  De 
    217  uint64_to_str              0x0001071f   Lc    1  Code  De   0x70
    218  .bss                       0x10003860   Lc    3  Sect  De   0x400
    219  g_prfbuf                   0x10003860   Lc    3  Data  De   0x400
    220  .data                      0x10000020   Lc    2  Sect  De   0x5
    221  g_bTxtXlate                0x10000024   Lc    2  Data  De   0x1
    222  ../keil/startup_keil.s     0x00000000   Lc  Abs  File  De 
    223  STACK                      0x10001660   Lc    3  Sect  De   0x1000
    224  StackMem                   0x10001660   Lc    3  Data  De 
    225  HEAP                       0x10004660   Lc    3  Sect  De 
    226  HeapMem                    0x10004660   Lc    3  Data  De 
    227  RESET                      0x0000c000   Lc    1  Sect  De   0x134
    228  $v0                        0x0000c100   Lc    1   --   De 
    229  .text                      0x0000c258   Lc    1  Sect  De   0x18
    230  $v0                        0x0000c258   Lc    1   --   De 
    231  ..\am_hal_global.c         0x00000000   Lc  Abs  File  De 
    232  ../am_hal_global.c         0x00000000   Lc  Abs  File  De 
    233  .data                      0x10000028   Lc    2  Sect  De   0x4
    234  ..\am_bsp.c                0x00000000   Lc  Abs  File  De 
    235  ../am_bsp.c                0x00000000   Lc  Abs  File  De 
    236  i.am_bsp_itm_printf_enable 0x0000c3bc   Lc    1  Sect  De 
    237  i.am_bsp_low_power_init    0x0000c3f8   Lc    1  Sect  De 
    238  .bss                       0x10003c60   Lc    3  Sect  De   0x400
    239  pui8UartTxBuffer           0x10003c60   Lc    3  Data  De   0x400
    240  .bss                       0x10004060   Lc    3  Sect  De   0x400
    241  pui8UartRxBuffer           0x10004060   Lc    3  Data  De   0x400
    242  .data                      0x1000002c   Lc    2  Sect  De   0x58
    243  g_ui32PrintInterface       0x1000002c   Lc    2  Data  De   0x4
    244  g_sCOMUART                 0x10000030   Lc    2  Data  De   0x4
    245  g_sBspUartBufferedConfig   0x1000005c   Lc    2  Data  De   0x28
    246  ..\am_hal_ble.c            0x00000000   Lc  Abs  File  De 
    247  ../am_hal_ble.c            0x00000000   Lc  Abs  File  De 
    248  i.am_hal_ble_blocking_hci_read
                                    0x0000c43c   Lc    1  Sect  De 
    249  i.am_hal_ble_blocking_hci_write
                                    0x0000c4dc   Lc    1  Sect  De 
    250  i.am_hal_ble_blocking_transfer
                                    0x0000c52c   Lc    1  Sect  De 
    251  i.am_hal_ble_cmd_write     0x0000c96c   Lc    1  Sect  De 
    252  am_hal_ble_cmd_write       0x0000c96d   Lc    1  Code  De   0x8e
    253  i.am_hal_ble_config        0x0000ca04   Lc    1  Sect  De 
    254  i.am_hal_ble_default_copy_patch_apply
                                    0x0000cb50   Lc    1  Sect  De 
    255  i.am_hal_ble_default_patch_apply
                                    0x0000cbc4   Lc    1  Sect  De 
    256  i.am_hal_ble_default_trim_set_ramcode
                                    0x0000cc7c   Lc    1  Sect  De 
    257  i.am_hal_ble_deinitialize  0x0000ccd4   Lc    1  Sect  De 
    258  i.am_hal_ble_initialize    0x0000cd2c   Lc    1  Sect  De 
    259  i.am_hal_ble_int_clear     0x0000cda4   Lc    1  Sect  De 
    260  i.am_hal_ble_int_status    0x0000cdd0   Lc    1  Sect  De 
    261  i.am_hal_ble_patch_apply   0x0000cdec   Lc    1  Sect  De 
    262  i.am_hal_ble_patch_complete
                                    0x0000d128   Lc    1  Sect  De 
    263  i.am_hal_ble_patch_copy_end_apply
                                    0x0000d3f0   Lc    1  Sect  De 
    264  i.am_hal_ble_plf_reg_read  0x0000d544   Lc    1  Sect  De 
    265  i.am_hal_ble_plf_reg_write 0x0000d628   Lc    1  Sect  De 
    266  i.am_hal_ble_power_control 0x0000d70c   Lc    1  Sect  De 
    267  i.am_hal_ble_sleep_set     0x0000d880   Lc    1  Sect  De 
    268  i.am_hal_ble_transmitter_modex_set
                                    0x0000d8f4   Lc    1  Sect  De 
    269  i.am_hal_ble_tx_power_set  0x0000d9d0   Lc    1  Sect  De 
    270  i.am_hal_ble_wakeup_set    0x0000da7c   Lc    1  Sect  De 
    271  .bss                       0x10004460   Lc    3  Sect  De   0xcc
    272  .constdata                 0x00010a0c   Lc    1  Sect  De   0x260
    273  ccitt_table                0x00010a0c   Lc    1  Data  De   0x200
    274  .constdata                 0x00010c6c   Lc    1  Sect  De   0x1c
    275  ..\am_hal_clkgen.c         0x00000000   Lc  Abs  File  De 
    276  ../am_hal_clkgen.c         0x00000000   Lc  Abs  File  De 
    277  i.am_hal_clkgen_control    0x0000dd8c   Lc    1  Sect  De 
    278  i.am_hal_clkgen_status_get 0x0000de88   Lc    1  Sect  De 
    279  ..\am_hal_flash.c          0x00000000   Lc  Abs  File  De 
    280  ../am_hal_flash.c          0x00000000   Lc  Abs  File  De 
    281  i.am_hal_flash_delay       0x0000debc   Lc    1  Sect  De 
    282  i.am_hal_flash_delay_status_check
                                    0x0000dee0   Lc    1  Sect  De 
    283  i.am_hal_flash_load_ui32   0x0000df3c   Lc    1  Sect  De 
    284  i.am_hal_flash_store_ui32  0x0000df44   Lc    1  Sect  De 
    285  .constdata                 0x00010c88   Lc    1  Sect  De   0xc
    286  ..\am_hal_gpio.c           0x00000000   Lc  Abs  File  De 
    287  ../am_hal_gpio.c           0x00000000   Lc  Abs  File  De 
    288  i.am_hal_gpio_pinconfig    0x0000df6c   Lc    1  Sect  De 
    289  i.am_hal_gpio_state_write  0x0000e1ec   Lc    1  Sect  De 
    290  .constdata                 0x00010c94   Lc    1  Sect  De   0x162
    291  g_ui8Inpen                 0x00010c98   Lc    1  Data  De   0x32
    292  g_ui8Bit76Capabilities     0x00010cca   Lc    1  Data  De   0x32
    293  g_ui8nCEpins               0x00010cfc   Lc    1  Data  De   0x32
    294  g_ui8NCEtable              0x00010d2e   Lc    1  Data  De   0xc8
    295  .constdata                 0x00010df8   Lc    1  Sect  De   0x4
    296  ..\am_hal_interrupt.c      0x00000000   Lc  Abs  File  De 
    297  .emb_text                  0x0000c240   Lc    1  Sect  De   0x16
    298  $v0                        0x0000c240   Lc    1   --   De 
    299  ../am_hal_interrupt.c      0x00000000   Lc  Abs  File  De 
    300  ..\am_hal_mcuctrl.c        0x00000000   Lc  Abs  File  De 
    301  ../am_hal_mcuctrl.c        0x00000000   Lc  Abs  File  De 
    302  i.am_hal_mcuctrl_info_get  0x0000e2e4   Lc    1  Sect  De 
    303  .constdata                 0x00010dfc   Lc    1  Sect  De   0x80
    304  ..\am_hal_reset.c          0x00000000   Lc  Abs  File  De 
    305  ../am_hal_reset.c          0x00000000   Lc  Abs  File  De 
    306  i.am_hal_reset_control     0x0000e888   Lc    1  Sect  De 
    307  .data                      0x10000084   Lc    2  Sect  De   0x4
    308  ..\am_hal_uart.c           0x00000000   Lc  Abs  File  De 
    309  ../am_hal_uart.c           0x00000000   Lc  Abs  File  De 
    310  i.am_hal_uart_configure    0x0000e964   Lc    1  Sect  De 
    311  i.am_hal_uart_initialize   0x0000ebd4   Lc    1  Sect  De 
    312  i.am_hal_uart_interrupt_clear
                                    0x0000ec28   Lc    1  Sect  De 
    313  i.am_hal_uart_interrupt_enable
                                    0x0000ec58   Lc    1  Sect  De 
    314  i.am_hal_uart_interrupt_service
                                    0x0000ec8c   Lc    1  Sect  De 
    315  i.am_hal_uart_interrupt_status_get
                                    0x0000edf8   Lc    1  Sect  De 
    316  i.am_hal_uart_power_control
                                    0x0000ee34   Lc    1  Sect  De 
    317  i.am_hal_uart_transfer     0x0000ef38   Lc    1  Sect  De 
    318  i.read_nonblocking         0x00010554   Lc    1  Sect  De 
    319  read_nonblocking           0x00010555   Lc    1  Code  De   0x120
    320  i.write_nonblocking        0x00010790   Lc    1  Sect  De 
    321  write_nonblocking          0x00010791   Lc    1  Code  De   0x10c
    322  .bss                       0x1000452c   Lc    3  Sect  De   0xd0
    323  g_am_hal_uart_states       0x1000452c   Lc    3  Data  De   0xd0
    324  ..\am_bsp_pins.c           0x00000000   Lc  Abs  File  De 
    325  ../am_bsp_pins.c           0x00000000   Lc  Abs  File  De 
    326  .constdata                 0x00010e7c   Lc    1  Sect  De   0x4
    327  ..\am_hal_ble_patch.c      0x00000000   Lc  Abs  File  De 
    328  ../am_hal_ble_patch.c      0x00000000   Lc  Abs  File  De 
    329  .constdata                 0x00010e80   Lc    1  Sect  De   0x4
    330  .constdata                 0x00010e84   Lc    1  Sect  De   0x914
    331  .constdata                 0x00011798   Lc    1  Sect  De   0xd38
    332  .data                      0x10000088   Lc    2  Sect  De   0xc
    333  .data                      0x10000094   Lc    2  Sect  De   0x4
    334  .data                      0x10000098   Lc    2  Sect  De   0x4
    335  .data                      0x1000009c   Lc    2  Sect  De   0x4
    336  .data                      0x100000a0   Lc    2  Sect  De   0x10
    337  .data                      0x100000b0   Lc    2  Sect  De   0x104
    338  .data                      0x100001b4   Lc    2  Sect  De   0x10
    339  .data                      0x100001c4   Lc    2  Sect  De   0x10
    340  .data                      0x100001d4   Lc    2  Sect  De   0xc0
    341  .data                      0x10000294   Lc    2  Sect  De   0x10
    342  ..\am_hal_ble_patch_b0.c   0x00000000   Lc  Abs  File  De 
    343  ../am_hal_ble_patch_b0.c   0x00000000   Lc  Abs  File  De 
    344  .constdata                 0x000124d0   Lc    1  Sect  De   0x4
    345  .constdata                 0x000124d4   Lc    1  Sect  De   0x720
    346  .data                      0x100002a4   Lc    2  Sect  De   0xc
    347  .data                      0x100002b0   Lc    2  Sect  De   0x4
    348  .data                      0x100002b4   Lc    2  Sect  De   0x12b4
    349  .data                      0x10001568   Lc    2  Sect  De   0x10
    350  .data                      0x10001578   Lc    2  Sect  De   0x10
    351  .data                      0x10001588   Lc    2  Sect  De   0xc8
    352  .data                      0x10001650   Lc    2  Sect  De   0x10
    353  ..\am_hal_itm.c            0x00000000   Lc  Abs  File  De 
    354  ../am_hal_itm.c            0x00000000   Lc  Abs  File  De 
    355  i.am_hal_itm_enable        0x0000e26c   Lc    1  Sect  De 
    356  i.am_hal_itm_print         0x0000e2b4   Lc    1  Sect  De 
    357  ..\am_hal_pwrctrl.c        0x00000000   Lc  Abs  File  De 
    358  ../am_hal_pwrctrl.c        0x00000000   Lc  Abs  File  De 
    359  i.am_hal_pwrctrl_low_power_init
                                    0x0000e41c   Lc    1  Sect  De 
    360  i.am_hal_pwrctrl_periph_disable
                                    0x0000e608   Lc    1  Sect  De 
    361  i.am_hal_pwrctrl_periph_enable
                                    0x0000e6c4   Lc    1  Sect  De 
    362  .constdata                 0x00012bf4   Lc    1  Sect  De   0x264
    363  ..\am_hal_queue.c          0x00000000   Lc  Abs  File  De 
    364  ../am_hal_queue.c          0x00000000   Lc  Abs  File  De 
    365  i.am_hal_queue_init        0x0000e734   Lc    1  Sect  De 
    366  i.am_hal_queue_item_add    0x0000e74a   Lc    1  Sect  De 
    367  i.am_hal_queue_item_get    0x0000e7ee   Lc    1  Sect  De 
    368  ..\am_hal_rtc.c            0x00000000   Lc  Abs  File  De 
    369  ../am_hal_rtc.c            0x00000000   Lc  Abs  File  De 
    370  i.am_hal_rtc_osc_disable   0x0000e8c0   Lc    1  Sect  De 
    371  ..\am_hal_tpiu.c           0x00000000   Lc  Abs  File  De 
    372  ../am_hal_tpiu.c           0x00000000   Lc  Abs  File  De 
    373  i.am_hal_tpiu_enable       0x0000e8d4   Lc    1  Sect  De 
    374  ..\am_hal_cachectrl.c      0x00000000   Lc  Abs  File  De 
    375  ../am_hal_cachectrl.c      0x00000000   Lc  Abs  File  De 
    376  i.am_hal_cachectrl_control 0x0000dabc   Lc    1  Sect  De 
    377  dc.s                       0x00000000   Lc  Abs  File  De 
    378  ../clib/longlong.s         0x00000000   Lc  Abs  File  De 
    379  ../clib/longlong.s         0x00000000   Lc  Abs  File  De 
    380  ../clib/memcpset.s         0x00000000   Lc  Abs  File  De 
    381  .text                      0x0000c270   Lc    1  Sect  De   0x64
    382  ../clib/memcpset.s         0x00000000   Lc  Abs  File  De 
    383  .text                      0x0000c2d4   Lc    1  Sect  De   0x4e
    384  ../clib/heapaux.c          0x00000000   Lc  Abs  File  De 
    385  .text                      0x0000c322   Lc    1  Sect  De 
    386  ../clib/angel/startup.s    0x00000000   Lc  Abs  File  De 
    387  !!!main                    0x0000c134   Lc    1  Sect  De   0x8
    388  ../fplib/d2f.s             0x00000000   Lc  Abs  File  De 
    389  x$fpl$d2f                  0x000108a0   Lc    1  Sect  De   0x62
    390  $v0                        0x000108a0   Lc    1   --   De 
    391  ../clib/angel/kernel.s     0x00000000   Lc  Abs  File  De 
    392  .ARM.Collect$$rtentry$$00000000
                                    0x0000c1fc   Lc    1  Sect  De 
    393  ../fplib/dnaninf.s         0x00000000   Lc  Abs  File  De 
    394  x$fpl$dnaninf              0x00010902   Lc    1  Sect  De   0x9c
    395  $v0                        0x00010902   Lc    1   --   De 
    396  ../fplib/fretinf.s         0x00000000   Lc  Abs  File  De 
    397  x$fpl$fretinf              0x000109a8   Lc    1  Sect  De   0xa
    398  $v0                        0x000109a8   Lc    1   --   De 
    399  ../fplib/usenofp.s         0x00000000   Lc  Abs  File  De 
    400  x$fpl$usenofp              0x000109b2   Lc    1  Sect  De 
    401  ../clib/angel/kernel.s     0x00000000   Lc  Abs  File  De 
    402  .ARM.Collect$$rtentry$$00000002
                                    0x0000c1fc   Lc    1  Sect  De 
    403  .ARM.Collect$$rtentry$$00000009
                                    0x0000c202   Lc    1  Sect  De 
    404  .ARM.Collect$$rtentry$$0000000A
                                    0x0000c202   Lc    1  Sect  De   0x4
    405  .ARM.Collect$$rtentry$$0000000C
                                    0x0000c206   Lc    1  Sect  De 
    406  .ARM.Collect$$rtentry$$0000000D
                                    0x0000c206   Lc    1  Sect  De   0x8
    407  ../clib/angel/kernel.s     0x00000000   Lc  Abs  File  De 
    408  .ARM.Collect$$rtentry$$00000004
                                    0x0000c1fc   Lc    1  Sect  De   0x6
    409  ../clib/angel/sys.s        0x00000000   Lc  Abs  File  De 
    410  .text                      0x0000c328   Lc    1  Sect  De   0x4a
    411  ../clib/stdlib.c           0x00000000   Lc  Abs  File  De 
    412  .text                      0x0000c372   Lc    1  Sect  De 
    413  ../clib/angel/boardlib.s   0x00000000   Lc  Abs  File  De 
    414  ../clib/angel/boardlib.s   0x00000000   Lc  Abs  File  De 
    415  ../clib/angel/boardlib.s   0x00000000   Lc  Abs  File  De 
    416  ../clib/libinit.s          0x00000000   Lc  Abs  File  De 
    417  .ARM.Collect$$libinit$$00000000
                                    0x0000c1f0   Lc    1  Sect  De   0x2
    418  ../clib/angel/sys.s        0x00000000   Lc  Abs  File  De 
    419  .text                      0x0000c384   Lc    1  Sect  De   0x8
    420  .bss                       0x100045fc   Lc    3  Sect  De   0x60
    421  ../clib/angel/kernel.s     0x00000000   Lc  Abs  File  De 
    422  .ARM.Collect$$rtexit$$00000000
                                    0x0000c20e   Lc    1  Sect  De   0x2
    423  ../clib/libinit.s          0x00000000   Lc  Abs  File  De 
    424  .ARM.Collect$$libinit$$00000001
                                    0x0000c1f2   Lc    1  Sect  De   0x4
    425  .ARM.Collect$$libinit$$00000004
                                    0x0000c1f6   Lc    1  Sect  De 
    426  .ARM.Collect$$libinit$$0000000A
                                    0x0000c1f6   Lc    1  Sect  De 
    427  .ARM.Collect$$libinit$$0000000C
                                    0x0000c1f6   Lc    1  Sect  De 
    428  .ARM.Collect$$libinit$$0000000E
                                    0x0000c1f6   Lc    1  Sect  De 
    429  .ARM.Collect$$libinit$$00000011
                                    0x0000c1f6   Lc    1  Sect  De 
    430  .ARM.Collect$$libinit$$00000013
                                    0x0000c1f6   Lc    1  Sect  De 
    431  .ARM.Collect$$libinit$$00000015
                                    0x0000c1f6   Lc    1  Sect  De 
    432  .ARM.Collect$$libinit$$00000017
                                    0x0000c1f6   Lc    1  Sect  De 
    433  .ARM.Collect$$libinit$$00000019
                                    0x0000c1f6   Lc    1  Sect  De 
    434  .ARM.Collect$$libinit$$0000001B
                                    0x0000c1f6   Lc    1  Sect  De 
    435  .ARM.Collect$$libinit$$0000001D
                                    0x0000c1f6   Lc    1  Sect  De 
    436  .ARM.Collect$$libinit$$0000001F
                                    0x0000c1f6   Lc    1  Sect  De 
    437  .ARM.Collect$$libinit$$00000021
                                    0x0000c1f6   Lc    1  Sect  De 
    438  .ARM.Collect$$libinit$$00000023
                                    0x0000c1f6   Lc    1  Sect  De 
    439  .ARM.Collect$$libinit$$00000025
                                    0x0000c1f6   Lc    1  Sect  De 
    440  .ARM.Collect$$libinit$$0000002C
                                    0x0000c1f6   Lc    1  Sect  De 
    441  .ARM.Collect$$libinit$$0000002E
                                    0x0000c1f6   Lc    1  Sect  De 
    442  .ARM.Collect$$libinit$$00000030
                                    0x0000c1f6   Lc    1  Sect  De 
    443  .ARM.Collect$$libinit$$00000032
                                    0x0000c1f6   Lc    1  Sect  De 
    444  .ARM.Collect$$libinit$$00000033
                                    0x0000c1f6   Lc    1  Sect  De   0x2
    445  ../clib/angel/kernel.s     0x00000000   Lc  Abs  File  De 
    446  .ARM.Collect$$rtexit$$00000002
                                    0x0000c210   Lc    1  Sect  De 
    447  .ARM.Collect$$rtexit$$00000003
                                    0x0000c210   Lc    1  Sect  De   0x4
    448  .ARM.Collect$$rtexit$$00000004
                                    0x0000c214   Lc    1  Sect  De   0x6
    449  ../clib/armsys.c           0x00000000   Lc  Abs  File  De 
    450  ../clib/armsys.c           0x00000000   Lc  Abs  File  De 
    451  ../fplib/fpinit.s          0x00000000   Lc  Abs  File  De 
    452  x$fpl$fpinit               0x0001099e   Lc    1  Sect  De   0xa
    453  $v0                        0x0001099e   Lc    1   --   De 
    454  ../clib/angel/sysapp.c     0x00000000   Lc  Abs  File  De 
    455  .text                      0x0000c38c   Lc    1  Sect  De 
    456  ../clib/angel/boardlib.s   0x00000000   Lc  Abs  File  De 
    457  ../clib/armsys.c           0x00000000   Lc  Abs  File  De 
    458  ../clib/armsys.c           0x00000000   Lc  Abs  File  De 
    459  ../clib/libinit.s          0x00000000   Lc  Abs  File  De 
    460  .ARM.Collect$$libshutdown$$00000000
                                    0x0000c1f8   Lc    1  Sect  De   0x2
    461  ../clib/angel/sysapp.c     0x00000000   Lc  Abs  File  De 
    462  ../clib/angel/sys.s        0x00000000   Lc  Abs  File  De 
    463  .text                      0x0000c398   Lc    1  Sect  De   0x2
    464  ../clib/angel/sys.s        0x00000000   Lc  Abs  File  De 
    465  .text                      0x0000c39a   Lc    1  Sect  De 
    466  ../clib/heapalloc.c        0x00000000   Lc  Abs  File  De 
    467  ../clib/signal.c           0x00000000   Lc  Abs  File  De 
    468  ../clib/signal.c           0x00000000   Lc  Abs  File  De 
    469  ../clib/libinit.s          0x00000000   Lc  Abs  File  De 
    470  .ARM.Collect$$libshutdown$$00000002
                                    0x0000c1fa   Lc    1  Sect  De 
    471  .ARM.Collect$$libshutdown$$00000004
                                    0x0000c1fa   Lc    1  Sect  De 
    472  .ARM.Collect$$libshutdown$$00000007
                                    0x0000c1fa   Lc    1  Sect  De 
    473  .ARM.Collect$$libshutdown$$0000000A
                                    0x0000c1fa   Lc    1  Sect  De 
    474  .ARM.Collect$$libshutdown$$0000000C
                                    0x0000c1fa   Lc    1  Sect  De 
    475  .ARM.Collect$$libshutdown$$0000000F
                                    0x0000c1fa   Lc    1  Sect  De 
    476  .ARM.Collect$$libshutdown$$00000010
                                    0x0000c1fa   Lc    1  Sect  De   0x2
    477  ../clib/angel/rt.s         0x00000000   Lc  Abs  File  De 
    478  ../clib/signal.c           0x00000000   Lc  Abs  File  De 
    479  ../clib/signal.c           0x00000000   Lc  Abs  File  De 
    480  ../clib/signal.c           0x00000000   Lc  Abs  File  De 
    481  ../clib/signal.c           0x00000000   Lc  Abs  File  De 
    482  ../clib/angel/sysapp.c     0x00000000   Lc  Abs  File  De 
    483  ../clib/signal.s           0x00000000   Lc  Abs  File  De 
    484  ../clib/signal.c           0x00000000   Lc  Abs  File  De 
    485  ../clib/signal.c           0x00000000   Lc  Abs  File  De 
    486  ../clib/signal.c           0x00000000   Lc  Abs  File  De 
    487  ../clib/signal.c           0x00000000   Lc  Abs  File  De 
    488  ../clib/signal.c           0x00000000   Lc  Abs  File  De 
    489  ../clib/signal.c           0x00000000   Lc  Abs  File  De 
    490  ../clib/signal.c           0x00000000   Lc  Abs  File  De 
    491  ../clib/signal.c           0x00000000   Lc  Abs  File  De 
    492  ../clib/angel/dclz77c.s    0x00000000   Lc  Abs  File  De 
    493  !!dclz77c                  0x0000c170   Lc    1  Sect  De   0x64
    494  ../clib/angel/scatter.s    0x00000000   Lc  Abs  File  De 
    495  !!!scatter                 0x0000c13c   Lc    1  Sect  De   0x34
    496  ../clib/angel/handlers.s   0x00000000   Lc  Abs  File  De 
    497  !!handler_zi               0x0000c1d4   Lc    1  Sect  De   0x1c
    498  BuildAttributes$$THM_ISAv4$E$P$D$K$B$S$7EM$VFPi3$EXTD16$VFPS$VFMA$PE$A:L22UL41UL21$X:L11$S22US41US21$IEEE1$IW$USESV6$~STKCKD$USESV7$~SHL$OTIME$ROPI$EBA8$UX$STANDARDLIB$REQ8$PRES8$EABIv2
                                    0x00000000   Gb  Abs   --   Hi 
    499  __ARM_use_no_argv          0x00000000   Gb  Abs   --   Hi 
    500  __Vectors                  0x0000c000   Gb    1  Data  Hi 
    501  __Patchable                0x0000c0c0   Gb    1  Data  Hi 
    502  Reset_Handler              0x0000c101   Wk    1  Code  Hi   0x1c
    503  NMI_Handler                0x0000c11f   Wk    1  Code  Hi   0x2
    504  MemManage_Handler          0x0000c121   Wk    1  Code  Hi   0x2
    505  BusFault_Handler           0x0000c123   Wk    1  Code  Hi   0x2
    506  UsageFault_Handler         0x0000c125   Wk    1  Code  Hi   0x2
    507  SVC_Handler                0x0000c127   Wk    1  Code  Hi   0x2
    508  DebugMon_Handler           0x0000c129   Wk    1  Code  Hi   0x2
    509  PendSV_Handler             0x0000c12b   Wk    1  Code  Hi   0x2
    510  SysTick_Handler            0x0000c12d   Wk    1  Code  Hi   0x2
    511  am_adc_isr                 0x0000c12f   Wk    1  Code  Hi 
    512  am_ble_isr                 0x0000c12f   Wk    1  Code  Hi 
    513  am_brownout_isr            0x0000c12f   Wk    1  Code  Hi 
    514  am_clkgen_isr              0x0000c12f   Wk    1  Code  Hi 
    515  am_ctimer_isr              0x0000c12f   Wk    1  Code  Hi 
    516  am_gpio_isr                0x0000c12f   Wk    1  Code  Hi 
    517  am_iomaster0_isr           0x0000c12f   Wk    1  Code  Hi 
    518  am_iomaster1_isr           0x0000c12f   Wk    1  Code  Hi 
    519  am_iomaster2_isr           0x0000c12f   Wk    1  Code  Hi 
    520  am_iomaster3_isr           0x0000c12f   Wk    1  Code  Hi 
    521  am_iomaster4_isr           0x0000c12f   Wk    1  Code  Hi 
    522  am_iomaster5_isr           0x0000c12f   Wk    1  Code  Hi 
    523  am_ioslave_acc_isr         0x0000c12f   Wk    1  Code  Hi 
    524  am_ioslave_ios_isr         0x0000c12f   Wk    1  Code  Hi 
    525  am_mspi0_isr               0x0000c12f   Wk    1  Code  Hi 
    526  am_pdm0_isr                0x0000c12f   Wk    1  Code  Hi 
    527  am_rtc_isr                 0x0000c12f   Wk    1  Code  Hi 
    528  am_scard_isr               0x0000c12f   Wk    1  Code  Hi 
    529  am_software0_isr           0x0000c12f   Wk    1  Code  Hi 
    530  am_stimer_cmpr0_isr        0x0000c12f   Wk    1  Code  Hi 
    531  am_stimer_cmpr1_isr        0x0000c12f   Wk    1  Code  Hi 
    532  am_stimer_cmpr2_isr        0x0000c12f   Wk    1  Code  Hi 
    533  am_stimer_cmpr3_isr        0x0000c12f   Wk    1  Code  Hi 
    534  am_stimer_cmpr4_isr        0x0000c12f   Wk    1  Code  Hi 
    535  am_stimer_cmpr5_isr        0x0000c12f   Wk    1  Code  Hi 
    536  am_stimer_cmpr6_isr        0x0000c12f   Wk    1  Code  Hi 
    537  am_stimer_cmpr7_isr        0x0000c12f   Wk    1  Code  Hi 
    538  am_stimer_isr              0x0000c12f   Wk    1  Code  Hi 
    539  am_uart0_isr               0x0000c12f   Wk    1  Code  Hi 
    540  am_uart1_isr               0x0000c12f   Wk    1  Code  Hi 
    541  am_vcomp_isr               0x0000c12f   Wk    1  Code  Hi 
    542  am_watchdog_isr            0x0000c12f   Wk    1  Code  Hi 
    543  __main                     0x0000c135   Gb    1  Code  Hi   0x8
    544  __scatterload              0x0000c13d   Gb    1  Code  Hi 
    545  __scatterload_rt2          0x0000c13d   Gb    1  Code  Hi   0x2c
    546  __scatterload_rt2_thumb_only
                                    0x0000c13d   Gb    1  Code  Hi 
    547  __scatterload_null         0x0000c14b   Gb    1  Code  Hi 
    548  __decompress               0x0000c171   Gb    1  Code  Hi   0x64
    549  __decompress2              0x0000c171   Gb    1  Code  Hi 
    550  __scatterload_zeroinit     0x0000c1d5   Gb    1  Code  Hi   0x1c
    551  __rt_lib_init              0x0000c1f1   Gb    1  Code  De 
    552  __rt_lib_init_fp_1         0x0000c1f3   Gb    1  Code  Hi 
    553  __rt_lib_init_alloca_1     0x0000c1f7   Gb    1  Code  Hi 
    554  __rt_lib_init_argv_1       0x0000c1f7   Gb    1  Code  Hi 
    555  __rt_lib_init_atexit_1     0x0000c1f7   Gb    1  Code  Hi 
    556  __rt_lib_init_clock_1      0x0000c1f7   Gb    1  Code  Hi 
    557  __rt_lib_init_cpp_1        0x0000c1f7   Gb    1  Code  Hi 
    558  __rt_lib_init_exceptions_1 0x0000c1f7   Gb    1  Code  Hi 
    559  __rt_lib_init_fp_trap_1    0x0000c1f7   Gb    1  Code  Hi 
    560  __rt_lib_init_getenv_1     0x0000c1f7   Gb    1  Code  Hi 
    561  __rt_lib_init_heap_1       0x0000c1f7   Gb    1  Code  Hi 
    562  __rt_lib_init_lc_collate_1 0x0000c1f7   Gb    1  Code  Hi 
    563  __rt_lib_init_lc_ctype_1   0x0000c1f7   Gb    1  Code  Hi 
    564  __rt_lib_init_lc_monetary_1
                                    0x0000c1f7   Gb    1  Code  Hi 
    565  __rt_lib_init_lc_numeric_1 0x0000c1f7   Gb    1  Code  Hi 
    566  __rt_lib_init_lc_time_1    0x0000c1f7   Gb    1  Code  Hi 
    567  __rt_lib_init_preinit_1    0x0000c1f7   Gb    1  Code  Hi 
    568  __rt_lib_init_rand_1       0x0000c1f7   Gb    1  Code  Hi 
    569  __rt_lib_init_return       0x0000c1f7   Gb    1  Code  Hi 
    570  __rt_lib_init_signal_1     0x0000c1f7   Gb    1  Code  Hi 
    571  __rt_lib_init_stdio_1      0x0000c1f7   Gb    1  Code  Hi 
    572  __rt_lib_init_user_alloc_1 0x0000c1f7   Gb    1  Code  Hi 
    573  __rt_lib_shutdown          0x0000c1f9   Gb    1  Code  De 
    574  __rt_lib_shutdown_cpp_1    0x0000c1fb   Gb    1  Code  Hi 
    575  __rt_lib_shutdown_fp_trap_1
                                    0x0000c1fb   Gb    1  Code  Hi 
    576  __rt_lib_shutdown_heap_1   0x0000c1fb   Gb    1  Code  Hi 
    577  __rt_lib_shutdown_return   0x0000c1fb   Gb    1  Code  Hi 
    578  __rt_lib_shutdown_signal_1 0x0000c1fb   Gb    1  Code  Hi 
    579  __rt_lib_shutdown_stdio_1  0x0000c1fb   Gb    1  Code  Hi 
    580  __rt_lib_shutdown_user_alloc_1
                                    0x0000c1fb   Gb    1  Code  Hi 
    581  __rt_entry                 0x0000c1fd   Gb    1  Code  Hi 
    582  __rt_entry_presh_1         0x0000c1fd   Gb    1  Code  Hi 
    583  __rt_entry_sh              0x0000c1fd   Gb    1  Code  Hi 
    584  __rt_entry_li              0x0000c203   Gb    1  Code  Hi 
    585  __rt_entry_postsh_1        0x0000c203   Gb    1  Code  Hi 
    586  __rt_entry_main            0x0000c207   Gb    1  Code  Hi 
    587  __rt_entry_postli_1        0x0000c207   Gb    1  Code  Hi 
    588  __rt_exit                  0x0000c20f   Gb    1  Code  De 
    589  __rt_exit_ls               0x0000c211   Gb    1  Code  Hi 
    590  __rt_exit_prels_1          0x0000c211   Gb    1  Code  Hi 
    591  __rt_exit_exit             0x0000c215   Gb    1  Code  Hi 
    592  HardFault_Handler          0x0000c21d   Gb    1  Code  Hi   0x1a
    593  getStackedReg              0x0000c237   Gb    1  Code  Hi   0x8
    594  am_hal_interrupt_master_enable
                                    0x0000c241   Gb    1  Code  Hi   0x8
    595  am_hal_interrupt_master_disable
                                    0x0000c249   Gb    1  Code  Hi   0x8
    596  am_hal_interrupt_master_set
                                    0x0000c251   Gb    1  Code  Hi   0x6
    597  __user_initial_stackheap   0x0000c259   Gb    1  Code  Hi   0xa
    598  __aeabi_memcpy4            0x0000c271   Gb    1  Code  Hi 
    599  __aeabi_memcpy8            0x0000c271   Gb    1  Code  De 
    600  __rt_memcpy_w              0x0000c271   Gb    1  Code  De   0x64
    601  _memcpy_lastbytes_aligned  0x0000c2b9   Gb    1  Code  De 
    602  __aeabi_memclr4            0x0000c2d5   Gb    1  Code  Hi 
    603  __aeabi_memclr8            0x0000c2d5   Gb    1  Code  De 
    604  __rt_memclr_w              0x0000c2d5   Gb    1  Code  De   0x4e
    605  _memset_w                  0x0000c2d9   Gb    1  Code  De 
    606  __use_two_region_memory    0x0000c323   Gb    1  Code  Hi   0x2
    607  __rt_heap_escrow$2region   0x0000c325   Gb    1  Code  De   0x2
    608  __rt_heap_expand$2region   0x0000c327   Gb    1  Code  De   0x2
    609  __user_setup_stackheap     0x0000c329   Gb    1  Code  De   0x4a
    610  exit                       0x0000c373   Gb    1  Code  De   0x12
    611  __user_libspace            0x0000c385   Wk    1  Code  De   0x8
    612  __user_perproc_libspace    0x0000c385   Wk    1  Code  De 
    613  __user_perthread_libspace  0x0000c385   Wk    1  Code  De 
    614  _sys_exit                  0x0000c38d   Gb    1  Code  De   0x8
    615  __I$use$semihosting        0x0000c399   Gb    1  Code  Hi 
    616  __use_no_semihosting_swi   0x0000c399   Gb    1  Code  Hi   0x2
    617  __semihosting_library_function
                                    0x0000c39b   Gb    1  Code  Hi 
    618  am_bsp_itm_printf_enable   0x0000c3bd   Gb    1  Code  Hi   0x2c
    619  am_bsp_low_power_init      0x0000c3f9   Gb    1  Code  Hi   0x3a
    620  am_hal_ble_blocking_hci_read
                                    0x0000c43d   Gb    1  Code  Hi   0x92
    621  am_hal_ble_blocking_hci_write
                                    0x0000c4dd   Gb    1  Code  Hi   0x46
    622  am_hal_ble_blocking_transfer
                                    0x0000c52d   Gb    1  Code  Hi   0x440
    623  am_hal_ble_config          0x0000ca05   Gb    1  Code  Hi   0x132
    624  am_hal_ble_default_copy_patch_apply
                                    0x0000cb51   Gb    1  Code  Hi   0x6c
    625  am_hal_ble_default_patch_apply
                                    0x0000cbc5   Gb    1  Code  Hi   0xa0
    626  am_hal_ble_default_trim_set_ramcode
                                    0x0000cc7d   Gb    1  Code  Hi   0x42
    627  am_hal_ble_deinitialize    0x0000ccd5   Gb    1  Code  Hi   0x54
    628  am_hal_ble_initialize      0x0000cd2d   Gb    1  Code  Hi   0x6e
    629  am_hal_ble_int_clear       0x0000cda5   Gb    1  Code  Hi   0x24
    630  am_hal_ble_int_status      0x0000cdd1   Gb    1  Code  Hi   0x18
    631  am_hal_ble_patch_apply     0x0000cded   Gb    1  Code  Hi   0x324
    632  am_hal_ble_patch_complete  0x0000d129   Gb    1  Code  Hi   0x290
    633  am_hal_ble_patch_copy_end_apply
                                    0x0000d3f1   Gb    1  Code  Hi   0x13e
    634  am_hal_ble_plf_reg_read    0x0000d545   Gb    1  Code  Hi   0xd4
    635  am_hal_ble_plf_reg_write   0x0000d629   Gb    1  Code  Hi   0xd6
    636  am_hal_ble_power_control   0x0000d70d   Gb    1  Code  Hi   0x144
    637  am_hal_ble_sleep_set       0x0000d881   Gb    1  Code  Hi   0x68
    638  am_hal_ble_transmitter_modex_set
                                    0x0000d8f5   Gb    1  Code  Hi   0xbe
    639  am_hal_ble_tx_power_set    0x0000d9d1   Gb    1  Code  Hi   0x96
    640  am_hal_ble_wakeup_set      0x0000da7d   Gb    1  Code  Hi   0x36
    641  am_hal_cachectrl_control   0x0000dabd   Gb    1  Code  Hi   0x2c6
    642  am_hal_clkgen_control      0x0000dd8d   Gb    1  Code  Hi   0xec
    643  am_hal_clkgen_status_get   0x0000de89   Gb    1  Code  Hi   0x2c
    644  am_hal_flash_delay         0x0000debd   Gb    1  Code  Hi   0x1e
    645  am_hal_flash_delay_status_check
                                    0x0000dee1   Gb    1  Code  Hi   0x56
    646  am_hal_flash_load_ui32     0x0000df3d   Gb    1  Code  Hi   0x4
    647  am_hal_flash_store_ui32    0x0000df45   Gb    1  Code  Hi   0x24
    648  am_hal_gpio_pinconfig      0x0000df6d   Gb    1  Code  Hi   0x24a
    649  am_hal_gpio_state_write    0x0000e1ed   Gb    1  Code  Hi   0x80
    650  am_hal_itm_enable          0x0000e26d   Gb    1  Code  Hi   0x2c
    651  am_hal_itm_print           0x0000e2b5   Gb    1  Code  Hi   0x30
    652  am_hal_mcuctrl_info_get    0x0000e2e5   Gb    1  Code  Hi   0x116
    653  am_hal_pwrctrl_low_power_init
                                    0x0000e41d   Gb    1  Code  Hi   0x1d4
    654  am_hal_pwrctrl_periph_disable
                                    0x0000e609   Gb    1  Code  Hi   0xb4
    655  am_hal_pwrctrl_periph_enable
                                    0x0000e6c5   Gb    1  Code  Hi   0x68
    656  am_hal_queue_init          0x0000e735   Gb    1  Code  Hi   0x16
    657  am_hal_queue_item_add      0x0000e74b   Gb    1  Code  Hi   0xa4
    658  am_hal_queue_item_get      0x0000e7ef   Gb    1  Code  Hi   0x98
    659  am_hal_reset_control       0x0000e889   Gb    1  Code  Hi   0x34
    660  am_hal_rtc_osc_disable     0x0000e8c1   Gb    1  Code  Hi   0x12
    661  am_hal_tpiu_enable         0x0000e8d5   Gb    1  Code  Hi   0x7a
    662  am_hal_uart_configure      0x0000e965   Gb    1  Code  Hi   0x24c
    663  am_hal_uart_initialize     0x0000ebd5   Gb    1  Code  Hi   0x4c
    664  am_hal_uart_interrupt_clear
                                    0x0000ec29   Gb    1  Code  Hi   0x2c
    665  am_hal_uart_interrupt_enable
                                    0x0000ec59   Gb    1  Code  Hi   0x30
    666  am_hal_uart_interrupt_service
                                    0x0000ec8d   Gb    1  Code  Hi   0x164
    667  am_hal_uart_interrupt_status_get
                                    0x0000edf9   Gb    1  Code  Hi   0x38
    668  am_hal_uart_power_control  0x0000ee35   Gb    1  Code  Hi   0x100
    669  am_hal_uart_transfer       0x0000ef39   Gb    1  Code  Hi   0x34c
    670  am_uart_isr                0x0000f28d   Gb    1  Code  Hi   0x74
    671  am_util_ble_crystal_trim_set
                                    0x0000f311   Gb    1  Code  Hi   0x3a
    672  am_util_ble_init_rf_channel
                                    0x0000f355   Gb    1  Code  Hi   0xe8
    673  am_util_ble_set_carrier_wave_ex
                                    0x0000f445   Gb    1  Code  Hi   0xc8
    674  am_util_ble_set_constant_transmission
                                    0x0000f515   Gb    1  Code  Hi   0x3a
    675  am_util_ble_set_constant_transmission_ex
                                    0x0000f559   Gb    1  Code  Hi   0xc0
    676  am_util_ble_transmitter_control
                                    0x0000f621   Gb    1  Code  Hi   0x36
    677  am_util_ble_transmitter_control_ex
                                    0x0000f665   Gb    1  Code  Hi   0x10
    678  am_util_delay_ms           0x0000f675   Gb    1  Code  Hi   0x20
    679  am_util_faultisr_collect_data
                                    0x0000f695   Gb    1  Code  Hi   0xb4
    680  am_util_stdio_printf       0x0000f74d   Gb    1  Code  Hi   0x32
    681  am_util_stdio_printf_init  0x0000f789   Gb    1  Code  Hi   0x6
    682  am_util_stdio_vsprintf     0x0000f795   Gb    1  Code  Hi   0x3a4
    683  hciUartRxIncoming          0x00010089   Gb    1  Code  Hi   0x188
    684  main                       0x00010235   Gb    1  Code  Hi   0x1c0
    685  __aeabi_d2f                0x000108a1   Gb    1  Code  Hi 
    686  _d2f                       0x000108a1   Gb    1  Code  De   0x62
    687  __fpl_dnaninf              0x00010903   Gb    1  Code  De   0x9c
    688  _fp_init                   0x0001099f   Gb    1  Code  De   0xa
    689  __fplib_config_fpu_vfp     0x000109a7   Gb    1  Code  De 
    690  __fplib_config_pureend_doubles
                                    0x000109a7   Gb    1  Code  De 
    691  __fpl_fretinf              0x000109a9   Gb    1  Code  De   0xa
    692  __I$use$fp                 0x000109b2   Gb    1   --   De 
    693  g_GpioUartTxCfg            0x000109b4   Gb    1  Data  Hi   0x4
    694  g_GpioUartRxCfg            0x000109b8   Gb    1  Data  Hi   0x4
    695  am_hal_ble_default_config  0x00010c6c   Gb    1  Data  Hi   0x1c
    696  g_AM_HAL_GPIO_DISABLE      0x00010c94   Gb    1  Data  Hi   0x4
    697  g_AM_HAL_GPIO_OUTPUT       0x00010df8   Gb    1  Data  Hi   0x4
    698  g_am_hal_mcuctrl_flash_size
                                    0x00010dfc   Gb    1  Data  Hi   0x40
    699  g_am_hal_mcuctrl_sram_size 0x00010e3c   Gb    1  Data  Hi   0x40
    700  g_AM_BSP_GPIO_ITM_SWO      0x00010e7c   Gb    1  Data  Hi   0x4
    701  am_hal_ble_num_default_patches
                                    0x00010e80   Gb    1  Data  Hi   0x4
    702  am_ble_performance_copy_patch_data
                                    0x00010e84   Gb    1  Data  Hi   0x914
    703  am_ble_buffer_patch_data   0x00011798   Gb    1  Data  Hi   0xd38
    704  am_hal_ble_num_default_patches_b0
                                    0x000124d0   Gb    1  Data  Hi   0x4
    705  am_ble_buffer_patch_data_b0
                                    0x000124d4   Gb    1  Data  Hi   0x720
    706  am_hal_pwrctrl_peripheral_control
                                    0x00012bf4   Gb    1  Data  Hi   0xb4
    707  am_hal_pwrctrl_memory_control
                                    0x00012ca8   Gb    1  Data  Hi   0x1b0
    708  Region$$Table$$Base        0x00012e58   Gb    1   --   Hi 
    709  Region$$Table$$Limit       0x00012e78   Gb    1   --   Hi 
    710  g_ui32UARTRxIndex          0x10000000   Gb    2  Data  Hi   0x4
    711  g_bRxTimeoutFlag           0x10000004   Gb    2  Data  Hi   0x1
    712  g_bCmdProcessedFlag        0x10000005   Gb    2  Data  Hi   0x1
    713  g_pvBLEHandle              0x10000008   Gb    2  Data  Hi   0x4
    714  g_pvUART                   0x1000000c   Gb    2  Data  Hi   0x4
    715  carrier_wave_mode          0x10000010   Gb    2  Data  Hi   0x1
    716  g_pfnCharPrint             0x10000020   Gb    2  Data  Hi   0x4
    717  g_ui32HALflags             0x10000028   Gb    2  Data  Hi   0x4
    718  am_bsp_psLEDs              0x10000034   Gb    2  Data  Hi   0x28
    719  gAmHalResetStatus          0x10000084   Gb    2  Data  Hi   0x4
    720  am_hal_ble_default_patch_array
                                    0x10000088   Gb    2  Data  Hi   0xc
    721  am_hal_ble_default_copy_patch_array
                                    0x10000094   Gb    2  Data  Hi   0x4
    722  am_hal_ble_default_patches 0x10000098   Gb    2  Data  Hi   0x4
    723  am_hal_ble_default_copy_patches
                                    0x1000009c   Gb    2  Data  Hi   0x4
    724  am_ble_performance_copy_patch
                                    0x100000a0   Gb    2  Data  Hi   0x10
    725  am_ble_performance_patch_data
                                    0x100000b0   Gb    2  Data  Hi   0x104
    726  am_ble_performance_patch   0x100001b4   Gb    2  Data  Hi   0x10
    727  am_ble_buffer_patch        0x100001c4   Gb    2  Data  Hi   0x10
    728  am_ble_buffer_nvds_data    0x100001d4   Gb    2  Data  Hi   0xc0
    729  am_ble_nvds_patch          0x10000294   Gb    2  Data  Hi   0x10
    730  am_hal_ble_default_patch_array_b0
                                    0x100002a4   Gb    2  Data  Hi   0xc
    731  am_hal_ble_default_patches_b0
                                    0x100002b0   Gb    2  Data  Hi   0x4
    732  am_ble_performance_patch_data_b0
                                    0x100002b4   Gb    2  Data  Hi   0x12b4
    733  am_ble_performance_patch_b0
                                    0x10001568   Gb    2  Data  Hi   0x10
    734  am_ble_buffer_patch_b0     0x10001578   Gb    2  Data  Hi   0x10
    735  am_ble_buffer_nvds_data_b0 0x10001588   Gb    2  Data  Hi   0xc8
    736  am_ble_nvds_patch_b0       0x10001650   Gb    2  Data  Hi   0x10
    737  g_pui8UARTTXBuffer         0x10002660   Gb    3  Data  Hi   0x800
    738  g_psWriteData              0x10002e60   Gb    3  Data  Hi   0x400
    739  g_psReadData               0x10003260   Gb    3  Data  Hi   0x400
    740  g_sBLEState                0x10004460   Gb    3  Data  Hi   0x48
    741  g_psPatchBuffer            0x100044a8   Gb    3  Data  Hi   0x84
    742  __libspace_start           0x100045fc   Gb    3  Data  De   0x60
    743  __temporary_stack_top$libspace
                                    0x1000465c   Gb    3  Data  De 


** Section #12 '.strtab' (SHT_STRTAB)
    Size   : 11020 bytes

            #  Offset String
        ====================================

            1      1: $d
            2      4: $t
            3      7: $d.realdata
            4     19: ..\src\uart_ble_bridge.c
            5     44: ../src/uart_ble_bridge.c
            6     69: i.__NVIC_EnableIRQ
            7     88: __NVIC_EnableIRQ
            8    105: i.am_uart_isr
            9    119: i.cmd_handler
           10    133: cmd_handler
           11    145: i.fix_trans_mode
           12    162: fix_trans_mode
           13    177: i.hciUartRxIncoming
           14    197: i.main
           15    204: .bss
           16    209: pPktRx
           17    216: .constdata
           18    227: .data
           19    233: stateRx
           20    241: pktIndRx
           21    250: iRx
           22    254: hdrRx
           23    260: pDataRx
           24    268: ..\..\..\..\..\utils\am_util_ble.c
           25    303: ../../../../../utils/am_util_ble.c
           26    338: i.am_util_ble_crystal_trim_set
           27    369: i.am_util_ble_init_rf_channel
           28    399: i.am_util_ble_set_carrier_wave_ex
           29    433: i.am_util_ble_set_constant_transmission
           30    473: i.am_util_ble_set_constant_transmission_ex
           31    516: i.am_util_ble_transmitter_control
           32    550: i.am_util_ble_transmitter_control_ex
           33    587: ..\..\..\..\..\utils\am_util_delay.c
           34    624: ../../../../../utils/am_util_delay.c
           35    661: i.am_util_delay_ms
           36    680: ..\..\..\..\..\utils\am_util_faultisr.c
           37    720: .emb_text
           38    730: $v0
           39    734: ../../../../../utils/am_util_faultisr.c
           40    774: i.am_util_faultisr_collect_data
           41    806: ../../../../../utils/am_util_stdio.c
           42    843: i.am_util_stdio_printf
           43    866: i.am_util_stdio_printf_init
           44    894: i.am_util_stdio_vsprintf
           45    919: i.decstr_to_int
           46    935: decstr_to_int
           47    949: i.divu64_10
           48    961: divu64_10
           49    971: i.ftoa
           50    978: ftoa
           51    983: i.ndigits_in_hex
           52   1000: ndigits_in_hex
           53   1015: i.ndigits_in_i64
           54   1032: ndigits_in_i64
           55   1047: i.ndigits_in_u64
           56   1064: ndigits_in_u64
           57   1079: i.padbuffer
           58   1091: padbuffer
           59   1101: i.simple_strlen
           60   1117: simple_strlen
           61   1131: i.uint64_to_hexstr
           62   1150: uint64_to_hexstr
           63   1167: i.uint64_to_str
           64   1183: uint64_to_str
           65   1197: g_prfbuf
           66   1206: g_bTxtXlate
           67   1218: ../keil/startup_keil.s
           68   1241: STACK
           69   1247: StackMem
           70   1256: HEAP
           71   1261: HeapMem
           72   1269: RESET
           73   1275: .text
           74   1281: ..\am_hal_global.c
           75   1300: ../am_hal_global.c
           76   1319: ..\am_bsp.c
           77   1331: ../am_bsp.c
           78   1343: i.am_bsp_itm_printf_enable
           79   1370: i.am_bsp_low_power_init
           80   1394: pui8UartTxBuffer
           81   1411: pui8UartRxBuffer
           82   1428: g_ui32PrintInterface
           83   1449: g_sCOMUART
           84   1460: g_sBspUartBufferedConfig
           85   1485: ..\am_hal_ble.c
           86   1501: ../am_hal_ble.c
           87   1517: i.am_hal_ble_blocking_hci_read
           88   1548: i.am_hal_ble_blocking_hci_write
           89   1580: i.am_hal_ble_blocking_transfer
           90   1611: i.am_hal_ble_cmd_write
           91   1634: am_hal_ble_cmd_write
           92   1655: i.am_hal_ble_config
           93   1675: i.am_hal_ble_default_copy_patch_apply
           94   1713: i.am_hal_ble_default_patch_apply
           95   1746: i.am_hal_ble_default_trim_set_ramcode
           96   1784: i.am_hal_ble_deinitialize
           97   1810: i.am_hal_ble_initialize
           98   1834: i.am_hal_ble_int_clear
           99   1857: i.am_hal_ble_int_status
          100   1881: i.am_hal_ble_patch_apply
          101   1906: i.am_hal_ble_patch_complete
          102   1934: i.am_hal_ble_patch_copy_end_apply
          103   1968: i.am_hal_ble_plf_reg_read
          104   1994: i.am_hal_ble_plf_reg_write
          105   2021: i.am_hal_ble_power_control
          106   2048: i.am_hal_ble_sleep_set
          107   2071: i.am_hal_ble_transmitter_modex_set
          108   2106: i.am_hal_ble_tx_power_set
          109   2132: i.am_hal_ble_wakeup_set
          110   2156: ccitt_table
          111   2168: ..\am_hal_clkgen.c
          112   2187: ../am_hal_clkgen.c
          113   2206: i.am_hal_clkgen_control
          114   2230: i.am_hal_clkgen_status_get
          115   2257: ..\am_hal_flash.c
          116   2275: ../am_hal_flash.c
          117   2293: i.am_hal_flash_delay
          118   2314: i.am_hal_flash_delay_status_check
          119   2348: i.am_hal_flash_load_ui32
          120   2373: i.am_hal_flash_store_ui32
          121   2399: ..\am_hal_gpio.c
          122   2416: ../am_hal_gpio.c
          123   2433: i.am_hal_gpio_pinconfig
          124   2457: i.am_hal_gpio_state_write
          125   2483: g_ui8Inpen
          126   2494: g_ui8Bit76Capabilities
          127   2517: g_ui8nCEpins
          128   2530: g_ui8NCEtable
          129   2544: ..\am_hal_interrupt.c
          130   2566: ../am_hal_interrupt.c
          131   2588: ..\am_hal_mcuctrl.c
          132   2608: ../am_hal_mcuctrl.c
          133   2628: i.am_hal_mcuctrl_info_get
          134   2654: ..\am_hal_reset.c
          135   2672: ../am_hal_reset.c
          136   2690: i.am_hal_reset_control
          137   2713: ..\am_hal_uart.c
          138   2730: ../am_hal_uart.c
          139   2747: i.am_hal_uart_configure
          140   2771: i.am_hal_uart_initialize
          141   2796: i.am_hal_uart_interrupt_clear
          142   2826: i.am_hal_uart_interrupt_enable
          143   2857: i.am_hal_uart_interrupt_service
          144   2889: i.am_hal_uart_interrupt_status_get
          145   2924: i.am_hal_uart_power_control
          146   2952: i.am_hal_uart_transfer
          147   2975: i.read_nonblocking
          148   2994: read_nonblocking
          149   3011: i.write_nonblocking
          150   3031: write_nonblocking
          151   3049: g_am_hal_uart_states
          152   3070: ..\am_bsp_pins.c
          153   3087: ../am_bsp_pins.c
          154   3104: ..\am_hal_ble_patch.c
          155   3126: ../am_hal_ble_patch.c
          156   3148: ..\am_hal_ble_patch_b0.c
          157   3173: ../am_hal_ble_patch_b0.c
          158   3198: ..\am_hal_itm.c
          159   3214: ../am_hal_itm.c
          160   3230: i.am_hal_itm_enable
          161   3250: i.am_hal_itm_print
          162   3269: ..\am_hal_pwrctrl.c
          163   3289: ../am_hal_pwrctrl.c
          164   3309: i.am_hal_pwrctrl_low_power_init
          165   3341: i.am_hal_pwrctrl_periph_disable
          166   3373: i.am_hal_pwrctrl_periph_enable
          167   3404: ..\am_hal_queue.c
          168   3422: ../am_hal_queue.c
          169   3440: i.am_hal_queue_init
          170   3460: i.am_hal_queue_item_add
          171   3484: i.am_hal_queue_item_get
          172   3508: ..\am_hal_rtc.c
          173   3524: ../am_hal_rtc.c
          174   3540: i.am_hal_rtc_osc_disable
          175   3565: ..\am_hal_tpiu.c
          176   3582: ../am_hal_tpiu.c
          177   3599: i.am_hal_tpiu_enable
          178   3620: ..\am_hal_cachectrl.c
          179   3642: ../am_hal_cachectrl.c
          180   3664: i.am_hal_cachectrl_control
          181   3691: dc.s
          182   3696: ../clib/longlong.s
          183   3715: ../clib/memcpset.s
          184   3734: ../clib/heapaux.c
          185   3752: ../clib/angel/startup.s
          186   3776: !!!main
          187   3784: ../fplib/d2f.s
          188   3799: x$fpl$d2f
          189   3809: ../clib/angel/kernel.s
          190   3832: .ARM.Collect$$rtentry$$00000000
          191   3864: ../fplib/dnaninf.s
          192   3883: x$fpl$dnaninf
          193   3897: ../fplib/fretinf.s
          194   3916: x$fpl$fretinf
          195   3930: ../fplib/usenofp.s
          196   3949: x$fpl$usenofp
          197   3963: .ARM.Collect$$rtentry$$00000002
          198   3995: .ARM.Collect$$rtentry$$00000009
          199   4027: .ARM.Collect$$rtentry$$0000000A
          200   4059: .ARM.Collect$$rtentry$$0000000C
          201   4091: .ARM.Collect$$rtentry$$0000000D
          202   4123: .ARM.Collect$$rtentry$$00000004
          203   4155: ../clib/angel/sys.s
          204   4175: ../clib/stdlib.c
          205   4192: ../clib/angel/boardlib.s
          206   4217: ../clib/libinit.s
          207   4235: .ARM.Collect$$libinit$$00000000
          208   4267: .ARM.Collect$$rtexit$$00000000
          209   4298: .ARM.Collect$$libinit$$00000001
          210   4330: .ARM.Collect$$libinit$$00000004
          211   4362: .ARM.Collect$$libinit$$0000000A
          212   4394: .ARM.Collect$$libinit$$0000000C
          213   4426: .ARM.Collect$$libinit$$0000000E
          214   4458: .ARM.Collect$$libinit$$00000011
          215   4490: .ARM.Collect$$libinit$$00000013
          216   4522: .ARM.Collect$$libinit$$00000015
          217   4554: .ARM.Collect$$libinit$$00000017
          218   4586: .ARM.Collect$$libinit$$00000019
          219   4618: .ARM.Collect$$libinit$$0000001B
          220   4650: .ARM.Collect$$libinit$$0000001D
          221   4682: .ARM.Collect$$libinit$$0000001F
          222   4714: .ARM.Collect$$libinit$$00000021
          223   4746: .ARM.Collect$$libinit$$00000023
          224   4778: .ARM.Collect$$libinit$$00000025
          225   4810: .ARM.Collect$$libinit$$0000002C
          226   4842: .ARM.Collect$$libinit$$0000002E
          227   4874: .ARM.Collect$$libinit$$00000030
          228   4906: .ARM.Collect$$libinit$$00000032
          229   4938: .ARM.Collect$$libinit$$00000033
          230   4970: .ARM.Collect$$rtexit$$00000002
          231   5001: .ARM.Collect$$rtexit$$00000003
          232   5032: .ARM.Collect$$rtexit$$00000004
          233   5063: ../clib/armsys.c
          234   5080: ../fplib/fpinit.s
          235   5098: x$fpl$fpinit
          236   5111: ../clib/angel/sysapp.c
          237   5134: .ARM.Collect$$libshutdown$$00000000
          238   5170: ../clib/heapalloc.c
          239   5190: ../clib/signal.c
          240   5207: .ARM.Collect$$libshutdown$$00000002
          241   5243: .ARM.Collect$$libshutdown$$00000004
          242   5279: .ARM.Collect$$libshutdown$$00000007
          243   5315: .ARM.Collect$$libshutdown$$0000000A
          244   5351: .ARM.Collect$$libshutdown$$0000000C
          245   5387: .ARM.Collect$$libshutdown$$0000000F
          246   5423: .ARM.Collect$$libshutdown$$00000010
          247   5459: ../clib/angel/rt.s
          248   5478: ../clib/signal.s
          249   5495: ../clib/angel/dclz77c.s
          250   5519: !!dclz77c
          251   5529: ../clib/angel/scatter.s
          252   5553: !!!scatter
          253   5564: ../clib/angel/handlers.s
          254   5589: !!handler_zi
          255   5602: BuildAttributes$$THM_ISAv4$E$P$D$K$B$S$7EM$VFPi3$EXTD16$VFPS$VFMA$PE$A:L22UL41UL21$X:L11$S22US41US21$IEEE1$IW$USESV6$~STKCKD$USESV7$~SHL$OTIME$ROPI$EBA8$UX$STANDARDLIB$REQ8$PRES8$EABIv2
          256   5788: __ARM_use_no_argv
          257   5806: __Vectors
          258   5816: __Patchable
          259   5828: Reset_Handler
          260   5842: NMI_Handler
          261   5854: MemManage_Handler
          262   5872: BusFault_Handler
          263   5889: UsageFault_Handler
          264   5908: SVC_Handler
          265   5920: DebugMon_Handler
          266   5937: PendSV_Handler
          267   5952: SysTick_Handler
          268   5968: am_adc_isr
          269   5979: am_ble_isr
          270   5990: am_brownout_isr
          271   6006: am_clkgen_isr
          272   6020: am_ctimer_isr
          273   6034: am_gpio_isr
          274   6046: am_iomaster0_isr
          275   6063: am_iomaster1_isr
          276   6080: am_iomaster2_isr
          277   6097: am_iomaster3_isr
          278   6114: am_iomaster4_isr
          279   6131: am_iomaster5_isr
          280   6148: am_ioslave_acc_isr
          281   6167: am_ioslave_ios_isr
          282   6186: am_mspi0_isr
          283   6199: am_pdm0_isr
          284   6211: am_rtc_isr
          285   6222: am_scard_isr
          286   6235: am_software0_isr
          287   6252: am_stimer_cmpr0_isr
          288   6272: am_stimer_cmpr1_isr
          289   6292: am_stimer_cmpr2_isr
          290   6312: am_stimer_cmpr3_isr
          291   6332: am_stimer_cmpr4_isr
          292   6352: am_stimer_cmpr5_isr
          293   6372: am_stimer_cmpr6_isr
          294   6392: am_stimer_cmpr7_isr
          295   6412: am_stimer_isr
          296   6426: am_uart0_isr
          297   6439: am_uart1_isr
          298   6452: am_vcomp_isr
          299   6465: am_watchdog_isr
          300   6481: __main
          301   6488: __scatterload
          302   6502: __scatterload_rt2
          303   6520: __scatterload_rt2_thumb_only
          304   6549: __scatterload_null
          305   6568: __decompress
          306   6581: __decompress2
          307   6595: __scatterload_zeroinit
          308   6618: __rt_lib_init
          309   6632: __rt_lib_init_fp_1
          310   6651: __rt_lib_init_alloca_1
          311   6674: __rt_lib_init_argv_1
          312   6695: __rt_lib_init_atexit_1
          313   6718: __rt_lib_init_clock_1
          314   6740: __rt_lib_init_cpp_1
          315   6760: __rt_lib_init_exceptions_1
          316   6787: __rt_lib_init_fp_trap_1
          317   6811: __rt_lib_init_getenv_1
          318   6834: __rt_lib_init_heap_1
          319   6855: __rt_lib_init_lc_collate_1
          320   6882: __rt_lib_init_lc_ctype_1
          321   6907: __rt_lib_init_lc_monetary_1
          322   6935: __rt_lib_init_lc_numeric_1
          323   6962: __rt_lib_init_lc_time_1
          324   6986: __rt_lib_init_preinit_1
          325   7010: __rt_lib_init_rand_1
          326   7031: __rt_lib_init_return
          327   7052: __rt_lib_init_signal_1
          328   7075: __rt_lib_init_stdio_1
          329   7097: __rt_lib_init_user_alloc_1
          330   7124: __rt_lib_shutdown
          331   7142: __rt_lib_shutdown_cpp_1
          332   7166: __rt_lib_shutdown_fp_trap_1
          333   7194: __rt_lib_shutdown_heap_1
          334   7219: __rt_lib_shutdown_return
          335   7244: __rt_lib_shutdown_signal_1
          336   7271: __rt_lib_shutdown_stdio_1
          337   7297: __rt_lib_shutdown_user_alloc_1
          338   7328: __rt_entry
          339   7339: __rt_entry_presh_1
          340   7358: __rt_entry_sh
          341   7372: __rt_entry_li
          342   7386: __rt_entry_postsh_1
          343   7406: __rt_entry_main
          344   7422: __rt_entry_postli_1
          345   7442: __rt_exit
          346   7452: __rt_exit_ls
          347   7465: __rt_exit_prels_1
          348   7483: __rt_exit_exit
          349   7498: HardFault_Handler
          350   7516: getStackedReg
          351   7530: am_hal_interrupt_master_enable
          352   7561: am_hal_interrupt_master_disable
          353   7593: am_hal_interrupt_master_set
          354   7621: __user_initial_stackheap
          355   7646: __aeabi_memcpy4
          356   7662: __aeabi_memcpy8
          357   7678: __rt_memcpy_w
          358   7692: _memcpy_lastbytes_aligned
          359   7718: __aeabi_memclr4
          360   7734: __aeabi_memclr8
          361   7750: __rt_memclr_w
          362   7764: _memset_w
          363   7774: __use_two_region_memory
          364   7798: __rt_heap_escrow$2region
          365   7823: __rt_heap_expand$2region
          366   7848: __user_setup_stackheap
          367   7871: exit
          368   7876: __user_libspace
          369   7892: __user_perproc_libspace
          370   7916: __user_perthread_libspace
          371   7942: _sys_exit
          372   7952: __I$use$semihosting
          373   7972: __use_no_semihosting_swi
          374   7997: __semihosting_library_function
          375   8028: am_bsp_itm_printf_enable
          376   8053: am_bsp_low_power_init
          377   8075: am_hal_ble_blocking_hci_read
          378   8104: am_hal_ble_blocking_hci_write
          379   8134: am_hal_ble_blocking_transfer
          380   8163: am_hal_ble_config
          381   8181: am_hal_ble_default_copy_patch_apply
          382   8217: am_hal_ble_default_patch_apply
          383   8248: am_hal_ble_default_trim_set_ramcode
          384   8284: am_hal_ble_deinitialize
          385   8308: am_hal_ble_initialize
          386   8330: am_hal_ble_int_clear
          387   8351: am_hal_ble_int_status
          388   8373: am_hal_ble_patch_apply
          389   8396: am_hal_ble_patch_complete
          390   8422: am_hal_ble_patch_copy_end_apply
          391   8454: am_hal_ble_plf_reg_read
          392   8478: am_hal_ble_plf_reg_write
          393   8503: am_hal_ble_power_control
          394   8528: am_hal_ble_sleep_set
          395   8549: am_hal_ble_transmitter_modex_set
          396   8582: am_hal_ble_tx_power_set
          397   8606: am_hal_ble_wakeup_set
          398   8628: am_hal_cachectrl_control
          399   8653: am_hal_clkgen_control
          400   8675: am_hal_clkgen_status_get
          401   8700: am_hal_flash_delay
          402   8719: am_hal_flash_delay_status_check
          403   8751: am_hal_flash_load_ui32
          404   8774: am_hal_flash_store_ui32
          405   8798: am_hal_gpio_pinconfig
          406   8820: am_hal_gpio_state_write
          407   8844: am_hal_itm_enable
          408   8862: am_hal_itm_print
          409   8879: am_hal_mcuctrl_info_get
          410   8903: am_hal_pwrctrl_low_power_init
          411   8933: am_hal_pwrctrl_periph_disable
          412   8963: am_hal_pwrctrl_periph_enable
          413   8992: am_hal_queue_init
          414   9010: am_hal_queue_item_add
          415   9032: am_hal_queue_item_get
          416   9054: am_hal_reset_control
          417   9075: am_hal_rtc_osc_disable
          418   9098: am_hal_tpiu_enable
          419   9117: am_hal_uart_configure
          420   9139: am_hal_uart_initialize
          421   9162: am_hal_uart_interrupt_clear
          422   9190: am_hal_uart_interrupt_enable
          423   9219: am_hal_uart_interrupt_service
          424   9249: am_hal_uart_interrupt_status_get
          425   9282: am_hal_uart_power_control
          426   9308: am_hal_uart_transfer
          427   9329: am_uart_isr
          428   9341: am_util_ble_crystal_trim_set
          429   9370: am_util_ble_init_rf_channel
          430   9398: am_util_ble_set_carrier_wave_ex
          431   9430: am_util_ble_set_constant_transmission
          432   9468: am_util_ble_set_constant_transmission_ex
          433   9509: am_util_ble_transmitter_control
          434   9541: am_util_ble_transmitter_control_ex
          435   9576: am_util_delay_ms
          436   9593: am_util_faultisr_collect_data
          437   9623: am_util_stdio_printf
          438   9644: am_util_stdio_printf_init
          439   9670: am_util_stdio_vsprintf
          440   9693: hciUartRxIncoming
          441   9711: main
          442   9716: __aeabi_d2f
          443   9728: _d2f
          444   9733: __fpl_dnaninf
          445   9747: _fp_init
          446   9756: __fplib_config_fpu_vfp
          447   9779: __fplib_config_pureend_doubles
          448   9810: __fpl_fretinf
          449   9824: __I$use$fp
          450   9835: g_GpioUartTxCfg
          451   9851: g_GpioUartRxCfg
          452   9867: am_hal_ble_default_config
          453   9893: g_AM_HAL_GPIO_DISABLE
          454   9915: g_AM_HAL_GPIO_OUTPUT
          455   9936: g_am_hal_mcuctrl_flash_size
          456   9964: g_am_hal_mcuctrl_sram_size
          457   9991: g_AM_BSP_GPIO_ITM_SWO
          458  10013: am_hal_ble_num_default_patches
          459  10044: am_ble_performance_copy_patch_data
          460  10079: am_ble_buffer_patch_data
          461  10104: am_hal_ble_num_default_patches_b0
          462  10138: am_ble_buffer_patch_data_b0
          463  10166: am_hal_pwrctrl_peripheral_control
          464  10200: am_hal_pwrctrl_memory_control
          465  10230: Region$$Table$$Base
          466  10250: Region$$Table$$Limit
          467  10271: g_ui32UARTRxIndex
          468  10289: g_bRxTimeoutFlag
          469  10306: g_bCmdProcessedFlag
          470  10326: g_pvBLEHandle
          471  10340: g_pvUART
          472  10349: carrier_wave_mode
          473  10367: g_pfnCharPrint
          474  10382: g_ui32HALflags
          475  10397: am_bsp_psLEDs
          476  10411: gAmHalResetStatus
          477  10429: am_hal_ble_default_patch_array
          478  10460: am_hal_ble_default_copy_patch_array
          479  10496: am_hal_ble_default_patches
          480  10523: am_hal_ble_default_copy_patches
          481  10555: am_ble_performance_copy_patch
          482  10585: am_ble_performance_patch_data
          483  10615: am_ble_performance_patch
          484  10640: am_ble_buffer_patch
          485  10660: am_ble_buffer_nvds_data
          486  10684: am_ble_nvds_patch
          487  10702: am_hal_ble_default_patch_array_b0
          488  10736: am_hal_ble_default_patches_b0
          489  10766: am_ble_performance_patch_data_b0
          490  10799: am_ble_performance_patch_b0
          491  10827: am_ble_buffer_patch_b0
          492  10850: am_ble_buffer_nvds_data_b0
          493  10877: am_ble_nvds_patch_b0
          494  10898: g_pui8UARTTXBuffer
          495  10917: g_psWriteData
          496  10931: g_psReadData
          497  10944: g_sBLEState
          498  10956: g_psPatchBuffer
          499  10972: __libspace_start
          500  10989: __temporary_stack_top$libspace


** Section #13 '.note' (SHT_NOTE)
    Size   : 28 bytes (alignment 4)


** Section #14 '.comment' (SHT_PROGBITS)
    Size   : 27892 bytes


** Section #15 '.shstrtab' (SHT_STRTAB)
    Size   : 148 bytes

            #  Offset String
        ====================================

            1      1: FLASH
            2      7: SRAM
            3     12: .debug_abbrev
            4     26: .debug_frame
            5     39: .debug_info
            6     51: .debug_line
            7     63: .debug_loc
            8     74: .debug_macinfo
            9     89: .debug_pubnames
           10    105: .symtab
           11    113: .strtab
           12    121: .note
           13    127: .comment
           14    136: .shstrtab
           15    146: 
           16    147: 


